ccopy_reg
_reconstructor
p0
(cpandas.core.frame
DataFrame
p1
c__builtin__
object
p2
Ntp3
Rp4
(dp5
S'_metadata'
p6
(lp7
sS'_typ'
p8
S'dataframe'
p9
sS'_data'
p10
g0
(cpandas.core.internals
BlockManager
p11
g2
Ntp12
Rp13
((lp14
cpandas.core.indexes.base
_new_Index
p15
(cpandas.core.indexes.base
Index
p16
(dp17
S'data'
p18
cnumpy.core.multiarray
_reconstruct
p19
(cnumpy
ndarray
p20
(I0
tp21
S'b'
p22
tp23
Rp24
(I1
(I34
tp25
cnumpy
dtype
p26
(S'O8'
p27
I0
I1
tp28
Rp29
(I3
S'|'
p30
NNNI-1
I-1
I63
tp31
bI00
(lp32
S'year'
p33
aS'type'
p34
aS'procOriginal'
p35
aS'proc'
p36
aS'proc_s0'
p37
aS'cat'
p38
aS'inputWSFile'
p39
aS'nominalDataName'
p40
aS'modelWSFile'
p41
aS'model'
p42
aS'rate'
p43
aS'nominal_yield'
p44
aS'sumw2'
p45
aS'nominal_yield_COWCorr'
p46
aS'LooseMvaSF_up_yield'
p47
aS'LooseMvaSF_down_yield'
p48
aS'PreselSF_up_yield'
p49
aS'PreselSF_down_yield'
p50
aS'electronVetoSF_up_yield'
p51
aS'electronVetoSF_down_yield'
p52
aS'TriggerWeight_up_yield'
p53
aS'TriggerWeight_down_yield'
p54
aS'SigmaEOverEShift_up_yield'
p55
aS'SigmaEOverEShift_down_yield'
p56
aS'MvaShift_up_yield'
p57
aS'MvaShift_down_yield'
p58
aS'PUJIDShift_up_yield'
p59
aS'PUJIDShift_down_yield'
p60
aS'JEC_up_yield'
p61
aS'JEC_down_yield'
p62
aS'JER_up_yield'
p63
aS'JER_down_yield'
p64
aS'JetHEM_up_yield'
p65
aS'JetHEM_down_yield'
p66
atp67
bsS'name'
p68
Nstp69
Rp70
ag15
(cpandas.core.indexes.numeric
Int64Index
p71
(dp72
g18
g19
(g20
(I0
tp73
g22
tp74
Rp75
(I1
(I15
tp76
g26
(S'i8'
p77
I0
I1
tp78
Rp79
(I3
S'<'
p80
NNNI-1
I-1
I0
tp81
bI00
S'\x00\x00\x00\x00\x00\x00\x00\x00\x01\x00\x00\x00\x00\x00\x00\x00\x02\x00\x00\x00\x00\x00\x00\x00\x03\x00\x00\x00\x00\x00\x00\x00\x04\x00\x00\x00\x00\x00\x00\x00\x05\x00\x00\x00\x00\x00\x00\x00\x06\x00\x00\x00\x00\x00\x00\x00\x07\x00\x00\x00\x00\x00\x00\x00\x08\x00\x00\x00\x00\x00\x00\x00\t\x00\x00\x00\x00\x00\x00\x00\n\x00\x00\x00\x00\x00\x00\x00\x0b\x00\x00\x00\x00\x00\x00\x00\x0c\x00\x00\x00\x00\x00\x00\x00\r\x00\x00\x00\x00\x00\x00\x00\x0e\x00\x00\x00\x00\x00\x00\x00'
p82
tp83
bsg68
Nstp84
Rp85
a(lp86
g19
(g20
(I0
tp87
g22
tp88
Rp89
(I1
(I1
I15
tp90
g26
(S'f8'
p91
I0
I1
tp92
Rp93
(I3
S'<'
p94
NNNI-1
I-1
I0
tp95
bI00
S'\x00\x00\x00\x00\xc0\xfa\xec@\x00\x00\x00\x00\xc0\xfa\xec@\x00\x00\x00\x00\xc0\xfa\xec@\x00\x00\x00\x00\xc0\xfa\xec@\x00\x00\x00\x00\xc0\xfa\xec@\x00\x00\x00\x00\xc0\xfa\xec@\x00\x00\x00\x00\xc0\xfa\xec@\x00\x00\x00\x00\xc0\xfa\xec@\x00\x00\x00\x00\xc0\xfa\xec@\x00\x00\x00\x00\xc0\xfa\xec@\x00\x00\x00\x00\xc0\xfa\xec@\x00\x00\x00\x00\xc0\xfa\xec@\x00\x00\x00\x00\xc0\xfa\xec@\x00\x00\x00\x00\x00\x00\xf0?\x00\x00\x00\x00\x00\x00\xf0\xbf'
p96
tp97
bag19
(g20
(I0
tp98
g22
tp99
Rp100
(I1
(I33
I15
tp101
g29
I00
(lp102
S'2018'
p103
ag103
ag103
ag103
ag103
ag103
ag103
ag103
ag103
ag103
ag103
ag103
ag103
ag33
ag33
aS'sig'
p104
ag104
ag104
ag104
ag104
ag104
ag104
ag104
ag104
ag104
ag104
ag104
ag104
aS'bkg'
p105
ag18
aS'GG2HMf05ph0'
p106
aS'GG2HbsmM'
p107
aS'GG2Hsm'
p108
aS'TTHsm'
p109
aS'VBFMf05ph0'
p110
aS'VBFbsmM'
p111
aS'VBFsm'
p112
aS'WHMf05ph0'
p113
aS'WHbsmM'
p114
aS'WHsm'
p115
aS'ZHMf05ph0'
p116
aS'ZHbsmM'
p117
aS'ZHsm'
p118
aS'bkg_mass'
p119
aS'data_obs'
p120
aS'GG2HMf05ph0_2018_hgg'
p121
aS'GG2HbsmM_2018_hgg'
p122
aS'GG2Hsm_2018_hgg'
p123
aS'tth0P_2018_hgg'
p124
aS'vbf0Mf05ph0_2018_hgg'
p125
aS'vbf0M_2018_hgg'
p126
aS'vbf0P_2018_hgg'
p127
aS'wh0Mf05ph0_2018_hgg'
p128
aS'wh0M_2018_hgg'
p129
aS'wh0P_2018_hgg'
p130
aS'zh0Mf05ph0_2018_hgg'
p131
aS'zh0M_2018_hgg'
p132
aS'zh0P_2018_hgg'
p133
ag119
ag120
aS'jjh0Mf05ph0'
p134
aS'jjh0M'
p135
aS'jjh0P'
p136
aS'tth0P'
p137
aS'vbf0Mf05ph0'
p138
aS'vbf0M'
p139
aS'vbf0P'
p140
aS'wh0Mf05ph0'
p141
aS'wh0M'
p142
aS'wh0P'
p143
aS'zh0Mf05ph0'
p144
aS'zh0M'
p145
aS'zh0P'
p146
aS'-'
p147
ag147
aS'AC_Bin19_2018'
p148
aS'AC_Bin19_2018'
p149
aS'AC_Bin19_2018'
p150
aS'AC_Bin19_2018'
p151
aS'AC_Bin19_2018'
p152
aS'AC_Bin19_2018'
p153
aS'AC_Bin19_2018'
p154
aS'AC_Bin19_2018'
p155
aS'AC_Bin19_2018'
p156
aS'AC_Bin19_2018'
p157
aS'AC_Bin19_2018'
p158
aS'AC_Bin19_2018'
p159
aS'AC_Bin19_2018'
p160
aS'AC_Bin19_2018'
p161
ag161
aS'Trees/Opt_2018/2018/Trees2WS_2018/WS/output_GluGluHToGGPlusTwoJets_MM_M125_TuneCP5_13TeV-amcatnlopowheg-minlo-pythia8_GG2HMf05ph0.root'
p162
aS'Trees/Opt_2018/2018/Trees2WS_2018/WS/output_GluGluHToGGPlusTwoJets_CPodd_M125_TuneCP5_13TeV-amcatnlopowheg-minlo-pythia8_GG2HbsmM.root'
p163
aS'Trees/Opt_2018/2018/Trees2WS_2018/WS/output_GluGluHToGGPlusTwoJets_SM_M125_TuneCP5_13TeV-amcatnlopowheg-minlo-pythia8_GG2Hsm.root'
p164
aS'Trees/Opt_2018/2018/Trees2WS_2018/WS/output_ttHJetToGG_M125_TuneCP5_13TeV-amcatnloFXFX-madspin-pythia8_TTHsm.root'
p165
aS'Trees/Opt_2018/2018/Trees2WS_2018/WS/output_VBFHiggs0Mf05ph0ToGG_M125_TuneCP5_13TeV-JHUGenV7011-pythia8_VBFMf05ph0.root'
p166
aS'Trees/Opt_2018/2018/Trees2WS_2018/WS/output_VBFHiggs0MToGG_M125_TuneCP5_13TeV-JHUGenV7011-pythia8_VBFbsmM.root'
p167
aS'Trees/Opt_2018/2018/Trees2WS_2018/WS/output_VBFHToGG_M125_TuneCP5_13TeV-amcatnlo-pythia8_VBFsm.root'
p168
aS'Trees/Opt_2018/2018/Trees2WS_2018/WS/output_WHiggs0Mf05ph0ToGG_M125_TuneCP5_13TeV-JHUGenV7011-pythia8_WHMf05ph0.root'
p169
aS'Trees/Opt_2018/2018/Trees2WS_2018/WS/output_WHiggs0MToGG_M125_TuneCP5_13TeV-JHUGenV7011-pythia8_WHbsmM.root'
p170
aS'Trees/Opt_2018/2018/Trees2WS_2018/WS/output_WHiggs0PMToGG_M125_TuneCP5_13TeV-JHUGenV7011-pythia8_WHsm.root'
p171
aS'Trees/Opt_2018/2018/Trees2WS_2018/WS/output_ZHiggs0Mf05ph0ToGG_M125_TuneCP5_13TeV-JHUGenV7011-pythia8_ZHMf05ph0.root'
p172
aS'Trees/Opt_2018/2018/Trees2WS_2018/WS/output_ZHiggs0MToGG_M125_TuneCP5_13TeV-JHUGenV7011-pythia8_ZHbsmM.root'
p173
aS'Trees/Opt_2018/2018/Trees2WS_2018/WS/output_ZH_HToGG_ZToAll_M125_TuneCP5_13TeV-powheg-pythia8_ZHsm.root'
p174
ag147
ag147
aS'jjh0Mf05ph0_125_13TeV_AC_Bin19'
p175
aS'jjh0M_125_13TeV_AC_Bin19'
p176
aS'jjh0P_125_13TeV_AC_Bin19'
p177
aS'tth0P_125_13TeV_AC_Bin19'
p178
aS'vbf0Mf05ph0_125_13TeV_AC_Bin19'
p179
aS'vbf0M_125_13TeV_AC_Bin19'
p180
aS'vbf0P_125_13TeV_AC_Bin19'
p181
aS'wh0Mf05ph0_125_13TeV_AC_Bin19'
p182
aS'wh0M_125_13TeV_AC_Bin19'
p183
aS'wh0P_125_13TeV_AC_Bin19'
p184
aS'zh0Mf05ph0_125_13TeV_AC_Bin19'
p185
aS'zh0M_125_13TeV_AC_Bin19'
p186
aS'zh0P_125_13TeV_AC_Bin19'
p187
ag147
ag147
aS'./Models/signal/CMS-HGG_sigfit_packaged_AC_Bin19_2018.root'
p188
aS'./Models/signal/CMS-HGG_sigfit_packaged_AC_Bin19_2018.root'
p189
aS'./Models/signal/CMS-HGG_sigfit_packaged_AC_Bin19_2018.root'
p190
aS'./Models/signal/CMS-HGG_sigfit_packaged_AC_Bin19_2018.root'
p191
aS'./Models/signal/CMS-HGG_sigfit_packaged_AC_Bin19_2018.root'
p192
aS'./Models/signal/CMS-HGG_sigfit_packaged_AC_Bin19_2018.root'
p193
aS'./Models/signal/CMS-HGG_sigfit_packaged_AC_Bin19_2018.root'
p194
aS'./Models/signal/CMS-HGG_sigfit_packaged_AC_Bin19_2018.root'
p195
aS'./Models/signal/CMS-HGG_sigfit_packaged_AC_Bin19_2018.root'
p196
aS'./Models/signal/CMS-HGG_sigfit_packaged_AC_Bin19_2018.root'
p197
aS'./Models/signal/CMS-HGG_sigfit_packaged_AC_Bin19_2018.root'
p198
aS'./Models/signal/CMS-HGG_sigfit_packaged_AC_Bin19_2018.root'
p199
aS'./Models/signal/CMS-HGG_sigfit_packaged_AC_Bin19_2018.root'
p200
aS'./Models/background/CMS-HGG_multipdf_AC_Bin19_2018.root'
p201
ag201
aS'wsig_13TeV:hggpdfsmrel_GG2HMf05ph0_2018_AC_Bin19_13TeV'
p202
aS'wsig_13TeV:hggpdfsmrel_GG2HbsmM_2018_AC_Bin19_13TeV'
p203
aS'wsig_13TeV:hggpdfsmrel_GG2Hsm_2018_AC_Bin19_13TeV'
p204
aS'wsig_13TeV:hggpdfsmrel_TTHsm_2018_AC_Bin19_13TeV'
p205
aS'wsig_13TeV:hggpdfsmrel_VBFMf05ph0_2018_AC_Bin19_13TeV'
p206
aS'wsig_13TeV:hggpdfsmrel_VBFbsmM_2018_AC_Bin19_13TeV'
p207
aS'wsig_13TeV:hggpdfsmrel_VBFsm_2018_AC_Bin19_13TeV'
p208
aS'wsig_13TeV:hggpdfsmrel_WHMf05ph0_2018_AC_Bin19_13TeV'
p209
aS'wsig_13TeV:hggpdfsmrel_WHbsmM_2018_AC_Bin19_13TeV'
p210
aS'wsig_13TeV:hggpdfsmrel_WHsm_2018_AC_Bin19_13TeV'
p211
aS'wsig_13TeV:hggpdfsmrel_ZHMf05ph0_2018_AC_Bin19_13TeV'
p212
aS'wsig_13TeV:hggpdfsmrel_ZHbsmM_2018_AC_Bin19_13TeV'
p213
aS'wsig_13TeV:hggpdfsmrel_ZHsm_2018_AC_Bin19_13TeV'
p214
aS'multipdf:CMS_hgg_AC_Bin19_2018_13TeV_bkgshape'
p215
aS'multipdf:roohist_data_mass_AC_Bin19'
p216
aF0.017662772540461447
aF0.012564044125156215
aF0.018605552262215497
aF0.00015775497058712062
aF0.003164375777487294
aF0.00015496892410737928
aF0.010033099866632256
aF0.00024042003610702523
aF0.0001365818075100833
aF0.00028640044411076815
aF0.00011095867489530065
aF0.00010036114417744102
aF0.00025829014703049324
ag147
ag147
aF2.1900063229049101e-07
aF1.3551849708085299e-07
aF1.967232378616724e-07
aF1.8720766370353296e-09
aF2.0139988643594294e-08
aF7.097519906569353e-10
aF2.355034771862735e-07
aF1.0188971651348618e-09
aF5.842811711963491e-10
aF1.2124791630367144e-09
aF3.1801006790831104e-10
aF3.476247878919959e-10
aF2.0298878502011815e-09
ag147
ag147
aF0.018536471708515058
aF0.013095570707574984
aF0.019535681816452922
aF0.0001642116330593946
aF0.0033172549288763707
aF0.00016418161417262707
aF0.010521919618960499
aF0.000252479888764225
aF0.00014239201320415655
aF0.00030112454907945866
aF0.00011624529824080043
aF0.00010435485415119323
aF0.00027085428297093586
ag147
ag147
aF0.017764705636069994
aF0.012637511168244525
aF0.01871271066030075
aF0.00015862915992219382
aF0.003182499887604799
aF0.00015588413452470928
aF0.010089633016365682
aF0.0002418330450544954
aF0.0001373612085392198
aF0.0002879861374751791
aF0.00011161865263802582
aF0.00010093829307082659
aF0.00025969461130750335
ag147
ag147
aF0.017561132873663458
aF0.012490791726832743
aF0.01849870136146757
aF0.00015688325957453648
aF0.0031463036055715534
aF0.00015405637553792204
aF0.009976725284726885
aF0.00023901119901633625
aF0.0001358046694351906
aF0.00028481919102011635
aF0.00011030065058626459
aF9.978564614905811e-05
aF0.00025688952697333384
ag147
ag147
aF0.017973268801802625
aF0.012777602573695994
aF0.01893673935477091
aF0.00016093308702933197
aF0.003217602565139517
aF0.00015763467081045788
aF0.010209083832371723
aF0.0002444802840420269
aF0.0001387316670041653
aF0.00029167428810964005
aF0.00011262531012776144
aF0.0001021708198592432
aF0.00026289360057194715
ag147
ag147
aF0.017354983897295197
aF0.012352296670449741
aF0.01827725011667707
aF0.00015461595080203398
aF0.003111611400333446
aF0.00015232503086336387
aF0.009858601754484561
aF0.00023639531827299103
aF0.00013445196549080049
aF0.0002811775537327932
aF0.00010930371402062888
aF9.856740830687764e-05
aF0.00025373193419814873
ag147
ag147
aF0.017701578841171375
aF0.012589709100210681
aF0.01864679431992761
aF0.00015807606892626806
aF0.003172319573938694
aF0.0001553847359079427
aF0.010058242051025316
aF0.00024099787288075854
aF0.00013694020052542718
aF0.0002870637560985731
aF0.00011120538828145449
aF0.00010064455475079265
aF0.00025897216019388696
ag147
ag147
aF0.0176240094484575
aF0.012538407268846922
aF0.01856436054127509
aF0.00015743417728719883
aF0.003156443558375849
aF0.00015455347172017755
aF0.01000799009536583
aF0.00023984286516766978
aF0.00013622396163802592
aF0.00028573795105979027
aF0.00011071230164973744
aF0.00010007813957113006
aF0.000257609013234957
ag147
ag147
aF0.01770660955164523
aF0.01259444063253846
aF0.018652022140334873
aF0.00015822627437696922
aF0.003172265846617932
aF0.00015538166404587274
aF0.010058905967767253
aF0.00024107838089137252
aF0.00013691201223846566
aF0.0002872504728931616
aF0.00011126813681311969
aF0.00010058975227439807
aF0.0002589292179473377
ag147
ag147
aF0.017618988255544903
aF0.0125336833403005
aF0.0185591390150798
aF0.00015728429112454412
aF0.003156495467806452
aF0.00015455670153505146
aF0.010007325865409183
aF0.00023976288561002783
aF0.0001362519918912359
aF0.0002855515806583702
aF0.00011064964493087913
aF0.00010013279701619372
aF0.00025765184498275674
ag147
ag147
aF0.018051200624540797
aF0.012937518448325136
aF0.019076468277489766
aF0.00014581564323634666
aF0.0032780645533421193
aF0.0001641959529479209
aF0.007993099970462936
aF0.0002529202809000708
aF0.0001359877730919834
aF0.0002994869382746401
aF0.00011631502593445475
aF0.00010379407876826008
aF0.000243019901063235
ag147
ag147
aF0.01714882759279135
aF0.012199050724120752
aF0.018018119087173545
aF0.00015299100186894066
aF0.003112129485089099
aF0.00015496892410737928
aF0.007292335738384281
aF0.0002235792969713657
aF0.00012263717508176342
aF0.0002739666988418321
aF0.00010811988363457203
aF9.010299777401087e-05
aF0.00022847930949865258
ag147
ag147
aF0.01819900805821817
aF0.013072483865016693
aF0.019311466069211747
aF0.00012518929679572466
aF0.0032138230894815933
aF0.00014064985475670255
aF0.008876339355992968
aF0.0002369322705817467
aF0.0001568862844578689
aF0.0002858831837784237
aF0.00011418253598094452
aF0.0001078646669157024
aF0.0002627925209708337
ag147
ag147
aF0.017491538521426264
aF0.012200684143863327
aF0.018199636394911067
aF0.0001296373895911529
aF0.00321002393229719
aF0.0001559249819820252
aF0.0074049919358003535
aF0.00021445706238409912
aF0.0001416632985637989
aF0.00026958766329698847
aF0.00010476971942807722
aF0.00011015462473551452
aF0.0002336159900551138
ag147
ag147
aF0.01822401387107675
aF0.013024158388816431
aF0.01916179472618751
aF0.00015775497058712062
aF0.0032288817405969894
aF0.00016439825549241505
aF0.008010632512650773
aF0.00024466157697133895
aF0.00014097841813054401
aF0.00029049482554910355
aF0.00011144370432702999
aF0.00010036114417744102
aF0.00025829014703049324
ag147
ag147
aF0.0171957397578808
aF0.012034776921154844
aF0.01809429747163449
aF0.00015775497058712062
aF0.0030803268982708687
aF0.00015496892410737928
aF0.008617056510047405
aF0.0002359439083647885
aF0.00013232445326138986
aF0.00028196751281939214
aF0.00011095867489530065
aF0.00010036114417744102
aF0.00025829014703049324
ag147
ag147
aF0.01972719309560489
aF0.013942571953975857
aF0.020885458066913998
aF0.0001591508696492383
aF0.003245433753818361
aF0.0001741371381740464
aF0.015893390605469904
aF0.0002505091276816529
aF0.00013263982373246108
aF0.00031222970915223414
aF0.00012544166020234115
aF9.996489757213567e-05
aF0.00031168693749350496
ag147
ag147
aF0.015816679149793345
aF0.0113506701723054
aF0.016418295236690028
aF0.0001593037911788997
aF0.003033012442756444
aF0.00016766881913099496
aF0.0072925309427773755
aF0.0002209034851148317
aF0.00013116226546117105
aF0.0002606242990168539
aF0.00011112557149317581
aF9.019762046591495e-05
aF0.0002492401554263779
ag147
ag147
aF0.01823385203806538
aF0.01298952371962514
aF0.019209155009320966
aF0.00016130598760355497
aF0.003111190178515244
aF0.00017416169089301548
aF0.011107483765499637
aF0.00024573959876761364
aF0.00014092603896642686
aF0.0003033491248061182
aF0.00010815896553140192
aF0.00010095091852235782
aF0.00027868277402376407
ag147
ag147
aF0.017069384954083944
aF0.012298349816774135
aF0.018128910091036232
aF0.00014534606293636898
aF0.003206821143066918
aF0.00015501390726058162
aF0.007634300302925112
aF0.00021593366318484186
aF0.00013595866585092153
aF0.0002823318413902598
aF0.000116463833137459
aF9.355147335554648e-05
aF0.00025823995065366034
ag147
ag147
aF0.017836989694842487
aF0.012928805052524694
aF0.018983238106102363
aF0.0001617990383238066
aF0.0031651177605453995
aF0.00017421110896975733
aF0.00787943036402794
aF0.00026725066641120065
aF0.00014111449581832858
aF0.0002996310140588321
aF0.0001137769679644407
aF0.00010036114417744102
aF0.0002664382154762279
ag147
ag147
aF0.017294197036790138
aF0.012278220805910678
aF0.01838008071990771
aF0.00015652748288630391
aF0.003134080548534257
aF0.00014970359870858374
aF0.007721324606791313
aF0.0002502043437289103
aF0.0001408095868100645
aF0.00026918174989987165
aF0.00010185065571022278
aF0.00010662422141649586
aF0.00025066560601771926
ag147
ag147
atp217
ba(lp218
g15
(g16
(dp219
g18
g19
(g20
(I0
tp220
g22
tp221
Rp222
(I1
(I1
tp223
g29
I00
(lp224
g43
atp225
bsg68
Nstp226
Rp227
ag15
(g16
(dp228
g18
g19
(g20
(I0
tp229
g22
tp230
Rp231
(I1
(I33
tp232
g29
I00
(lp233
g33
ag34
ag35
ag36
ag37
ag38
ag39
ag40
ag41
ag42
ag44
ag45
ag46
ag47
ag48
ag49
ag50
ag51
ag52
ag53
ag54
ag55
ag56
ag57
ag58
ag59
ag60
ag61
ag62
ag63
ag64
ag65
ag66
atp234
bsg68
Nstp235
Rp236
a(dp237
S'0.14.1'
p238
(dp239
S'axes'
p240
g14
sS'blocks'
p241
(lp242
(dp243
S'mgr_locs'
p244
c__builtin__
slice
p245
(I10
I11
I1
tp246
Rp247
sS'values'
p248
g89
sa(dp249
g244
g19
(g20
(I0
tp250
g22
tp251
Rp252
(I1
(I33
tp253
g79
I00
S'\x00\x00\x00\x00\x00\x00\x00\x00\x01\x00\x00\x00\x00\x00\x00\x00\x02\x00\x00\x00\x00\x00\x00\x00\x03\x00\x00\x00\x00\x00\x00\x00\x04\x00\x00\x00\x00\x00\x00\x00\x05\x00\x00\x00\x00\x00\x00\x00\x06\x00\x00\x00\x00\x00\x00\x00\x07\x00\x00\x00\x00\x00\x00\x00\x08\x00\x00\x00\x00\x00\x00\x00\t\x00\x00\x00\x00\x00\x00\x00\x0b\x00\x00\x00\x00\x00\x00\x00\x0c\x00\x00\x00\x00\x00\x00\x00\r\x00\x00\x00\x00\x00\x00\x00\x0e\x00\x00\x00\x00\x00\x00\x00\x0f\x00\x00\x00\x00\x00\x00\x00\x10\x00\x00\x00\x00\x00\x00\x00\x11\x00\x00\x00\x00\x00\x00\x00\x12\x00\x00\x00\x00\x00\x00\x00\x13\x00\x00\x00\x00\x00\x00\x00\x14\x00\x00\x00\x00\x00\x00\x00\x15\x00\x00\x00\x00\x00\x00\x00\x16\x00\x00\x00\x00\x00\x00\x00\x17\x00\x00\x00\x00\x00\x00\x00\x18\x00\x00\x00\x00\x00\x00\x00\x19\x00\x00\x00\x00\x00\x00\x00\x1a\x00\x00\x00\x00\x00\x00\x00\x1b\x00\x00\x00\x00\x00\x00\x00\x1c\x00\x00\x00\x00\x00\x00\x00\x1d\x00\x00\x00\x00\x00\x00\x00\x1e\x00\x00\x00\x00\x00\x00\x00\x1f\x00\x00\x00\x00\x00\x00\x00 \x00\x00\x00\x00\x00\x00\x00!\x00\x00\x00\x00\x00\x00\x00'
p254
tp255
bsg248
g100
sasstp256
bsb.