ccopy_reg
_reconstructor
p0
(cpandas.core.frame
DataFrame
p1
c__builtin__
object
p2
Ntp3
Rp4
(dp5
S'_metadata'
p6
(lp7
sS'_typ'
p8
S'dataframe'
p9
sS'_data'
p10
g0
(cpandas.core.internals
BlockManager
p11
g2
Ntp12
Rp13
((lp14
cpandas.core.indexes.base
_new_Index
p15
(cpandas.core.indexes.base
Index
p16
(dp17
S'data'
p18
cnumpy.core.multiarray
_reconstruct
p19
(cnumpy
ndarray
p20
(I0
tp21
S'b'
p22
tp23
Rp24
(I1
(I34
tp25
cnumpy
dtype
p26
(S'O8'
p27
I0
I1
tp28
Rp29
(I3
S'|'
p30
NNNI-1
I-1
I63
tp31
bI00
(lp32
S'year'
p33
aS'type'
p34
aS'procOriginal'
p35
aS'proc'
p36
aS'proc_s0'
p37
aS'cat'
p38
aS'inputWSFile'
p39
aS'nominalDataName'
p40
aS'modelWSFile'
p41
aS'model'
p42
aS'rate'
p43
aS'nominal_yield'
p44
aS'sumw2'
p45
aS'nominal_yield_COWCorr'
p46
aS'LooseMvaSF_up_yield'
p47
aS'LooseMvaSF_down_yield'
p48
aS'PreselSF_up_yield'
p49
aS'PreselSF_down_yield'
p50
aS'electronVetoSF_up_yield'
p51
aS'electronVetoSF_down_yield'
p52
aS'TriggerWeight_up_yield'
p53
aS'TriggerWeight_down_yield'
p54
aS'SigmaEOverEShift_up_yield'
p55
aS'SigmaEOverEShift_down_yield'
p56
aS'MvaShift_up_yield'
p57
aS'MvaShift_down_yield'
p58
aS'PUJIDShift_up_yield'
p59
aS'PUJIDShift_down_yield'
p60
aS'JEC_up_yield'
p61
aS'JEC_down_yield'
p62
aS'JER_up_yield'
p63
aS'JER_down_yield'
p64
aS'JetHEM_up_yield'
p65
aS'JetHEM_down_yield'
p66
atp67
bsS'name'
p68
Nstp69
Rp70
ag15
(cpandas.core.indexes.numeric
Int64Index
p71
(dp72
g18
g19
(g20
(I0
tp73
g22
tp74
Rp75
(I1
(I15
tp76
g26
(S'i8'
p77
I0
I1
tp78
Rp79
(I3
S'<'
p80
NNNI-1
I-1
I0
tp81
bI00
S'\x00\x00\x00\x00\x00\x00\x00\x00\x01\x00\x00\x00\x00\x00\x00\x00\x02\x00\x00\x00\x00\x00\x00\x00\x03\x00\x00\x00\x00\x00\x00\x00\x04\x00\x00\x00\x00\x00\x00\x00\x05\x00\x00\x00\x00\x00\x00\x00\x06\x00\x00\x00\x00\x00\x00\x00\x07\x00\x00\x00\x00\x00\x00\x00\x08\x00\x00\x00\x00\x00\x00\x00\t\x00\x00\x00\x00\x00\x00\x00\n\x00\x00\x00\x00\x00\x00\x00\x0b\x00\x00\x00\x00\x00\x00\x00\x0c\x00\x00\x00\x00\x00\x00\x00\r\x00\x00\x00\x00\x00\x00\x00\x0e\x00\x00\x00\x00\x00\x00\x00'
p82
tp83
bsg68
Nstp84
Rp85
a(lp86
g19
(g20
(I0
tp87
g22
tp88
Rp89
(I1
(I1
I15
tp90
g26
(S'f8'
p91
I0
I1
tp92
Rp93
(I3
S'<'
p94
NNNI-1
I-1
I0
tp95
bI00
S'\x00\x00\x00\x00\xc0\xfa\xec@\x00\x00\x00\x00\xc0\xfa\xec@\x00\x00\x00\x00\xc0\xfa\xec@\x00\x00\x00\x00\xc0\xfa\xec@\x00\x00\x00\x00\xc0\xfa\xec@\x00\x00\x00\x00\xc0\xfa\xec@\x00\x00\x00\x00\xc0\xfa\xec@\x00\x00\x00\x00\xc0\xfa\xec@\x00\x00\x00\x00\xc0\xfa\xec@\x00\x00\x00\x00\xc0\xfa\xec@\x00\x00\x00\x00\xc0\xfa\xec@\x00\x00\x00\x00\xc0\xfa\xec@\x00\x00\x00\x00\xc0\xfa\xec@\x00\x00\x00\x00\x00\x00\xf0?\x00\x00\x00\x00\x00\x00\xf0\xbf'
p96
tp97
bag19
(g20
(I0
tp98
g22
tp99
Rp100
(I1
(I33
I15
tp101
g29
I00
(lp102
S'2018'
p103
ag103
ag103
ag103
ag103
ag103
ag103
ag103
ag103
ag103
ag103
ag103
ag103
ag33
ag33
aS'sig'
p104
ag104
ag104
ag104
ag104
ag104
ag104
ag104
ag104
ag104
ag104
ag104
ag104
aS'bkg'
p105
ag18
aS'GG2HMf05ph0'
p106
aS'GG2HbsmM'
p107
aS'GG2Hsm'
p108
aS'TTHsm'
p109
aS'VBFMf05ph0'
p110
aS'VBFbsmM'
p111
aS'VBFsm'
p112
aS'WHMf05ph0'
p113
aS'WHbsmM'
p114
aS'WHsm'
p115
aS'ZHMf05ph0'
p116
aS'ZHbsmM'
p117
aS'ZHsm'
p118
aS'bkg_mass'
p119
aS'data_obs'
p120
aS'GG2HMf05ph0_2018_hgg'
p121
aS'GG2HbsmM_2018_hgg'
p122
aS'GG2Hsm_2018_hgg'
p123
aS'tth0P_2018_hgg'
p124
aS'vbf0Mf05ph0_2018_hgg'
p125
aS'vbf0M_2018_hgg'
p126
aS'vbf0P_2018_hgg'
p127
aS'wh0Mf05ph0_2018_hgg'
p128
aS'wh0M_2018_hgg'
p129
aS'wh0P_2018_hgg'
p130
aS'zh0Mf05ph0_2018_hgg'
p131
aS'zh0M_2018_hgg'
p132
aS'zh0P_2018_hgg'
p133
ag119
ag120
aS'jjh0Mf05ph0'
p134
aS'jjh0M'
p135
aS'jjh0P'
p136
aS'tth0P'
p137
aS'vbf0Mf05ph0'
p138
aS'vbf0M'
p139
aS'vbf0P'
p140
aS'wh0Mf05ph0'
p141
aS'wh0M'
p142
aS'wh0P'
p143
aS'zh0Mf05ph0'
p144
aS'zh0M'
p145
aS'zh0P'
p146
aS'-'
p147
ag147
aS'AC_Bin12_2018'
p148
aS'AC_Bin12_2018'
p149
aS'AC_Bin12_2018'
p150
aS'AC_Bin12_2018'
p151
aS'AC_Bin12_2018'
p152
aS'AC_Bin12_2018'
p153
aS'AC_Bin12_2018'
p154
aS'AC_Bin12_2018'
p155
aS'AC_Bin12_2018'
p156
aS'AC_Bin12_2018'
p157
aS'AC_Bin12_2018'
p158
aS'AC_Bin12_2018'
p159
aS'AC_Bin12_2018'
p160
aS'AC_Bin12_2018'
p161
ag161
aS'Trees/Opt_2018/2018/Trees2WS_2018/WS/output_GluGluHToGGPlusTwoJets_MM_M125_TuneCP5_13TeV-amcatnlopowheg-minlo-pythia8_GG2HMf05ph0.root'
p162
aS'Trees/Opt_2018/2018/Trees2WS_2018/WS/output_GluGluHToGGPlusTwoJets_CPodd_M125_TuneCP5_13TeV-amcatnlopowheg-minlo-pythia8_GG2HbsmM.root'
p163
aS'Trees/Opt_2018/2018/Trees2WS_2018/WS/output_GluGluHToGGPlusTwoJets_SM_M125_TuneCP5_13TeV-amcatnlopowheg-minlo-pythia8_GG2Hsm.root'
p164
aS'Trees/Opt_2018/2018/Trees2WS_2018/WS/output_ttHJetToGG_M125_TuneCP5_13TeV-amcatnloFXFX-madspin-pythia8_TTHsm.root'
p165
aS'Trees/Opt_2018/2018/Trees2WS_2018/WS/output_VBFHiggs0Mf05ph0ToGG_M125_TuneCP5_13TeV-JHUGenV7011-pythia8_VBFMf05ph0.root'
p166
aS'Trees/Opt_2018/2018/Trees2WS_2018/WS/output_VBFHiggs0MToGG_M125_TuneCP5_13TeV-JHUGenV7011-pythia8_VBFbsmM.root'
p167
aS'Trees/Opt_2018/2018/Trees2WS_2018/WS/output_VBFHToGG_M125_TuneCP5_13TeV-amcatnlo-pythia8_VBFsm.root'
p168
aS'Trees/Opt_2018/2018/Trees2WS_2018/WS/output_WHiggs0Mf05ph0ToGG_M125_TuneCP5_13TeV-JHUGenV7011-pythia8_WHMf05ph0.root'
p169
aS'Trees/Opt_2018/2018/Trees2WS_2018/WS/output_WHiggs0MToGG_M125_TuneCP5_13TeV-JHUGenV7011-pythia8_WHbsmM.root'
p170
aS'Trees/Opt_2018/2018/Trees2WS_2018/WS/output_WHiggs0PMToGG_M125_TuneCP5_13TeV-JHUGenV7011-pythia8_WHsm.root'
p171
aS'Trees/Opt_2018/2018/Trees2WS_2018/WS/output_ZHiggs0Mf05ph0ToGG_M125_TuneCP5_13TeV-JHUGenV7011-pythia8_ZHMf05ph0.root'
p172
aS'Trees/Opt_2018/2018/Trees2WS_2018/WS/output_ZHiggs0MToGG_M125_TuneCP5_13TeV-JHUGenV7011-pythia8_ZHbsmM.root'
p173
aS'Trees/Opt_2018/2018/Trees2WS_2018/WS/output_ZH_HToGG_ZToAll_M125_TuneCP5_13TeV-powheg-pythia8_ZHsm.root'
p174
ag147
ag147
aS'jjh0Mf05ph0_125_13TeV_AC_Bin12'
p175
aS'jjh0M_125_13TeV_AC_Bin12'
p176
aS'jjh0P_125_13TeV_AC_Bin12'
p177
aS'tth0P_125_13TeV_AC_Bin12'
p178
aS'vbf0Mf05ph0_125_13TeV_AC_Bin12'
p179
aS'vbf0M_125_13TeV_AC_Bin12'
p180
aS'vbf0P_125_13TeV_AC_Bin12'
p181
aS'wh0Mf05ph0_125_13TeV_AC_Bin12'
p182
aS'wh0M_125_13TeV_AC_Bin12'
p183
aS'wh0P_125_13TeV_AC_Bin12'
p184
aS'zh0Mf05ph0_125_13TeV_AC_Bin12'
p185
aS'zh0M_125_13TeV_AC_Bin12'
p186
aS'zh0P_125_13TeV_AC_Bin12'
p187
ag147
ag147
aS'./Models/signal/CMS-HGG_sigfit_packaged_AC_Bin12_2018.root'
p188
aS'./Models/signal/CMS-HGG_sigfit_packaged_AC_Bin12_2018.root'
p189
aS'./Models/signal/CMS-HGG_sigfit_packaged_AC_Bin12_2018.root'
p190
aS'./Models/signal/CMS-HGG_sigfit_packaged_AC_Bin12_2018.root'
p191
aS'./Models/signal/CMS-HGG_sigfit_packaged_AC_Bin12_2018.root'
p192
aS'./Models/signal/CMS-HGG_sigfit_packaged_AC_Bin12_2018.root'
p193
aS'./Models/signal/CMS-HGG_sigfit_packaged_AC_Bin12_2018.root'
p194
aS'./Models/signal/CMS-HGG_sigfit_packaged_AC_Bin12_2018.root'
p195
aS'./Models/signal/CMS-HGG_sigfit_packaged_AC_Bin12_2018.root'
p196
aS'./Models/signal/CMS-HGG_sigfit_packaged_AC_Bin12_2018.root'
p197
aS'./Models/signal/CMS-HGG_sigfit_packaged_AC_Bin12_2018.root'
p198
aS'./Models/signal/CMS-HGG_sigfit_packaged_AC_Bin12_2018.root'
p199
aS'./Models/signal/CMS-HGG_sigfit_packaged_AC_Bin12_2018.root'
p200
aS'./Models/background/CMS-HGG_multipdf_AC_Bin12_2018.root'
p201
ag201
aS'wsig_13TeV:hggpdfsmrel_GG2HMf05ph0_2018_AC_Bin12_13TeV'
p202
aS'wsig_13TeV:hggpdfsmrel_GG2HbsmM_2018_AC_Bin12_13TeV'
p203
aS'wsig_13TeV:hggpdfsmrel_GG2Hsm_2018_AC_Bin12_13TeV'
p204
aS'wsig_13TeV:hggpdfsmrel_TTHsm_2018_AC_Bin12_13TeV'
p205
aS'wsig_13TeV:hggpdfsmrel_VBFMf05ph0_2018_AC_Bin12_13TeV'
p206
aS'wsig_13TeV:hggpdfsmrel_VBFbsmM_2018_AC_Bin12_13TeV'
p207
aS'wsig_13TeV:hggpdfsmrel_VBFsm_2018_AC_Bin12_13TeV'
p208
aS'wsig_13TeV:hggpdfsmrel_WHMf05ph0_2018_AC_Bin12_13TeV'
p209
aS'wsig_13TeV:hggpdfsmrel_WHbsmM_2018_AC_Bin12_13TeV'
p210
aS'wsig_13TeV:hggpdfsmrel_WHsm_2018_AC_Bin12_13TeV'
p211
aS'wsig_13TeV:hggpdfsmrel_ZHMf05ph0_2018_AC_Bin12_13TeV'
p212
aS'wsig_13TeV:hggpdfsmrel_ZHbsmM_2018_AC_Bin12_13TeV'
p213
aS'wsig_13TeV:hggpdfsmrel_ZHsm_2018_AC_Bin12_13TeV'
p214
aS'multipdf:CMS_hgg_AC_Bin12_2018_13TeV_bkgshape'
p215
aS'multipdf:roohist_data_mass_AC_Bin12'
p216
aF0.5048452647906743
aF0.5302042016010091
aF0.5287920339483207
aF0.043200034355322714
aF0.1602674021776238
aF0.2733478444765751
aF0.07035363184104426
aF0.0879002928470527
aF0.11606107678971966
aF0.04418142699660166
aF0.06160152411780473
aF0.10803983151390639
aF0.03878425151742704
ag147
ag147
aF6.269597633905582e-06
aF5.468209932986819e-06
aF5.569694880673572e-06
aF5.671268857504129e-07
aF8.119014350931439e-07
aF1.386350008225766e-06
aF1.6995617395263732e-06
aF3.7603299734920297e-07
aF4.962829401417123e-07
aF1.8861903355872582e-07
aF1.768714206095321e-07
aF3.75687549019699e-07
aF3.165831603964662e-07
ag147
ag147
aF0.5218698741231782
aF0.548032188695874
aF0.5466152181071765
aF0.0445543649756942
aF0.16541151429557385
aF0.28209222348888424
aF0.07270571769287722
aF0.09081838642691939
aF0.11989207586354271
aF0.045689188316516444
aF0.06364198942674225
aF0.1115959861858793
aF0.04007783157486928
ag147
ag147
aF0.507955493414159
aF0.5334698930676394
aF0.5320504093412642
aF0.04346949121069821
aF0.161268195577093
aF0.27505849459420384
aF0.07078439187307214
aF0.08844263410685664
aF0.11677862728796468
aF0.04445146150058083
aF0.06198217767396738
aF0.10870873965723393
aF0.03902183723294198
ag147
ag147
aF0.5017446133266036
aF0.5269485591747619
aF0.525543688308196
aF0.0429314169647725
aF0.15926973577966447
aF0.27164255097917417
aF0.06992419128621287
aF0.0873596257296956
aF0.11534574586149555
aF0.04391221808637225
aF0.061222047047867406
aF0.10737299594362038
aF0.03854739360857228
ag147
ag147
aF0.5123852866192551
aF0.538158661409084
aF0.5366990027699703
aF0.043853301556816375
aF0.16254455155471406
aF0.27719915957430485
aF0.07140999932843184
aF0.08915986595107793
aF0.11771240126751477
aF0.04482718572573814
aF0.06248197085439494
aF0.10957965613584547
aF0.039353854239749936
ag147
ag147
aF0.49736189626263144
aF0.5223093848215377
aF0.5209442162776244
aF0.042551605889845356
aF0.158006466602833
aF0.26952385867324014
aF0.06930526257842548
aF0.08664975664309145
aF0.1144215877742517
aF0.04354042300394332
aF0.06072736877269565
aF0.10651108153427347
aF0.03821883490233781
ag147
ag147
aF0.5056934828384991
aF0.5310963079658012
aF0.5296816081879545
aF0.04326533975592458
aF0.16052568279915055
aF0.27378487655184636
aF0.07047644749882875
aF0.08805298601588148
aF0.11626201384642142
aF0.04426258148364048
aF0.061708162073130526
aF0.10822528920188863
aF0.03885262751845907
ag147
ag147
aF0.5039978876869091
aF0.5293129801353927
aF0.5279033346354317
aF0.043134785997858464
aF0.16000937702127616
aF0.2729112477916419
aF0.07023094598813549
aF0.08774776065036566
aF0.11586035302974008
aF0.044100359208510326
aF0.06149499717810535
aF0.1078545682865308
aF0.03871594715162192
ag147
ag147
aF0.5059943272919405
aF0.5314106740417504
aF0.5299947743184641
aF0.04329473480715101
aF0.1606250148233185
aF0.2739562712904305
aF0.0705164484747286
aF0.08810189406149453
aF0.11632406832028463
aF0.044284084319815155
aF0.06174186646754189
aF0.10828499414528911
aF0.03887309381199811
ag147
ag147
aF0.5036975102163452
aF0.5289991075215501
aF0.5275906689380168
aF0.04310543850584608
aF0.15991019096861792
aF0.27274010102579377
aF0.07019100204596039
aF0.08769892255115518
aF0.11579838329994463
aF0.04407889036207419
aF0.06146134129340509
aF0.1077949478077737
aF0.03869551016228129
ag147
ag147
aF0.5006607349787373
aF0.5254370588336315
aF0.524301036149609
aF0.04280367610749636
aF0.1596457616221869
aF0.2723610235302658
aF0.06925975178819499
aF0.08735700865258877
aF0.11539455815545807
aF0.04369102664873026
aF0.061239858001272296
aF0.10746467813282834
aF0.038374447061414685
ag147
ag147
aF0.5097255688706355
aF0.534958734263455
aF0.5337392707556319
aF0.04349591178947776
aF0.16091717970925856
aF0.27442932679832666
aF0.0705659104901315
aF0.08846661131019573
aF0.11677947886732909
aF0.04463137210882451
aF0.06202517132328467
aF0.10867954649870626
aF0.03909488543968109
ag147
ag147
aF0.5176044839245151
aF0.544624219175148
aF0.5425019601166241
aF0.0450774511984946
aF0.16438736680584043
aF0.28065706078268704
aF0.07196674261467706
aF0.08970982774167169
aF0.11872909892713324
aF0.04511043681532101
aF0.0631059688246296
aF0.11038099506004073
aF0.03959614066297945
ag147
ag147
aF0.49167187078637653
aF0.5171135224263708
aF0.5147540927637237
aF0.04136239379727158
aF0.1555755032725301
aF0.2650934118123587
aF0.06765288451197193
aF0.08581751758788414
aF0.11322235666580127
aF0.04314512111341173
aF0.060192151609271605
aF0.10541251084100622
aF0.03774695045058252
ag147
ag147
aF0.5065301295653626
aF0.5320492366099643
aF0.5309411664215986
aF0.043183562195508784
aF0.1605556145011633
aF0.273718899168216
aF0.07024634561230414
aF0.08813508368643852
aF0.11649870574160559
aF0.044289254129125766
aF0.0617831720767299
aF0.10836395057708614
aF0.03890877846197327
ag147
ag147
aF0.502947734648842
aF0.5283499581273645
aF0.5269874497062119
aF0.04317847004608666
aF0.1600414324623216
aF0.273067461644132
aF0.0692806691140504
aF0.08753220166454412
aF0.11558895146254144
aF0.044048557333326244
aF0.06136790948426096
aF0.10768668160608286
aF0.038687312196543644
ag147
ag147
aF0.515381812425403
aF0.5397121247274299
aF0.5392260942217035
aF0.04310584259201278
aF0.1600413193921213
aF0.2733367117241414
aF0.07152414536722063
aF0.0899330438655852
aF0.11913746376444578
aF0.04503504954868731
aF0.06286225876078788
aF0.11034463971373043
aF0.03928546631050267
ag147
ag147
aF0.49489356338199286
aF0.5211114452836227
aF0.5179013107767787
aF0.043525854094013994
aF0.16068355414404323
aF0.27272574253493076
aF0.06918852971557499
aF0.08580137406215727
aF0.11295303159522518
aF0.043310526826189744
aF0.060280258433976996
aF0.10570623421631353
aF0.03844459200854544
ag147
ag147
aF0.5063097282491071
aF0.5313291098436821
aF0.5298547916281677
aF0.04311104962675927
aF0.1603527500690234
aF0.27324592453715013
aF0.07026860753785513
aF0.08809806987324009
aF0.116335815379216
aF0.04416222145869142
aF0.06169659560305263
aF0.10831889891460378
aF0.03886945437716349
ag147
ag147
aF0.5048675334091968
aF0.5294901222696353
aF0.5280372427569091
aF0.04329108236220236
aF0.16035441646386062
aF0.27333132786952774
aF0.06966541435303952
aF0.08774523785928068
aF0.11571344790581861
aF0.044184165293927435
aF0.061585777648815565
aF0.10788677241612277
aF0.03875742608533983
ag147
ag147
aF0.5058621905218388
aF0.5317651343684702
aF0.5300380625844809
aF0.043234163880242704
aF0.16016465047755446
aF0.2733261550260977
aF0.06981911150114684
aF0.08828323417560568
aF0.11650849044303868
aF0.044308157268687864
aF0.06177403035667339
aF0.10819450686267373
aF0.038816644598682615
ag147
ag147
aF0.5036361899874464
aF0.5285838976487867
aF0.5270151197810264
aF0.043312025857176195
aF0.1602578939293835
aF0.27358089732069857
aF0.06960469340674535
aF0.08755018005331294
aF0.11546231957368036
aF0.04403379700943333
aF0.06135575275402516
aF0.10755190894178668
aF0.038664995586259465
ag147
ag147
atp217
ba(lp218
g15
(g16
(dp219
g18
g19
(g20
(I0
tp220
g22
tp221
Rp222
(I1
(I1
tp223
g29
I00
(lp224
g43
atp225
bsg68
Nstp226
Rp227
ag15
(g16
(dp228
g18
g19
(g20
(I0
tp229
g22
tp230
Rp231
(I1
(I33
tp232
g29
I00
(lp233
g33
ag34
ag35
ag36
ag37
ag38
ag39
ag40
ag41
ag42
ag44
ag45
ag46
ag47
ag48
ag49
ag50
ag51
ag52
ag53
ag54
ag55
ag56
ag57
ag58
ag59
ag60
ag61
ag62
ag63
ag64
ag65
ag66
atp234
bsg68
Nstp235
Rp236
a(dp237
S'0.14.1'
p238
(dp239
S'axes'
p240
g14
sS'blocks'
p241
(lp242
(dp243
S'mgr_locs'
p244
c__builtin__
slice
p245
(I10
I11
I1
tp246
Rp247
sS'values'
p248
g89
sa(dp249
g244
g19
(g20
(I0
tp250
g22
tp251
Rp252
(I1
(I33
tp253
g79
I00
S'\x00\x00\x00\x00\x00\x00\x00\x00\x01\x00\x00\x00\x00\x00\x00\x00\x02\x00\x00\x00\x00\x00\x00\x00\x03\x00\x00\x00\x00\x00\x00\x00\x04\x00\x00\x00\x00\x00\x00\x00\x05\x00\x00\x00\x00\x00\x00\x00\x06\x00\x00\x00\x00\x00\x00\x00\x07\x00\x00\x00\x00\x00\x00\x00\x08\x00\x00\x00\x00\x00\x00\x00\t\x00\x00\x00\x00\x00\x00\x00\x0b\x00\x00\x00\x00\x00\x00\x00\x0c\x00\x00\x00\x00\x00\x00\x00\r\x00\x00\x00\x00\x00\x00\x00\x0e\x00\x00\x00\x00\x00\x00\x00\x0f\x00\x00\x00\x00\x00\x00\x00\x10\x00\x00\x00\x00\x00\x00\x00\x11\x00\x00\x00\x00\x00\x00\x00\x12\x00\x00\x00\x00\x00\x00\x00\x13\x00\x00\x00\x00\x00\x00\x00\x14\x00\x00\x00\x00\x00\x00\x00\x15\x00\x00\x00\x00\x00\x00\x00\x16\x00\x00\x00\x00\x00\x00\x00\x17\x00\x00\x00\x00\x00\x00\x00\x18\x00\x00\x00\x00\x00\x00\x00\x19\x00\x00\x00\x00\x00\x00\x00\x1a\x00\x00\x00\x00\x00\x00\x00\x1b\x00\x00\x00\x00\x00\x00\x00\x1c\x00\x00\x00\x00\x00\x00\x00\x1d\x00\x00\x00\x00\x00\x00\x00\x1e\x00\x00\x00\x00\x00\x00\x00\x1f\x00\x00\x00\x00\x00\x00\x00 \x00\x00\x00\x00\x00\x00\x00!\x00\x00\x00\x00\x00\x00\x00'
p254
tp255
bsg248
g100
sasstp256
bsb.