ccopy_reg
_reconstructor
p0
(cpandas.core.frame
DataFrame
p1
c__builtin__
object
p2
Ntp3
Rp4
(dp5
S'_metadata'
p6
(lp7
sS'_typ'
p8
S'dataframe'
p9
sS'_data'
p10
g0
(cpandas.core.internals
BlockManager
p11
g2
Ntp12
Rp13
((lp14
cpandas.core.indexes.base
_new_Index
p15
(cpandas.core.indexes.base
Index
p16
(dp17
S'data'
p18
cnumpy.core.multiarray
_reconstruct
p19
(cnumpy
ndarray
p20
(I0
tp21
S'b'
p22
tp23
Rp24
(I1
(I34
tp25
cnumpy
dtype
p26
(S'O8'
p27
I0
I1
tp28
Rp29
(I3
S'|'
p30
NNNI-1
I-1
I63
tp31
bI00
(lp32
S'year'
p33
aS'type'
p34
aS'procOriginal'
p35
aS'proc'
p36
aS'proc_s0'
p37
aS'cat'
p38
aS'inputWSFile'
p39
aS'nominalDataName'
p40
aS'modelWSFile'
p41
aS'model'
p42
aS'rate'
p43
aS'nominal_yield'
p44
aS'sumw2'
p45
aS'nominal_yield_COWCorr'
p46
aS'LooseMvaSF_up_yield'
p47
aS'LooseMvaSF_down_yield'
p48
aS'PreselSF_up_yield'
p49
aS'PreselSF_down_yield'
p50
aS'electronVetoSF_up_yield'
p51
aS'electronVetoSF_down_yield'
p52
aS'TriggerWeight_up_yield'
p53
aS'TriggerWeight_down_yield'
p54
aS'SigmaEOverEShift_up_yield'
p55
aS'SigmaEOverEShift_down_yield'
p56
aS'MvaShift_up_yield'
p57
aS'MvaShift_down_yield'
p58
aS'PUJIDShift_up_yield'
p59
aS'PUJIDShift_down_yield'
p60
aS'JEC_up_yield'
p61
aS'JEC_down_yield'
p62
aS'JER_up_yield'
p63
aS'JER_down_yield'
p64
aS'JetHEM_up_yield'
p65
aS'JetHEM_down_yield'
p66
atp67
bsS'name'
p68
Nstp69
Rp70
ag15
(cpandas.core.indexes.numeric
Int64Index
p71
(dp72
g18
g19
(g20
(I0
tp73
g22
tp74
Rp75
(I1
(I15
tp76
g26
(S'i8'
p77
I0
I1
tp78
Rp79
(I3
S'<'
p80
NNNI-1
I-1
I0
tp81
bI00
S'\x00\x00\x00\x00\x00\x00\x00\x00\x01\x00\x00\x00\x00\x00\x00\x00\x02\x00\x00\x00\x00\x00\x00\x00\x03\x00\x00\x00\x00\x00\x00\x00\x04\x00\x00\x00\x00\x00\x00\x00\x05\x00\x00\x00\x00\x00\x00\x00\x06\x00\x00\x00\x00\x00\x00\x00\x07\x00\x00\x00\x00\x00\x00\x00\x08\x00\x00\x00\x00\x00\x00\x00\t\x00\x00\x00\x00\x00\x00\x00\n\x00\x00\x00\x00\x00\x00\x00\x0b\x00\x00\x00\x00\x00\x00\x00\x0c\x00\x00\x00\x00\x00\x00\x00\r\x00\x00\x00\x00\x00\x00\x00\x0e\x00\x00\x00\x00\x00\x00\x00'
p82
tp83
bsg68
Nstp84
Rp85
a(lp86
g19
(g20
(I0
tp87
g22
tp88
Rp89
(I1
(I1
I15
tp90
g26
(S'f8'
p91
I0
I1
tp92
Rp93
(I3
S'<'
p94
NNNI-1
I-1
I0
tp95
bI00
S'\x00\x00\x00\x00\xc0\xfa\xec@\x00\x00\x00\x00\xc0\xfa\xec@\x00\x00\x00\x00\xc0\xfa\xec@\x00\x00\x00\x00\xc0\xfa\xec@\x00\x00\x00\x00\xc0\xfa\xec@\x00\x00\x00\x00\xc0\xfa\xec@\x00\x00\x00\x00\xc0\xfa\xec@\x00\x00\x00\x00\xc0\xfa\xec@\x00\x00\x00\x00\xc0\xfa\xec@\x00\x00\x00\x00\xc0\xfa\xec@\x00\x00\x00\x00\xc0\xfa\xec@\x00\x00\x00\x00\xc0\xfa\xec@\x00\x00\x00\x00\xc0\xfa\xec@\x00\x00\x00\x00\x00\x00\xf0?\x00\x00\x00\x00\x00\x00\xf0\xbf'
p96
tp97
bag19
(g20
(I0
tp98
g22
tp99
Rp100
(I1
(I33
I15
tp101
g29
I00
(lp102
S'2018'
p103
ag103
ag103
ag103
ag103
ag103
ag103
ag103
ag103
ag103
ag103
ag103
ag103
ag33
ag33
aS'sig'
p104
ag104
ag104
ag104
ag104
ag104
ag104
ag104
ag104
ag104
ag104
ag104
ag104
aS'bkg'
p105
ag18
aS'GG2HMf05ph0'
p106
aS'GG2HbsmM'
p107
aS'GG2Hsm'
p108
aS'TTHsm'
p109
aS'VBFMf05ph0'
p110
aS'VBFbsmM'
p111
aS'VBFsm'
p112
aS'WHMf05ph0'
p113
aS'WHbsmM'
p114
aS'WHsm'
p115
aS'ZHMf05ph0'
p116
aS'ZHbsmM'
p117
aS'ZHsm'
p118
aS'bkg_mass'
p119
aS'data_obs'
p120
aS'GG2HMf05ph0_2018_hgg'
p121
aS'GG2HbsmM_2018_hgg'
p122
aS'GG2Hsm_2018_hgg'
p123
aS'tth0P_2018_hgg'
p124
aS'vbf0Mf05ph0_2018_hgg'
p125
aS'vbf0M_2018_hgg'
p126
aS'vbf0P_2018_hgg'
p127
aS'wh0Mf05ph0_2018_hgg'
p128
aS'wh0M_2018_hgg'
p129
aS'wh0P_2018_hgg'
p130
aS'zh0Mf05ph0_2018_hgg'
p131
aS'zh0M_2018_hgg'
p132
aS'zh0P_2018_hgg'
p133
ag119
ag120
aS'jjh0Mf05ph0'
p134
aS'jjh0M'
p135
aS'jjh0P'
p136
aS'tth0P'
p137
aS'vbf0Mf05ph0'
p138
aS'vbf0M'
p139
aS'vbf0P'
p140
aS'wh0Mf05ph0'
p141
aS'wh0M'
p142
aS'wh0P'
p143
aS'zh0Mf05ph0'
p144
aS'zh0M'
p145
aS'zh0P'
p146
aS'-'
p147
ag147
aS'AC_Bin24_2018'
p148
aS'AC_Bin24_2018'
p149
aS'AC_Bin24_2018'
p150
aS'AC_Bin24_2018'
p151
aS'AC_Bin24_2018'
p152
aS'AC_Bin24_2018'
p153
aS'AC_Bin24_2018'
p154
aS'AC_Bin24_2018'
p155
aS'AC_Bin24_2018'
p156
aS'AC_Bin24_2018'
p157
aS'AC_Bin24_2018'
p158
aS'AC_Bin24_2018'
p159
aS'AC_Bin24_2018'
p160
aS'AC_Bin24_2018'
p161
ag161
aS'Trees/Opt_2018/2018/Trees2WS_2018/WS/output_GluGluHToGGPlusTwoJets_MM_M125_TuneCP5_13TeV-amcatnlopowheg-minlo-pythia8_GG2HMf05ph0.root'
p162
aS'Trees/Opt_2018/2018/Trees2WS_2018/WS/output_GluGluHToGGPlusTwoJets_CPodd_M125_TuneCP5_13TeV-amcatnlopowheg-minlo-pythia8_GG2HbsmM.root'
p163
aS'Trees/Opt_2018/2018/Trees2WS_2018/WS/output_GluGluHToGGPlusTwoJets_SM_M125_TuneCP5_13TeV-amcatnlopowheg-minlo-pythia8_GG2Hsm.root'
p164
aS'Trees/Opt_2018/2018/Trees2WS_2018/WS/output_ttHJetToGG_M125_TuneCP5_13TeV-amcatnloFXFX-madspin-pythia8_TTHsm.root'
p165
aS'Trees/Opt_2018/2018/Trees2WS_2018/WS/output_VBFHiggs0Mf05ph0ToGG_M125_TuneCP5_13TeV-JHUGenV7011-pythia8_VBFMf05ph0.root'
p166
aS'Trees/Opt_2018/2018/Trees2WS_2018/WS/output_VBFHiggs0MToGG_M125_TuneCP5_13TeV-JHUGenV7011-pythia8_VBFbsmM.root'
p167
aS'Trees/Opt_2018/2018/Trees2WS_2018/WS/output_VBFHToGG_M125_TuneCP5_13TeV-amcatnlo-pythia8_VBFsm.root'
p168
aS'Trees/Opt_2018/2018/Trees2WS_2018/WS/output_WHiggs0Mf05ph0ToGG_M125_TuneCP5_13TeV-JHUGenV7011-pythia8_WHMf05ph0.root'
p169
aS'Trees/Opt_2018/2018/Trees2WS_2018/WS/output_WHiggs0MToGG_M125_TuneCP5_13TeV-JHUGenV7011-pythia8_WHbsmM.root'
p170
aS'Trees/Opt_2018/2018/Trees2WS_2018/WS/output_WHiggs0PMToGG_M125_TuneCP5_13TeV-JHUGenV7011-pythia8_WHsm.root'
p171
aS'Trees/Opt_2018/2018/Trees2WS_2018/WS/output_ZHiggs0Mf05ph0ToGG_M125_TuneCP5_13TeV-JHUGenV7011-pythia8_ZHMf05ph0.root'
p172
aS'Trees/Opt_2018/2018/Trees2WS_2018/WS/output_ZHiggs0MToGG_M125_TuneCP5_13TeV-JHUGenV7011-pythia8_ZHbsmM.root'
p173
aS'Trees/Opt_2018/2018/Trees2WS_2018/WS/output_ZH_HToGG_ZToAll_M125_TuneCP5_13TeV-powheg-pythia8_ZHsm.root'
p174
ag147
ag147
aS'jjh0Mf05ph0_125_13TeV_AC_Bin24'
p175
aS'jjh0M_125_13TeV_AC_Bin24'
p176
aS'jjh0P_125_13TeV_AC_Bin24'
p177
aS'tth0P_125_13TeV_AC_Bin24'
p178
aS'vbf0Mf05ph0_125_13TeV_AC_Bin24'
p179
aS'vbf0M_125_13TeV_AC_Bin24'
p180
aS'vbf0P_125_13TeV_AC_Bin24'
p181
aS'wh0Mf05ph0_125_13TeV_AC_Bin24'
p182
aS'wh0M_125_13TeV_AC_Bin24'
p183
aS'wh0P_125_13TeV_AC_Bin24'
p184
aS'zh0Mf05ph0_125_13TeV_AC_Bin24'
p185
aS'zh0M_125_13TeV_AC_Bin24'
p186
aS'zh0P_125_13TeV_AC_Bin24'
p187
ag147
ag147
aS'./Models/signal/CMS-HGG_sigfit_packaged_AC_Bin24_2018.root'
p188
aS'./Models/signal/CMS-HGG_sigfit_packaged_AC_Bin24_2018.root'
p189
aS'./Models/signal/CMS-HGG_sigfit_packaged_AC_Bin24_2018.root'
p190
aS'./Models/signal/CMS-HGG_sigfit_packaged_AC_Bin24_2018.root'
p191
aS'./Models/signal/CMS-HGG_sigfit_packaged_AC_Bin24_2018.root'
p192
aS'./Models/signal/CMS-HGG_sigfit_packaged_AC_Bin24_2018.root'
p193
aS'./Models/signal/CMS-HGG_sigfit_packaged_AC_Bin24_2018.root'
p194
aS'./Models/signal/CMS-HGG_sigfit_packaged_AC_Bin24_2018.root'
p195
aS'./Models/signal/CMS-HGG_sigfit_packaged_AC_Bin24_2018.root'
p196
aS'./Models/signal/CMS-HGG_sigfit_packaged_AC_Bin24_2018.root'
p197
aS'./Models/signal/CMS-HGG_sigfit_packaged_AC_Bin24_2018.root'
p198
aS'./Models/signal/CMS-HGG_sigfit_packaged_AC_Bin24_2018.root'
p199
aS'./Models/signal/CMS-HGG_sigfit_packaged_AC_Bin24_2018.root'
p200
aS'./Models/background/CMS-HGG_multipdf_AC_Bin24_2018.root'
p201
ag201
aS'wsig_13TeV:hggpdfsmrel_GG2HMf05ph0_2018_AC_Bin24_13TeV'
p202
aS'wsig_13TeV:hggpdfsmrel_GG2HbsmM_2018_AC_Bin24_13TeV'
p203
aS'wsig_13TeV:hggpdfsmrel_GG2Hsm_2018_AC_Bin24_13TeV'
p204
aS'wsig_13TeV:hggpdfsmrel_TTHsm_2018_AC_Bin24_13TeV'
p205
aS'wsig_13TeV:hggpdfsmrel_VBFMf05ph0_2018_AC_Bin24_13TeV'
p206
aS'wsig_13TeV:hggpdfsmrel_VBFbsmM_2018_AC_Bin24_13TeV'
p207
aS'wsig_13TeV:hggpdfsmrel_VBFsm_2018_AC_Bin24_13TeV'
p208
aS'wsig_13TeV:hggpdfsmrel_WHMf05ph0_2018_AC_Bin24_13TeV'
p209
aS'wsig_13TeV:hggpdfsmrel_WHbsmM_2018_AC_Bin24_13TeV'
p210
aS'wsig_13TeV:hggpdfsmrel_WHsm_2018_AC_Bin24_13TeV'
p211
aS'wsig_13TeV:hggpdfsmrel_ZHMf05ph0_2018_AC_Bin24_13TeV'
p212
aS'wsig_13TeV:hggpdfsmrel_ZHbsmM_2018_AC_Bin24_13TeV'
p213
aS'wsig_13TeV:hggpdfsmrel_ZHsm_2018_AC_Bin24_13TeV'
p214
aS'multipdf:CMS_hgg_AC_Bin24_2018_13TeV_bkgshape'
p215
aS'multipdf:roohist_data_mass_AC_Bin24'
p216
aF0.04405219558657336
aF0.02838519621263913
aF0.0501628602769415
aF0.0008271096085081808
aF0.011094321636392124
aF0.0021694849358482315
aF0.03153062146157026
aF0.0006755007502761146
aF0.0005158497340289614
aF0.0005986085434415145
aF0.00039611036550013523
aF0.0003611918166370742
aF0.0006052728872418811
ag147
ag147
aF5.409232199349899e-07
aF3.033730101400572e-07
aF5.186284787478395e-07
aF1.2065188731145805e-08
aF7.093692441345495e-08
aF1.012364883865131e-08
aF8.105896873803541e-07
aF2.881879400707625e-09
aF2.1926388628039767e-09
aF2.5149469502609525e-09
aF1.1268893329217162e-09
aF1.2459386274790069e-09
aF5.019483079853709e-09
ag147
ag147
aF0.04590378526416514
aF0.029489359590089366
aF0.052303210856310976
aF0.0008598763541876706
aF0.011544453825695099
aF0.0022515157132945735
aF0.032867449714211294
aF0.0007028782555210377
aF0.0005364251262716256
aF0.0006234046572989628
aF0.0004127306124446861
aF0.00037525352878081116
aF0.0006329274969656258
ag147
ag147
aF0.044316205645391085
aF0.028556692185694232
aF0.050463719291921776
aF0.0008322688647055713
aF0.011160108151795528
aF0.0021825813995633332
aF0.0317157971563017
aF0.0006795046738072595
aF0.0005189499169626231
aF0.0006021995363793273
aF0.00039852187309913356
aF0.0003633269955335839
aF0.0006089064782262349
ag147
ag147
aF0.043788973553918115
aF0.028214217391234024
aF0.04986290217692788
aF0.0008219663505186114
aF0.01102872976418831
aF0.0021564277953469986
aF0.03134598816212163
aF0.000671508720397311
aF0.0005127589240340496
aF0.0005950282646808983
aF0.00039370622563340694
aF0.0003590629348813514
aF0.0006016502526392737
ag147
ag147
aF0.04478302104481557
aF0.028845626980137623
aF0.050987232345183785
aF0.0008399755367784839
aF0.011274672589175408
aF0.002204033875132863
aF0.03205247321436042
aF0.0006862227779906889
aF0.0005238383356832957
aF0.0006082786437201111
aF0.00040209928660783
aF0.00036727253934191345
aF0.0006152531655244263
ag147
ag147
aF0.04332730983411666
aF0.027928482165007495
aF0.049345311999761055
aF0.000814338937136974
aF0.010915426754661547
aF0.0021352007408249997
aF0.031013040700620515
aF0.000664869207420216
aF0.0005079248212638734
aF0.0005890150245809892
aF0.0003901687278878424
aF0.00035516272434172116
aF0.0005953779655255969
ag147
ag147
aF0.04413186963550827
aF0.02843381131540957
aF0.0502527094917031
aF0.0008284355510347128
aF0.011116295214862104
aF0.0021735790182512704
aF0.03159652878031921
aF0.0006768349316716953
aF0.0005167812909704592
aF0.0005996798683364827
aF0.0003968091250360139
aF0.00036185737951215666
aF0.0006063748069309564
ag147
ag147
aF0.04397260260724453
aF0.028336627658389384
aF0.050073100736204405
aF0.00082578481815863
aF0.011072372987119557
aF0.002165395067170287
aF0.031464789496974586
aF0.0006741682380001305
aF0.0005149191754084086
aF0.0005975383312726375
aF0.00039541238124921535
aF0.0003605268774562679
aF0.0006041721289743372
ag147
ag147
aF0.04415684125467619
aF0.028450621977457465
aF0.05028054618420267
aF0.0008290635781711053
aF0.011120871540587721
aF0.0021743713703053654
aF0.031608508986531704
aF0.0006771061368648116
aF0.0005170792809763568
aF0.0006001094221845956
aF0.00039712307727723635
aF0.000362158365339889
aF0.0006067005958209307
ag147
ag147
aF0.04394767174373677
aF0.028319846463174092
aF0.05004530940372717
aF0.0008251579293882758
aF0.011067802930448232
aF0.002164603941815017
aF0.031452830876248436
aF0.0006738972261922031
aF0.0005146216589859134
aF0.0005971094603001592
aF0.00039509891334087285
aF0.00036022647096262264
aF0.0006038468252587719
ag147
ag147
aF0.043807168506191374
aF0.028124903472871665
aF0.04993818277534956
aF0.000827173671723358
aF0.011091134958405746
aF0.002183588140496795
aF0.027436372269676212
aF0.0006799236216465943
aF0.0005202999448101764
aF0.0005898178769712104
aF0.0003992101158019068
aF0.0003612636121488322
aF0.0006275275327425334
ag147
ag147
aF0.044361974993535114
aF0.028566650049924647
aF0.050550690284580924
aF0.0008351856936315016
aF0.011027150132122188
aF0.0021366858761666663
aF0.05896369916990807
aF0.0006839198176749051
aF0.0005297943664572813
aF0.0006107735453042551
aF0.00039271251307582133
aF0.0003612059131228307
aF0.0006428585256799124
ag147
ag147
aF0.045693988113725936
aF0.02913508760912009
aF0.051627360350721574
aF0.000872750442567849
aF0.011303399712232931
aF0.0022608474637308973
aF0.03218047484597264
aF0.0007055544108425238
aF0.000529921390580057
aF0.0006204526641795383
aF0.0004225190293709602
aF0.00035677180699167366
aF0.0006300040572568832
ag147
ag147
aF0.04224091885635062
aF0.027275569432731572
aF0.04827724860751914
aF0.0007488012593057647
aF0.010683775048164534
aF0.002136384940286007
aF0.026904100230694894
aF0.0006585280557374062
aF0.0005037221299062367
aF0.000594253596773342
aF0.00037325487733141927
aF0.0003165971115777211
aF0.000589875286550523
ag147
ag147
aF0.045020571206350724
aF0.029109968422289967
aF0.05137282119176234
aF0.0008438917748208041
aF0.011225919824937591
aF0.0021919161049481772
aF0.02768606397239637
aF0.0006836737197772891
aF0.0005420208897248813
aF0.0006160900879876863
aF0.0004219772263240884
aF0.00037834970407857327
aF0.0006133998781479022
ag147
ag147
aF0.04297852320041784
aF0.02773028529691146
aF0.04906938375370373
aF0.0008272693489743688
aF0.010913379613157304
aF0.0021646591142143734
aF0.026896788172052766
aF0.0006618273291678634
aF0.0005074508310372039
aF0.0005912162512231589
aF0.00038692775137860735
aF0.0003472663006505172
aF0.0005958538172308181
ag147
ag147
aF0.04863331677051974
aF0.03251174857314254
aF0.05466311022109949
aF0.0008530248187526013
aF0.011346791775849852
aF0.00223973656011367
aF0.028000214208077523
aF0.0007713115790011216
aF0.0006286229140641808
aF0.0007211730830931629
aF0.00044707642246066825
aF0.0004241492797518731
aF0.0007163645450418699
ag147
ag147
aF0.039901226273741486
aF0.024910225187340984
aF0.04508434624358415
aF0.0008159544240697869
aF0.010713501633290434
aF0.0021189751375914057
aF0.027239183377332665
aF0.0006126947187112819
aF0.00047916877815623593
aF0.0005423308227818779
aF0.00037760129248454177
aF0.00032992590809044486
aF0.0004949350973220135
ag147
ag147
aF0.045210446896362555
aF0.02934512323599847
aF0.05128909283439498
aF0.0008037624209009664
aF0.01105707644683207
aF0.0021607394203329022
aF0.027536029498605785
aF0.0007094970064827066
aF0.0005686872227670392
aF0.0006713148727612861
aF0.0004136319648750941
aF0.0003753409746423131
aF0.0006039524314473965
ag147
ag147
aF0.04324791353201363
aF0.027778759500961314
aF0.049038854385344166
aF0.0008467504183045094
aF0.011155330564179167
aF0.0021553646579377528
aF0.027228131159517943
aF0.0006704907088987966
aF0.0004870736117936758
aF0.0005627999546504725
aF0.000409600561397383
aF0.00036124668304182705
aF0.000564867053526541
ag147
ag147
aF0.044801719981933275
aF0.029424638090858934
aF0.05067698616403504
aF0.0008267107314168243
aF0.01109737192700777
aF0.002182575881079174
aF0.027385833640892088
aF0.000701237842804403
aF0.0005369841062474734
aF0.0006166288558233646
aF0.0004103028013560106
aF0.0003645576557573804
aF0.0006131751229077054
ag147
ag147
aF0.043144510402726155
aF0.027768967843712744
aF0.0490624390654375
aF0.000830834595262786
aF0.011033001849682478
aF0.002172818886492678
aF0.03119661648361216
aF0.0006835858343947621
aF0.0004989650653897115
aF0.0005652517654652911
aF0.00039309494627559616
aF0.0003544830892678874
aF0.0005594494427896279
ag147
ag147
atp217
ba(lp218
g15
(g16
(dp219
g18
g19
(g20
(I0
tp220
g22
tp221
Rp222
(I1
(I1
tp223
g29
I00
(lp224
g43
atp225
bsg68
Nstp226
Rp227
ag15
(g16
(dp228
g18
g19
(g20
(I0
tp229
g22
tp230
Rp231
(I1
(I33
tp232
g29
I00
(lp233
g33
ag34
ag35
ag36
ag37
ag38
ag39
ag40
ag41
ag42
ag44
ag45
ag46
ag47
ag48
ag49
ag50
ag51
ag52
ag53
ag54
ag55
ag56
ag57
ag58
ag59
ag60
ag61
ag62
ag63
ag64
ag65
ag66
atp234
bsg68
Nstp235
Rp236
a(dp237
S'0.14.1'
p238
(dp239
S'axes'
p240
g14
sS'blocks'
p241
(lp242
(dp243
S'mgr_locs'
p244
c__builtin__
slice
p245
(I10
I11
I1
tp246
Rp247
sS'values'
p248
g89
sa(dp249
g244
g19
(g20
(I0
tp250
g22
tp251
Rp252
(I1
(I33
tp253
g79
I00
S'\x00\x00\x00\x00\x00\x00\x00\x00\x01\x00\x00\x00\x00\x00\x00\x00\x02\x00\x00\x00\x00\x00\x00\x00\x03\x00\x00\x00\x00\x00\x00\x00\x04\x00\x00\x00\x00\x00\x00\x00\x05\x00\x00\x00\x00\x00\x00\x00\x06\x00\x00\x00\x00\x00\x00\x00\x07\x00\x00\x00\x00\x00\x00\x00\x08\x00\x00\x00\x00\x00\x00\x00\t\x00\x00\x00\x00\x00\x00\x00\x0b\x00\x00\x00\x00\x00\x00\x00\x0c\x00\x00\x00\x00\x00\x00\x00\r\x00\x00\x00\x00\x00\x00\x00\x0e\x00\x00\x00\x00\x00\x00\x00\x0f\x00\x00\x00\x00\x00\x00\x00\x10\x00\x00\x00\x00\x00\x00\x00\x11\x00\x00\x00\x00\x00\x00\x00\x12\x00\x00\x00\x00\x00\x00\x00\x13\x00\x00\x00\x00\x00\x00\x00\x14\x00\x00\x00\x00\x00\x00\x00\x15\x00\x00\x00\x00\x00\x00\x00\x16\x00\x00\x00\x00\x00\x00\x00\x17\x00\x00\x00\x00\x00\x00\x00\x18\x00\x00\x00\x00\x00\x00\x00\x19\x00\x00\x00\x00\x00\x00\x00\x1a\x00\x00\x00\x00\x00\x00\x00\x1b\x00\x00\x00\x00\x00\x00\x00\x1c\x00\x00\x00\x00\x00\x00\x00\x1d\x00\x00\x00\x00\x00\x00\x00\x1e\x00\x00\x00\x00\x00\x00\x00\x1f\x00\x00\x00\x00\x00\x00\x00 \x00\x00\x00\x00\x00\x00\x00!\x00\x00\x00\x00\x00\x00\x00'
p254
tp255
bsg248
g100
sasstp256
bsb.