ccopy_reg
_reconstructor
p0
(cpandas.core.frame
DataFrame
p1
c__builtin__
object
p2
Ntp3
Rp4
(dp5
S'_metadata'
p6
(lp7
sS'_typ'
p8
S'dataframe'
p9
sS'_data'
p10
g0
(cpandas.core.internals
BlockManager
p11
g2
Ntp12
Rp13
((lp14
cpandas.core.indexes.base
_new_Index
p15
(cpandas.core.indexes.base
Index
p16
(dp17
S'data'
p18
cnumpy.core.multiarray
_reconstruct
p19
(cnumpy
ndarray
p20
(I0
tp21
S'b'
p22
tp23
Rp24
(I1
(I34
tp25
cnumpy
dtype
p26
(S'O8'
p27
I0
I1
tp28
Rp29
(I3
S'|'
p30
NNNI-1
I-1
I63
tp31
bI00
(lp32
S'year'
p33
aS'type'
p34
aS'procOriginal'
p35
aS'proc'
p36
aS'proc_s0'
p37
aS'cat'
p38
aS'inputWSFile'
p39
aS'nominalDataName'
p40
aS'modelWSFile'
p41
aS'model'
p42
aS'rate'
p43
aS'nominal_yield'
p44
aS'sumw2'
p45
aS'nominal_yield_COWCorr'
p46
aS'LooseMvaSF_up_yield'
p47
aS'LooseMvaSF_down_yield'
p48
aS'PreselSF_up_yield'
p49
aS'PreselSF_down_yield'
p50
aS'electronVetoSF_up_yield'
p51
aS'electronVetoSF_down_yield'
p52
aS'TriggerWeight_up_yield'
p53
aS'TriggerWeight_down_yield'
p54
aS'SigmaEOverEShift_up_yield'
p55
aS'SigmaEOverEShift_down_yield'
p56
aS'MvaShift_up_yield'
p57
aS'MvaShift_down_yield'
p58
aS'PUJIDShift_up_yield'
p59
aS'PUJIDShift_down_yield'
p60
aS'JEC_up_yield'
p61
aS'JEC_down_yield'
p62
aS'JER_up_yield'
p63
aS'JER_down_yield'
p64
aS'JetHEM_up_yield'
p65
aS'JetHEM_down_yield'
p66
atp67
bsS'name'
p68
Nstp69
Rp70
ag15
(cpandas.core.indexes.numeric
Int64Index
p71
(dp72
g18
g19
(g20
(I0
tp73
g22
tp74
Rp75
(I1
(I15
tp76
g26
(S'i8'
p77
I0
I1
tp78
Rp79
(I3
S'<'
p80
NNNI-1
I-1
I0
tp81
bI00
S'\x00\x00\x00\x00\x00\x00\x00\x00\x01\x00\x00\x00\x00\x00\x00\x00\x02\x00\x00\x00\x00\x00\x00\x00\x03\x00\x00\x00\x00\x00\x00\x00\x04\x00\x00\x00\x00\x00\x00\x00\x05\x00\x00\x00\x00\x00\x00\x00\x06\x00\x00\x00\x00\x00\x00\x00\x07\x00\x00\x00\x00\x00\x00\x00\x08\x00\x00\x00\x00\x00\x00\x00\t\x00\x00\x00\x00\x00\x00\x00\n\x00\x00\x00\x00\x00\x00\x00\x0b\x00\x00\x00\x00\x00\x00\x00\x0c\x00\x00\x00\x00\x00\x00\x00\r\x00\x00\x00\x00\x00\x00\x00\x0e\x00\x00\x00\x00\x00\x00\x00'
p82
tp83
bsg68
Nstp84
Rp85
a(lp86
g19
(g20
(I0
tp87
g22
tp88
Rp89
(I1
(I1
I15
tp90
g26
(S'f8'
p91
I0
I1
tp92
Rp93
(I3
S'<'
p94
NNNI-1
I-1
I0
tp95
bI00
S'\x00\x00\x00\x00\xc0\xfa\xec@\x00\x00\x00\x00\xc0\xfa\xec@\x00\x00\x00\x00\xc0\xfa\xec@\x00\x00\x00\x00\xc0\xfa\xec@\x00\x00\x00\x00\xc0\xfa\xec@\x00\x00\x00\x00\xc0\xfa\xec@\x00\x00\x00\x00\xc0\xfa\xec@\x00\x00\x00\x00\xc0\xfa\xec@\x00\x00\x00\x00\xc0\xfa\xec@\x00\x00\x00\x00\xc0\xfa\xec@\x00\x00\x00\x00\xc0\xfa\xec@\x00\x00\x00\x00\xc0\xfa\xec@\x00\x00\x00\x00\xc0\xfa\xec@\x00\x00\x00\x00\x00\x00\xf0?\x00\x00\x00\x00\x00\x00\xf0\xbf'
p96
tp97
bag19
(g20
(I0
tp98
g22
tp99
Rp100
(I1
(I33
I15
tp101
g29
I00
(lp102
S'2018'
p103
ag103
ag103
ag103
ag103
ag103
ag103
ag103
ag103
ag103
ag103
ag103
ag103
ag33
ag33
aS'sig'
p104
ag104
ag104
ag104
ag104
ag104
ag104
ag104
ag104
ag104
ag104
ag104
ag104
aS'bkg'
p105
ag18
aS'GG2HMf05ph0'
p106
aS'GG2HbsmM'
p107
aS'GG2Hsm'
p108
aS'TTHsm'
p109
aS'VBFMf05ph0'
p110
aS'VBFbsmM'
p111
aS'VBFsm'
p112
aS'WHMf05ph0'
p113
aS'WHbsmM'
p114
aS'WHsm'
p115
aS'ZHMf05ph0'
p116
aS'ZHbsmM'
p117
aS'ZHsm'
p118
aS'bkg_mass'
p119
aS'data_obs'
p120
aS'GG2HMf05ph0_2018_hgg'
p121
aS'GG2HbsmM_2018_hgg'
p122
aS'GG2Hsm_2018_hgg'
p123
aS'tth0P_2018_hgg'
p124
aS'vbf0Mf05ph0_2018_hgg'
p125
aS'vbf0M_2018_hgg'
p126
aS'vbf0P_2018_hgg'
p127
aS'wh0Mf05ph0_2018_hgg'
p128
aS'wh0M_2018_hgg'
p129
aS'wh0P_2018_hgg'
p130
aS'zh0Mf05ph0_2018_hgg'
p131
aS'zh0M_2018_hgg'
p132
aS'zh0P_2018_hgg'
p133
ag119
ag120
aS'jjh0Mf05ph0'
p134
aS'jjh0M'
p135
aS'jjh0P'
p136
aS'tth0P'
p137
aS'vbf0Mf05ph0'
p138
aS'vbf0M'
p139
aS'vbf0P'
p140
aS'wh0Mf05ph0'
p141
aS'wh0M'
p142
aS'wh0P'
p143
aS'zh0Mf05ph0'
p144
aS'zh0M'
p145
aS'zh0P'
p146
aS'-'
p147
ag147
aS'AC_Bin6_2018'
p148
aS'AC_Bin6_2018'
p149
aS'AC_Bin6_2018'
p150
aS'AC_Bin6_2018'
p151
aS'AC_Bin6_2018'
p152
aS'AC_Bin6_2018'
p153
aS'AC_Bin6_2018'
p154
aS'AC_Bin6_2018'
p155
aS'AC_Bin6_2018'
p156
aS'AC_Bin6_2018'
p157
aS'AC_Bin6_2018'
p158
aS'AC_Bin6_2018'
p159
aS'AC_Bin6_2018'
p160
aS'AC_Bin6_2018'
p161
ag161
aS'Trees/Opt_2018/2018/Trees2WS_2018/WS/output_GluGluHToGGPlusTwoJets_MM_M125_TuneCP5_13TeV-amcatnlopowheg-minlo-pythia8_GG2HMf05ph0.root'
p162
aS'Trees/Opt_2018/2018/Trees2WS_2018/WS/output_GluGluHToGGPlusTwoJets_CPodd_M125_TuneCP5_13TeV-amcatnlopowheg-minlo-pythia8_GG2HbsmM.root'
p163
aS'Trees/Opt_2018/2018/Trees2WS_2018/WS/output_GluGluHToGGPlusTwoJets_SM_M125_TuneCP5_13TeV-amcatnlopowheg-minlo-pythia8_GG2Hsm.root'
p164
aS'Trees/Opt_2018/2018/Trees2WS_2018/WS/output_ttHJetToGG_M125_TuneCP5_13TeV-amcatnloFXFX-madspin-pythia8_TTHsm.root'
p165
aS'Trees/Opt_2018/2018/Trees2WS_2018/WS/output_VBFHiggs0Mf05ph0ToGG_M125_TuneCP5_13TeV-JHUGenV7011-pythia8_VBFMf05ph0.root'
p166
aS'Trees/Opt_2018/2018/Trees2WS_2018/WS/output_VBFHiggs0MToGG_M125_TuneCP5_13TeV-JHUGenV7011-pythia8_VBFbsmM.root'
p167
aS'Trees/Opt_2018/2018/Trees2WS_2018/WS/output_VBFHToGG_M125_TuneCP5_13TeV-amcatnlo-pythia8_VBFsm.root'
p168
aS'Trees/Opt_2018/2018/Trees2WS_2018/WS/output_WHiggs0Mf05ph0ToGG_M125_TuneCP5_13TeV-JHUGenV7011-pythia8_WHMf05ph0.root'
p169
aS'Trees/Opt_2018/2018/Trees2WS_2018/WS/output_WHiggs0MToGG_M125_TuneCP5_13TeV-JHUGenV7011-pythia8_WHbsmM.root'
p170
aS'Trees/Opt_2018/2018/Trees2WS_2018/WS/output_WHiggs0PMToGG_M125_TuneCP5_13TeV-JHUGenV7011-pythia8_WHsm.root'
p171
aS'Trees/Opt_2018/2018/Trees2WS_2018/WS/output_ZHiggs0Mf05ph0ToGG_M125_TuneCP5_13TeV-JHUGenV7011-pythia8_ZHMf05ph0.root'
p172
aS'Trees/Opt_2018/2018/Trees2WS_2018/WS/output_ZHiggs0MToGG_M125_TuneCP5_13TeV-JHUGenV7011-pythia8_ZHbsmM.root'
p173
aS'Trees/Opt_2018/2018/Trees2WS_2018/WS/output_ZH_HToGG_ZToAll_M125_TuneCP5_13TeV-powheg-pythia8_ZHsm.root'
p174
ag147
ag147
aS'jjh0Mf05ph0_125_13TeV_AC_Bin6'
p175
aS'jjh0M_125_13TeV_AC_Bin6'
p176
aS'jjh0P_125_13TeV_AC_Bin6'
p177
aS'tth0P_125_13TeV_AC_Bin6'
p178
aS'vbf0Mf05ph0_125_13TeV_AC_Bin6'
p179
aS'vbf0M_125_13TeV_AC_Bin6'
p180
aS'vbf0P_125_13TeV_AC_Bin6'
p181
aS'wh0Mf05ph0_125_13TeV_AC_Bin6'
p182
aS'wh0M_125_13TeV_AC_Bin6'
p183
aS'wh0P_125_13TeV_AC_Bin6'
p184
aS'zh0Mf05ph0_125_13TeV_AC_Bin6'
p185
aS'zh0M_125_13TeV_AC_Bin6'
p186
aS'zh0P_125_13TeV_AC_Bin6'
p187
ag147
ag147
aS'./Models/signal/CMS-HGG_sigfit_packaged_AC_Bin6_2018.root'
p188
aS'./Models/signal/CMS-HGG_sigfit_packaged_AC_Bin6_2018.root'
p189
aS'./Models/signal/CMS-HGG_sigfit_packaged_AC_Bin6_2018.root'
p190
aS'./Models/signal/CMS-HGG_sigfit_packaged_AC_Bin6_2018.root'
p191
aS'./Models/signal/CMS-HGG_sigfit_packaged_AC_Bin6_2018.root'
p192
aS'./Models/signal/CMS-HGG_sigfit_packaged_AC_Bin6_2018.root'
p193
aS'./Models/signal/CMS-HGG_sigfit_packaged_AC_Bin6_2018.root'
p194
aS'./Models/signal/CMS-HGG_sigfit_packaged_AC_Bin6_2018.root'
p195
aS'./Models/signal/CMS-HGG_sigfit_packaged_AC_Bin6_2018.root'
p196
aS'./Models/signal/CMS-HGG_sigfit_packaged_AC_Bin6_2018.root'
p197
aS'./Models/signal/CMS-HGG_sigfit_packaged_AC_Bin6_2018.root'
p198
aS'./Models/signal/CMS-HGG_sigfit_packaged_AC_Bin6_2018.root'
p199
aS'./Models/signal/CMS-HGG_sigfit_packaged_AC_Bin6_2018.root'
p200
aS'./Models/background/CMS-HGG_multipdf_AC_Bin6_2018.root'
p201
ag201
aS'wsig_13TeV:hggpdfsmrel_GG2HMf05ph0_2018_AC_Bin6_13TeV'
p202
aS'wsig_13TeV:hggpdfsmrel_GG2HbsmM_2018_AC_Bin6_13TeV'
p203
aS'wsig_13TeV:hggpdfsmrel_GG2Hsm_2018_AC_Bin6_13TeV'
p204
aS'wsig_13TeV:hggpdfsmrel_TTHsm_2018_AC_Bin6_13TeV'
p205
aS'wsig_13TeV:hggpdfsmrel_VBFMf05ph0_2018_AC_Bin6_13TeV'
p206
aS'wsig_13TeV:hggpdfsmrel_VBFbsmM_2018_AC_Bin6_13TeV'
p207
aS'wsig_13TeV:hggpdfsmrel_VBFsm_2018_AC_Bin6_13TeV'
p208
aS'wsig_13TeV:hggpdfsmrel_WHMf05ph0_2018_AC_Bin6_13TeV'
p209
aS'wsig_13TeV:hggpdfsmrel_WHbsmM_2018_AC_Bin6_13TeV'
p210
aS'wsig_13TeV:hggpdfsmrel_WHsm_2018_AC_Bin6_13TeV'
p211
aS'wsig_13TeV:hggpdfsmrel_ZHMf05ph0_2018_AC_Bin6_13TeV'
p212
aS'wsig_13TeV:hggpdfsmrel_ZHbsmM_2018_AC_Bin6_13TeV'
p213
aS'wsig_13TeV:hggpdfsmrel_ZHsm_2018_AC_Bin6_13TeV'
p214
aS'multipdf:CMS_hgg_AC_Bin6_2018_13TeV_bkgshape'
p215
aS'multipdf:roohist_data_mass_AC_Bin6'
p216
aF0.08312945870329713
aF0.10825313469376852
aF0.0809520547854845
aF0.003568743952882869
aF0.02149798929872304
aF0.02965840358319838
aF0.04232777895504114
aF0.002716978118314728
aF0.0018382041607765132
aF0.003084397161956076
aF0.0018675576418445416
aF0.0014357280895183067
aF0.004135814866913279
ag147
ag147
aF9.807987293416966e-07
aF1.056683583204897e-06
aF8.147163371705675e-07
aF4.9494079532856054e-08
aF1.0808107709813982e-07
aF1.492620139113499e-07
aF1.1462726094302559e-06
aF1.1509875476284388e-08
aF7.817601424134374e-09
aF1.3089624086887408e-08
aF5.306873690218046e-09
aF4.976237201006591e-09
aF3.323016309204928e-08
ag147
ag147
aF0.0865639834211232
aF0.11276969153822987
aF0.0843513587113817
aF0.003702925581957044
aF0.022330209838230787
aF0.030802124599211174
aF0.04402001602349784
aF0.0028289745192250663
aF0.0019111979228001786
aF0.0032102685252529384
aF0.0019426852878083282
aF0.0014920294539153263
aF0.00430357698922916
ag147
ag147
aF0.08362728709229747
aF0.10890108061989859
aF0.0814353431704516
aF0.003590355114292098
aF0.02162592573416385
aF0.029836187141753172
aF0.04257957394987208
aF0.002732956322715906
aF0.001849121165970843
aF0.003102670652165878
aF0.0018787342685423767
aF0.0014442336998311302
aF0.004160036449651039
ag147
ag147
aF0.08263311778446504
aF0.10760712362772454
aF0.08047020659296567
aF0.003547198181169108
aF0.02137043232487208
aF0.02948115121500548
aF0.042076732184726975
aF0.002701046726112371
aF0.001827319422653561
aF0.003066177845912599
aF0.0018564144382365178
aF0.0014272476197747187
aF0.004111664200773349
ag147
ag147
aF0.08446781343934583
aF0.10999288991557916
aF0.08227354140228922
aF0.0036252864106520563
aF0.02184205845389047
aF0.030123145947414696
aF0.04300599083927758
aF0.002761298231395241
aF0.0018677268114417227
aF0.003133006115342775
aF0.0018967846692950563
aF0.0014589114408300183
aF0.0042038678054707925
ag147
ag147
aF0.08180180398847026
aF0.10652727556544346
aF0.07964131417309582
aF0.003512642152295715
aF0.021156582349150185
aF0.029197261579364708
aF0.041655060631807565
aF0.002673024602964007
aF0.001808914020849367
aF0.0030361813906792856
aF0.001838560385968498
aF0.0014127241328380548
aF0.0040683153163683684
ag147
ag147
aF0.0832855808205358
aF0.10845810188855948
aF0.08110455714870098
aF0.0035753049234336738
aF0.021540452902175128
aF0.029716585279858775
aF0.042410906841279315
aF0.002722781628175072
aF0.0018419806773152987
aF0.003090651335068376
aF0.0018713065269477082
aF0.0014385979898042325
aF0.0041445124531656755
ag147
ag147
aF0.08297349815221443
aF0.10804837809891253
aF0.08079970907715961
aF0.003562189332318426
aF0.02145557088140374
aF0.029600283101600147
aF0.04224474050579842
aF0.0027111819008800793
aF0.001834431680365609
aF0.003078150044172269
aF0.0018638130977285134
aF0.0014328614221225467
aF0.004127127358991327
ag147
ag147
aF0.08333274042769492
aF0.10851591764701032
aF0.0811477611511993
aF0.003577091908903188
aF0.021548927792391273
aF0.029727832806158334
aF0.04243300945529016
aF0.0027236688677378554
aF0.0018425936245441508
aF0.0030921811558399757
aF0.0018721072761904152
aF0.0014391153658241986
aF0.004146142389691113
ag147
ag147
aF0.08292641841994708
aF0.10799066586527564
aF0.08075658127647345
aF0.003560405491448603
aF0.021447110135073163
aF0.02958905445017294
aF0.04222267833517834
aF0.002710295448092966
aF0.0018338198246823179
aF0.0030766228066968983
aF0.0018630136075023036
aF0.0014323447578237125
aF0.004125500027504129
ag147
ag147
aF0.08274951944986242
aF0.10773305358998186
aF0.08046639935810163
aF0.003529315446030523
aF0.0216754745340495
aF0.02992168933587891
aF0.03758082267313512
aF0.002695665635201294
aF0.0018512242577344296
aF0.0030630692010618077
aF0.0018542130021614867
aF0.0014493063795271155
aF0.004129370793179987
ag147
ag147
aF0.0838147102331277
aF0.10857451206175028
aF0.0812359360438677
aF0.003558116865406191
aF0.021274688521089047
aF0.029260586332384264
aF0.03765704867191744
aF0.002720901988368496
aF0.0018334095784666715
aF0.0031346589626082277
aF0.0018736537658696761
aF0.001394037933096115
aF0.004160602104093414
ag147
ag147
aF0.08561586272617205
aF0.1113154368827054
aF0.08379328833188993
aF0.003697035229379253
aF0.02206007173776925
aF0.030291509579683407
aF0.043230930133177026
aF0.0028132374222877843
aF0.0018644958138338552
aF0.0031620801046301494
aF0.001909788116108757
aF0.0014904106938047335
aF0.004249737709869805
ag147
ag147
aF0.08028359143827402
aF0.10487936670051567
aF0.0786179324936711
aF0.0033244921057757892
aF0.02083767923272717
aF0.02872514649106961
aF0.03616454225311827
aF0.0026117902300484275
aF0.00179283703891997
aF0.0030002740438703768
aF0.0018268291178173968
aF0.0014111515640706784
aF0.003997064645773207
ag147
ag147
aF0.0842418728661869
aF0.10945980210999551
aF0.08197275553902728
aF0.003584768044447628
aF0.021566987292089834
aF0.029700016450078692
aF0.041817006188011874
aF0.002764634522009146
aF0.0018711975160385919
aF0.0031226726948716532
aF0.0018845123438495648
aF0.0014538989062202745
aF0.0041671074927762675
ag147
ag147
aF0.08189974188462656
aF0.10700837895365112
aF0.0797315306440396
aF0.003560693874305798
aF0.02134710300219922
aF0.029618117119298404
aF0.042183124655366555
aF0.002685896358343598
aF0.0018101121295330813
aF0.0030327345675686956
aF0.00183870194928204
aF0.00141748807982367
aF0.004103978080365778
ag147
ag147
aF0.08943149939750583
aF0.11646377612532888
aF0.08646230431304502
aF0.003591544918208456
aF0.02158753145067749
aF0.029567305124146515
aF0.037332691099891235
aF0.0029499556919745373
aF0.002024730266612096
aF0.003464196606500991
aF0.0020970347263755684
aF0.001579131763719488
aF0.0045770444207846595
ag147
ag147
aF0.07773090396403859
aF0.10079106481634881
aF0.07519779842459684
aF0.003573188960444895
aF0.021165218827491117
aF0.02944516399566055
aF0.037536157174145046
aF0.0024024134254432283
aF0.00167050850313899
aF0.0027656626573389076
aF0.0016621159206806624
aF0.0012962374173639546
aF0.0037080033557685965
ag147
ag147
aF0.0845028577678022
aF0.10940989319851724
aF0.08166194008799721
aF0.003565380852933231
aF0.021480769903746477
aF0.029619376911341533
aF0.04129180333711702
aF0.0027536910135950166
aF0.0019102716482848336
aF0.0031491681895658985
aF0.0019278860070244264
aF0.0014448019890096475
aF0.004122328915855178
ag147
ag147
aF0.08229119542829721
aF0.10772430875840655
aF0.07956897096482862
aF0.0035790850104149285
aF0.021535616555411252
aF0.029609281246393948
aF0.037704124900301395
aF0.002673497221849175
aF0.0018069569168801536
aF0.0029681535061172326
aF0.00183193887141897
aF0.0013926704691584746
aF0.004028860264952527
ag147
ag147
aF0.08439701158295065
aF0.10953957887386423
aF0.08188370104926435
aF0.0035978457253804663
aF0.021427395516411707
aF0.029669676835510472
aF0.041365791435055144
aF0.0028257335229682212
aF0.0018916999620159913
aF0.0031132550384427304
aF0.001910922551587646
aF0.0014771800890684972
aF0.004227583813644742
ag147
ag147
aF0.08217268204953143
aF0.10664621597652513
aF0.08032283608326907
aF0.003558971154234314
aF0.02137902124354696
aF0.029571680120625388
aF0.03727992110680134
aF0.002668461110943099
aF0.0018027083192464488
aF0.003012415557350323
aF0.0018470922670985601
aF0.001400087705178521
aF0.0040703846998439985
ag147
ag147
atp217
ba(lp218
g15
(g16
(dp219
g18
g19
(g20
(I0
tp220
g22
tp221
Rp222
(I1
(I1
tp223
g29
I00
(lp224
g43
atp225
bsg68
Nstp226
Rp227
ag15
(g16
(dp228
g18
g19
(g20
(I0
tp229
g22
tp230
Rp231
(I1
(I33
tp232
g29
I00
(lp233
g33
ag34
ag35
ag36
ag37
ag38
ag39
ag40
ag41
ag42
ag44
ag45
ag46
ag47
ag48
ag49
ag50
ag51
ag52
ag53
ag54
ag55
ag56
ag57
ag58
ag59
ag60
ag61
ag62
ag63
ag64
ag65
ag66
atp234
bsg68
Nstp235
Rp236
a(dp237
S'0.14.1'
p238
(dp239
S'axes'
p240
g14
sS'blocks'
p241
(lp242
(dp243
S'mgr_locs'
p244
c__builtin__
slice
p245
(I10
I11
I1
tp246
Rp247
sS'values'
p248
g89
sa(dp249
g244
g19
(g20
(I0
tp250
g22
tp251
Rp252
(I1
(I33
tp253
g79
I00
S'\x00\x00\x00\x00\x00\x00\x00\x00\x01\x00\x00\x00\x00\x00\x00\x00\x02\x00\x00\x00\x00\x00\x00\x00\x03\x00\x00\x00\x00\x00\x00\x00\x04\x00\x00\x00\x00\x00\x00\x00\x05\x00\x00\x00\x00\x00\x00\x00\x06\x00\x00\x00\x00\x00\x00\x00\x07\x00\x00\x00\x00\x00\x00\x00\x08\x00\x00\x00\x00\x00\x00\x00\t\x00\x00\x00\x00\x00\x00\x00\x0b\x00\x00\x00\x00\x00\x00\x00\x0c\x00\x00\x00\x00\x00\x00\x00\r\x00\x00\x00\x00\x00\x00\x00\x0e\x00\x00\x00\x00\x00\x00\x00\x0f\x00\x00\x00\x00\x00\x00\x00\x10\x00\x00\x00\x00\x00\x00\x00\x11\x00\x00\x00\x00\x00\x00\x00\x12\x00\x00\x00\x00\x00\x00\x00\x13\x00\x00\x00\x00\x00\x00\x00\x14\x00\x00\x00\x00\x00\x00\x00\x15\x00\x00\x00\x00\x00\x00\x00\x16\x00\x00\x00\x00\x00\x00\x00\x17\x00\x00\x00\x00\x00\x00\x00\x18\x00\x00\x00\x00\x00\x00\x00\x19\x00\x00\x00\x00\x00\x00\x00\x1a\x00\x00\x00\x00\x00\x00\x00\x1b\x00\x00\x00\x00\x00\x00\x00\x1c\x00\x00\x00\x00\x00\x00\x00\x1d\x00\x00\x00\x00\x00\x00\x00\x1e\x00\x00\x00\x00\x00\x00\x00\x1f\x00\x00\x00\x00\x00\x00\x00 \x00\x00\x00\x00\x00\x00\x00!\x00\x00\x00\x00\x00\x00\x00'
p254
tp255
bsg248
g100
sasstp256
bsb.