ccopy_reg
_reconstructor
p0
(cpandas.core.frame
DataFrame
p1
c__builtin__
object
p2
Ntp3
Rp4
(dp5
S'_metadata'
p6
(lp7
sS'_typ'
p8
S'dataframe'
p9
sS'_data'
p10
g0
(cpandas.core.internals
BlockManager
p11
g2
Ntp12
Rp13
((lp14
cpandas.core.indexes.base
_new_Index
p15
(cpandas.core.indexes.base
Index
p16
(dp17
S'data'
p18
cnumpy.core.multiarray
_reconstruct
p19
(cnumpy
ndarray
p20
(I0
tp21
S'b'
p22
tp23
Rp24
(I1
(I34
tp25
cnumpy
dtype
p26
(S'O8'
p27
I0
I1
tp28
Rp29
(I3
S'|'
p30
NNNI-1
I-1
I63
tp31
bI00
(lp32
S'year'
p33
aS'type'
p34
aS'procOriginal'
p35
aS'proc'
p36
aS'proc_s0'
p37
aS'cat'
p38
aS'inputWSFile'
p39
aS'nominalDataName'
p40
aS'modelWSFile'
p41
aS'model'
p42
aS'rate'
p43
aS'nominal_yield'
p44
aS'sumw2'
p45
aS'nominal_yield_COWCorr'
p46
aS'LooseMvaSF_up_yield'
p47
aS'LooseMvaSF_down_yield'
p48
aS'PreselSF_up_yield'
p49
aS'PreselSF_down_yield'
p50
aS'electronVetoSF_up_yield'
p51
aS'electronVetoSF_down_yield'
p52
aS'TriggerWeight_up_yield'
p53
aS'TriggerWeight_down_yield'
p54
aS'SigmaEOverEShift_up_yield'
p55
aS'SigmaEOverEShift_down_yield'
p56
aS'MvaShift_up_yield'
p57
aS'MvaShift_down_yield'
p58
aS'PUJIDShift_up_yield'
p59
aS'PUJIDShift_down_yield'
p60
aS'JEC_up_yield'
p61
aS'JEC_down_yield'
p62
aS'JER_up_yield'
p63
aS'JER_down_yield'
p64
aS'JetHEM_up_yield'
p65
aS'JetHEM_down_yield'
p66
atp67
bsS'name'
p68
Nstp69
Rp70
ag15
(cpandas.core.indexes.numeric
Int64Index
p71
(dp72
g18
g19
(g20
(I0
tp73
g22
tp74
Rp75
(I1
(I15
tp76
g26
(S'i8'
p77
I0
I1
tp78
Rp79
(I3
S'<'
p80
NNNI-1
I-1
I0
tp81
bI00
S'\x00\x00\x00\x00\x00\x00\x00\x00\x01\x00\x00\x00\x00\x00\x00\x00\x02\x00\x00\x00\x00\x00\x00\x00\x03\x00\x00\x00\x00\x00\x00\x00\x04\x00\x00\x00\x00\x00\x00\x00\x05\x00\x00\x00\x00\x00\x00\x00\x06\x00\x00\x00\x00\x00\x00\x00\x07\x00\x00\x00\x00\x00\x00\x00\x08\x00\x00\x00\x00\x00\x00\x00\t\x00\x00\x00\x00\x00\x00\x00\n\x00\x00\x00\x00\x00\x00\x00\x0b\x00\x00\x00\x00\x00\x00\x00\x0c\x00\x00\x00\x00\x00\x00\x00\r\x00\x00\x00\x00\x00\x00\x00\x0e\x00\x00\x00\x00\x00\x00\x00'
p82
tp83
bsg68
Nstp84
Rp85
a(lp86
g19
(g20
(I0
tp87
g22
tp88
Rp89
(I1
(I1
I15
tp90
g26
(S'f8'
p91
I0
I1
tp92
Rp93
(I3
S'<'
p94
NNNI-1
I-1
I0
tp95
bI00
S'\x00\x00\x00\x00\xc0\xfa\xec@\x00\x00\x00\x00\xc0\xfa\xec@\x00\x00\x00\x00\xc0\xfa\xec@\x00\x00\x00\x00\xc0\xfa\xec@\x00\x00\x00\x00\xc0\xfa\xec@\x00\x00\x00\x00\xc0\xfa\xec@\x00\x00\x00\x00\xc0\xfa\xec@\x00\x00\x00\x00\xc0\xfa\xec@\x00\x00\x00\x00\xc0\xfa\xec@\x00\x00\x00\x00\xc0\xfa\xec@\x00\x00\x00\x00\xc0\xfa\xec@\x00\x00\x00\x00\xc0\xfa\xec@\x00\x00\x00\x00\xc0\xfa\xec@\x00\x00\x00\x00\x00\x00\xf0?\x00\x00\x00\x00\x00\x00\xf0\xbf'
p96
tp97
bag19
(g20
(I0
tp98
g22
tp99
Rp100
(I1
(I33
I15
tp101
g29
I00
(lp102
S'2018'
p103
ag103
ag103
ag103
ag103
ag103
ag103
ag103
ag103
ag103
ag103
ag103
ag103
ag33
ag33
aS'sig'
p104
ag104
ag104
ag104
ag104
ag104
ag104
ag104
ag104
ag104
ag104
ag104
ag104
aS'bkg'
p105
ag18
aS'GG2HMf05ph0'
p106
aS'GG2HbsmM'
p107
aS'GG2Hsm'
p108
aS'TTHsm'
p109
aS'VBFMf05ph0'
p110
aS'VBFbsmM'
p111
aS'VBFsm'
p112
aS'WHMf05ph0'
p113
aS'WHbsmM'
p114
aS'WHsm'
p115
aS'ZHMf05ph0'
p116
aS'ZHbsmM'
p117
aS'ZHsm'
p118
aS'bkg_mass'
p119
aS'data_obs'
p120
aS'GG2HMf05ph0_2018_hgg'
p121
aS'GG2HbsmM_2018_hgg'
p122
aS'GG2Hsm_2018_hgg'
p123
aS'tth0P_2018_hgg'
p124
aS'vbf0Mf05ph0_2018_hgg'
p125
aS'vbf0M_2018_hgg'
p126
aS'vbf0P_2018_hgg'
p127
aS'wh0Mf05ph0_2018_hgg'
p128
aS'wh0M_2018_hgg'
p129
aS'wh0P_2018_hgg'
p130
aS'zh0Mf05ph0_2018_hgg'
p131
aS'zh0M_2018_hgg'
p132
aS'zh0P_2018_hgg'
p133
ag119
ag120
aS'jjh0Mf05ph0'
p134
aS'jjh0M'
p135
aS'jjh0P'
p136
aS'tth0P'
p137
aS'vbf0Mf05ph0'
p138
aS'vbf0M'
p139
aS'vbf0P'
p140
aS'wh0Mf05ph0'
p141
aS'wh0M'
p142
aS'wh0P'
p143
aS'zh0Mf05ph0'
p144
aS'zh0M'
p145
aS'zh0P'
p146
aS'-'
p147
ag147
aS'AC_Bin9_2018'
p148
aS'AC_Bin9_2018'
p149
aS'AC_Bin9_2018'
p150
aS'AC_Bin9_2018'
p151
aS'AC_Bin9_2018'
p152
aS'AC_Bin9_2018'
p153
aS'AC_Bin9_2018'
p154
aS'AC_Bin9_2018'
p155
aS'AC_Bin9_2018'
p156
aS'AC_Bin9_2018'
p157
aS'AC_Bin9_2018'
p158
aS'AC_Bin9_2018'
p159
aS'AC_Bin9_2018'
p160
aS'AC_Bin9_2018'
p161
ag161
aS'Trees/Opt_2018/2018/Trees2WS_2018/WS/output_GluGluHToGGPlusTwoJets_MM_M125_TuneCP5_13TeV-amcatnlopowheg-minlo-pythia8_GG2HMf05ph0.root'
p162
aS'Trees/Opt_2018/2018/Trees2WS_2018/WS/output_GluGluHToGGPlusTwoJets_CPodd_M125_TuneCP5_13TeV-amcatnlopowheg-minlo-pythia8_GG2HbsmM.root'
p163
aS'Trees/Opt_2018/2018/Trees2WS_2018/WS/output_GluGluHToGGPlusTwoJets_SM_M125_TuneCP5_13TeV-amcatnlopowheg-minlo-pythia8_GG2Hsm.root'
p164
aS'Trees/Opt_2018/2018/Trees2WS_2018/WS/output_ttHJetToGG_M125_TuneCP5_13TeV-amcatnloFXFX-madspin-pythia8_TTHsm.root'
p165
aS'Trees/Opt_2018/2018/Trees2WS_2018/WS/output_VBFHiggs0Mf05ph0ToGG_M125_TuneCP5_13TeV-JHUGenV7011-pythia8_VBFMf05ph0.root'
p166
aS'Trees/Opt_2018/2018/Trees2WS_2018/WS/output_VBFHiggs0MToGG_M125_TuneCP5_13TeV-JHUGenV7011-pythia8_VBFbsmM.root'
p167
aS'Trees/Opt_2018/2018/Trees2WS_2018/WS/output_VBFHToGG_M125_TuneCP5_13TeV-amcatnlo-pythia8_VBFsm.root'
p168
aS'Trees/Opt_2018/2018/Trees2WS_2018/WS/output_WHiggs0Mf05ph0ToGG_M125_TuneCP5_13TeV-JHUGenV7011-pythia8_WHMf05ph0.root'
p169
aS'Trees/Opt_2018/2018/Trees2WS_2018/WS/output_WHiggs0MToGG_M125_TuneCP5_13TeV-JHUGenV7011-pythia8_WHbsmM.root'
p170
aS'Trees/Opt_2018/2018/Trees2WS_2018/WS/output_WHiggs0PMToGG_M125_TuneCP5_13TeV-JHUGenV7011-pythia8_WHsm.root'
p171
aS'Trees/Opt_2018/2018/Trees2WS_2018/WS/output_ZHiggs0Mf05ph0ToGG_M125_TuneCP5_13TeV-JHUGenV7011-pythia8_ZHMf05ph0.root'
p172
aS'Trees/Opt_2018/2018/Trees2WS_2018/WS/output_ZHiggs0MToGG_M125_TuneCP5_13TeV-JHUGenV7011-pythia8_ZHbsmM.root'
p173
aS'Trees/Opt_2018/2018/Trees2WS_2018/WS/output_ZH_HToGG_ZToAll_M125_TuneCP5_13TeV-powheg-pythia8_ZHsm.root'
p174
ag147
ag147
aS'jjh0Mf05ph0_125_13TeV_AC_Bin9'
p175
aS'jjh0M_125_13TeV_AC_Bin9'
p176
aS'jjh0P_125_13TeV_AC_Bin9'
p177
aS'tth0P_125_13TeV_AC_Bin9'
p178
aS'vbf0Mf05ph0_125_13TeV_AC_Bin9'
p179
aS'vbf0M_125_13TeV_AC_Bin9'
p180
aS'vbf0P_125_13TeV_AC_Bin9'
p181
aS'wh0Mf05ph0_125_13TeV_AC_Bin9'
p182
aS'wh0M_125_13TeV_AC_Bin9'
p183
aS'wh0P_125_13TeV_AC_Bin9'
p184
aS'zh0Mf05ph0_125_13TeV_AC_Bin9'
p185
aS'zh0M_125_13TeV_AC_Bin9'
p186
aS'zh0P_125_13TeV_AC_Bin9'
p187
ag147
ag147
aS'./Models/signal/CMS-HGG_sigfit_packaged_AC_Bin9_2018.root'
p188
aS'./Models/signal/CMS-HGG_sigfit_packaged_AC_Bin9_2018.root'
p189
aS'./Models/signal/CMS-HGG_sigfit_packaged_AC_Bin9_2018.root'
p190
aS'./Models/signal/CMS-HGG_sigfit_packaged_AC_Bin9_2018.root'
p191
aS'./Models/signal/CMS-HGG_sigfit_packaged_AC_Bin9_2018.root'
p192
aS'./Models/signal/CMS-HGG_sigfit_packaged_AC_Bin9_2018.root'
p193
aS'./Models/signal/CMS-HGG_sigfit_packaged_AC_Bin9_2018.root'
p194
aS'./Models/signal/CMS-HGG_sigfit_packaged_AC_Bin9_2018.root'
p195
aS'./Models/signal/CMS-HGG_sigfit_packaged_AC_Bin9_2018.root'
p196
aS'./Models/signal/CMS-HGG_sigfit_packaged_AC_Bin9_2018.root'
p197
aS'./Models/signal/CMS-HGG_sigfit_packaged_AC_Bin9_2018.root'
p198
aS'./Models/signal/CMS-HGG_sigfit_packaged_AC_Bin9_2018.root'
p199
aS'./Models/signal/CMS-HGG_sigfit_packaged_AC_Bin9_2018.root'
p200
aS'./Models/background/CMS-HGG_multipdf_AC_Bin9_2018.root'
p201
ag201
aS'wsig_13TeV:hggpdfsmrel_GG2HMf05ph0_2018_AC_Bin9_13TeV'
p202
aS'wsig_13TeV:hggpdfsmrel_GG2HbsmM_2018_AC_Bin9_13TeV'
p203
aS'wsig_13TeV:hggpdfsmrel_GG2Hsm_2018_AC_Bin9_13TeV'
p204
aS'wsig_13TeV:hggpdfsmrel_TTHsm_2018_AC_Bin9_13TeV'
p205
aS'wsig_13TeV:hggpdfsmrel_VBFMf05ph0_2018_AC_Bin9_13TeV'
p206
aS'wsig_13TeV:hggpdfsmrel_VBFbsmM_2018_AC_Bin9_13TeV'
p207
aS'wsig_13TeV:hggpdfsmrel_VBFsm_2018_AC_Bin9_13TeV'
p208
aS'wsig_13TeV:hggpdfsmrel_WHMf05ph0_2018_AC_Bin9_13TeV'
p209
aS'wsig_13TeV:hggpdfsmrel_WHbsmM_2018_AC_Bin9_13TeV'
p210
aS'wsig_13TeV:hggpdfsmrel_WHsm_2018_AC_Bin9_13TeV'
p211
aS'wsig_13TeV:hggpdfsmrel_ZHMf05ph0_2018_AC_Bin9_13TeV'
p212
aS'wsig_13TeV:hggpdfsmrel_ZHbsmM_2018_AC_Bin9_13TeV'
p213
aS'wsig_13TeV:hggpdfsmrel_ZHsm_2018_AC_Bin9_13TeV'
p214
aS'multipdf:CMS_hgg_AC_Bin9_2018_13TeV_bkgshape'
p215
aS'multipdf:roohist_data_mass_AC_Bin9'
p216
aF0.04758847739867633
aF0.038999947692900605
aF0.07019565229029467
aF0.0021515851560707233
aF0.01252602916270007
aF0.003923462706325154
aF0.04658303447331491
aF0.0009265545238577033
aF0.000742771116165386
aF0.0008527466998202726
aF0.0004819361313366244
aF0.0005057261466845375
aF0.0011774069571401924
ag147
ag147
aF5.930889039602191e-07
aF4.0588482687811076e-07
aF7.218302706587659e-07
aF2.7888104833904123e-08
aF6.259751492735426e-08
aF1.9734829250766724e-08
aF1.2328278636179061e-06
aF3.934411238603332e-09
aF3.1492370473559023e-09
aF3.613670111468382e-09
aF1.3796983316284952e-09
aF1.733645833642925e-09
aF9.215637186033113e-09
ag147
ag147
aF0.04953061677616073
aF0.040523956256557435
aF0.0732456243717915
aF0.002231885346550563
aF0.013028085163337588
aF0.004077541763965302
aF0.04851252392673199
aF0.0009666061186583076
aF0.0007738520790758694
aF0.0008896965891524798
aF0.0005027257566060128
aF0.0005268663865863523
aF0.0012283471787038836
ag147
ag147
aF0.04787542477545804
aF0.03923626290457317
aF0.07061801878769162
aF0.0021646540356352905
aF0.012600948026946482
aF0.003946968439890527
aF0.04686095780032883
aF0.0009321376961206035
aF0.0007471587194854292
aF0.0008578149757715892
aF0.0004848004025648852
aF0.0005087722487228163
aF0.0011842399698432724
ag147
ag147
aF0.04730239259183663
aF0.03876434611842701
aF0.06977455329115524
aF0.0021385558415284033
aF0.012451333738528431
aF0.0039000270503935196
aF0.04630593859962414
aF0.0009209880850598182
aF0.0007383964141041544
aF0.0008476934497841094
aF0.00047908037191239075
aF0.0005026892351806851
aF0.0011705937776159598
ag147
ag147
aF0.04836443362818187
aF0.03962710750213224
aF0.07134608378306584
aF0.002187558355239775
aF0.012727558905820587
aF0.003986668869304428
aF0.04733215214796632
aF0.0009411311306127335
aF0.0007549279040234989
aF0.0008666186127624725
aF0.000489561266776847
aF0.0005136160554517681
aF0.0011972390084158552
ag147
ag147
aF0.04681881315004287
aF0.038377765233907554
aF0.06905466767737953
aF0.0021159088583909695
aF0.012326109992888447
aF0.0038607527576367162
aF0.04583997125777055
aF0.0009120901489638724
aF0.0007307070775631691
aF0.0008389829413591275
aF0.0004743734094889786
aF0.0004978985667430692
aF0.0011577400708137006
ag147
ag147
aF0.04767207042713576
aF0.03906637134110755
aF0.07031852275560481
aF0.00215516067085625
aF0.012550053412777382
aF0.003930755872165076
aF0.04667292211225991
aF0.0009282212312568193
aF0.000744159689985791
aF0.0008545695940236424
aF0.0004829285064433057
aF0.0005067528245253286
aF0.0011797919015558277
ag147
ag147
aF0.047504966511580475
aF0.03893358718606685
aF0.07007290126656412
aF0.0021480132713223112
aF0.012502030930189137
aF0.003916176617028892
aF0.046493243847958714
aF0.0009248894632769005
aF0.0007413838949815356
aF0.0008509261551420272
aF0.00048094483385368285
aF0.0005047006523617532
aF0.001175024599713811
ag147
ag147
aF0.04770030065424301
aF0.039091045988010734
aF0.07036076874144163
aF0.0021565015516120957
aF0.012555729879034463
aF0.00393240840103005
aF0.046696220705460784
aF0.0009291002778470861
aF0.0007446367447233182
aF0.0008548350442233093
aF0.0004831470771422771
aF0.0005070298827291697
aF0.0011803520008590077
ag147
ag147
aF0.04747678399093896
aF0.03890895347422608
aF0.07003072676956731
aF0.0021466748390063053
aF0.012496362943693343
aF0.003914527035171153
aF0.046469984583088896
aF0.0009240120295745895
aF0.0007409077331461425
aF0.0008506608350826986
aF0.00048072669407675365
aF0.0005044240055387985
aF0.001174465445002607
ag147
ag147
aF0.047229385868376994
aF0.0385818564791407
aF0.0694902067602925
aF0.0021691339272820187
aF0.012452709482431601
aF0.0039792498262158915
aF0.0640307877174564
aF0.0009221665466156992
aF0.0007354632359692914
aF0.0008398841328016715
aF0.0004817601645754621
aF0.0005059967602392135
aF0.0011840185115943314
ag147
ag147
aF0.047856100261014944
aF0.03942220390399598
aF0.07087953607469899
aF0.002125547416653717
aF0.01259662691199992
aF0.0038732316231744335
aF0.05665001133820624
aF0.0009395322933869465
aF0.0007476955211132008
aF0.0008698092410668323
aF0.0004732906777462631
aF0.0005060737641997548
aF0.0011867648804582132
ag147
ag147
aF0.04905826942194835
aF0.04038241063608439
aF0.07260694490378228
aF0.002222173412974371
aF0.012856526455607309
aF0.004092259980097879
aF0.040827976344189665
aF0.0009405444181993516
aF0.0007600820049447066
aF0.0008730847423521482
aF0.00048733496350905625
aF0.0005365137226363004
aF0.0012139273271714046
ag147
ag147
aF0.04567368215339229
aF0.03749093199303388
aF0.06761815465461041
aF0.002063012293774591
aF0.012104994970513872
aF0.0038183216479410476
aF0.03883812446065349
aF0.0008745316495151201
aF0.0007130331991902494
aF0.0008328076166890241
aF0.0004562068027098576
aF0.0004885809908046213
aF0.0011298097601866175
ag147
ag147
aF0.0488105490730959
aF0.039955342466782895
aF0.07145120730865528
aF0.0021515656978863262
aF0.012642066097896532
aF0.0039495928242558875
aF0.04078330764059501
aF0.0009436323550744419
aF0.000759724888666824
aF0.0008741489450585505
aF0.0004905936496015784
aF0.0005194833752284467
aF0.0011774069571401924
ag147
ag147
aF0.04657397039773059
aF0.03815113560085592
aF0.06886518101191541
aF0.0021555576902301254
aF0.012379495279446928
aF0.003933586882567397
aF0.03923708307365814
aF0.000918777003107607
aF0.0007253535904965247
aF0.000816720751572575
aF0.0004705112428382563
aF0.0004916413529372221
aF0.001169682188447041
ag147
ag147
aF0.05240596100247785
aF0.04379399168783493
aF0.07620514643576826
aF0.0020830041064527904
aF0.012877800538035444
aF0.004066169649149742
aF0.04037043091648229
aF0.0010017879326369439
aF0.0008377856233892089
aF0.0009600814939858537
aF0.000561573187724207
aF0.0005686581464487972
aF0.0013199259142311348
ag147
ag147
aF0.042905875994620146
aF0.03402502158769494
aF0.0637087400564269
aF0.002092846337291121
aF0.011939702376139394
aF0.003853267181739284
aF0.03867778205949435
aF0.0008113183819205005
aF0.000695213916060311
aF0.0007503160418309562
aF0.000441991918023632
aF0.0004419629817675741
aF0.0010636010165399057
ag147
ag147
aF0.04835764490235306
aF0.04034374696902887
aF0.07118272672323656
aF0.00212291185448521
aF0.012555009019934005
aF0.003970835489099045
aF0.0399424989363979
aF0.0009845377858255233
aF0.0007861583039812103
aF0.0008732201326893119
aF0.0005020611458803614
aF0.0005096250922633772
aF0.0012155177328168065
ag147
ag147
aF0.0465364653555298
aF0.037931186236619396
aF0.06885089858951687
aF0.00213619000669496
aF0.012524954960326795
aF0.003911529842980599
aF0.045383997068256576
aF0.0008785042257386522
aF0.0007450009020431025
aF0.0008524967647645099
aF0.0004679586236306932
aF0.0004960413155004062
aF0.0012025002156406117
ag147
ag147
aF0.048827506607267424
aF0.039721628471852455
aF0.07122465565862512
aF0.002129543631554043
aF0.012625118439927974
aF0.003953031928858763
aF0.03997954965689132
aF0.0009434375999717304
aF0.0007424115037792944
aF0.0008703100438651745
aF0.0005091671303034673
aF0.000520959179766578
aF0.0012237757291586604
ag147
ag147
aF0.04665343930810195
aF0.0382478246269784
aF0.06904324945890039
aF0.0021504045771507663
aF0.012407699850655263
aF0.0038727354010461568
aF0.052922940242297045
aF0.0009099808894461603
aF0.0007264198782195308
aF0.0008437339231477381
aF0.0004616708658886637
aF0.0004919926327602298
aF0.0011526140770001803
ag147
ag147
atp217
ba(lp218
g15
(g16
(dp219
g18
g19
(g20
(I0
tp220
g22
tp221
Rp222
(I1
(I1
tp223
g29
I00
(lp224
g43
atp225
bsg68
Nstp226
Rp227
ag15
(g16
(dp228
g18
g19
(g20
(I0
tp229
g22
tp230
Rp231
(I1
(I33
tp232
g29
I00
(lp233
g33
ag34
ag35
ag36
ag37
ag38
ag39
ag40
ag41
ag42
ag44
ag45
ag46
ag47
ag48
ag49
ag50
ag51
ag52
ag53
ag54
ag55
ag56
ag57
ag58
ag59
ag60
ag61
ag62
ag63
ag64
ag65
ag66
atp234
bsg68
Nstp235
Rp236
a(dp237
S'0.14.1'
p238
(dp239
S'axes'
p240
g14
sS'blocks'
p241
(lp242
(dp243
S'mgr_locs'
p244
c__builtin__
slice
p245
(I10
I11
I1
tp246
Rp247
sS'values'
p248
g89
sa(dp249
g244
g19
(g20
(I0
tp250
g22
tp251
Rp252
(I1
(I33
tp253
g79
I00
S'\x00\x00\x00\x00\x00\x00\x00\x00\x01\x00\x00\x00\x00\x00\x00\x00\x02\x00\x00\x00\x00\x00\x00\x00\x03\x00\x00\x00\x00\x00\x00\x00\x04\x00\x00\x00\x00\x00\x00\x00\x05\x00\x00\x00\x00\x00\x00\x00\x06\x00\x00\x00\x00\x00\x00\x00\x07\x00\x00\x00\x00\x00\x00\x00\x08\x00\x00\x00\x00\x00\x00\x00\t\x00\x00\x00\x00\x00\x00\x00\x0b\x00\x00\x00\x00\x00\x00\x00\x0c\x00\x00\x00\x00\x00\x00\x00\r\x00\x00\x00\x00\x00\x00\x00\x0e\x00\x00\x00\x00\x00\x00\x00\x0f\x00\x00\x00\x00\x00\x00\x00\x10\x00\x00\x00\x00\x00\x00\x00\x11\x00\x00\x00\x00\x00\x00\x00\x12\x00\x00\x00\x00\x00\x00\x00\x13\x00\x00\x00\x00\x00\x00\x00\x14\x00\x00\x00\x00\x00\x00\x00\x15\x00\x00\x00\x00\x00\x00\x00\x16\x00\x00\x00\x00\x00\x00\x00\x17\x00\x00\x00\x00\x00\x00\x00\x18\x00\x00\x00\x00\x00\x00\x00\x19\x00\x00\x00\x00\x00\x00\x00\x1a\x00\x00\x00\x00\x00\x00\x00\x1b\x00\x00\x00\x00\x00\x00\x00\x1c\x00\x00\x00\x00\x00\x00\x00\x1d\x00\x00\x00\x00\x00\x00\x00\x1e\x00\x00\x00\x00\x00\x00\x00\x1f\x00\x00\x00\x00\x00\x00\x00 \x00\x00\x00\x00\x00\x00\x00!\x00\x00\x00\x00\x00\x00\x00'
p254
tp255
bsg248
g100
sasstp256
bsb.