ccopy_reg
_reconstructor
p0
(cpandas.core.frame
DataFrame
p1
c__builtin__
object
p2
Ntp3
Rp4
(dp5
S'_metadata'
p6
(lp7
sS'_typ'
p8
S'dataframe'
p9
sS'_data'
p10
g0
(cpandas.core.internals
BlockManager
p11
g2
Ntp12
Rp13
((lp14
cpandas.core.indexes.base
_new_Index
p15
(cpandas.core.indexes.base
Index
p16
(dp17
S'data'
p18
cnumpy.core.multiarray
_reconstruct
p19
(cnumpy
ndarray
p20
(I0
tp21
S'b'
p22
tp23
Rp24
(I1
(I32
tp25
cnumpy
dtype
p26
(S'O8'
p27
I0
I1
tp28
Rp29
(I3
S'|'
p30
NNNI-1
I-1
I63
tp31
bI00
(lp32
S'year'
p33
aS'type'
p34
aS'procOriginal'
p35
aS'proc'
p36
aS'proc_s0'
p37
aS'cat'
p38
aS'inputWSFile'
p39
aS'nominalDataName'
p40
aS'modelWSFile'
p41
aS'model'
p42
aS'rate'
p43
aS'nominal_yield'
p44
aS'sumw2'
p45
aS'nominal_yield_COWCorr'
p46
aS'LooseMvaSF_up_yield'
p47
aS'LooseMvaSF_down_yield'
p48
aS'PreselSF_up_yield'
p49
aS'PreselSF_down_yield'
p50
aS'electronVetoSF_up_yield'
p51
aS'electronVetoSF_down_yield'
p52
aS'TriggerWeight_up_yield'
p53
aS'TriggerWeight_down_yield'
p54
aS'SigmaEOverEShift_up_yield'
p55
aS'SigmaEOverEShift_down_yield'
p56
aS'MvaShift_up_yield'
p57
aS'MvaShift_down_yield'
p58
aS'PUJIDShift_up_yield'
p59
aS'PUJIDShift_down_yield'
p60
aS'JEC_up_yield'
p61
aS'JEC_down_yield'
p62
aS'JER_up_yield'
p63
aS'JER_down_yield'
p64
atp65
bsS'name'
p66
Nstp67
Rp68
ag15
(cpandas.core.indexes.numeric
Int64Index
p69
(dp70
g18
g19
(g20
(I0
tp71
g22
tp72
Rp73
(I1
(I15
tp74
g26
(S'i8'
p75
I0
I1
tp76
Rp77
(I3
S'<'
p78
NNNI-1
I-1
I0
tp79
bI00
S'\x00\x00\x00\x00\x00\x00\x00\x00\x01\x00\x00\x00\x00\x00\x00\x00\x02\x00\x00\x00\x00\x00\x00\x00\x03\x00\x00\x00\x00\x00\x00\x00\x04\x00\x00\x00\x00\x00\x00\x00\x05\x00\x00\x00\x00\x00\x00\x00\x06\x00\x00\x00\x00\x00\x00\x00\x07\x00\x00\x00\x00\x00\x00\x00\x08\x00\x00\x00\x00\x00\x00\x00\t\x00\x00\x00\x00\x00\x00\x00\n\x00\x00\x00\x00\x00\x00\x00\x0b\x00\x00\x00\x00\x00\x00\x00\x0c\x00\x00\x00\x00\x00\x00\x00\r\x00\x00\x00\x00\x00\x00\x00\x0e\x00\x00\x00\x00\x00\x00\x00'
p80
tp81
bsg66
Nstp82
Rp83
a(lp84
g19
(g20
(I0
tp85
g22
tp86
Rp87
(I1
(I1
I15
tp88
g26
(S'f8'
p89
I0
I1
tp90
Rp91
(I3
S'<'
p92
NNNI-1
I-1
I0
tp93
bI00
S'\x00\x00\x00\x00\x00A\xe4@\x00\x00\x00\x00\x00A\xe4@\x00\x00\x00\x00\x00A\xe4@\x00\x00\x00\x00\x00A\xe4@\x00\x00\x00\x00\x00A\xe4@\x00\x00\x00\x00\x00A\xe4@\x00\x00\x00\x00\x00A\xe4@\x00\x00\x00\x00\x00A\xe4@\x00\x00\x00\x00\x00A\xe4@\x00\x00\x00\x00\x00A\xe4@\x00\x00\x00\x00\x00A\xe4@\x00\x00\x00\x00\x00A\xe4@\x00\x00\x00\x00\x00A\xe4@\x00\x00\x00\x00\x00\x00\xf0?\x00\x00\x00\x00\x00\x00\xf0\xbf'
p94
tp95
bag19
(g20
(I0
tp96
g22
tp97
Rp98
(I1
(I31
I15
tp99
g29
I00
(lp100
S'2017'
p101
ag101
ag101
ag101
ag101
ag101
ag101
ag101
ag101
ag101
ag101
ag101
ag101
ag33
ag33
aS'sig'
p102
ag102
ag102
ag102
ag102
ag102
ag102
ag102
ag102
ag102
ag102
ag102
ag102
aS'bkg'
p103
ag18
aS'GG2HMf05ph0'
p104
aS'GG2HbsmM'
p105
aS'GG2Hsm'
p106
aS'TTHsm'
p107
aS'VBFMf05ph0'
p108
aS'VBFbsmM'
p109
aS'VBFsm'
p110
aS'WHMf05ph0'
p111
aS'WHbsmM'
p112
aS'WHsm'
p113
aS'ZHMf05ph0'
p114
aS'ZHbsmM'
p115
aS'ZHsm'
p116
aS'bkg_mass'
p117
aS'data_obs'
p118
aS'GG2HMf05ph0_2017_hgg'
p119
aS'GG2HbsmM_2017_hgg'
p120
aS'GG2Hsm_2017_hgg'
p121
aS'tth0P_2017_hgg'
p122
aS'vbf0Mf05ph0_2017_hgg'
p123
aS'vbf0M_2017_hgg'
p124
aS'vbf0P_2017_hgg'
p125
aS'wh0Mf05ph0_2017_hgg'
p126
aS'wh0M_2017_hgg'
p127
aS'wh0P_2017_hgg'
p128
aS'zh0Mf05ph0_2017_hgg'
p129
aS'zh0M_2017_hgg'
p130
aS'zh0P_2017_hgg'
p131
ag117
ag118
aS'jjh0Mf05ph0'
p132
aS'jjh0M'
p133
aS'jjh0P'
p134
aS'tth0P'
p135
aS'vbf0Mf05ph0'
p136
aS'vbf0M'
p137
aS'vbf0P'
p138
aS'wh0Mf05ph0'
p139
aS'wh0M'
p140
aS'wh0P'
p141
aS'zh0Mf05ph0'
p142
aS'zh0M'
p143
aS'zh0P'
p144
aS'-'
p145
ag145
aS'AC_Bin20_2017'
p146
aS'AC_Bin20_2017'
p147
aS'AC_Bin20_2017'
p148
aS'AC_Bin20_2017'
p149
aS'AC_Bin20_2017'
p150
aS'AC_Bin20_2017'
p151
aS'AC_Bin20_2017'
p152
aS'AC_Bin20_2017'
p153
aS'AC_Bin20_2017'
p154
aS'AC_Bin20_2017'
p155
aS'AC_Bin20_2017'
p156
aS'AC_Bin20_2017'
p157
aS'AC_Bin20_2017'
p158
aS'AC_Bin20_2017'
p159
ag159
aS'Trees/Opt_2017/2017/Trees2WS_2017/WS/output_GluGluHToGGPlusTwoJets_MM_M125_TuneCP5_13TeV-amcatnlopowheg-minlo-pythia8_GG2HMf05ph0.root'
p160
aS'Trees/Opt_2017/2017/Trees2WS_2017/WS/output_GluGluHToGGPlusTwoJets_CPodd_M125_TuneCP5_13TeV-amcatnlopowheg-minlo-pythia8_GG2HbsmM.root'
p161
aS'Trees/Opt_2017/2017/Trees2WS_2017/WS/output_GluGluHToGGPlusTwoJets_SM_M125_TuneCP5_13TeV-amcatnlopowheg-minlo-pythia8_GG2Hsm.root'
p162
aS'Trees/Opt_2017/2017/Trees2WS_2017/WS/output_ttHJetToGG_M125_TuneCP5_13TeV-amcatnloFXFX-madspin-pythia8_TTHsm.root'
p163
aS'Trees/Opt_2017/2017/Trees2WS_2017/WS/output_VBFHiggs0Mf05ph0ToGG_M125_TuneCP5_13TeV-JHUGenV7011-pythia8_VBFMf05ph0.root'
p164
aS'Trees/Opt_2017/2017/Trees2WS_2017/WS/output_VBFHiggs0MToGG_M125_TuneCP5_13TeV-JHUGenV7011-pythia8_VBFbsmM.root'
p165
aS'Trees/Opt_2017/2017/Trees2WS_2017/WS/output_VBFHToGG_M125_TuneCP5_13TeV-amcatnlo-pythia8_VBFsm.root'
p166
aS'Trees/Opt_2017/2017/Trees2WS_2017/WS/output_WHiggs0Mf05ph0ToGG_M125_TuneCP5_13TeV-JHUGenV7011-pythia8_WHMf05ph0.root'
p167
aS'Trees/Opt_2017/2017/Trees2WS_2017/WS/output_WHiggs0MToGG_M125_TuneCP5_13TeV-JHUGenV7011-pythia8_WHbsmM.root'
p168
aS'Trees/Opt_2017/2017/Trees2WS_2017/WS/output_WHiggs0PMToGG_M125_TuneCP5_13TeV-JHUGenV7011-pythia8_WHsm.root'
p169
aS'Trees/Opt_2017/2017/Trees2WS_2017/WS/output_ZHiggs0Mf05ph0ToGG_M125_TuneCP5_13TeV-JHUGenV7011-pythia8_ZHMf05ph0.root'
p170
aS'Trees/Opt_2017/2017/Trees2WS_2017/WS/output_ZHiggs0MToGG_M125_TuneCP5_13TeV-JHUGenV7011-pythia8_ZHbsmM.root'
p171
aS'Trees/Opt_2017/2017/Trees2WS_2017/WS/output_ZH_HToGG_ZToAll_M125_TuneCP5_13TeV-powheg-pythia8_ZHsm.root'
p172
ag145
ag145
aS'jjh0Mf05ph0_125_13TeV_AC_Bin20'
p173
aS'jjh0M_125_13TeV_AC_Bin20'
p174
aS'jjh0P_125_13TeV_AC_Bin20'
p175
aS'tth0P_125_13TeV_AC_Bin20'
p176
aS'vbf0Mf05ph0_125_13TeV_AC_Bin20'
p177
aS'vbf0M_125_13TeV_AC_Bin20'
p178
aS'vbf0P_125_13TeV_AC_Bin20'
p179
aS'wh0Mf05ph0_125_13TeV_AC_Bin20'
p180
aS'wh0M_125_13TeV_AC_Bin20'
p181
aS'wh0P_125_13TeV_AC_Bin20'
p182
aS'zh0Mf05ph0_125_13TeV_AC_Bin20'
p183
aS'zh0M_125_13TeV_AC_Bin20'
p184
aS'zh0P_125_13TeV_AC_Bin20'
p185
ag145
ag145
aS'./Models/signal/CMS-HGG_sigfit_packaged_AC_Bin20_2017.root'
p186
aS'./Models/signal/CMS-HGG_sigfit_packaged_AC_Bin20_2017.root'
p187
aS'./Models/signal/CMS-HGG_sigfit_packaged_AC_Bin20_2017.root'
p188
aS'./Models/signal/CMS-HGG_sigfit_packaged_AC_Bin20_2017.root'
p189
aS'./Models/signal/CMS-HGG_sigfit_packaged_AC_Bin20_2017.root'
p190
aS'./Models/signal/CMS-HGG_sigfit_packaged_AC_Bin20_2017.root'
p191
aS'./Models/signal/CMS-HGG_sigfit_packaged_AC_Bin20_2017.root'
p192
aS'./Models/signal/CMS-HGG_sigfit_packaged_AC_Bin20_2017.root'
p193
aS'./Models/signal/CMS-HGG_sigfit_packaged_AC_Bin20_2017.root'
p194
aS'./Models/signal/CMS-HGG_sigfit_packaged_AC_Bin20_2017.root'
p195
aS'./Models/signal/CMS-HGG_sigfit_packaged_AC_Bin20_2017.root'
p196
aS'./Models/signal/CMS-HGG_sigfit_packaged_AC_Bin20_2017.root'
p197
aS'./Models/signal/CMS-HGG_sigfit_packaged_AC_Bin20_2017.root'
p198
aS'./Models/background/CMS-HGG_multipdf_AC_Bin20_2017.root'
p199
ag199
aS'wsig_13TeV:hggpdfsmrel_GG2HMf05ph0_2017_AC_Bin20_13TeV'
p200
aS'wsig_13TeV:hggpdfsmrel_GG2HbsmM_2017_AC_Bin20_13TeV'
p201
aS'wsig_13TeV:hggpdfsmrel_GG2Hsm_2017_AC_Bin20_13TeV'
p202
aS'wsig_13TeV:hggpdfsmrel_TTHsm_2017_AC_Bin20_13TeV'
p203
aS'wsig_13TeV:hggpdfsmrel_VBFMf05ph0_2017_AC_Bin20_13TeV'
p204
aS'wsig_13TeV:hggpdfsmrel_VBFbsmM_2017_AC_Bin20_13TeV'
p205
aS'wsig_13TeV:hggpdfsmrel_VBFsm_2017_AC_Bin20_13TeV'
p206
aS'wsig_13TeV:hggpdfsmrel_WHMf05ph0_2017_AC_Bin20_13TeV'
p207
aS'wsig_13TeV:hggpdfsmrel_WHbsmM_2017_AC_Bin20_13TeV'
p208
aS'wsig_13TeV:hggpdfsmrel_WHsm_2017_AC_Bin20_13TeV'
p209
aS'wsig_13TeV:hggpdfsmrel_ZHMf05ph0_2017_AC_Bin20_13TeV'
p210
aS'wsig_13TeV:hggpdfsmrel_ZHbsmM_2017_AC_Bin20_13TeV'
p211
aS'wsig_13TeV:hggpdfsmrel_ZHsm_2017_AC_Bin20_13TeV'
p212
aS'multipdf:CMS_hgg_AC_Bin20_2017_13TeV_bkgshape'
p213
aS'multipdf:roohist_data_mass_AC_Bin20'
p214
aF0.053974074481175194
aF0.06355549680893091
aF0.032586264638212015
aF0.0007554827602689329
aF0.030403160980540633
aF0.027909622273682544
aF0.059424240426324104
aF0.0007599076598125976
aF0.0007191117827005655
aF0.0005847707075190556
aF0.0004950569459651888
aF0.0005366057555420412
aF0.0008032423870645289
ag145
ag145
aF5.627939060773623e-07
aF6.423069622623366e-07
aF3.340417353095472e-07
aF1.4598506334089652e-08
aF1.5206967707958343e-07
aF1.3998218224217052e-07
aF1.3327795095163122e-06
aF3.1881157760959103e-09
aF3.020170659262281e-09
aF2.6216514941217287e-09
aF1.3607227447322193e-09
aF1.4695064791191224e-09
aF6.7438107202375005e-09
ag145
ag145
aF0.05641587958219632
aF0.06647939567839603
aF0.03405088249303458
aF0.000788042668732612
aF0.031733226877062724
aF0.029132631363960514
aF0.062042975289735305
aF0.000794402320851239
aF0.0007521135704657353
aF0.0006103432230066892
aF0.0005168960169044652
aF0.0005596387333698441
aF0.0008372727164741648
ag145
ag145
aF0.05433372752996347
aF0.06397687823255603
aF0.03280273676247911
aF0.0007607412563675199
aF0.030602112557425443
aF0.02809309465591338
aF0.05981330552113814
aF0.0007648154327087478
aF0.0007239092805334194
aF0.0005884545847775442
aF0.0004983481625293947
aF0.0005401777422773082
aF0.0008084653433503199
ag145
ag145
aF0.05361562956016003
aF0.06313552180419629
aF0.03237051580704433
aF0.0007502423460084168
aF0.030204864032352084
aF0.027726754333346225
aF0.05903646165127288
aF0.0007550158201372648
aF0.0007143304657095432
aF0.0005810985371513355
aF0.0004917767600303821
aF0.0005330457177292716
aF0.0007980364605648262
ag145
ag145
aF0.05482369260035066
aF0.06456891774436878
aF0.033099344709053465
aF0.0007674684883528198
aF0.03088058839113317
aF0.028344963139922377
aF0.06035837225990095
aF0.0007716951199907013
aF0.0007300130328550642
aF0.0005946201911427661
aF0.0005026538109273205
aF0.0005453711553798683
aF0.0008163102680594677
ag145
ag145
aF0.05313104189976191
aF0.06255005227091512
aF0.03207714580873498
aF0.0007435772805285034
aF0.029929397413433347
aF0.02747746530976938
aF0.05849728822563858
aF0.0007482019310580473
aF0.0007082868649834635
aF0.0005750017596249954
aF0.0004875110520821964
aF0.0005279145266856188
aF0.0007902897903246178
ag145
ag145
aF0.05413441412057144
aF0.06374561779156625
aF0.03268440510677213
aF0.0007575145391078569
aF0.03049968934608088
aF0.02799673495630268
aF0.05961320136523989
aF0.0007623615157390682
aF0.0007214076126436208
aF0.0005867193359933435
aF0.0004964632583814255
aF0.0005381696311670686
aF0.0008058480583926858
ag145
ag145
aF0.053813983121342945
aF0.0633656700807441
aF0.03248828526603101
aF0.0007534530944085173
aF0.03030678673790647
aF0.02782264438921585
aF0.05923560725105283
aF0.0007574578241302479
aF0.0007168197217757314
aF0.0005828253710166471
aF0.0004936526201011234
aF0.0005350442670404998
aF0.0008006408456074557
ag145
ag145
aF0.0541243651513184
aF0.0637349632204856
aF0.03267908654794229
aF0.0007574130696937932
aF0.03048598731675432
aF0.027983411351242177
aF0.05959104857549026
aF0.0007623124066499235
aF0.0007211404054632786
aF0.0005863581900809066
aF0.0004964856061616229
aF0.0005381099736132907
aF0.0008053773322809556
ag145
ag145
aF0.05382398825204254
aF0.0633762762916024
aF0.032493572777230674
aF0.0007535552968938496
aF0.03032044394388485
aF0.0278359290953807
aF0.05925766480061639
aF0.0007575065572068012
aF0.0007170858836988885
aF0.0005831853162705316
aF0.0004936302070623816
aF0.000535103615095762
aF0.0008011102202486526
ag145
ag145
aF0.05354154238057163
aF0.06290579547521702
aF0.03223277784172751
aF0.0007549519771146151
aF0.030623954276052245
aF0.028488343800518123
aF0.05577803159007999
aF0.0007765424409171828
aF0.0007191166826032713
aF0.0005715777788282139
aF0.0004977156002041738
aF0.0005423562240594038
aF0.0007936895804050437
ag145
ag145
aF0.05459196777383113
aF0.064101226531875
aF0.032933889512605674
aF0.0007093961094142287
aF0.03037004502380114
aF0.027315803340343336
aF0.05579916219357983
aF0.0007472825643617398
aF0.000736897864499042
aF0.000597772394939966
aF0.0004922346035982628
aF0.0005438015080017067
aF0.000811393842468533
ag145
ag145
aF0.05583385062436719
aF0.06578250662005303
aF0.033860864778489486
aF0.0008623307173820649
aF0.031188398542326468
aF0.02867339254248691
aF0.05697276771525139
aF0.0007811928053342854
aF0.0007485312996777793
aF0.0005938936701568309
aF0.000520671464755651
aF0.0005556342191539443
aF0.0008338726129295537
ag145
ag145
aF0.05234123035279481
aF0.061126880252231786
aF0.031493328458509495
aF0.000774073198044789
aF0.02938742589958565
aF0.026962595983604842
aF0.05439681932216445
aF0.0007383750919416343
aF0.0007143697966967011
aF0.0005458298385292437
aF0.000492424445837969
aF0.0005089377737022005
aF0.0007529932686338725
ag145
ag145
aF0.05502272929834362
aF0.06474432204095137
aF0.03325569385970084
aF0.0007505444978050946
aF0.030599415689948728
aF0.027958584413454446
aF0.05626810501462387
aF0.0007687637998969876
aF0.000743861475484664
aF0.0006036044937900442
aF0.0005033573243053979
aF0.0005475956413647509
aF0.0008114180213851796
ag145
ag145
aF0.05296909134494854
aF0.06212188112203876
aF0.03182172275364792
aF0.0007554827602689329
aF0.030228301897068377
aF0.02784501124074268
aF0.05862658081241534
aF0.000751357320950774
aF0.000710828000364927
aF0.0005669035631399311
aF0.0004837117414808745
aF0.0005257506445559557
aF0.000795852392911911
ag145
ag145
aF0.06143650417106983
aF0.07252826928561262
aF0.037932945503143856
aF0.0009536058005323866
aF0.03156714633610136
aF0.028224014816260024
aF0.06288064430418672
aF0.0008804919921203691
aF0.0008099995025077078
aF0.000725492891660906
aF0.0005594970054971782
aF0.0005802553710054781
aF0.0008976591711871151
ag145
ag145
aF0.0478790544552794
aF0.05618686284424257
aF0.027896217006855295
aF0.0006500375154701032
aF0.029288111951018436
aF0.027637228629373567
aF0.05239976869415841
aF0.0005958519609521318
aF0.0005888011214665312
aF0.0004936530267514172
aF0.00041565390938558266
aF0.0004686243437390658
aF0.0007526746767325676
ag145
ag145
aF0.05508439575396551
aF0.0645822291139666
aF0.0335388005414643
aF0.000798885452468312
aF0.030361208982640164
aF0.027896001816543503
aF0.05967414526594439
aF0.0007790865229253541
aF0.0007405125845707516
aF0.0006028939519637788
aF0.000500236994412262
aF0.0005439743868009828
aF0.0008025481870390649
ag145
ag145
aF0.05295682842915994
aF0.0632921110341158
aF0.03160688607886186
aF0.0007608732596509071
aF0.030425688460809397
aF0.027891729001339627
aF0.058781868488040345
aF0.0007294224099041458
aF0.0006832590513567993
aF0.000560613147172262
aF0.0004843489825816505
aF0.0005062209959305619
aF0.0007758379147162486
ag145
ag145
atp215
ba(lp216
g15
(g16
(dp217
g18
g19
(g20
(I0
tp218
g22
tp219
Rp220
(I1
(I1
tp221
g29
I00
(lp222
g43
atp223
bsg66
Nstp224
Rp225
ag15
(g16
(dp226
g18
g19
(g20
(I0
tp227
g22
tp228
Rp229
(I1
(I31
tp230
g29
I00
(lp231
g33
ag34
ag35
ag36
ag37
ag38
ag39
ag40
ag41
ag42
ag44
ag45
ag46
ag47
ag48
ag49
ag50
ag51
ag52
ag53
ag54
ag55
ag56
ag57
ag58
ag59
ag60
ag61
ag62
ag63
ag64
atp232
bsg66
Nstp233
Rp234
a(dp235
S'0.14.1'
p236
(dp237
S'axes'
p238
g14
sS'blocks'
p239
(lp240
(dp241
S'mgr_locs'
p242
c__builtin__
slice
p243
(I10
I11
I1
tp244
Rp245
sS'values'
p246
g87
sa(dp247
g242
g19
(g20
(I0
tp248
g22
tp249
Rp250
(I1
(I31
tp251
g77
I00
S'\x00\x00\x00\x00\x00\x00\x00\x00\x01\x00\x00\x00\x00\x00\x00\x00\x02\x00\x00\x00\x00\x00\x00\x00\x03\x00\x00\x00\x00\x00\x00\x00\x04\x00\x00\x00\x00\x00\x00\x00\x05\x00\x00\x00\x00\x00\x00\x00\x06\x00\x00\x00\x00\x00\x00\x00\x07\x00\x00\x00\x00\x00\x00\x00\x08\x00\x00\x00\x00\x00\x00\x00\t\x00\x00\x00\x00\x00\x00\x00\x0b\x00\x00\x00\x00\x00\x00\x00\x0c\x00\x00\x00\x00\x00\x00\x00\r\x00\x00\x00\x00\x00\x00\x00\x0e\x00\x00\x00\x00\x00\x00\x00\x0f\x00\x00\x00\x00\x00\x00\x00\x10\x00\x00\x00\x00\x00\x00\x00\x11\x00\x00\x00\x00\x00\x00\x00\x12\x00\x00\x00\x00\x00\x00\x00\x13\x00\x00\x00\x00\x00\x00\x00\x14\x00\x00\x00\x00\x00\x00\x00\x15\x00\x00\x00\x00\x00\x00\x00\x16\x00\x00\x00\x00\x00\x00\x00\x17\x00\x00\x00\x00\x00\x00\x00\x18\x00\x00\x00\x00\x00\x00\x00\x19\x00\x00\x00\x00\x00\x00\x00\x1a\x00\x00\x00\x00\x00\x00\x00\x1b\x00\x00\x00\x00\x00\x00\x00\x1c\x00\x00\x00\x00\x00\x00\x00\x1d\x00\x00\x00\x00\x00\x00\x00\x1e\x00\x00\x00\x00\x00\x00\x00\x1f\x00\x00\x00\x00\x00\x00\x00'
p252
tp253
bsg246
g98
sasstp254
bsb.