ccopy_reg
_reconstructor
p0
(cpandas.core.frame
DataFrame
p1
c__builtin__
object
p2
Ntp3
Rp4
(dp5
S'_metadata'
p6
(lp7
sS'_typ'
p8
S'dataframe'
p9
sS'_data'
p10
g0
(cpandas.core.internals
BlockManager
p11
g2
Ntp12
Rp13
((lp14
cpandas.core.indexes.base
_new_Index
p15
(cpandas.core.indexes.base
Index
p16
(dp17
S'data'
p18
cnumpy.core.multiarray
_reconstruct
p19
(cnumpy
ndarray
p20
(I0
tp21
S'b'
p22
tp23
Rp24
(I1
(I34
tp25
cnumpy
dtype
p26
(S'O8'
p27
I0
I1
tp28
Rp29
(I3
S'|'
p30
NNNI-1
I-1
I63
tp31
bI00
(lp32
S'year'
p33
aS'type'
p34
aS'procOriginal'
p35
aS'proc'
p36
aS'proc_s0'
p37
aS'cat'
p38
aS'inputWSFile'
p39
aS'nominalDataName'
p40
aS'modelWSFile'
p41
aS'model'
p42
aS'rate'
p43
aS'nominal_yield'
p44
aS'sumw2'
p45
aS'nominal_yield_COWCorr'
p46
aS'LooseMvaSF_up_yield'
p47
aS'LooseMvaSF_down_yield'
p48
aS'PreselSF_up_yield'
p49
aS'PreselSF_down_yield'
p50
aS'electronVetoSF_up_yield'
p51
aS'electronVetoSF_down_yield'
p52
aS'TriggerWeight_up_yield'
p53
aS'TriggerWeight_down_yield'
p54
aS'SigmaEOverEShift_up_yield'
p55
aS'SigmaEOverEShift_down_yield'
p56
aS'MvaShift_up_yield'
p57
aS'MvaShift_down_yield'
p58
aS'PUJIDShift_up_yield'
p59
aS'PUJIDShift_down_yield'
p60
aS'JEC_up_yield'
p61
aS'JEC_down_yield'
p62
aS'JER_up_yield'
p63
aS'JER_down_yield'
p64
aS'JetHEM_up_yield'
p65
aS'JetHEM_down_yield'
p66
atp67
bsS'name'
p68
Nstp69
Rp70
ag15
(cpandas.core.indexes.numeric
Int64Index
p71
(dp72
g18
g19
(g20
(I0
tp73
g22
tp74
Rp75
(I1
(I15
tp76
g26
(S'i8'
p77
I0
I1
tp78
Rp79
(I3
S'<'
p80
NNNI-1
I-1
I0
tp81
bI00
S'\x00\x00\x00\x00\x00\x00\x00\x00\x01\x00\x00\x00\x00\x00\x00\x00\x02\x00\x00\x00\x00\x00\x00\x00\x03\x00\x00\x00\x00\x00\x00\x00\x04\x00\x00\x00\x00\x00\x00\x00\x05\x00\x00\x00\x00\x00\x00\x00\x06\x00\x00\x00\x00\x00\x00\x00\x07\x00\x00\x00\x00\x00\x00\x00\x08\x00\x00\x00\x00\x00\x00\x00\t\x00\x00\x00\x00\x00\x00\x00\n\x00\x00\x00\x00\x00\x00\x00\x0b\x00\x00\x00\x00\x00\x00\x00\x0c\x00\x00\x00\x00\x00\x00\x00\r\x00\x00\x00\x00\x00\x00\x00\x0e\x00\x00\x00\x00\x00\x00\x00'
p82
tp83
bsg68
Nstp84
Rp85
a(lp86
g19
(g20
(I0
tp87
g22
tp88
Rp89
(I1
(I1
I15
tp90
g26
(S'f8'
p91
I0
I1
tp92
Rp93
(I3
S'<'
p94
NNNI-1
I-1
I0
tp95
bI00
S'\x00\x00\x00\x00\x00A\xe4@\x00\x00\x00\x00\x00A\xe4@\x00\x00\x00\x00\x00A\xe4@\x00\x00\x00\x00\x00A\xe4@\x00\x00\x00\x00\x00A\xe4@\x00\x00\x00\x00\x00A\xe4@\x00\x00\x00\x00\x00A\xe4@\x00\x00\x00\x00\x00A\xe4@\x00\x00\x00\x00\x00A\xe4@\x00\x00\x00\x00\x00A\xe4@\x00\x00\x00\x00\x00A\xe4@\x00\x00\x00\x00\x00A\xe4@\x00\x00\x00\x00\x00A\xe4@\x00\x00\x00\x00\x00\x00\xf0?\x00\x00\x00\x00\x00\x00\xf0\xbf'
p96
tp97
bag19
(g20
(I0
tp98
g22
tp99
Rp100
(I1
(I33
I15
tp101
g29
I00
(lp102
S'2017'
p103
ag103
ag103
ag103
ag103
ag103
ag103
ag103
ag103
ag103
ag103
ag103
ag103
ag33
ag33
aS'sig'
p104
ag104
ag104
ag104
ag104
ag104
ag104
ag104
ag104
ag104
ag104
ag104
ag104
aS'bkg'
p105
ag18
aS'GG2HMf05ph0'
p106
aS'GG2HbsmM'
p107
aS'GG2Hsm'
p108
aS'TTHsm'
p109
aS'VBFMf05ph0'
p110
aS'VBFbsmM'
p111
aS'VBFsm'
p112
aS'WHMf05ph0'
p113
aS'WHbsmM'
p114
aS'WHsm'
p115
aS'ZHMf05ph0'
p116
aS'ZHbsmM'
p117
aS'ZHsm'
p118
aS'bkg_mass'
p119
aS'data_obs'
p120
aS'GG2HMf05ph0_2017_hgg'
p121
aS'GG2HbsmM_2017_hgg'
p122
aS'GG2Hsm_2017_hgg'
p123
aS'tth0P_2017_hgg'
p124
aS'vbf0Mf05ph0_2017_hgg'
p125
aS'vbf0M_2017_hgg'
p126
aS'vbf0P_2017_hgg'
p127
aS'wh0Mf05ph0_2017_hgg'
p128
aS'wh0M_2017_hgg'
p129
aS'wh0P_2017_hgg'
p130
aS'zh0Mf05ph0_2017_hgg'
p131
aS'zh0M_2017_hgg'
p132
aS'zh0P_2017_hgg'
p133
ag119
ag120
aS'jjh0Mf05ph0'
p134
aS'jjh0M'
p135
aS'jjh0P'
p136
aS'tth0P'
p137
aS'vbf0Mf05ph0'
p138
aS'vbf0M'
p139
aS'vbf0P'
p140
aS'wh0Mf05ph0'
p141
aS'wh0M'
p142
aS'wh0P'
p143
aS'zh0Mf05ph0'
p144
aS'zh0M'
p145
aS'zh0P'
p146
aS'-'
p147
ag147
aS'AC_Bin0_2017'
p148
aS'AC_Bin0_2017'
p149
aS'AC_Bin0_2017'
p150
aS'AC_Bin0_2017'
p151
aS'AC_Bin0_2017'
p152
aS'AC_Bin0_2017'
p153
aS'AC_Bin0_2017'
p154
aS'AC_Bin0_2017'
p155
aS'AC_Bin0_2017'
p156
aS'AC_Bin0_2017'
p157
aS'AC_Bin0_2017'
p158
aS'AC_Bin0_2017'
p159
aS'AC_Bin0_2017'
p160
aS'AC_Bin0_2017'
p161
ag161
aS'Trees/Opt_2017/2017/Trees2WS_2017/WS/output_GluGluHToGGPlusTwoJets_MM_M125_TuneCP5_13TeV-amcatnlopowheg-minlo-pythia8_GG2HMf05ph0.root'
p162
aS'Trees/Opt_2017/2017/Trees2WS_2017/WS/output_GluGluHToGGPlusTwoJets_CPodd_M125_TuneCP5_13TeV-amcatnlopowheg-minlo-pythia8_GG2HbsmM.root'
p163
aS'Trees/Opt_2017/2017/Trees2WS_2017/WS/output_GluGluHToGGPlusTwoJets_SM_M125_TuneCP5_13TeV-amcatnlopowheg-minlo-pythia8_GG2Hsm.root'
p164
aS'Trees/Opt_2017/2017/Trees2WS_2017/WS/output_ttHJetToGG_M125_TuneCP5_13TeV-amcatnloFXFX-madspin-pythia8_TTHsm.root'
p165
aS'Trees/Opt_2017/2017/Trees2WS_2017/WS/output_VBFHiggs0Mf05ph0ToGG_M125_TuneCP5_13TeV-JHUGenV7011-pythia8_VBFMf05ph0.root'
p166
aS'Trees/Opt_2017/2017/Trees2WS_2017/WS/output_VBFHiggs0MToGG_M125_TuneCP5_13TeV-JHUGenV7011-pythia8_VBFbsmM.root'
p167
aS'Trees/Opt_2017/2017/Trees2WS_2017/WS/output_VBFHToGG_M125_TuneCP5_13TeV-amcatnlo-pythia8_VBFsm.root'
p168
aS'Trees/Opt_2017/2017/Trees2WS_2017/WS/output_WHiggs0Mf05ph0ToGG_M125_TuneCP5_13TeV-JHUGenV7011-pythia8_WHMf05ph0.root'
p169
aS'Trees/Opt_2017/2017/Trees2WS_2017/WS/output_WHiggs0MToGG_M125_TuneCP5_13TeV-JHUGenV7011-pythia8_WHbsmM.root'
p170
aS'Trees/Opt_2017/2017/Trees2WS_2017/WS/output_WHiggs0PMToGG_M125_TuneCP5_13TeV-JHUGenV7011-pythia8_WHsm.root'
p171
aS'Trees/Opt_2017/2017/Trees2WS_2017/WS/output_ZHiggs0Mf05ph0ToGG_M125_TuneCP5_13TeV-JHUGenV7011-pythia8_ZHMf05ph0.root'
p172
aS'Trees/Opt_2017/2017/Trees2WS_2017/WS/output_ZHiggs0MToGG_M125_TuneCP5_13TeV-JHUGenV7011-pythia8_ZHbsmM.root'
p173
aS'Trees/Opt_2017/2017/Trees2WS_2017/WS/output_ZH_HToGG_ZToAll_M125_TuneCP5_13TeV-powheg-pythia8_ZHsm.root'
p174
ag147
ag147
aS'jjh0Mf05ph0_125_13TeV_AC_Bin0'
p175
aS'jjh0M_125_13TeV_AC_Bin0'
p176
aS'jjh0P_125_13TeV_AC_Bin0'
p177
aS'tth0P_125_13TeV_AC_Bin0'
p178
aS'vbf0Mf05ph0_125_13TeV_AC_Bin0'
p179
aS'vbf0M_125_13TeV_AC_Bin0'
p180
aS'vbf0P_125_13TeV_AC_Bin0'
p181
aS'wh0Mf05ph0_125_13TeV_AC_Bin0'
p182
aS'wh0M_125_13TeV_AC_Bin0'
p183
aS'wh0P_125_13TeV_AC_Bin0'
p184
aS'zh0Mf05ph0_125_13TeV_AC_Bin0'
p185
aS'zh0M_125_13TeV_AC_Bin0'
p186
aS'zh0P_125_13TeV_AC_Bin0'
p187
ag147
ag147
aS'./Models/signal/CMS-HGG_sigfit_packaged_AC_Bin0_2017.root'
p188
aS'./Models/signal/CMS-HGG_sigfit_packaged_AC_Bin0_2017.root'
p189
aS'./Models/signal/CMS-HGG_sigfit_packaged_AC_Bin0_2017.root'
p190
aS'./Models/signal/CMS-HGG_sigfit_packaged_AC_Bin0_2017.root'
p191
aS'./Models/signal/CMS-HGG_sigfit_packaged_AC_Bin0_2017.root'
p192
aS'./Models/signal/CMS-HGG_sigfit_packaged_AC_Bin0_2017.root'
p193
aS'./Models/signal/CMS-HGG_sigfit_packaged_AC_Bin0_2017.root'
p194
aS'./Models/signal/CMS-HGG_sigfit_packaged_AC_Bin0_2017.root'
p195
aS'./Models/signal/CMS-HGG_sigfit_packaged_AC_Bin0_2017.root'
p196
aS'./Models/signal/CMS-HGG_sigfit_packaged_AC_Bin0_2017.root'
p197
aS'./Models/signal/CMS-HGG_sigfit_packaged_AC_Bin0_2017.root'
p198
aS'./Models/signal/CMS-HGG_sigfit_packaged_AC_Bin0_2017.root'
p199
aS'./Models/signal/CMS-HGG_sigfit_packaged_AC_Bin0_2017.root'
p200
aS'./Models/background/CMS-HGG_multipdf_AC_Bin0_2017.root'
p201
ag201
aS'wsig_13TeV:hggpdfsmrel_GG2HMf05ph0_2017_AC_Bin0_13TeV'
p202
aS'wsig_13TeV:hggpdfsmrel_GG2HbsmM_2017_AC_Bin0_13TeV'
p203
aS'wsig_13TeV:hggpdfsmrel_GG2Hsm_2017_AC_Bin0_13TeV'
p204
aS'wsig_13TeV:hggpdfsmrel_TTHsm_2017_AC_Bin0_13TeV'
p205
aS'wsig_13TeV:hggpdfsmrel_VBFMf05ph0_2017_AC_Bin0_13TeV'
p206
aS'wsig_13TeV:hggpdfsmrel_VBFbsmM_2017_AC_Bin0_13TeV'
p207
aS'wsig_13TeV:hggpdfsmrel_VBFsm_2017_AC_Bin0_13TeV'
p208
aS'wsig_13TeV:hggpdfsmrel_WHMf05ph0_2017_AC_Bin0_13TeV'
p209
aS'wsig_13TeV:hggpdfsmrel_WHbsmM_2017_AC_Bin0_13TeV'
p210
aS'wsig_13TeV:hggpdfsmrel_WHsm_2017_AC_Bin0_13TeV'
p211
aS'wsig_13TeV:hggpdfsmrel_ZHMf05ph0_2017_AC_Bin0_13TeV'
p212
aS'wsig_13TeV:hggpdfsmrel_ZHbsmM_2017_AC_Bin0_13TeV'
p213
aS'wsig_13TeV:hggpdfsmrel_ZHsm_2017_AC_Bin0_13TeV'
p214
aS'multipdf:CMS_hgg_AC_Bin0_2017_13TeV_bkgshape'
p215
aS'multipdf:roohist_data_mass_AC_Bin0'
p216
aF0.01785753269587076
aF0.028037393492013507
aF0.014104489101555373
aF0.00018655133112588373
aF0.0071535044821757765
aF0.0036418080048861157
aF0.022611991182429847
aF0.00032361964326810266
aF0.00022145981893118005
aF0.0002472676817433239
aF0.00018572418787243805
aF0.0001584865890436049
aF0.00024062062584562227
ag147
ag147
aF1.8395159818871532e-07
aF2.7924532633986085e-07
aF1.4427061230747738e-07
aF2.6930942888664997e-09
aF4.539095479779952e-08
aF1.6854993848944114e-08
aF5.128562004282281e-07
aF1.3693516142725864e-09
aF9.145022377558116e-10
aF1.100068228209345e-09
aF4.952083623886574e-10
aF4.351448573767637e-10
aF1.9464082245925486e-09
ag147
ag147
aF0.01878128898712711
aF0.029500451279505353
aF0.014825938766531252
aF0.00019736887260584344
aF0.007532972638850251
aF0.0038400566764181052
aF0.02378008128230946
aF0.0003368441309590903
aF0.00023423169673504946
aF0.0002611478738771632
aF0.00019387714573530768
aF0.000166225881514731
aF0.00025646977936634577
ag147
ag147
aF0.017970387042079435
aF0.028216574714028022
aF0.01419351198933504
aF0.00018771211511919687
aF0.007197560695317372
aF0.003664174430187789
aF0.022753597145171122
aF0.0003257466351566103
aF0.00022280995744517065
aF0.00024877979091633316
aF0.00018694361155760443
aF0.00015947891570802596
aF0.0002421152845550388
ag147
ag147
aF0.017745036137796124
aF0.027858788128129627
aF0.014015748203696981
aF0.00018539401735374268
aF0.007109584193082516
aF0.003619509820491803
aF0.022470828443276962
aF0.0003214996947410594
aF0.00022011383061865448
aF0.0002457602084517296
aF0.00018450875009810863
aF0.0001574973485890994
aF0.00023913067636724514
ag147
ag147
aF0.01816932126274862
aF0.028518478429458215
aF0.014347435638831929
aF0.00019035098060707177
aF0.0072757183314356285
aF0.0037071336314387082
aF0.022998017073856604
aF0.0003288275680736374
aF0.00022534455366118771
aF0.0002524229073933083
aF0.0001885634102092526
aF0.00016120902059549698
aF0.0002440300946051424
ag147
ag147
aF0.01754848758448192
aF0.02756031993489136
aF0.013863520621903056
aF0.0001827777872613854
aF0.007032321975273249
aF0.003577044295069038
aF0.02222909511494207
aF0.0003184564369390443
aF0.00021760303378447722
aF0.00024216527622104687
aF0.00018290476605492775
aF0.00015578377554581395
aF0.0002372363140830547
ag147
ag147
aF0.017919738092136938
aF0.028134836291374397
aF0.014153180323922552
aF0.00018740214861123574
aF0.007181456607489272
aF0.0036553820132683807
aF0.022694554205581977
aF0.00032463953690505356
aF0.00022226088836825144
aF0.0002482636673149573
aF0.00018631744589128497
aF0.00015912626692168077
aF0.0002420603230276537
ag147
ag147
aF0.01779543193091631
aF0.02794013688360114
aF0.014055879195401012
aF0.00018570204844663146
aF0.007125604300461577
aF0.003628259007338899
aF0.022529571139008525
aF0.0003226014180416328
aF0.00022066041005109572
aF0.000246273469127407
aF0.0001851318973088144
aF0.00015784820731647213
aF0.0002391845078638647
ag147
ag147
aF0.017909274991522738
aF0.028117987269034684
aF0.014144274752991222
aF0.0001870153630410974
aF0.0071748660375273565
aF0.003652361426980966
aF0.02267604514028096
aF0.0003244682805136845
aF0.00022216654029364572
aF0.0002479898198251978
aF0.00018619402266693358
aF0.00015901604378515635
aF0.00024141612911766946
ag147
ag147
aF0.01780586114530157
aF0.027956910290093142
aF0.014064757604165238
aF0.0001860878820043718
aF0.007132173009116798
aF0.0036312692977263604
aF0.022548024024643582
aF0.0003227720620532064
aF0.00022075424607579947
aF0.0002465466219935816
aF0.0001852549298337943
aF0.00015795788727262358
aF0.0002398263603864356
ag147
ag147
aF0.018584146945158864
aF0.029133780021766142
aF0.0146227660866316
aF0.00018197869644609455
aF0.007609626021803706
aF0.003787030950661574
aF0.012876635466909647
aF0.00033987317692663055
aF0.0002265299772261642
aF0.0002515018593385321
aF0.0002072097603331713
aF0.00016408767328357499
aF0.00024913891957112355
ag147
ag147
aF0.017169708952678775
aF0.02699798111734708
aF0.0136495594661028
aF0.00018598383280732378
aF0.006853723990388971
aF0.0034045070565298374
aF0.022151836039256523
aF0.0003104002132658934
aF0.0002132855202034989
aF0.00022527680334860634
aF0.0001890745703576613
aF0.0001555469104914664
aF0.00022530094156536506
ag147
ag147
aF0.018653722176622978
aF0.029287499111433135
aF0.014590388414490008
aF0.0002585555696441588
aF0.007191151336428447
aF0.003812992893244882
aF0.012462096806757472
aF0.00033613933396736684
aF0.0002388467942182615
aF0.00024330834116881306
aF0.0002109312869151836
aF0.00016805570339784026
aF0.00019978528143838048
ag147
ag147
aF0.01713355134052108
aF0.026982781099377462
aF0.013668400958522398
aF0.0002084425605062279
aF0.007087973863235675
aF0.0034766405517530075
aF0.011831863991119462
aF0.00031055449926498113
aF0.0002182705227369297
aF0.00024308290062435844
aF0.00019109739434952644
aF0.00016247872122221452
aF0.00022222226380108623
ag147
ag147
aF0.018181988252308656
aF0.028750401301294914
aF0.014562248506081232
aF0.0001954125043539534
aF0.007205971351140761
aF0.0036597790754058224
aF0.021519603465776527
aF0.0003277014300238079
aF0.00022145981893118005
aF0.0002518762437375699
aF0.00019102120734260097
aF0.0001584865890436049
aF0.00023979375737326336
ag147
ag147
aF0.017487827921740973
aF0.02750066901671744
aF0.013607073255570867
aF0.00018655133112588373
aF0.0070581372760898375
aF0.0036418351196516596
aF0.011788509364578204
aF0.00032774446503935906
aF0.0002172250087824068
aF0.0002426620728783746
aF0.00018547595129803085
aF0.0001584865890436049
aF0.00024062062584562227
ag147
ag147
aF0.020737625560286688
aF0.032373222271417035
aF0.016844834063704184
aF0.00019013026758329943
aF0.00739869036442542
aF0.0036233964463008306
aF0.015698469515200486
aF0.0003240613873458642
aF0.0002552743962951354
aF0.00031138457984525303
aF0.00022025964619842853
aF0.00019014123881788692
aF0.0002596074782559299
ag147
ag147
aF0.01490067006488971
aF0.024665443218964356
aF0.01182606390921137
aF0.0001868175343133771
aF0.006822948320404976
aF0.0035560638564220426
aF0.011582229046325665
aF0.000269396319936277
aF0.00016887790070541087
aF0.00021547999199356127
aF0.00014517151009840745
aF0.00014100424687057966
aF0.00023823158471714123
ag147
ag147
aF0.018561424888957845
aF0.02845616003696705
aF0.014594635337743966
aF0.00016376791882066755
aF0.007193284451659565
aF0.0036062589704215497
aF0.011883883718837751
aF0.0003198540198354749
aF0.00023447596868209075
aF0.00025152854163934535
aF0.00019421854392476234
aF0.00016188390054594493
aF0.00024136246156558627
ag147
ag147
aF0.017313812602878897
aF0.02778940664620677
aF0.013748777745604457
aF0.0002031053320479259
aF0.007166024309299246
aF0.0036527162296806637
aF0.012089163843938877
aF0.00028700932921310596
aF0.00022589811806028592
aF0.00024826578123793297
aF0.00018550975721609575
aF0.00014722547780365858
aF0.0002572744933786453
ag147
ag147
aF0.01785753269587076
aF0.028037393492013507
aF0.014104489101555373
aF0.00018655133112588373
aF0.0071535044821757765
aF0.0036418080048861157
aF0.022611991182429847
aF0.00032361964326810266
aF0.00022145981893118005
aF0.0002472676817433239
aF0.00018572418787243805
aF0.0001584865890436049
aF0.00024062062584562227
ag147
ag147
aF0.01785753269587076
aF0.028037393492013507
aF0.014104489101555373
aF0.00018655133112588373
aF0.0071535044821757765
aF0.0036418080048861157
aF0.022611991182429847
aF0.00032361964326810266
aF0.00022145981893118005
aF0.0002472676817433239
aF0.00018572418787243805
aF0.0001584865890436049
aF0.00024062062584562227
ag147
ag147
atp217
ba(lp218
g15
(g16
(dp219
g18
g19
(g20
(I0
tp220
g22
tp221
Rp222
(I1
(I1
tp223
g29
I00
(lp224
g43
atp225
bsg68
Nstp226
Rp227
ag15
(g16
(dp228
g18
g19
(g20
(I0
tp229
g22
tp230
Rp231
(I1
(I33
tp232
g29
I00
(lp233
g33
ag34
ag35
ag36
ag37
ag38
ag39
ag40
ag41
ag42
ag44
ag45
ag46
ag47
ag48
ag49
ag50
ag51
ag52
ag53
ag54
ag55
ag56
ag57
ag58
ag59
ag60
ag61
ag62
ag63
ag64
ag65
ag66
atp234
bsg68
Nstp235
Rp236
a(dp237
S'0.14.1'
p238
(dp239
S'axes'
p240
g14
sS'blocks'
p241
(lp242
(dp243
S'mgr_locs'
p244
c__builtin__
slice
p245
(I10
I11
I1
tp246
Rp247
sS'values'
p248
g89
sa(dp249
g244
g19
(g20
(I0
tp250
g22
tp251
Rp252
(I1
(I33
tp253
g79
I00
S'\x00\x00\x00\x00\x00\x00\x00\x00\x01\x00\x00\x00\x00\x00\x00\x00\x02\x00\x00\x00\x00\x00\x00\x00\x03\x00\x00\x00\x00\x00\x00\x00\x04\x00\x00\x00\x00\x00\x00\x00\x05\x00\x00\x00\x00\x00\x00\x00\x06\x00\x00\x00\x00\x00\x00\x00\x07\x00\x00\x00\x00\x00\x00\x00\x08\x00\x00\x00\x00\x00\x00\x00\t\x00\x00\x00\x00\x00\x00\x00\x0b\x00\x00\x00\x00\x00\x00\x00\x0c\x00\x00\x00\x00\x00\x00\x00\r\x00\x00\x00\x00\x00\x00\x00\x0e\x00\x00\x00\x00\x00\x00\x00\x0f\x00\x00\x00\x00\x00\x00\x00\x10\x00\x00\x00\x00\x00\x00\x00\x11\x00\x00\x00\x00\x00\x00\x00\x12\x00\x00\x00\x00\x00\x00\x00\x13\x00\x00\x00\x00\x00\x00\x00\x14\x00\x00\x00\x00\x00\x00\x00\x15\x00\x00\x00\x00\x00\x00\x00\x16\x00\x00\x00\x00\x00\x00\x00\x17\x00\x00\x00\x00\x00\x00\x00\x18\x00\x00\x00\x00\x00\x00\x00\x19\x00\x00\x00\x00\x00\x00\x00\x1a\x00\x00\x00\x00\x00\x00\x00\x1b\x00\x00\x00\x00\x00\x00\x00\x1c\x00\x00\x00\x00\x00\x00\x00\x1d\x00\x00\x00\x00\x00\x00\x00\x1e\x00\x00\x00\x00\x00\x00\x00\x1f\x00\x00\x00\x00\x00\x00\x00 \x00\x00\x00\x00\x00\x00\x00!\x00\x00\x00\x00\x00\x00\x00'
p254
tp255
bsg248
g100
sasstp256
bsb.