ccopy_reg
_reconstructor
p0
(cpandas.core.frame
DataFrame
p1
c__builtin__
object
p2
Ntp3
Rp4
(dp5
S'_metadata'
p6
(lp7
sS'_typ'
p8
S'dataframe'
p9
sS'_data'
p10
g0
(cpandas.core.internals
BlockManager
p11
g2
Ntp12
Rp13
((lp14
cpandas.core.indexes.base
_new_Index
p15
(cpandas.core.indexes.base
Index
p16
(dp17
S'data'
p18
cnumpy.core.multiarray
_reconstruct
p19
(cnumpy
ndarray
p20
(I0
tp21
S'b'
p22
tp23
Rp24
(I1
(I34
tp25
cnumpy
dtype
p26
(S'O8'
p27
I0
I1
tp28
Rp29
(I3
S'|'
p30
NNNI-1
I-1
I63
tp31
bI00
(lp32
S'year'
p33
aS'type'
p34
aS'procOriginal'
p35
aS'proc'
p36
aS'proc_s0'
p37
aS'cat'
p38
aS'inputWSFile'
p39
aS'nominalDataName'
p40
aS'modelWSFile'
p41
aS'model'
p42
aS'rate'
p43
aS'nominal_yield'
p44
aS'sumw2'
p45
aS'nominal_yield_COWCorr'
p46
aS'LooseMvaSF_up_yield'
p47
aS'LooseMvaSF_down_yield'
p48
aS'PreselSF_up_yield'
p49
aS'PreselSF_down_yield'
p50
aS'electronVetoSF_up_yield'
p51
aS'electronVetoSF_down_yield'
p52
aS'TriggerWeight_up_yield'
p53
aS'TriggerWeight_down_yield'
p54
aS'SigmaEOverEShift_up_yield'
p55
aS'SigmaEOverEShift_down_yield'
p56
aS'MvaShift_up_yield'
p57
aS'MvaShift_down_yield'
p58
aS'PUJIDShift_up_yield'
p59
aS'PUJIDShift_down_yield'
p60
aS'JEC_up_yield'
p61
aS'JEC_down_yield'
p62
aS'JER_up_yield'
p63
aS'JER_down_yield'
p64
aS'JetHEM_up_yield'
p65
aS'JetHEM_down_yield'
p66
atp67
bsS'name'
p68
Nstp69
Rp70
ag15
(cpandas.core.indexes.numeric
Int64Index
p71
(dp72
g18
g19
(g20
(I0
tp73
g22
tp74
Rp75
(I1
(I15
tp76
g26
(S'i8'
p77
I0
I1
tp78
Rp79
(I3
S'<'
p80
NNNI-1
I-1
I0
tp81
bI00
S'\x00\x00\x00\x00\x00\x00\x00\x00\x01\x00\x00\x00\x00\x00\x00\x00\x02\x00\x00\x00\x00\x00\x00\x00\x03\x00\x00\x00\x00\x00\x00\x00\x04\x00\x00\x00\x00\x00\x00\x00\x05\x00\x00\x00\x00\x00\x00\x00\x06\x00\x00\x00\x00\x00\x00\x00\x07\x00\x00\x00\x00\x00\x00\x00\x08\x00\x00\x00\x00\x00\x00\x00\t\x00\x00\x00\x00\x00\x00\x00\n\x00\x00\x00\x00\x00\x00\x00\x0b\x00\x00\x00\x00\x00\x00\x00\x0c\x00\x00\x00\x00\x00\x00\x00\r\x00\x00\x00\x00\x00\x00\x00\x0e\x00\x00\x00\x00\x00\x00\x00'
p82
tp83
bsg68
Nstp84
Rp85
a(lp86
g19
(g20
(I0
tp87
g22
tp88
Rp89
(I1
(I1
I15
tp90
g26
(S'f8'
p91
I0
I1
tp92
Rp93
(I3
S'<'
p94
NNNI-1
I-1
I0
tp95
bI00
S'\x00\x00\x00\x00\x00A\xe4@\x00\x00\x00\x00\x00A\xe4@\x00\x00\x00\x00\x00A\xe4@\x00\x00\x00\x00\x00A\xe4@\x00\x00\x00\x00\x00A\xe4@\x00\x00\x00\x00\x00A\xe4@\x00\x00\x00\x00\x00A\xe4@\x00\x00\x00\x00\x00A\xe4@\x00\x00\x00\x00\x00A\xe4@\x00\x00\x00\x00\x00A\xe4@\x00\x00\x00\x00\x00A\xe4@\x00\x00\x00\x00\x00A\xe4@\x00\x00\x00\x00\x00A\xe4@\x00\x00\x00\x00\x00\x00\xf0?\x00\x00\x00\x00\x00\x00\xf0\xbf'
p96
tp97
bag19
(g20
(I0
tp98
g22
tp99
Rp100
(I1
(I33
I15
tp101
g29
I00
(lp102
S'2017'
p103
ag103
ag103
ag103
ag103
ag103
ag103
ag103
ag103
ag103
ag103
ag103
ag103
ag33
ag33
aS'sig'
p104
ag104
ag104
ag104
ag104
ag104
ag104
ag104
ag104
ag104
ag104
ag104
ag104
aS'bkg'
p105
ag18
aS'GG2HMf05ph0'
p106
aS'GG2HbsmM'
p107
aS'GG2Hsm'
p108
aS'TTHsm'
p109
aS'VBFMf05ph0'
p110
aS'VBFbsmM'
p111
aS'VBFsm'
p112
aS'WHMf05ph0'
p113
aS'WHbsmM'
p114
aS'WHsm'
p115
aS'ZHMf05ph0'
p116
aS'ZHbsmM'
p117
aS'ZHsm'
p118
aS'bkg_mass'
p119
aS'data_obs'
p120
aS'GG2HMf05ph0_2017_hgg'
p121
aS'GG2HbsmM_2017_hgg'
p122
aS'GG2Hsm_2017_hgg'
p123
aS'tth0P_2017_hgg'
p124
aS'vbf0Mf05ph0_2017_hgg'
p125
aS'vbf0M_2017_hgg'
p126
aS'vbf0P_2017_hgg'
p127
aS'wh0Mf05ph0_2017_hgg'
p128
aS'wh0M_2017_hgg'
p129
aS'wh0P_2017_hgg'
p130
aS'zh0Mf05ph0_2017_hgg'
p131
aS'zh0M_2017_hgg'
p132
aS'zh0P_2017_hgg'
p133
ag119
ag120
aS'jjh0Mf05ph0'
p134
aS'jjh0M'
p135
aS'jjh0P'
p136
aS'tth0P'
p137
aS'vbf0Mf05ph0'
p138
aS'vbf0M'
p139
aS'vbf0P'
p140
aS'wh0Mf05ph0'
p141
aS'wh0M'
p142
aS'wh0P'
p143
aS'zh0Mf05ph0'
p144
aS'zh0M'
p145
aS'zh0P'
p146
aS'-'
p147
ag147
aS'AC_Bin19_2017'
p148
aS'AC_Bin19_2017'
p149
aS'AC_Bin19_2017'
p150
aS'AC_Bin19_2017'
p151
aS'AC_Bin19_2017'
p152
aS'AC_Bin19_2017'
p153
aS'AC_Bin19_2017'
p154
aS'AC_Bin19_2017'
p155
aS'AC_Bin19_2017'
p156
aS'AC_Bin19_2017'
p157
aS'AC_Bin19_2017'
p158
aS'AC_Bin19_2017'
p159
aS'AC_Bin19_2017'
p160
aS'AC_Bin19_2017'
p161
ag161
aS'Trees/Opt_2017/2017/Trees2WS_2017/WS/output_GluGluHToGGPlusTwoJets_MM_M125_TuneCP5_13TeV-amcatnlopowheg-minlo-pythia8_GG2HMf05ph0.root'
p162
aS'Trees/Opt_2017/2017/Trees2WS_2017/WS/output_GluGluHToGGPlusTwoJets_CPodd_M125_TuneCP5_13TeV-amcatnlopowheg-minlo-pythia8_GG2HbsmM.root'
p163
aS'Trees/Opt_2017/2017/Trees2WS_2017/WS/output_GluGluHToGGPlusTwoJets_SM_M125_TuneCP5_13TeV-amcatnlopowheg-minlo-pythia8_GG2Hsm.root'
p164
aS'Trees/Opt_2017/2017/Trees2WS_2017/WS/output_ttHJetToGG_M125_TuneCP5_13TeV-amcatnloFXFX-madspin-pythia8_TTHsm.root'
p165
aS'Trees/Opt_2017/2017/Trees2WS_2017/WS/output_VBFHiggs0Mf05ph0ToGG_M125_TuneCP5_13TeV-JHUGenV7011-pythia8_VBFMf05ph0.root'
p166
aS'Trees/Opt_2017/2017/Trees2WS_2017/WS/output_VBFHiggs0MToGG_M125_TuneCP5_13TeV-JHUGenV7011-pythia8_VBFbsmM.root'
p167
aS'Trees/Opt_2017/2017/Trees2WS_2017/WS/output_VBFHToGG_M125_TuneCP5_13TeV-amcatnlo-pythia8_VBFsm.root'
p168
aS'Trees/Opt_2017/2017/Trees2WS_2017/WS/output_WHiggs0Mf05ph0ToGG_M125_TuneCP5_13TeV-JHUGenV7011-pythia8_WHMf05ph0.root'
p169
aS'Trees/Opt_2017/2017/Trees2WS_2017/WS/output_WHiggs0MToGG_M125_TuneCP5_13TeV-JHUGenV7011-pythia8_WHbsmM.root'
p170
aS'Trees/Opt_2017/2017/Trees2WS_2017/WS/output_WHiggs0PMToGG_M125_TuneCP5_13TeV-JHUGenV7011-pythia8_WHsm.root'
p171
aS'Trees/Opt_2017/2017/Trees2WS_2017/WS/output_ZHiggs0Mf05ph0ToGG_M125_TuneCP5_13TeV-JHUGenV7011-pythia8_ZHMf05ph0.root'
p172
aS'Trees/Opt_2017/2017/Trees2WS_2017/WS/output_ZHiggs0MToGG_M125_TuneCP5_13TeV-JHUGenV7011-pythia8_ZHbsmM.root'
p173
aS'Trees/Opt_2017/2017/Trees2WS_2017/WS/output_ZH_HToGG_ZToAll_M125_TuneCP5_13TeV-powheg-pythia8_ZHsm.root'
p174
ag147
ag147
aS'jjh0Mf05ph0_125_13TeV_AC_Bin19'
p175
aS'jjh0M_125_13TeV_AC_Bin19'
p176
aS'jjh0P_125_13TeV_AC_Bin19'
p177
aS'tth0P_125_13TeV_AC_Bin19'
p178
aS'vbf0Mf05ph0_125_13TeV_AC_Bin19'
p179
aS'vbf0M_125_13TeV_AC_Bin19'
p180
aS'vbf0P_125_13TeV_AC_Bin19'
p181
aS'wh0Mf05ph0_125_13TeV_AC_Bin19'
p182
aS'wh0M_125_13TeV_AC_Bin19'
p183
aS'wh0P_125_13TeV_AC_Bin19'
p184
aS'zh0Mf05ph0_125_13TeV_AC_Bin19'
p185
aS'zh0M_125_13TeV_AC_Bin19'
p186
aS'zh0P_125_13TeV_AC_Bin19'
p187
ag147
ag147
aS'./Models/signal/CMS-HGG_sigfit_packaged_AC_Bin19_2017.root'
p188
aS'./Models/signal/CMS-HGG_sigfit_packaged_AC_Bin19_2017.root'
p189
aS'./Models/signal/CMS-HGG_sigfit_packaged_AC_Bin19_2017.root'
p190
aS'./Models/signal/CMS-HGG_sigfit_packaged_AC_Bin19_2017.root'
p191
aS'./Models/signal/CMS-HGG_sigfit_packaged_AC_Bin19_2017.root'
p192
aS'./Models/signal/CMS-HGG_sigfit_packaged_AC_Bin19_2017.root'
p193
aS'./Models/signal/CMS-HGG_sigfit_packaged_AC_Bin19_2017.root'
p194
aS'./Models/signal/CMS-HGG_sigfit_packaged_AC_Bin19_2017.root'
p195
aS'./Models/signal/CMS-HGG_sigfit_packaged_AC_Bin19_2017.root'
p196
aS'./Models/signal/CMS-HGG_sigfit_packaged_AC_Bin19_2017.root'
p197
aS'./Models/signal/CMS-HGG_sigfit_packaged_AC_Bin19_2017.root'
p198
aS'./Models/signal/CMS-HGG_sigfit_packaged_AC_Bin19_2017.root'
p199
aS'./Models/signal/CMS-HGG_sigfit_packaged_AC_Bin19_2017.root'
p200
aS'./Models/background/CMS-HGG_multipdf_AC_Bin19_2017.root'
p201
ag201
aS'wsig_13TeV:hggpdfsmrel_GG2HMf05ph0_2017_AC_Bin19_13TeV'
p202
aS'wsig_13TeV:hggpdfsmrel_GG2HbsmM_2017_AC_Bin19_13TeV'
p203
aS'wsig_13TeV:hggpdfsmrel_GG2Hsm_2017_AC_Bin19_13TeV'
p204
aS'wsig_13TeV:hggpdfsmrel_TTHsm_2017_AC_Bin19_13TeV'
p205
aS'wsig_13TeV:hggpdfsmrel_VBFMf05ph0_2017_AC_Bin19_13TeV'
p206
aS'wsig_13TeV:hggpdfsmrel_VBFbsmM_2017_AC_Bin19_13TeV'
p207
aS'wsig_13TeV:hggpdfsmrel_VBFsm_2017_AC_Bin19_13TeV'
p208
aS'wsig_13TeV:hggpdfsmrel_WHMf05ph0_2017_AC_Bin19_13TeV'
p209
aS'wsig_13TeV:hggpdfsmrel_WHbsmM_2017_AC_Bin19_13TeV'
p210
aS'wsig_13TeV:hggpdfsmrel_WHsm_2017_AC_Bin19_13TeV'
p211
aS'wsig_13TeV:hggpdfsmrel_ZHMf05ph0_2017_AC_Bin19_13TeV'
p212
aS'wsig_13TeV:hggpdfsmrel_ZHbsmM_2017_AC_Bin19_13TeV'
p213
aS'wsig_13TeV:hggpdfsmrel_ZHsm_2017_AC_Bin19_13TeV'
p214
aS'multipdf:CMS_hgg_AC_Bin19_2017_13TeV_bkgshape'
p215
aS'multipdf:roohist_data_mass_AC_Bin19'
p216
aF0.014990168475833343
aF0.010865130510865129
aF0.016661950175148377
aF0.00014090818626755208
aF0.0029747345552095794
aF0.0001779695176082896
aF0.008797931911885826
aF0.0001669936586949916
aF0.00014296751578513067
aF0.00016442563560303824
aF9.340836732008029e-05
aF9.474499961470428e-05
aF0.00020493073179750354
ag147
ag147
aF1.6747893782842329e-07
aF1.1679148002411473e-07
aF1.7599728278197042e-07
aF1.8059650672071842e-09
aF1.8765338365489765e-08
aF8.187512532114878e-10
aF1.9674102380476664e-07
aF7.003800533834436e-10
aF6.073954679922739e-10
aF7.588761427221202e-10
aF2.498219994651144e-10
aF2.5788003366947786e-10
aF1.6935027229727832e-09
ag147
ag147
aF0.01584643136992676
aF0.01141158467019005
aF0.017615939101208355
aF0.00014799975706806712
aF0.0031410250606527493
aF0.00018913904178823656
aF0.009303620658528924
aF0.00017563991472019258
aF0.00015144110572154804
aF0.00017466634821135664
aF9.84893156111586e-05
aF0.00010021497591503794
aF0.00021591156223275314
ag147
ag147
aF0.015084699161813389
aF0.010933419459702633
aF0.016767582104729787
aF0.00014180064403253602
aF0.002992826317488069
aF0.00017901788989806006
aF0.008849848013790953
aF0.00016798291994433943
aF0.00014388816011456096
aF0.00016548042610100598
aF9.394032745437981e-05
aF9.534821154906652e-05
aF0.00020618400835102394
ag147
ag147
aF0.014895937224560613
aF0.010797058228202422
aF0.016556654475762555
aF0.0001400184819594695
aF0.002956698333267508
aF0.0001769242588694393
aF0.008746169487738256
aF0.0001660073301745339
aF0.0001420497973641806
aF0.00016337414564944084
aF9.287791280008332e-05
aF9.41437049170791e-05
aF0.00020368142856804557
ag147
ag147
aF0.015252998189841913
aF0.011053789250185589
aF0.016949389609219104
aF0.00014336640786135788
aF0.003027090097893
aF0.00018134786424524752
aF0.008964447316644154
aF0.00016998122999902822
aF0.0001453200874612787
aF0.0001671900904997479
aF9.522110580686434e-05
aF9.638765194805077e-05
aF0.00020735690125102627
ag147
ag147
aF0.014729542590013942
aF0.010678131386386142
aF0.016376906204180603
aF0.00013846241136150525
aF0.0029228401777539248
aF0.00017462197288914532
aF0.008633045721223259
aF0.00016402504241176598
aF0.00014063229343879783
aF0.00016168207048554664
aF9.161160102048313e-05
aF9.311396532309185e-05
aF0.00020252617858370917
ag147
ag147
aF0.015041945604557806
aF0.010903515826924887
aF0.016721418872222473
aF0.00014132273572248864
aF0.002987184782175986
aF0.00017881989050678605
aF0.008835609836503586
aF0.00016755192737220623
aF0.000143486504316673
aF0.00016494981913593433
aF9.37762769004019e-05
aF9.505061893606067e-05
aF0.00020562446042788384
ag147
ag147
aF0.014938488646433282
aF0.010826815479671854
aF0.016602588363144377
aF0.00014049442826635675
aF0.0029623123517901074
aF0.0001771207939158495
aF0.008760337769402493
aF0.0001664363202484683
aF0.0001424495067602185
aF0.00016390215061961588
aF9.304109884966602e-05
aF9.443983311570974e-05
aF0.00020423829369459033
ag147
ag147
aF0.015044858743670841
aF0.010903290876126083
aF0.016721034899962302
aF0.000141305630191415
aF0.002984713624950847
aF0.0001785712886718288
aF0.008827710259494397
aF0.00016747019976927395
aF0.00014341746037365712
aF0.00016502620875763317
aF9.3722449927506e-05
aF9.503601613228834e-05
aF0.00020564922713762666
ag147
ag147
aF0.014935566882871091
aF0.010827029907005698
aF0.01660295678827112
aF0.00014051134013798972
aF0.0029647711943661774
aF0.0001773687646182747
aF0.008768200307600999
aF0.00016651779880919523
aF0.00014251823087281024
aF0.00016382631403322968
aF9.309474200640783e-05
aF9.44543883808762e-05
aF0.00020421328074416497
ag147
ag147
aF0.015740903944333695
aF0.011407635714022035
aF0.017369416002111393
aF0.000149482878669005
aF0.0030567333815270104
aF0.0001779695176082896
aF0.007245183276609168
aF0.0001712707667138602
aF0.00013795360564472503
aF0.00016442563560303824
aF9.603177750250325e-05
aF9.474499961470428e-05
aF0.00022904895149622462
ag147
ag147
aF0.01443354179718881
aF0.010452314538270002
aF0.016036552277455485
aF0.00012881579436907487
aF0.0028969474260520656
aF0.00017019274719132227
aF0.00660662323662109
aF0.0001669936586949916
aF0.00014296751578513067
aF0.00016392597558478883
aF9.075117054635484e-05
aF8.115458967949962e-05
aF0.0002034106723840523
ag147
ag147
aF0.015572599944789545
aF0.011351557451689587
aF0.017055667693966825
aF0.00018824672588380054
aF0.002961431025141792
aF0.00016928214699873934
aF0.024186470173390262
aF0.00018469454562364263
aF0.00015130727570067393
aF0.00015924754893603676
aF9.080629070012947e-05
aF9.51600666212471e-05
aF0.00020590212852766854
ag147
ag147
aF0.014700964608437062
aF0.010544589468281629
aF0.016203479047362634
aF0.00012515572780102957
aF0.002831285559295793
aF0.00020377433975227177
aF0.021466279175456293
aF0.00016361172038159566
aF0.00012486889750107366
aF0.00015639305206605059
aF8.841246585689078e-05
aF9.428774160369358e-05
aF0.00017030688240993186
ag147
ag147
aF0.015593920410992723
aF0.01123790940255276
aF0.017189628900268872
aF0.00014957355347178236
aF0.003064625275783328
aF0.00018191135222878074
aF0.007091224935265927
aF0.00017114406091423007
aF0.0001512513758825662
aF0.00016904934159356344
aF9.340836732008029e-05
aF9.474499961470428e-05
aF0.00020493073179750354
ag147
ag147
aF0.014651082370164659
aF0.010407608579498628
aF0.01637847648726165
aF0.00014090818626755208
aF0.0028991677272642846
aF0.0001779695176082896
aF0.006723771052293159
aF0.0001583569746799185
aF0.00014326130121844471
aF0.0001600587904704298
aF8.798471480986336e-05
aF9.005022025121434e-05
aF0.00020493073179750354
ag147
ag147
aF0.017962793596325355
aF0.012889154470940412
aF0.019676363051075896
aF0.00013451516406348674
aF0.002984095785905083
aF0.000197999954707484
aF0.007183878911291686
aF0.00021538310829782858
aF0.00016086420782812638
aF0.0001815841017105413
aF0.000121001367460849
aF0.00011795767954936309
aF0.0002529549738028436
ag147
ag147
aF0.012947998800882488
aF0.009022292530517007
aF0.014362202716711181
aF0.00017559955949764117
aF0.0027919442172787967
aF0.00017845832962848363
aF0.009774338217766854
aF0.00016357313688786235
aF0.00011728732351912186
aF0.00010531190787332889
aF6.106827186158625e-05
aF8.94316883659485e-05
aF0.00018394664857623866
ag147
ag147
aF0.015624727618614997
aF0.011226730549878994
aF0.017118752613896504
aF0.0001410149277489836
aF0.002945432418528071
aF0.0001779978051672515
aF0.014370471353686298
aF0.0001950410542121972
aF0.00015651249668735545
aF0.00016041272215261415
aF9.65355991411343e-05
aF0.00011031661733795772
aF0.000238079730024765
ag147
ag147
aF0.014948627816920634
aF0.01051552518219978
aF0.016232595188284904
aF0.000155742229480893
aF0.0029487260871974286
aF0.00016853850365805556
aF0.006854505507362774
aF0.00016721235215300112
aF0.000148455143062165
aF0.00014470989685833047
aF9.037465906658326e-05
aF9.426714314031415e-05
aF0.0001968253686754906
ag147
ag147
aF0.014990168475833343
aF0.010865130510865129
aF0.016661950175148377
aF0.00014090818626755208
aF0.0029747345552095794
aF0.0001779695176082896
aF0.008797931911885826
aF0.0001669936586949916
aF0.00014296751578513067
aF0.00016442563560303824
aF9.340836732008029e-05
aF9.474499961470428e-05
aF0.00020493073179750354
ag147
ag147
aF0.014990168475833343
aF0.010865130510865129
aF0.016661950175148377
aF0.00014090818626755208
aF0.0029747345552095794
aF0.0001779695176082896
aF0.008797931911885826
aF0.0001669936586949916
aF0.00014296751578513067
aF0.00016442563560303824
aF9.340836732008029e-05
aF9.474499961470428e-05
aF0.00020493073179750354
ag147
ag147
atp217
ba(lp218
g15
(g16
(dp219
g18
g19
(g20
(I0
tp220
g22
tp221
Rp222
(I1
(I1
tp223
g29
I00
(lp224
g43
atp225
bsg68
Nstp226
Rp227
ag15
(g16
(dp228
g18
g19
(g20
(I0
tp229
g22
tp230
Rp231
(I1
(I33
tp232
g29
I00
(lp233
g33
ag34
ag35
ag36
ag37
ag38
ag39
ag40
ag41
ag42
ag44
ag45
ag46
ag47
ag48
ag49
ag50
ag51
ag52
ag53
ag54
ag55
ag56
ag57
ag58
ag59
ag60
ag61
ag62
ag63
ag64
ag65
ag66
atp234
bsg68
Nstp235
Rp236
a(dp237
S'0.14.1'
p238
(dp239
S'axes'
p240
g14
sS'blocks'
p241
(lp242
(dp243
S'mgr_locs'
p244
c__builtin__
slice
p245
(I10
I11
I1
tp246
Rp247
sS'values'
p248
g89
sa(dp249
g244
g19
(g20
(I0
tp250
g22
tp251
Rp252
(I1
(I33
tp253
g79
I00
S'\x00\x00\x00\x00\x00\x00\x00\x00\x01\x00\x00\x00\x00\x00\x00\x00\x02\x00\x00\x00\x00\x00\x00\x00\x03\x00\x00\x00\x00\x00\x00\x00\x04\x00\x00\x00\x00\x00\x00\x00\x05\x00\x00\x00\x00\x00\x00\x00\x06\x00\x00\x00\x00\x00\x00\x00\x07\x00\x00\x00\x00\x00\x00\x00\x08\x00\x00\x00\x00\x00\x00\x00\t\x00\x00\x00\x00\x00\x00\x00\x0b\x00\x00\x00\x00\x00\x00\x00\x0c\x00\x00\x00\x00\x00\x00\x00\r\x00\x00\x00\x00\x00\x00\x00\x0e\x00\x00\x00\x00\x00\x00\x00\x0f\x00\x00\x00\x00\x00\x00\x00\x10\x00\x00\x00\x00\x00\x00\x00\x11\x00\x00\x00\x00\x00\x00\x00\x12\x00\x00\x00\x00\x00\x00\x00\x13\x00\x00\x00\x00\x00\x00\x00\x14\x00\x00\x00\x00\x00\x00\x00\x15\x00\x00\x00\x00\x00\x00\x00\x16\x00\x00\x00\x00\x00\x00\x00\x17\x00\x00\x00\x00\x00\x00\x00\x18\x00\x00\x00\x00\x00\x00\x00\x19\x00\x00\x00\x00\x00\x00\x00\x1a\x00\x00\x00\x00\x00\x00\x00\x1b\x00\x00\x00\x00\x00\x00\x00\x1c\x00\x00\x00\x00\x00\x00\x00\x1d\x00\x00\x00\x00\x00\x00\x00\x1e\x00\x00\x00\x00\x00\x00\x00\x1f\x00\x00\x00\x00\x00\x00\x00 \x00\x00\x00\x00\x00\x00\x00!\x00\x00\x00\x00\x00\x00\x00'
p254
tp255
bsg248
g100
sasstp256
bsb.