ccopy_reg
_reconstructor
p0
(cpandas.core.frame
DataFrame
p1
c__builtin__
object
p2
Ntp3
Rp4
(dp5
S'_metadata'
p6
(lp7
sS'_typ'
p8
S'dataframe'
p9
sS'_data'
p10
g0
(cpandas.core.internals
BlockManager
p11
g2
Ntp12
Rp13
((lp14
cpandas.core.indexes.base
_new_Index
p15
(cpandas.core.indexes.base
Index
p16
(dp17
S'data'
p18
cnumpy.core.multiarray
_reconstruct
p19
(cnumpy
ndarray
p20
(I0
tp21
S'b'
p22
tp23
Rp24
(I1
(I34
tp25
cnumpy
dtype
p26
(S'O8'
p27
I0
I1
tp28
Rp29
(I3
S'|'
p30
NNNI-1
I-1
I63
tp31
bI00
(lp32
S'year'
p33
aS'type'
p34
aS'procOriginal'
p35
aS'proc'
p36
aS'proc_s0'
p37
aS'cat'
p38
aS'inputWSFile'
p39
aS'nominalDataName'
p40
aS'modelWSFile'
p41
aS'model'
p42
aS'rate'
p43
aS'nominal_yield'
p44
aS'sumw2'
p45
aS'nominal_yield_COWCorr'
p46
aS'LooseMvaSF_up_yield'
p47
aS'LooseMvaSF_down_yield'
p48
aS'PreselSF_up_yield'
p49
aS'PreselSF_down_yield'
p50
aS'electronVetoSF_up_yield'
p51
aS'electronVetoSF_down_yield'
p52
aS'TriggerWeight_up_yield'
p53
aS'TriggerWeight_down_yield'
p54
aS'SigmaEOverEShift_up_yield'
p55
aS'SigmaEOverEShift_down_yield'
p56
aS'MvaShift_up_yield'
p57
aS'MvaShift_down_yield'
p58
aS'PUJIDShift_up_yield'
p59
aS'PUJIDShift_down_yield'
p60
aS'JEC_up_yield'
p61
aS'JEC_down_yield'
p62
aS'JER_up_yield'
p63
aS'JER_down_yield'
p64
aS'JetHEM_up_yield'
p65
aS'JetHEM_down_yield'
p66
atp67
bsS'name'
p68
Nstp69
Rp70
ag15
(cpandas.core.indexes.numeric
Int64Index
p71
(dp72
g18
g19
(g20
(I0
tp73
g22
tp74
Rp75
(I1
(I15
tp76
g26
(S'i8'
p77
I0
I1
tp78
Rp79
(I3
S'<'
p80
NNNI-1
I-1
I0
tp81
bI00
S'\x00\x00\x00\x00\x00\x00\x00\x00\x01\x00\x00\x00\x00\x00\x00\x00\x02\x00\x00\x00\x00\x00\x00\x00\x03\x00\x00\x00\x00\x00\x00\x00\x04\x00\x00\x00\x00\x00\x00\x00\x05\x00\x00\x00\x00\x00\x00\x00\x06\x00\x00\x00\x00\x00\x00\x00\x07\x00\x00\x00\x00\x00\x00\x00\x08\x00\x00\x00\x00\x00\x00\x00\t\x00\x00\x00\x00\x00\x00\x00\n\x00\x00\x00\x00\x00\x00\x00\x0b\x00\x00\x00\x00\x00\x00\x00\x0c\x00\x00\x00\x00\x00\x00\x00\r\x00\x00\x00\x00\x00\x00\x00\x0e\x00\x00\x00\x00\x00\x00\x00'
p82
tp83
bsg68
Nstp84
Rp85
a(lp86
g19
(g20
(I0
tp87
g22
tp88
Rp89
(I1
(I1
I15
tp90
g26
(S'f8'
p91
I0
I1
tp92
Rp93
(I3
S'<'
p94
NNNI-1
I-1
I0
tp95
bI00
S'\x00\x00\x00\x00\x00A\xe4@\x00\x00\x00\x00\x00A\xe4@\x00\x00\x00\x00\x00A\xe4@\x00\x00\x00\x00\x00A\xe4@\x00\x00\x00\x00\x00A\xe4@\x00\x00\x00\x00\x00A\xe4@\x00\x00\x00\x00\x00A\xe4@\x00\x00\x00\x00\x00A\xe4@\x00\x00\x00\x00\x00A\xe4@\x00\x00\x00\x00\x00A\xe4@\x00\x00\x00\x00\x00A\xe4@\x00\x00\x00\x00\x00A\xe4@\x00\x00\x00\x00\x00A\xe4@\x00\x00\x00\x00\x00\x00\xf0?\x00\x00\x00\x00\x00\x00\xf0\xbf'
p96
tp97
bag19
(g20
(I0
tp98
g22
tp99
Rp100
(I1
(I33
I15
tp101
g29
I00
(lp102
S'2017'
p103
ag103
ag103
ag103
ag103
ag103
ag103
ag103
ag103
ag103
ag103
ag103
ag103
ag33
ag33
aS'sig'
p104
ag104
ag104
ag104
ag104
ag104
ag104
ag104
ag104
ag104
ag104
ag104
ag104
aS'bkg'
p105
ag18
aS'GG2HMf05ph0'
p106
aS'GG2HbsmM'
p107
aS'GG2Hsm'
p108
aS'TTHsm'
p109
aS'VBFMf05ph0'
p110
aS'VBFbsmM'
p111
aS'VBFsm'
p112
aS'WHMf05ph0'
p113
aS'WHbsmM'
p114
aS'WHsm'
p115
aS'ZHMf05ph0'
p116
aS'ZHbsmM'
p117
aS'ZHsm'
p118
aS'bkg_mass'
p119
aS'data_obs'
p120
aS'GG2HMf05ph0_2017_hgg'
p121
aS'GG2HbsmM_2017_hgg'
p122
aS'GG2Hsm_2017_hgg'
p123
aS'tth0P_2017_hgg'
p124
aS'vbf0Mf05ph0_2017_hgg'
p125
aS'vbf0M_2017_hgg'
p126
aS'vbf0P_2017_hgg'
p127
aS'wh0Mf05ph0_2017_hgg'
p128
aS'wh0M_2017_hgg'
p129
aS'wh0P_2017_hgg'
p130
aS'zh0Mf05ph0_2017_hgg'
p131
aS'zh0M_2017_hgg'
p132
aS'zh0P_2017_hgg'
p133
ag119
ag120
aS'jjh0Mf05ph0'
p134
aS'jjh0M'
p135
aS'jjh0P'
p136
aS'tth0P'
p137
aS'vbf0Mf05ph0'
p138
aS'vbf0M'
p139
aS'vbf0P'
p140
aS'wh0Mf05ph0'
p141
aS'wh0M'
p142
aS'wh0P'
p143
aS'zh0Mf05ph0'
p144
aS'zh0M'
p145
aS'zh0P'
p146
aS'-'
p147
ag147
aS'AC_Bin4_2017'
p148
aS'AC_Bin4_2017'
p149
aS'AC_Bin4_2017'
p150
aS'AC_Bin4_2017'
p151
aS'AC_Bin4_2017'
p152
aS'AC_Bin4_2017'
p153
aS'AC_Bin4_2017'
p154
aS'AC_Bin4_2017'
p155
aS'AC_Bin4_2017'
p156
aS'AC_Bin4_2017'
p157
aS'AC_Bin4_2017'
p158
aS'AC_Bin4_2017'
p159
aS'AC_Bin4_2017'
p160
aS'AC_Bin4_2017'
p161
ag161
aS'Trees/Opt_2017/2017/Trees2WS_2017/WS/output_GluGluHToGGPlusTwoJets_MM_M125_TuneCP5_13TeV-amcatnlopowheg-minlo-pythia8_GG2HMf05ph0.root'
p162
aS'Trees/Opt_2017/2017/Trees2WS_2017/WS/output_GluGluHToGGPlusTwoJets_CPodd_M125_TuneCP5_13TeV-amcatnlopowheg-minlo-pythia8_GG2HbsmM.root'
p163
aS'Trees/Opt_2017/2017/Trees2WS_2017/WS/output_GluGluHToGGPlusTwoJets_SM_M125_TuneCP5_13TeV-amcatnlopowheg-minlo-pythia8_GG2Hsm.root'
p164
aS'Trees/Opt_2017/2017/Trees2WS_2017/WS/output_ttHJetToGG_M125_TuneCP5_13TeV-amcatnloFXFX-madspin-pythia8_TTHsm.root'
p165
aS'Trees/Opt_2017/2017/Trees2WS_2017/WS/output_VBFHiggs0Mf05ph0ToGG_M125_TuneCP5_13TeV-JHUGenV7011-pythia8_VBFMf05ph0.root'
p166
aS'Trees/Opt_2017/2017/Trees2WS_2017/WS/output_VBFHiggs0MToGG_M125_TuneCP5_13TeV-JHUGenV7011-pythia8_VBFbsmM.root'
p167
aS'Trees/Opt_2017/2017/Trees2WS_2017/WS/output_VBFHToGG_M125_TuneCP5_13TeV-amcatnlo-pythia8_VBFsm.root'
p168
aS'Trees/Opt_2017/2017/Trees2WS_2017/WS/output_WHiggs0Mf05ph0ToGG_M125_TuneCP5_13TeV-JHUGenV7011-pythia8_WHMf05ph0.root'
p169
aS'Trees/Opt_2017/2017/Trees2WS_2017/WS/output_WHiggs0MToGG_M125_TuneCP5_13TeV-JHUGenV7011-pythia8_WHbsmM.root'
p170
aS'Trees/Opt_2017/2017/Trees2WS_2017/WS/output_WHiggs0PMToGG_M125_TuneCP5_13TeV-JHUGenV7011-pythia8_WHsm.root'
p171
aS'Trees/Opt_2017/2017/Trees2WS_2017/WS/output_ZHiggs0Mf05ph0ToGG_M125_TuneCP5_13TeV-JHUGenV7011-pythia8_ZHMf05ph0.root'
p172
aS'Trees/Opt_2017/2017/Trees2WS_2017/WS/output_ZHiggs0MToGG_M125_TuneCP5_13TeV-JHUGenV7011-pythia8_ZHbsmM.root'
p173
aS'Trees/Opt_2017/2017/Trees2WS_2017/WS/output_ZH_HToGG_ZToAll_M125_TuneCP5_13TeV-powheg-pythia8_ZHsm.root'
p174
ag147
ag147
aS'jjh0Mf05ph0_125_13TeV_AC_Bin4'
p175
aS'jjh0M_125_13TeV_AC_Bin4'
p176
aS'jjh0P_125_13TeV_AC_Bin4'
p177
aS'tth0P_125_13TeV_AC_Bin4'
p178
aS'vbf0Mf05ph0_125_13TeV_AC_Bin4'
p179
aS'vbf0M_125_13TeV_AC_Bin4'
p180
aS'vbf0P_125_13TeV_AC_Bin4'
p181
aS'wh0Mf05ph0_125_13TeV_AC_Bin4'
p182
aS'wh0M_125_13TeV_AC_Bin4'
p183
aS'wh0P_125_13TeV_AC_Bin4'
p184
aS'zh0Mf05ph0_125_13TeV_AC_Bin4'
p185
aS'zh0M_125_13TeV_AC_Bin4'
p186
aS'zh0P_125_13TeV_AC_Bin4'
p187
ag147
ag147
aS'./Models/signal/CMS-HGG_sigfit_packaged_AC_Bin4_2017.root'
p188
aS'./Models/signal/CMS-HGG_sigfit_packaged_AC_Bin4_2017.root'
p189
aS'./Models/signal/CMS-HGG_sigfit_packaged_AC_Bin4_2017.root'
p190
aS'./Models/signal/CMS-HGG_sigfit_packaged_AC_Bin4_2017.root'
p191
aS'./Models/signal/CMS-HGG_sigfit_packaged_AC_Bin4_2017.root'
p192
aS'./Models/signal/CMS-HGG_sigfit_packaged_AC_Bin4_2017.root'
p193
aS'./Models/signal/CMS-HGG_sigfit_packaged_AC_Bin4_2017.root'
p194
aS'./Models/signal/CMS-HGG_sigfit_packaged_AC_Bin4_2017.root'
p195
aS'./Models/signal/CMS-HGG_sigfit_packaged_AC_Bin4_2017.root'
p196
aS'./Models/signal/CMS-HGG_sigfit_packaged_AC_Bin4_2017.root'
p197
aS'./Models/signal/CMS-HGG_sigfit_packaged_AC_Bin4_2017.root'
p198
aS'./Models/signal/CMS-HGG_sigfit_packaged_AC_Bin4_2017.root'
p199
aS'./Models/signal/CMS-HGG_sigfit_packaged_AC_Bin4_2017.root'
p200
aS'./Models/background/CMS-HGG_multipdf_AC_Bin4_2017.root'
p201
ag201
aS'wsig_13TeV:hggpdfsmrel_GG2HMf05ph0_2017_AC_Bin4_13TeV'
p202
aS'wsig_13TeV:hggpdfsmrel_GG2HbsmM_2017_AC_Bin4_13TeV'
p203
aS'wsig_13TeV:hggpdfsmrel_GG2Hsm_2017_AC_Bin4_13TeV'
p204
aS'wsig_13TeV:hggpdfsmrel_TTHsm_2017_AC_Bin4_13TeV'
p205
aS'wsig_13TeV:hggpdfsmrel_VBFMf05ph0_2017_AC_Bin4_13TeV'
p206
aS'wsig_13TeV:hggpdfsmrel_VBFbsmM_2017_AC_Bin4_13TeV'
p207
aS'wsig_13TeV:hggpdfsmrel_VBFsm_2017_AC_Bin4_13TeV'
p208
aS'wsig_13TeV:hggpdfsmrel_WHMf05ph0_2017_AC_Bin4_13TeV'
p209
aS'wsig_13TeV:hggpdfsmrel_WHbsmM_2017_AC_Bin4_13TeV'
p210
aS'wsig_13TeV:hggpdfsmrel_WHsm_2017_AC_Bin4_13TeV'
p211
aS'wsig_13TeV:hggpdfsmrel_ZHMf05ph0_2017_AC_Bin4_13TeV'
p212
aS'wsig_13TeV:hggpdfsmrel_ZHbsmM_2017_AC_Bin4_13TeV'
p213
aS'wsig_13TeV:hggpdfsmrel_ZHsm_2017_AC_Bin4_13TeV'
p214
aS'multipdf:CMS_hgg_AC_Bin4_2017_13TeV_bkgshape'
p215
aS'multipdf:roohist_data_mass_AC_Bin4'
p216
aF0.012591788903137058
aF0.011123565637717547
aF0.017106479625454085
aF0.0001029319225835934
aF0.0026554822975413117
aF0.00022291291793408163
aF0.008426227339896286
aF0.00018646755484041933
aF0.0001519239360732172
aF0.00017892750520331901
aF0.00010353345010116755
aF9.749806440595421e-05
aF0.00020719727081086603
ag147
ag147
aF1.4226629739447333e-07
aF1.22530649402575e-07
aF1.7301273374486722e-07
aF1.901053984032857e-09
aF1.6672272965318563e-08
aF1.0223764847017467e-09
aF1.9013660796379168e-07
aF7.788157426836314e-10
aF6.442060897985163e-10
aF8.071807693556406e-10
aF2.769253419988019e-10
aF2.660273575085815e-10
aF1.8522059286266637e-09
ag147
ag147
aF0.013245267687909474
aF0.011700258300824697
aF0.01809471380227597
aF0.00010713056867154772
aF0.00279284885683979
aF0.00023399500162310605
aF0.008874519435071416
aF0.00019704052005619908
aF0.00015935516547881023
aF0.0001873660573087096
aF0.00010999691107559197
aF0.00010272917962213092
aF0.00022109289679554314
ag147
ag147
aF0.012671847760432241
aF0.011194375133351968
aF0.017214282754450475
aF0.00010355113600822512
aF0.002671522592699605
aF0.00022427289740096509
aF0.008477128508296442
aF0.00018759460707238148
aF0.0001528724150419614
aF0.00017996283545201918
aF0.0001041293743775469
aF9.809387753235898e-05
aF0.00020843715075574937
ag147
ag147
aF0.012511986293260184
aF0.011052981783069595
aF0.016999019026486643
aF0.00010231445232493045
aF0.002639490230692303
aF0.00022155707021162294
aF0.008375480899853953
aF0.00018534392796799734
aF0.00015097840275233167
aF0.00017789521625078414
aF0.00010293923262380989
aF9.690404647428268e-05
aF0.00020596105637345858
ag147
ag147
aF0.012806193395323996
aF0.011315645817559073
aF0.017407615065660853
aF0.00010521023891483228
aF0.00270064086059116
aF0.00022669873989541097
aF0.008567633871350601
aF0.00019004463030616273
aF0.0001542985099333072
aF0.00018168542095299813
aF0.00010582833085744664
aF9.938839126035593e-05
aF0.00021147861535005967
ag147
ag147
aF0.012379131005176618
aF0.010933103193873776
aF0.01680792734400067
aF0.00010066721666087597
aF0.0026106828910209103
aF0.00021915396201395887
aF0.008285860877175916
aF0.00018292124996086682
aF0.00014956582846621636
aF0.00017618715172927981
aF0.00010125886558542979
aF9.562213841740968e-05
aF0.00020294776010757842
ag147
ag147
aF0.01263464636745816
aF0.011161119325677123
aF0.017166947749157897
aF0.00010326632986965329
aF0.0026666288510616832
aF0.00022368254817899864
aF0.008461954649048978
aF0.00018710710059028965
aF0.00015252493480509785
aF0.00017964796316108193
aF0.00010392106407549839
aF9.779887719674303e-05
aF0.000208094191544958
ag147
ag147
aF0.012549003090819816
aF0.011086079848784486
aF0.017046134858378123
aF0.00010259797412254242
aF0.002644360533570177
aF0.0002221445408239272
aF0.008390575922348981
aF0.00018582905475047394
aF0.0001513241297429788
aF0.00017820869055816042
aF0.00010314649524517137
aF9.719771002652191e-05
aF0.00020630224625239663
ag147
ag147
aF0.012636174927662138
aF0.011164247074822378
aF0.017167718442092025
aF0.00010320943111242554
aF0.0026640477637560893
aF0.00022353777899435125
aF0.008454952076865552
aF0.00018722905310211493
aF0.00015243253377539737
aF0.00017950661984607948
aF0.00010391028872736444
aF9.7810097793504e-05
aF0.000208058500361851
ag147
ag147
aF0.012547473717372661
aF0.011082948668389042
aF0.017045341272821514
aF0.00010265469607242698
aF0.0026469296242590335
aF0.0002222888776516096
aF0.00839754595827506
aF0.00018570764019271293
aF0.00015141606750525215
aF0.0001783492042352977
aF0.00010315716869537675
aF9.718646780914914e-05
aF0.0002063373822021077
ag147
ag147
aF0.012952041434800776
aF0.011492061454646318
aF0.017839477754023392
aF0.00010760378313534602
aF0.0028078079963052005
aF0.0002380759394782217
aF0.0228601239409727
aF0.0001907414964534837
aF0.00016149527914421924
aF0.0001879335563899076
aF0.00011161309976159828
aF0.0001001683106096607
aF0.00021530746607822948
ag147
ag147
aF0.012098362995402567
aF0.010738653725184122
aF0.016531094041965844
aF9.914540237332403e-05
aF0.0025051699576579267
aF0.00019545510053831094
aF0.016135503841269383
aF0.00017872460375656374
aF0.00014331061379380117
aF0.00017457828971600975
aF0.00010377501098446373
aF9.749806440595421e-05
aF0.00020719727081086603
ag147
ag147
aF0.012705431530775968
aF0.011396627774047374
aF0.01704921028294848
aF0.00010961117686747457
aF0.0027014373324618646
aF0.00026334789004067716
aF0.007153540168474137
aF0.00018870092526412918
aF0.00017245625417672272
aF0.00016969615535344929
aF0.00010940915558421693
aF0.00010329416272725211
aF0.00018155599309466197
ag147
ag147
aF0.01222685019911296
aF0.010665934983990155
aF0.01675039889096297
aF0.00012601908269971318
aF0.002642677811309113
aF0.0002484070148511819
aF0.0066645727370087116
aF0.00017108134466070624
aF0.00014625190055994608
aF0.00020263433316358714
aF0.00010877053091462585
aF9.695322796687833e-05
aF0.0001910414980557107
ag147
ag147
aF0.013031290931849071
aF0.01146673140283383
aF0.017636779726672103
aF0.0001072896718596894
aF0.0027236885180172976
aF0.00022291291793408163
aF0.024263678471470485
aF0.00019048852777814318
aF0.0001519239360732172
aF0.00017892750520331901
aF0.00010874954341488774
aF0.00010299405266778194
aF0.0002136138368769025
ag147
ag147
aF0.01223815732237199
aF0.010881250190323044
aF0.01648121482139686
aF9.332276636087045e-05
aF0.0025976430083574087
aF0.00021822137637173
aF0.006588991219814488
aF0.00018242888404529367
aF0.00014293595108938462
aF0.00017440545434510568
aF0.00010353345010116755
aF9.220615106642072e-05
aF0.00020719727081086603
ag147
ag147
aF0.014841474101103813
aF0.013207355299982737
aF0.019969380214661214
aF0.00010807881881191861
aF0.0028604794570128433
aF0.0002468210725510289
aF0.006924438511305198
aF0.00017936454219125153
aF0.00017649928054197517
aF0.00021356322031351738
aF0.00014086591909290291
aF0.00011070802111134981
aF0.00024563663464505225
ag147
ag147
aF0.010731263299931015
aF0.009158796809060732
aF0.014664957048807992
aF0.00010183351855630463
aF0.002459695316701982
aF0.0002013880682625313
aF0.006949454821551626
aF0.00013612187422040734
aF0.00010383198878116673
aF0.00015212611560855294
aF8.669245357850741e-05
aF7.520380745518196e-05
aF0.00020457604159673792
ag147
ag147
aF0.012860857341365772
aF0.011809400766651379
aF0.01769784731186519
aF0.00010171410031034611
aF0.0026186058462371875
aF0.00024660352505634364
aF0.006922225712060026
aF0.00019470723441372684
aF0.0001424450308604719
aF0.000201122713406221
aF0.00011116575410596852
aF0.0001053121939094126
aF0.00023153286520027905
ag147
ag147
aF0.01224202887760839
aF0.010303172041403741
aF0.016960182588263706
aF0.00011203271628801303
aF0.00265168578198427
aF0.0002261874190025992
aF0.008093407387605112
aF0.00016949621544881666
aF0.00012606443419826974
aF0.00017428667251806473
aF0.00010234511705675686
aF8.932085847845883e-05
aF0.00022296592260317993
ag147
ag147
aF0.012591788903137058
aF0.011123565637717547
aF0.017106479625454085
aF0.0001029319225835934
aF0.0026554822975413117
aF0.00022291291793408163
aF0.008426227339896286
aF0.00018646755484041933
aF0.0001519239360732172
aF0.00017892750520331901
aF0.00010353345010116755
aF9.749806440595421e-05
aF0.00020719727081086603
ag147
ag147
aF0.012591788903137058
aF0.011123565637717547
aF0.017106479625454085
aF0.0001029319225835934
aF0.0026554822975413117
aF0.00022291291793408163
aF0.008426227339896286
aF0.00018646755484041933
aF0.0001519239360732172
aF0.00017892750520331901
aF0.00010353345010116755
aF9.749806440595421e-05
aF0.00020719727081086603
ag147
ag147
atp217
ba(lp218
g15
(g16
(dp219
g18
g19
(g20
(I0
tp220
g22
tp221
Rp222
(I1
(I1
tp223
g29
I00
(lp224
g43
atp225
bsg68
Nstp226
Rp227
ag15
(g16
(dp228
g18
g19
(g20
(I0
tp229
g22
tp230
Rp231
(I1
(I33
tp232
g29
I00
(lp233
g33
ag34
ag35
ag36
ag37
ag38
ag39
ag40
ag41
ag42
ag44
ag45
ag46
ag47
ag48
ag49
ag50
ag51
ag52
ag53
ag54
ag55
ag56
ag57
ag58
ag59
ag60
ag61
ag62
ag63
ag64
ag65
ag66
atp234
bsg68
Nstp235
Rp236
a(dp237
S'0.14.1'
p238
(dp239
S'axes'
p240
g14
sS'blocks'
p241
(lp242
(dp243
S'mgr_locs'
p244
c__builtin__
slice
p245
(I10
I11
I1
tp246
Rp247
sS'values'
p248
g89
sa(dp249
g244
g19
(g20
(I0
tp250
g22
tp251
Rp252
(I1
(I33
tp253
g79
I00
S'\x00\x00\x00\x00\x00\x00\x00\x00\x01\x00\x00\x00\x00\x00\x00\x00\x02\x00\x00\x00\x00\x00\x00\x00\x03\x00\x00\x00\x00\x00\x00\x00\x04\x00\x00\x00\x00\x00\x00\x00\x05\x00\x00\x00\x00\x00\x00\x00\x06\x00\x00\x00\x00\x00\x00\x00\x07\x00\x00\x00\x00\x00\x00\x00\x08\x00\x00\x00\x00\x00\x00\x00\t\x00\x00\x00\x00\x00\x00\x00\x0b\x00\x00\x00\x00\x00\x00\x00\x0c\x00\x00\x00\x00\x00\x00\x00\r\x00\x00\x00\x00\x00\x00\x00\x0e\x00\x00\x00\x00\x00\x00\x00\x0f\x00\x00\x00\x00\x00\x00\x00\x10\x00\x00\x00\x00\x00\x00\x00\x11\x00\x00\x00\x00\x00\x00\x00\x12\x00\x00\x00\x00\x00\x00\x00\x13\x00\x00\x00\x00\x00\x00\x00\x14\x00\x00\x00\x00\x00\x00\x00\x15\x00\x00\x00\x00\x00\x00\x00\x16\x00\x00\x00\x00\x00\x00\x00\x17\x00\x00\x00\x00\x00\x00\x00\x18\x00\x00\x00\x00\x00\x00\x00\x19\x00\x00\x00\x00\x00\x00\x00\x1a\x00\x00\x00\x00\x00\x00\x00\x1b\x00\x00\x00\x00\x00\x00\x00\x1c\x00\x00\x00\x00\x00\x00\x00\x1d\x00\x00\x00\x00\x00\x00\x00\x1e\x00\x00\x00\x00\x00\x00\x00\x1f\x00\x00\x00\x00\x00\x00\x00 \x00\x00\x00\x00\x00\x00\x00!\x00\x00\x00\x00\x00\x00\x00'
p254
tp255
bsg248
g100
sasstp256
bsb.