ccopy_reg
_reconstructor
p0
(cpandas.core.frame
DataFrame
p1
c__builtin__
object
p2
Ntp3
Rp4
(dp5
S'_metadata'
p6
(lp7
sS'_typ'
p8
S'dataframe'
p9
sS'_data'
p10
g0
(cpandas.core.internals
BlockManager
p11
g2
Ntp12
Rp13
((lp14
cpandas.core.indexes.base
_new_Index
p15
(cpandas.core.indexes.base
Index
p16
(dp17
S'data'
p18
cnumpy.core.multiarray
_reconstruct
p19
(cnumpy
ndarray
p20
(I0
tp21
S'b'
p22
tp23
Rp24
(I1
(I34
tp25
cnumpy
dtype
p26
(S'O8'
p27
I0
I1
tp28
Rp29
(I3
S'|'
p30
NNNI-1
I-1
I63
tp31
bI00
(lp32
S'year'
p33
aS'type'
p34
aS'procOriginal'
p35
aS'proc'
p36
aS'proc_s0'
p37
aS'cat'
p38
aS'inputWSFile'
p39
aS'nominalDataName'
p40
aS'modelWSFile'
p41
aS'model'
p42
aS'rate'
p43
aS'nominal_yield'
p44
aS'sumw2'
p45
aS'nominal_yield_COWCorr'
p46
aS'LooseMvaSF_up_yield'
p47
aS'LooseMvaSF_down_yield'
p48
aS'PreselSF_up_yield'
p49
aS'PreselSF_down_yield'
p50
aS'electronVetoSF_up_yield'
p51
aS'electronVetoSF_down_yield'
p52
aS'TriggerWeight_up_yield'
p53
aS'TriggerWeight_down_yield'
p54
aS'SigmaEOverEShift_up_yield'
p55
aS'SigmaEOverEShift_down_yield'
p56
aS'MvaShift_up_yield'
p57
aS'MvaShift_down_yield'
p58
aS'PUJIDShift_up_yield'
p59
aS'PUJIDShift_down_yield'
p60
aS'JEC_up_yield'
p61
aS'JEC_down_yield'
p62
aS'JER_up_yield'
p63
aS'JER_down_yield'
p64
aS'JetHEM_up_yield'
p65
aS'JetHEM_down_yield'
p66
atp67
bsS'name'
p68
Nstp69
Rp70
ag15
(cpandas.core.indexes.numeric
Int64Index
p71
(dp72
g18
g19
(g20
(I0
tp73
g22
tp74
Rp75
(I1
(I15
tp76
g26
(S'i8'
p77
I0
I1
tp78
Rp79
(I3
S'<'
p80
NNNI-1
I-1
I0
tp81
bI00
S'\x00\x00\x00\x00\x00\x00\x00\x00\x01\x00\x00\x00\x00\x00\x00\x00\x02\x00\x00\x00\x00\x00\x00\x00\x03\x00\x00\x00\x00\x00\x00\x00\x04\x00\x00\x00\x00\x00\x00\x00\x05\x00\x00\x00\x00\x00\x00\x00\x06\x00\x00\x00\x00\x00\x00\x00\x07\x00\x00\x00\x00\x00\x00\x00\x08\x00\x00\x00\x00\x00\x00\x00\t\x00\x00\x00\x00\x00\x00\x00\n\x00\x00\x00\x00\x00\x00\x00\x0b\x00\x00\x00\x00\x00\x00\x00\x0c\x00\x00\x00\x00\x00\x00\x00\r\x00\x00\x00\x00\x00\x00\x00\x0e\x00\x00\x00\x00\x00\x00\x00'
p82
tp83
bsg68
Nstp84
Rp85
a(lp86
g19
(g20
(I0
tp87
g22
tp88
Rp89
(I1
(I1
I15
tp90
g26
(S'f8'
p91
I0
I1
tp92
Rp93
(I3
S'<'
p94
NNNI-1
I-1
I0
tp95
bI00
S'\x00\x00\x00\x00\x00A\xe4@\x00\x00\x00\x00\x00A\xe4@\x00\x00\x00\x00\x00A\xe4@\x00\x00\x00\x00\x00A\xe4@\x00\x00\x00\x00\x00A\xe4@\x00\x00\x00\x00\x00A\xe4@\x00\x00\x00\x00\x00A\xe4@\x00\x00\x00\x00\x00A\xe4@\x00\x00\x00\x00\x00A\xe4@\x00\x00\x00\x00\x00A\xe4@\x00\x00\x00\x00\x00A\xe4@\x00\x00\x00\x00\x00A\xe4@\x00\x00\x00\x00\x00A\xe4@\x00\x00\x00\x00\x00\x00\xf0?\x00\x00\x00\x00\x00\x00\xf0\xbf'
p96
tp97
bag19
(g20
(I0
tp98
g22
tp99
Rp100
(I1
(I33
I15
tp101
g29
I00
(lp102
S'2017'
p103
ag103
ag103
ag103
ag103
ag103
ag103
ag103
ag103
ag103
ag103
ag103
ag103
ag33
ag33
aS'sig'
p104
ag104
ag104
ag104
ag104
ag104
ag104
ag104
ag104
ag104
ag104
ag104
ag104
aS'bkg'
p105
ag18
aS'GG2HMf05ph0'
p106
aS'GG2HbsmM'
p107
aS'GG2Hsm'
p108
aS'TTHsm'
p109
aS'VBFMf05ph0'
p110
aS'VBFbsmM'
p111
aS'VBFsm'
p112
aS'WHMf05ph0'
p113
aS'WHbsmM'
p114
aS'WHsm'
p115
aS'ZHMf05ph0'
p116
aS'ZHbsmM'
p117
aS'ZHsm'
p118
aS'bkg_mass'
p119
aS'data_obs'
p120
aS'GG2HMf05ph0_2017_hgg'
p121
aS'GG2HbsmM_2017_hgg'
p122
aS'GG2Hsm_2017_hgg'
p123
aS'tth0P_2017_hgg'
p124
aS'vbf0Mf05ph0_2017_hgg'
p125
aS'vbf0M_2017_hgg'
p126
aS'vbf0P_2017_hgg'
p127
aS'wh0Mf05ph0_2017_hgg'
p128
aS'wh0M_2017_hgg'
p129
aS'wh0P_2017_hgg'
p130
aS'zh0Mf05ph0_2017_hgg'
p131
aS'zh0M_2017_hgg'
p132
aS'zh0P_2017_hgg'
p133
ag119
ag120
aS'jjh0Mf05ph0'
p134
aS'jjh0M'
p135
aS'jjh0P'
p136
aS'tth0P'
p137
aS'vbf0Mf05ph0'
p138
aS'vbf0M'
p139
aS'vbf0P'
p140
aS'wh0Mf05ph0'
p141
aS'wh0M'
p142
aS'wh0P'
p143
aS'zh0Mf05ph0'
p144
aS'zh0M'
p145
aS'zh0P'
p146
aS'-'
p147
ag147
aS'AC_Bin29_2017'
p148
aS'AC_Bin29_2017'
p149
aS'AC_Bin29_2017'
p150
aS'AC_Bin29_2017'
p151
aS'AC_Bin29_2017'
p152
aS'AC_Bin29_2017'
p153
aS'AC_Bin29_2017'
p154
aS'AC_Bin29_2017'
p155
aS'AC_Bin29_2017'
p156
aS'AC_Bin29_2017'
p157
aS'AC_Bin29_2017'
p158
aS'AC_Bin29_2017'
p159
aS'AC_Bin29_2017'
p160
aS'AC_Bin29_2017'
p161
ag161
aS'Trees/Opt_2017/2017/Trees2WS_2017/WS/output_GluGluHToGGPlusTwoJets_MM_M125_TuneCP5_13TeV-amcatnlopowheg-minlo-pythia8_GG2HMf05ph0.root'
p162
aS'Trees/Opt_2017/2017/Trees2WS_2017/WS/output_GluGluHToGGPlusTwoJets_CPodd_M125_TuneCP5_13TeV-amcatnlopowheg-minlo-pythia8_GG2HbsmM.root'
p163
aS'Trees/Opt_2017/2017/Trees2WS_2017/WS/output_GluGluHToGGPlusTwoJets_SM_M125_TuneCP5_13TeV-amcatnlopowheg-minlo-pythia8_GG2Hsm.root'
p164
aS'Trees/Opt_2017/2017/Trees2WS_2017/WS/output_ttHJetToGG_M125_TuneCP5_13TeV-amcatnloFXFX-madspin-pythia8_TTHsm.root'
p165
aS'Trees/Opt_2017/2017/Trees2WS_2017/WS/output_VBFHiggs0Mf05ph0ToGG_M125_TuneCP5_13TeV-JHUGenV7011-pythia8_VBFMf05ph0.root'
p166
aS'Trees/Opt_2017/2017/Trees2WS_2017/WS/output_VBFHiggs0MToGG_M125_TuneCP5_13TeV-JHUGenV7011-pythia8_VBFbsmM.root'
p167
aS'Trees/Opt_2017/2017/Trees2WS_2017/WS/output_VBFHToGG_M125_TuneCP5_13TeV-amcatnlo-pythia8_VBFsm.root'
p168
aS'Trees/Opt_2017/2017/Trees2WS_2017/WS/output_WHiggs0Mf05ph0ToGG_M125_TuneCP5_13TeV-JHUGenV7011-pythia8_WHMf05ph0.root'
p169
aS'Trees/Opt_2017/2017/Trees2WS_2017/WS/output_WHiggs0MToGG_M125_TuneCP5_13TeV-JHUGenV7011-pythia8_WHbsmM.root'
p170
aS'Trees/Opt_2017/2017/Trees2WS_2017/WS/output_WHiggs0PMToGG_M125_TuneCP5_13TeV-JHUGenV7011-pythia8_WHsm.root'
p171
aS'Trees/Opt_2017/2017/Trees2WS_2017/WS/output_ZHiggs0Mf05ph0ToGG_M125_TuneCP5_13TeV-JHUGenV7011-pythia8_ZHMf05ph0.root'
p172
aS'Trees/Opt_2017/2017/Trees2WS_2017/WS/output_ZHiggs0MToGG_M125_TuneCP5_13TeV-JHUGenV7011-pythia8_ZHbsmM.root'
p173
aS'Trees/Opt_2017/2017/Trees2WS_2017/WS/output_ZH_HToGG_ZToAll_M125_TuneCP5_13TeV-powheg-pythia8_ZHsm.root'
p174
ag147
ag147
aS'jjh0Mf05ph0_125_13TeV_AC_Bin29'
p175
aS'jjh0M_125_13TeV_AC_Bin29'
p176
aS'jjh0P_125_13TeV_AC_Bin29'
p177
aS'tth0P_125_13TeV_AC_Bin29'
p178
aS'vbf0Mf05ph0_125_13TeV_AC_Bin29'
p179
aS'vbf0M_125_13TeV_AC_Bin29'
p180
aS'vbf0P_125_13TeV_AC_Bin29'
p181
aS'wh0Mf05ph0_125_13TeV_AC_Bin29'
p182
aS'wh0M_125_13TeV_AC_Bin29'
p183
aS'wh0P_125_13TeV_AC_Bin29'
p184
aS'zh0Mf05ph0_125_13TeV_AC_Bin29'
p185
aS'zh0M_125_13TeV_AC_Bin29'
p186
aS'zh0P_125_13TeV_AC_Bin29'
p187
ag147
ag147
aS'./Models/signal/CMS-HGG_sigfit_packaged_AC_Bin29_2017.root'
p188
aS'./Models/signal/CMS-HGG_sigfit_packaged_AC_Bin29_2017.root'
p189
aS'./Models/signal/CMS-HGG_sigfit_packaged_AC_Bin29_2017.root'
p190
aS'./Models/signal/CMS-HGG_sigfit_packaged_AC_Bin29_2017.root'
p191
aS'./Models/signal/CMS-HGG_sigfit_packaged_AC_Bin29_2017.root'
p192
aS'./Models/signal/CMS-HGG_sigfit_packaged_AC_Bin29_2017.root'
p193
aS'./Models/signal/CMS-HGG_sigfit_packaged_AC_Bin29_2017.root'
p194
aS'./Models/signal/CMS-HGG_sigfit_packaged_AC_Bin29_2017.root'
p195
aS'./Models/signal/CMS-HGG_sigfit_packaged_AC_Bin29_2017.root'
p196
aS'./Models/signal/CMS-HGG_sigfit_packaged_AC_Bin29_2017.root'
p197
aS'./Models/signal/CMS-HGG_sigfit_packaged_AC_Bin29_2017.root'
p198
aS'./Models/signal/CMS-HGG_sigfit_packaged_AC_Bin29_2017.root'
p199
aS'./Models/signal/CMS-HGG_sigfit_packaged_AC_Bin29_2017.root'
p200
aS'./Models/background/CMS-HGG_multipdf_AC_Bin29_2017.root'
p201
ag201
aS'wsig_13TeV:hggpdfsmrel_GG2HMf05ph0_2017_AC_Bin29_13TeV'
p202
aS'wsig_13TeV:hggpdfsmrel_GG2HbsmM_2017_AC_Bin29_13TeV'
p203
aS'wsig_13TeV:hggpdfsmrel_GG2Hsm_2017_AC_Bin29_13TeV'
p204
aS'wsig_13TeV:hggpdfsmrel_TTHsm_2017_AC_Bin29_13TeV'
p205
aS'wsig_13TeV:hggpdfsmrel_VBFMf05ph0_2017_AC_Bin29_13TeV'
p206
aS'wsig_13TeV:hggpdfsmrel_VBFbsmM_2017_AC_Bin29_13TeV'
p207
aS'wsig_13TeV:hggpdfsmrel_VBFsm_2017_AC_Bin29_13TeV'
p208
aS'wsig_13TeV:hggpdfsmrel_WHMf05ph0_2017_AC_Bin29_13TeV'
p209
aS'wsig_13TeV:hggpdfsmrel_WHbsmM_2017_AC_Bin29_13TeV'
p210
aS'wsig_13TeV:hggpdfsmrel_WHsm_2017_AC_Bin29_13TeV'
p211
aS'wsig_13TeV:hggpdfsmrel_ZHMf05ph0_2017_AC_Bin29_13TeV'
p212
aS'wsig_13TeV:hggpdfsmrel_ZHbsmM_2017_AC_Bin29_13TeV'
p213
aS'wsig_13TeV:hggpdfsmrel_ZHsm_2017_AC_Bin29_13TeV'
p214
aS'multipdf:CMS_hgg_AC_Bin29_2017_13TeV_bkgshape'
p215
aS'multipdf:roohist_data_mass_AC_Bin29'
p216
aF0.02601505039501717
aF0.013972340657346649
aF0.03036939279672879
aF0.002414382221559208
aF0.01672658664483606
aF0.013950038557368316
aF0.032734601655647566
aF0.0007738163353678829
aF0.001224372614387903
aF0.0002122783685081231
aF0.0003464186695509852
aF0.0006541921545704099
aF0.000423407889684313
ag147
ag147
aF2.720130321417345e-07
aF1.4618665835009485e-07
aF3.024496939804735e-07
aF3.000860621416674e-08
aF1.0766917439180329e-07
aF6.556191684365394e-08
aF7.182728818553688e-07
aF3.3029419944959133e-09
aF5.227752513095712e-09
aF9.61685152000701e-10
aF9.42824852318733e-10
aF1.8074179669156319e-09
aF3.524347696832865e-09
ag147
ag147
aF0.026981794704645682
aF0.014493113707646445
aF0.03151231910763811
aF0.002507248532058471
aF0.017343903913213672
aF0.014445367744808884
aF0.03395835478739135
aF0.00080172870404848
aF0.0012687872705984937
aF0.00022107241310708408
aF0.00036058725518397947
aF0.0006777859364933784
aF0.0004382090146729012
ag147
ag147
aF0.026197140965698314
aF0.014070433454988622
aF0.030582698079166394
aF0.002431490126103986
aF0.0168442367646013
aF0.01404982149409208
aF0.03296092769896179
aF0.0007792405243215815
aF0.0012330249687769641
aF0.00021371476198732837
aF0.0003487651470819364
aF0.0006587897783646468
aF0.00042644395158903477
ag147
ag147
aF0.02583360244892595
aF0.013874594858496741
aF0.030156843182453347
aF0.0023973351937961822
aF0.016609354059171775
aF0.013850614764853568
aF0.03250906384547278
aF0.0007684113626010197
aF0.0012157511858687698
aF0.0002108469455294044
aF0.0003440802192547797
aF0.0006496109316690541
aF0.0004203827319613712
ag147
ag147
aF0.026384018370469615
aF0.014169821512121844
aF0.03079814219070272
aF0.00245161269971962
aF0.016959927940479805
aF0.0141347609751124
aF0.0332102038028108
aF0.0007834764729340203
aF0.0012405534035241233
aF0.00021516975917808994
aF0.0003516214308725614
aF0.0006630905968814941
aF0.00042908949956254076
ag147
ag147
aF0.025648723355103088
aF0.013776216548753847
aF0.029943680218723148
aF0.002377427144802107
aF0.016494867478555542
aF0.013766510009715419
aF0.03226245203361474
aF0.0007642173667625908
aF0.0012082973789521395
aF0.00020940413498592787
aF0.00034125194208955024
aF0.000645354209474733
aF0.00041776362796979436
ag147
ag147
aF0.026083369126655577
aF0.014007782825386976
aF0.030445500432538557
aF0.002420385702079168
aF0.016769732340910976
aF0.013982869370125906
aF0.03282219527587065
aF0.0007757480822362632
aF0.0012274634340825826
aF0.0002128355255662454
aF0.0003473884833190245
aF0.0006558084352833443
aF0.0004243418198927798
ag147
ag147
aF0.025946834424889462
aF0.013936946586564069
aF0.030293387744209206
aF0.0024083865387972353
aF0.016683500239904826
aF0.01391724787463652
aF0.03264713995289877
aF0.0007718873752984864
aF0.0012212864198745301
aF0.00021172203569661487
aF0.0003454503100181537
aF0.0006525782345750171
aF0.0004224749681826964
ag147
ag147
aF0.02608040982168485
aF0.014007277318458852
aF0.03044373865719487
aF0.00242044443508052
aF0.01676865394404811
aF0.013983689601891286
aF0.03281816184935935
aF0.0007758284255895977
aF0.0012274438208202021
aF0.00021303978093155149
aF0.0003474074218686689
aF0.0006558227548088663
aF0.0004243874804320178
ag147
ag147
aF0.025949775133947257
aF0.013937448151918453
aF0.030295137886828867
aF0.0024083276129772783
aF0.016684572701083266
aF0.013916427776275477
aF0.032651154339468774
aF0.0007718067542841995
aF0.0012213054400404858
aF0.00021151809721959547
aF0.00034543127772132846
aF0.0006525635860469717
aF0.0004224294172934206
ag147
ag147
aF0.025560904643043614
aF0.013739479646574182
aF0.02997316291066454
aF0.0023970165505033947
aF0.01653846179806351
aF0.013911373782548253
aF0.032476956253503886
aF0.0007657298838239512
aF0.0012159772738868924
aF0.00020838095178987714
aF0.0003435207320308109
aF0.000639482552287518
aF0.000423407889684313
ag147
ag147
aF0.02633823233372823
aF0.014314076304799528
aF0.03071392866650058
aF0.002414719200487525
aF0.0168639407761475
aF0.013989302379059154
aF0.03359194851373104
aF0.0007778787239658413
aF0.0012334439618371107
aF0.00021708916665375
aF0.0003464186695509852
aF0.0006569001695879706
aF0.00043164994167455006
ag147
ag147
aF0.026587641643800453
aF0.014344663627525733
aF0.03138755210011368
aF0.0025233416320133983
aF0.01715900327280906
aF0.014274312464749528
aF0.033645414570401044
aF0.0007816290287792071
aF0.001266623846731818
aF0.00021705214203393552
aF0.0003651055940281367
aF0.0006730393611178442
aF0.000423407889684313
ag147
ag147
aF0.025309442679372296
aF0.013582775918621337
aF0.0294788602486733
aF0.002306611856965901
aF0.016246529196905612
aF0.013581905270029893
aF0.03242824756262053
aF0.0007350428791141894
aF0.0011939961761981976
aF0.0002122783685081231
aF0.0003303641738057195
aF0.0006434767165046651
aF0.000423407889684313
ag147
ag147
aF0.026252784808548313
aF0.014128135523606034
aF0.030603892166709556
aF0.0024052337375906063
aF0.016794675405890302
aF0.013983201976543569
aF0.03616499294821551
aF0.0007821000999683747
aF0.0012460578138870915
aF0.0002122783685081231
aF0.00035488202752276266
aF0.000676171819350202
aF0.00043156340234418167
ag147
ag147
aF0.025718019835494488
aF0.013777201392258576
aF0.03014676062275612
aF0.002409825766335416
aF0.01663044004180847
aF0.013949892264690789
aF0.03289835712848799
aF0.0007645578830306476
aF0.0011821264970421907
aF0.0002122783685081231
aF0.0003384463282145589
aF0.0006265080030516401
aF0.000423407889684313
ag147
ag147
aF0.02827115109357692
aF0.0156099323203307
aF0.03250168036584
aF0.002417971950762876
aF0.01746501791240007
aF0.014485743975683363
aF0.034084651156263135
aF0.0009639674262871267
aF0.001389448162399276
aF0.0002574618129074224
aF0.00041508183198857296
aF0.0007685288467200735
aF0.0004797066112587345
ag147
ag147
aF0.024426434205452097
aF0.013010252779167786
aF0.028288073754538345
aF0.0023002739064850175
aF0.015975478094333084
aF0.013469190588921265
aF0.032011153291932715
aF0.0006706188105454203
aF0.0010409248527594173
aF0.00017713762099447194
aF0.00029178120871620195
aF0.0005587016621575458
aF0.00037381727725005476
ag147
ag147
aF0.026256886003920954
aF0.014402062052795372
aF0.030580320455101173
aF0.0023529679317562113
aF0.016797764499187906
aF0.013980793875134623
aF0.033145813145893044
aF0.0008515932522641378
aF0.001256568470125785
aF0.00022569844895770075
aF0.00036115904367761686
aF0.0007116208118986833
aF0.0004385092811389768
ag147
ag147
aF0.025825384048857813
aF0.013850440752321447
aF0.030292014850147098
aF0.002368719869537017
aF0.016622962031306088
aF0.013904348575351833
aF0.03542620928965334
aF0.0007496536620692495
aF0.001187344690606551
aF0.00020320652265581884
aF0.00032692573518033896
aF0.0006410934138330049
aF0.00043076158999610925
ag147
ag147
aF0.02601505039501717
aF0.013972340657346649
aF0.03036939279672879
aF0.002414382221559208
aF0.01672658664483606
aF0.013950038557368316
aF0.032734601655647566
aF0.0007738163353678829
aF0.001224372614387903
aF0.0002122783685081231
aF0.0003464186695509852
aF0.0006541921545704099
aF0.000423407889684313
ag147
ag147
aF0.02601505039501717
aF0.013972340657346649
aF0.03036939279672879
aF0.002414382221559208
aF0.01672658664483606
aF0.013950038557368316
aF0.032734601655647566
aF0.0007738163353678829
aF0.001224372614387903
aF0.0002122783685081231
aF0.0003464186695509852
aF0.0006541921545704099
aF0.000423407889684313
ag147
ag147
atp217
ba(lp218
g15
(g16
(dp219
g18
g19
(g20
(I0
tp220
g22
tp221
Rp222
(I1
(I1
tp223
g29
I00
(lp224
g43
atp225
bsg68
Nstp226
Rp227
ag15
(g16
(dp228
g18
g19
(g20
(I0
tp229
g22
tp230
Rp231
(I1
(I33
tp232
g29
I00
(lp233
g33
ag34
ag35
ag36
ag37
ag38
ag39
ag40
ag41
ag42
ag44
ag45
ag46
ag47
ag48
ag49
ag50
ag51
ag52
ag53
ag54
ag55
ag56
ag57
ag58
ag59
ag60
ag61
ag62
ag63
ag64
ag65
ag66
atp234
bsg68
Nstp235
Rp236
a(dp237
S'0.14.1'
p238
(dp239
S'axes'
p240
g14
sS'blocks'
p241
(lp242
(dp243
S'mgr_locs'
p244
c__builtin__
slice
p245
(I10
I11
I1
tp246
Rp247
sS'values'
p248
g89
sa(dp249
g244
g19
(g20
(I0
tp250
g22
tp251
Rp252
(I1
(I33
tp253
g79
I00
S'\x00\x00\x00\x00\x00\x00\x00\x00\x01\x00\x00\x00\x00\x00\x00\x00\x02\x00\x00\x00\x00\x00\x00\x00\x03\x00\x00\x00\x00\x00\x00\x00\x04\x00\x00\x00\x00\x00\x00\x00\x05\x00\x00\x00\x00\x00\x00\x00\x06\x00\x00\x00\x00\x00\x00\x00\x07\x00\x00\x00\x00\x00\x00\x00\x08\x00\x00\x00\x00\x00\x00\x00\t\x00\x00\x00\x00\x00\x00\x00\x0b\x00\x00\x00\x00\x00\x00\x00\x0c\x00\x00\x00\x00\x00\x00\x00\r\x00\x00\x00\x00\x00\x00\x00\x0e\x00\x00\x00\x00\x00\x00\x00\x0f\x00\x00\x00\x00\x00\x00\x00\x10\x00\x00\x00\x00\x00\x00\x00\x11\x00\x00\x00\x00\x00\x00\x00\x12\x00\x00\x00\x00\x00\x00\x00\x13\x00\x00\x00\x00\x00\x00\x00\x14\x00\x00\x00\x00\x00\x00\x00\x15\x00\x00\x00\x00\x00\x00\x00\x16\x00\x00\x00\x00\x00\x00\x00\x17\x00\x00\x00\x00\x00\x00\x00\x18\x00\x00\x00\x00\x00\x00\x00\x19\x00\x00\x00\x00\x00\x00\x00\x1a\x00\x00\x00\x00\x00\x00\x00\x1b\x00\x00\x00\x00\x00\x00\x00\x1c\x00\x00\x00\x00\x00\x00\x00\x1d\x00\x00\x00\x00\x00\x00\x00\x1e\x00\x00\x00\x00\x00\x00\x00\x1f\x00\x00\x00\x00\x00\x00\x00 \x00\x00\x00\x00\x00\x00\x00!\x00\x00\x00\x00\x00\x00\x00'
p254
tp255
bsg248
g100
sasstp256
bsb.