ccopy_reg
_reconstructor
p0
(cpandas.core.frame
DataFrame
p1
c__builtin__
object
p2
Ntp3
Rp4
(dp5
S'_metadata'
p6
(lp7
sS'_typ'
p8
S'dataframe'
p9
sS'_data'
p10
g0
(cpandas.core.internals
BlockManager
p11
g2
Ntp12
Rp13
((lp14
cpandas.core.indexes.base
_new_Index
p15
(cpandas.core.indexes.base
Index
p16
(dp17
S'data'
p18
cnumpy.core.multiarray
_reconstruct
p19
(cnumpy
ndarray
p20
(I0
tp21
S'b'
p22
tp23
Rp24
(I1
(I32
tp25
cnumpy
dtype
p26
(S'O8'
p27
I0
I1
tp28
Rp29
(I3
S'|'
p30
NNNI-1
I-1
I63
tp31
bI00
(lp32
S'year'
p33
aS'type'
p34
aS'procOriginal'
p35
aS'proc'
p36
aS'proc_s0'
p37
aS'cat'
p38
aS'inputWSFile'
p39
aS'nominalDataName'
p40
aS'modelWSFile'
p41
aS'model'
p42
aS'rate'
p43
aS'nominal_yield'
p44
aS'sumw2'
p45
aS'nominal_yield_COWCorr'
p46
aS'LooseMvaSF_up_yield'
p47
aS'LooseMvaSF_down_yield'
p48
aS'PreselSF_up_yield'
p49
aS'PreselSF_down_yield'
p50
aS'electronVetoSF_up_yield'
p51
aS'electronVetoSF_down_yield'
p52
aS'TriggerWeight_up_yield'
p53
aS'TriggerWeight_down_yield'
p54
aS'SigmaEOverEShift_up_yield'
p55
aS'SigmaEOverEShift_down_yield'
p56
aS'MvaShift_up_yield'
p57
aS'MvaShift_down_yield'
p58
aS'PUJIDShift_up_yield'
p59
aS'PUJIDShift_down_yield'
p60
aS'JEC_up_yield'
p61
aS'JEC_down_yield'
p62
aS'JER_up_yield'
p63
aS'JER_down_yield'
p64
atp65
bsS'name'
p66
Nstp67
Rp68
ag15
(cpandas.core.indexes.numeric
Int64Index
p69
(dp70
g18
g19
(g20
(I0
tp71
g22
tp72
Rp73
(I1
(I15
tp74
g26
(S'i8'
p75
I0
I1
tp76
Rp77
(I3
S'<'
p78
NNNI-1
I-1
I0
tp79
bI00
S'\x00\x00\x00\x00\x00\x00\x00\x00\x01\x00\x00\x00\x00\x00\x00\x00\x02\x00\x00\x00\x00\x00\x00\x00\x03\x00\x00\x00\x00\x00\x00\x00\x04\x00\x00\x00\x00\x00\x00\x00\x05\x00\x00\x00\x00\x00\x00\x00\x06\x00\x00\x00\x00\x00\x00\x00\x07\x00\x00\x00\x00\x00\x00\x00\x08\x00\x00\x00\x00\x00\x00\x00\t\x00\x00\x00\x00\x00\x00\x00\n\x00\x00\x00\x00\x00\x00\x00\x0b\x00\x00\x00\x00\x00\x00\x00\x0c\x00\x00\x00\x00\x00\x00\x00\r\x00\x00\x00\x00\x00\x00\x00\x0e\x00\x00\x00\x00\x00\x00\x00'
p80
tp81
bsg66
Nstp82
Rp83
a(lp84
g19
(g20
(I0
tp85
g22
tp86
Rp87
(I1
(I1
I15
tp88
g26
(S'f8'
p89
I0
I1
tp90
Rp91
(I3
S'<'
p92
NNNI-1
I-1
I0
tp93
bI00
S'\x00\x00\x00\x00\x00A\xe4@\x00\x00\x00\x00\x00A\xe4@\x00\x00\x00\x00\x00A\xe4@\x00\x00\x00\x00\x00A\xe4@\x00\x00\x00\x00\x00A\xe4@\x00\x00\x00\x00\x00A\xe4@\x00\x00\x00\x00\x00A\xe4@\x00\x00\x00\x00\x00A\xe4@\x00\x00\x00\x00\x00A\xe4@\x00\x00\x00\x00\x00A\xe4@\x00\x00\x00\x00\x00A\xe4@\x00\x00\x00\x00\x00A\xe4@\x00\x00\x00\x00\x00A\xe4@\x00\x00\x00\x00\x00\x00\xf0?\x00\x00\x00\x00\x00\x00\xf0\xbf'
p94
tp95
bag19
(g20
(I0
tp96
g22
tp97
Rp98
(I1
(I31
I15
tp99
g29
I00
(lp100
S'2017'
p101
ag101
ag101
ag101
ag101
ag101
ag101
ag101
ag101
ag101
ag101
ag101
ag101
ag33
ag33
aS'sig'
p102
ag102
ag102
ag102
ag102
ag102
ag102
ag102
ag102
ag102
ag102
ag102
ag102
aS'bkg'
p103
ag18
aS'GG2HMf05ph0'
p104
aS'GG2HbsmM'
p105
aS'GG2Hsm'
p106
aS'TTHsm'
p107
aS'VBFMf05ph0'
p108
aS'VBFbsmM'
p109
aS'VBFsm'
p110
aS'WHMf05ph0'
p111
aS'WHbsmM'
p112
aS'WHsm'
p113
aS'ZHMf05ph0'
p114
aS'ZHbsmM'
p115
aS'ZHsm'
p116
aS'bkg_mass'
p117
aS'data_obs'
p118
aS'GG2HMf05ph0_2017_hgg'
p119
aS'GG2HbsmM_2017_hgg'
p120
aS'GG2Hsm_2017_hgg'
p121
aS'tth0P_2017_hgg'
p122
aS'vbf0Mf05ph0_2017_hgg'
p123
aS'vbf0M_2017_hgg'
p124
aS'vbf0P_2017_hgg'
p125
aS'wh0Mf05ph0_2017_hgg'
p126
aS'wh0M_2017_hgg'
p127
aS'wh0P_2017_hgg'
p128
aS'zh0Mf05ph0_2017_hgg'
p129
aS'zh0M_2017_hgg'
p130
aS'zh0P_2017_hgg'
p131
ag117
ag118
aS'jjh0Mf05ph0'
p132
aS'jjh0M'
p133
aS'jjh0P'
p134
aS'tth0P'
p135
aS'vbf0Mf05ph0'
p136
aS'vbf0M'
p137
aS'vbf0P'
p138
aS'wh0Mf05ph0'
p139
aS'wh0M'
p140
aS'wh0P'
p141
aS'zh0Mf05ph0'
p142
aS'zh0M'
p143
aS'zh0P'
p144
aS'-'
p145
ag145
aS'AC_Bin9_2017'
p146
aS'AC_Bin9_2017'
p147
aS'AC_Bin9_2017'
p148
aS'AC_Bin9_2017'
p149
aS'AC_Bin9_2017'
p150
aS'AC_Bin9_2017'
p151
aS'AC_Bin9_2017'
p152
aS'AC_Bin9_2017'
p153
aS'AC_Bin9_2017'
p154
aS'AC_Bin9_2017'
p155
aS'AC_Bin9_2017'
p156
aS'AC_Bin9_2017'
p157
aS'AC_Bin9_2017'
p158
aS'AC_Bin9_2017'
p159
ag159
aS'Trees/Opt_2017/2017/Trees2WS_2017/WS/output_GluGluHToGGPlusTwoJets_MM_M125_TuneCP5_13TeV-amcatnlopowheg-minlo-pythia8_GG2HMf05ph0.root'
p160
aS'Trees/Opt_2017/2017/Trees2WS_2017/WS/output_GluGluHToGGPlusTwoJets_CPodd_M125_TuneCP5_13TeV-amcatnlopowheg-minlo-pythia8_GG2HbsmM.root'
p161
aS'Trees/Opt_2017/2017/Trees2WS_2017/WS/output_GluGluHToGGPlusTwoJets_SM_M125_TuneCP5_13TeV-amcatnlopowheg-minlo-pythia8_GG2Hsm.root'
p162
aS'Trees/Opt_2017/2017/Trees2WS_2017/WS/output_ttHJetToGG_M125_TuneCP5_13TeV-amcatnloFXFX-madspin-pythia8_TTHsm.root'
p163
aS'Trees/Opt_2017/2017/Trees2WS_2017/WS/output_VBFHiggs0Mf05ph0ToGG_M125_TuneCP5_13TeV-JHUGenV7011-pythia8_VBFMf05ph0.root'
p164
aS'Trees/Opt_2017/2017/Trees2WS_2017/WS/output_VBFHiggs0MToGG_M125_TuneCP5_13TeV-JHUGenV7011-pythia8_VBFbsmM.root'
p165
aS'Trees/Opt_2017/2017/Trees2WS_2017/WS/output_VBFHToGG_M125_TuneCP5_13TeV-amcatnlo-pythia8_VBFsm.root'
p166
aS'Trees/Opt_2017/2017/Trees2WS_2017/WS/output_WHiggs0Mf05ph0ToGG_M125_TuneCP5_13TeV-JHUGenV7011-pythia8_WHMf05ph0.root'
p167
aS'Trees/Opt_2017/2017/Trees2WS_2017/WS/output_WHiggs0MToGG_M125_TuneCP5_13TeV-JHUGenV7011-pythia8_WHbsmM.root'
p168
aS'Trees/Opt_2017/2017/Trees2WS_2017/WS/output_WHiggs0PMToGG_M125_TuneCP5_13TeV-JHUGenV7011-pythia8_WHsm.root'
p169
aS'Trees/Opt_2017/2017/Trees2WS_2017/WS/output_ZHiggs0Mf05ph0ToGG_M125_TuneCP5_13TeV-JHUGenV7011-pythia8_ZHMf05ph0.root'
p170
aS'Trees/Opt_2017/2017/Trees2WS_2017/WS/output_ZHiggs0MToGG_M125_TuneCP5_13TeV-JHUGenV7011-pythia8_ZHbsmM.root'
p171
aS'Trees/Opt_2017/2017/Trees2WS_2017/WS/output_ZH_HToGG_ZToAll_M125_TuneCP5_13TeV-powheg-pythia8_ZHsm.root'
p172
ag145
ag145
aS'jjh0Mf05ph0_125_13TeV_AC_Bin9'
p173
aS'jjh0M_125_13TeV_AC_Bin9'
p174
aS'jjh0P_125_13TeV_AC_Bin9'
p175
aS'tth0P_125_13TeV_AC_Bin9'
p176
aS'vbf0Mf05ph0_125_13TeV_AC_Bin9'
p177
aS'vbf0M_125_13TeV_AC_Bin9'
p178
aS'vbf0P_125_13TeV_AC_Bin9'
p179
aS'wh0Mf05ph0_125_13TeV_AC_Bin9'
p180
aS'wh0M_125_13TeV_AC_Bin9'
p181
aS'wh0P_125_13TeV_AC_Bin9'
p182
aS'zh0Mf05ph0_125_13TeV_AC_Bin9'
p183
aS'zh0M_125_13TeV_AC_Bin9'
p184
aS'zh0P_125_13TeV_AC_Bin9'
p185
ag145
ag145
aS'./Models/signal/CMS-HGG_sigfit_packaged_AC_Bin9_2017.root'
p186
aS'./Models/signal/CMS-HGG_sigfit_packaged_AC_Bin9_2017.root'
p187
aS'./Models/signal/CMS-HGG_sigfit_packaged_AC_Bin9_2017.root'
p188
aS'./Models/signal/CMS-HGG_sigfit_packaged_AC_Bin9_2017.root'
p189
aS'./Models/signal/CMS-HGG_sigfit_packaged_AC_Bin9_2017.root'
p190
aS'./Models/signal/CMS-HGG_sigfit_packaged_AC_Bin9_2017.root'
p191
aS'./Models/signal/CMS-HGG_sigfit_packaged_AC_Bin9_2017.root'
p192
aS'./Models/signal/CMS-HGG_sigfit_packaged_AC_Bin9_2017.root'
p193
aS'./Models/signal/CMS-HGG_sigfit_packaged_AC_Bin9_2017.root'
p194
aS'./Models/signal/CMS-HGG_sigfit_packaged_AC_Bin9_2017.root'
p195
aS'./Models/signal/CMS-HGG_sigfit_packaged_AC_Bin9_2017.root'
p196
aS'./Models/signal/CMS-HGG_sigfit_packaged_AC_Bin9_2017.root'
p197
aS'./Models/signal/CMS-HGG_sigfit_packaged_AC_Bin9_2017.root'
p198
aS'./Models/background/CMS-HGG_multipdf_AC_Bin9_2017.root'
p199
ag199
aS'wsig_13TeV:hggpdfsmrel_GG2HMf05ph0_2017_AC_Bin9_13TeV'
p200
aS'wsig_13TeV:hggpdfsmrel_GG2HbsmM_2017_AC_Bin9_13TeV'
p201
aS'wsig_13TeV:hggpdfsmrel_GG2Hsm_2017_AC_Bin9_13TeV'
p202
aS'wsig_13TeV:hggpdfsmrel_TTHsm_2017_AC_Bin9_13TeV'
p203
aS'wsig_13TeV:hggpdfsmrel_VBFMf05ph0_2017_AC_Bin9_13TeV'
p204
aS'wsig_13TeV:hggpdfsmrel_VBFbsmM_2017_AC_Bin9_13TeV'
p205
aS'wsig_13TeV:hggpdfsmrel_VBFsm_2017_AC_Bin9_13TeV'
p206
aS'wsig_13TeV:hggpdfsmrel_WHMf05ph0_2017_AC_Bin9_13TeV'
p207
aS'wsig_13TeV:hggpdfsmrel_WHbsmM_2017_AC_Bin9_13TeV'
p208
aS'wsig_13TeV:hggpdfsmrel_WHsm_2017_AC_Bin9_13TeV'
p209
aS'wsig_13TeV:hggpdfsmrel_ZHMf05ph0_2017_AC_Bin9_13TeV'
p210
aS'wsig_13TeV:hggpdfsmrel_ZHbsmM_2017_AC_Bin9_13TeV'
p211
aS'wsig_13TeV:hggpdfsmrel_ZHsm_2017_AC_Bin9_13TeV'
p212
aS'multipdf:CMS_hgg_AC_Bin9_2017_13TeV_bkgshape'
p213
aS'multipdf:roohist_data_mass_AC_Bin9'
p214
aF0.043839787364504446
aF0.03606711228621862
aF0.06353206799849431
aF0.002017895021026561
aF0.011447121841229091
aF0.0037350098175465973
aF0.04541621133876106
aF0.0006642900641509186
aF0.0007684527979563427
aF0.0008390137950300414
aF0.0005542152869111305
aF0.0005030952718243498
aF0.0011544109402166214
ag145
ag145
aF4.782537111785821e-07
aF3.9086639849917104e-07
aF6.452842104631814e-07
aF2.7989540995529275e-08
aF5.7042794318599595e-08
aF1.869781712514958e-08
aF1.024802903712676e-06
aF2.805816840402913e-09
aF3.2663721830270567e-09
aF3.778570374754317e-09
aF1.5132332331235513e-09
aF1.3819573693975353e-09
aF9.698644315654165e-09
ag145
ag145
aF0.0458273359968841
aF0.037596757703613426
aF0.06670349757169361
aF0.0021124665907139854
aF0.011972870640533389
aF0.0039029857646630268
aF0.04752717722043804
aF0.000696018025222986
aF0.0008024389244153198
aF0.000874516487515647
aF0.0005810244088700376
aF0.0005255906295307134
aF0.0012068331707439876
ag145
ag145
aF0.04413616900617698
aF0.036311741462478515
aF0.06395790219902846
aF0.0020312603940816016
aF0.011522160644825615
aF0.003759455716245268
aF0.0457129911596356
aF0.0006685087797022236
aF0.0007735685153033264
aF0.0008445207941843229
aF0.0005577947091439582
aF0.0005063767823530907
aF0.0011619679956632362
ag145
ag145
aF0.04354441705804344
aF0.03582331844619431
aF0.06310767541511722
aF0.0020045742464624614
aF0.011372330886623547
aF0.0037106444445944636
aF0.045120410907442204
aF0.0006600849496747448
aF0.0007633542255176982
aF0.0008335252231031503
aF0.0005506475468745224
aF0.0004998245364623007
aF0.0011468791183911066
ag145
ag145
aF0.04453172404571318
aF0.03663670952359361
aF0.06455561932041351
aF0.002055321293456276
aF0.011629226795091829
aF0.003790736084118052
aF0.04615031491710522
aF0.0006757061408888984
aF0.0007791680163748435
aF0.0008519029522664371
aF0.0005637249021304016
aF0.0005115908029377666
aF0.0011723075899576474
ag145
ag145
aF0.04315336819628691
aF0.035501936434155563
aF0.06251678099992913
aF0.0019808341163831994
aF0.01126646162147242
aF0.00367968834919888
aF0.044687957838818744
aF0.0006529690990873308
aF0.0007578067310658618
aF0.0008262301138736481
aF0.0005447925019275798
aF0.0004946786552606322
aF0.0011366584164934847
ag145
ag145
aF0.0439616677477227
aF0.03616633622617231
aF0.06371445054379112
aF0.0020234653323975846
aF0.01148373652858167
aF0.003747069665191465
aF0.045559551485819395
aF0.0006666237273040038
aF0.0007708509292259273
aF0.0008414774470353394
aF0.000555980574737353
aF0.0005045612564690264
aF0.001157944327317634
ag145
ag145
aF0.04371809639230627
aF0.03596803877606944
aF0.0633499744074394
aF0.002012332187903383
aF0.011410572050227814
aF0.003722969003665148
aF0.045273117074042274
aF0.0006619609753525154
aF0.0007660583635111468
aF0.000836554402483321
aF0.0005524531813224607
aF0.0005016314872630889
aF0.0011508837280509875
ag145
ag145
aF0.043997532958532336
aF0.036196615369366685
aF0.06375241476325294
aF0.0020239357883014984
aF0.011483222745909311
aF0.0037455724934038013
aF0.045565572487602526
aF0.0006663045768017427
aF0.000770871990738349
aF0.0008417184044178818
aF0.0005560649240654793
aF0.0005045856077117707
aF0.0011582772568248948
ag145
ag145
aF0.043682287979348186
aF0.035937809546949966
aF0.0633120546419754
aF0.0020118644726622777
aF0.011411075179246747
aF0.0037244615513418225
aF0.045267078604888995
aF0.0006622785479436077
aF0.0007660370140835023
aF0.0008363129540306779
aF0.0005523686929286607
aF0.000501606999974472
aF0.0011505504354530074
ag145
ag145
aF0.04336805771890795
aF0.03572593168109961
aF0.06274411828553639
aF0.00206725072325753
aF0.011457213304993275
aF0.0038695775863288873
aF0.03991529987752074
aF0.0006550290324867092
aF0.0007745844663986645
aF0.000825752824312076
aF0.0005438981659153796
aF0.0005166226419532904
aF0.0011290837865089998
ag145
ag145
aF0.04436745559951305
aF0.03639287128362412
aF0.06425961632112376
aF0.0019826932116302487
aF0.011470853918126522
aF0.0036628522659611917
aF0.04029558896127128
aF0.0006719123521179426
aF0.000776054764401124
aF0.0008516103034708067
aF0.0005457814031615271
aF0.0004998196134238242
aF0.001146254892773868
ag145
ag145
aF0.045814132260147744
aF0.03749621288943672
aF0.06638170798942156
aF0.0021042618188857887
aF0.011857705177590105
aF0.0038109200106646313
aF0.04096993056600695
aF0.0006861542910883145
aF0.0007822389491138892
aF0.0008879078391146322
aF0.0005680921565272001
aF0.0005218517476350826
aF0.0012051025823893724
ag145
ag145
aF0.041947164728753705
aF0.03481942745474953
aF0.060707282724251854
aF0.00187070849506199
aF0.011052607779674872
aF0.003617323811567985
aF0.038818542305307346
aF0.0006342872718505532
aF0.0007301250309410534
aF0.0007888228328738478
aF0.0005197990408305486
aF0.0004740186750495923
aF0.0011251801988692023
ag145
ag145
aF0.04491520019428208
aF0.03694486831955146
aF0.06464909466967583
aF0.0020263162434730475
aF0.011617868468874804
aF0.003759837932875598
aF0.04058524691845378
aF0.0006817731175488007
aF0.0007684527979563427
aF0.0008527692484676663
aF0.0005703453882688336
aF0.000516761404924182
aF0.0011625115021161037
ag145
ag145
aF0.04303496635884585
aF0.03541788798702328
aF0.062245965762485866
aF0.0020139401469805307
aF0.011297473704871663
aF0.0037397726252947905
aF0.03931681944641241
aF0.0006549939901105972
aF0.0007460206213636411
aF0.0008169233642547624
aF0.0005379305378028221
aF0.0004948913760927098
aF0.0011358385472703958
ag145
ag145
aF0.05106433043374636
aF0.04214047177219982
aF0.07207876492657306
aF0.0021416162742298184
aF0.012029212685092716
aF0.0038999515970772336
aF0.041387964818568435
aF0.0007691935907132574
aF0.0009368476037252549
aF0.0010284259919899341
aF0.0006716150141983235
aF0.0005897852101952594
aF0.0012525794927569223
ag145
ag145
aF0.038022870141958265
aF0.03082754234492313
aF0.0557962349630543
aF0.002003819204219326
aF0.010828026899616816
aF0.0035256715721061482
aF0.03819941593428666
aF0.0005490301018653554
aF0.0006632042995988741
aF0.0007225575959637354
aF0.000507335858173974
aF0.0004317010757404205
aF0.0010470309830452607
ag145
ag145
aF0.04526858682538659
aF0.03727522228518865
aF0.06464434903637084
aF0.002014295121853138
aF0.011455398545422213
aF0.0037449588537583622
aF0.03981047712841246
aF0.0006780130195238598
aF0.0008030440114907833
aF0.0009052526329469401
aF0.0005955623425961676
aF0.0005398733142101264
aF0.0011124404254587716
ag145
ag145
aF0.04311594911951033
aF0.03500694834656315
aF0.06270197603134875
aF0.001994368839177696
aF0.0114542434203031
aF0.0037373775892319827
aF0.05636159130676788
aF0.0006528804792651499
aF0.0007475005677406443
aF0.0008062782953857095
aF0.0005644748039230763
aF0.0004978264478268102
aF0.001120935086873942
ag145
ag145
atp215
ba(lp216
g15
(g16
(dp217
g18
g19
(g20
(I0
tp218
g22
tp219
Rp220
(I1
(I1
tp221
g29
I00
(lp222
g43
atp223
bsg66
Nstp224
Rp225
ag15
(g16
(dp226
g18
g19
(g20
(I0
tp227
g22
tp228
Rp229
(I1
(I31
tp230
g29
I00
(lp231
g33
ag34
ag35
ag36
ag37
ag38
ag39
ag40
ag41
ag42
ag44
ag45
ag46
ag47
ag48
ag49
ag50
ag51
ag52
ag53
ag54
ag55
ag56
ag57
ag58
ag59
ag60
ag61
ag62
ag63
ag64
atp232
bsg66
Nstp233
Rp234
a(dp235
S'0.14.1'
p236
(dp237
S'axes'
p238
g14
sS'blocks'
p239
(lp240
(dp241
S'mgr_locs'
p242
c__builtin__
slice
p243
(I10
I11
I1
tp244
Rp245
sS'values'
p246
g87
sa(dp247
g242
g19
(g20
(I0
tp248
g22
tp249
Rp250
(I1
(I31
tp251
g77
I00
S'\x00\x00\x00\x00\x00\x00\x00\x00\x01\x00\x00\x00\x00\x00\x00\x00\x02\x00\x00\x00\x00\x00\x00\x00\x03\x00\x00\x00\x00\x00\x00\x00\x04\x00\x00\x00\x00\x00\x00\x00\x05\x00\x00\x00\x00\x00\x00\x00\x06\x00\x00\x00\x00\x00\x00\x00\x07\x00\x00\x00\x00\x00\x00\x00\x08\x00\x00\x00\x00\x00\x00\x00\t\x00\x00\x00\x00\x00\x00\x00\x0b\x00\x00\x00\x00\x00\x00\x00\x0c\x00\x00\x00\x00\x00\x00\x00\r\x00\x00\x00\x00\x00\x00\x00\x0e\x00\x00\x00\x00\x00\x00\x00\x0f\x00\x00\x00\x00\x00\x00\x00\x10\x00\x00\x00\x00\x00\x00\x00\x11\x00\x00\x00\x00\x00\x00\x00\x12\x00\x00\x00\x00\x00\x00\x00\x13\x00\x00\x00\x00\x00\x00\x00\x14\x00\x00\x00\x00\x00\x00\x00\x15\x00\x00\x00\x00\x00\x00\x00\x16\x00\x00\x00\x00\x00\x00\x00\x17\x00\x00\x00\x00\x00\x00\x00\x18\x00\x00\x00\x00\x00\x00\x00\x19\x00\x00\x00\x00\x00\x00\x00\x1a\x00\x00\x00\x00\x00\x00\x00\x1b\x00\x00\x00\x00\x00\x00\x00\x1c\x00\x00\x00\x00\x00\x00\x00\x1d\x00\x00\x00\x00\x00\x00\x00\x1e\x00\x00\x00\x00\x00\x00\x00\x1f\x00\x00\x00\x00\x00\x00\x00'
p252
tp253
bsg246
g98
sasstp254
bsb.