ccopy_reg
_reconstructor
p0
(cpandas.core.frame
DataFrame
p1
c__builtin__
object
p2
Ntp3
Rp4
(dp5
S'_metadata'
p6
(lp7
sS'_typ'
p8
S'dataframe'
p9
sS'_data'
p10
g0
(cpandas.core.internals
BlockManager
p11
g2
Ntp12
Rp13
((lp14
cpandas.core.indexes.base
_new_Index
p15
(cpandas.core.indexes.base
Index
p16
(dp17
S'data'
p18
cnumpy.core.multiarray
_reconstruct
p19
(cnumpy
ndarray
p20
(I0
tp21
S'b'
p22
tp23
Rp24
(I1
(I32
tp25
cnumpy
dtype
p26
(S'O8'
p27
I0
I1
tp28
Rp29
(I3
S'|'
p30
NNNI-1
I-1
I63
tp31
bI00
(lp32
S'year'
p33
aS'type'
p34
aS'procOriginal'
p35
aS'proc'
p36
aS'proc_s0'
p37
aS'cat'
p38
aS'inputWSFile'
p39
aS'nominalDataName'
p40
aS'modelWSFile'
p41
aS'model'
p42
aS'rate'
p43
aS'nominal_yield'
p44
aS'sumw2'
p45
aS'nominal_yield_COWCorr'
p46
aS'LooseMvaSF_up_yield'
p47
aS'LooseMvaSF_down_yield'
p48
aS'PreselSF_up_yield'
p49
aS'PreselSF_down_yield'
p50
aS'electronVetoSF_up_yield'
p51
aS'electronVetoSF_down_yield'
p52
aS'TriggerWeight_up_yield'
p53
aS'TriggerWeight_down_yield'
p54
aS'SigmaEOverEShift_up_yield'
p55
aS'SigmaEOverEShift_down_yield'
p56
aS'MvaShift_up_yield'
p57
aS'MvaShift_down_yield'
p58
aS'PUJIDShift_up_yield'
p59
aS'PUJIDShift_down_yield'
p60
aS'JEC_up_yield'
p61
aS'JEC_down_yield'
p62
aS'JER_up_yield'
p63
aS'JER_down_yield'
p64
atp65
bsS'name'
p66
Nstp67
Rp68
ag15
(cpandas.core.indexes.numeric
Int64Index
p69
(dp70
g18
g19
(g20
(I0
tp71
g22
tp72
Rp73
(I1
(I15
tp74
g26
(S'i8'
p75
I0
I1
tp76
Rp77
(I3
S'<'
p78
NNNI-1
I-1
I0
tp79
bI00
S'\x00\x00\x00\x00\x00\x00\x00\x00\x01\x00\x00\x00\x00\x00\x00\x00\x02\x00\x00\x00\x00\x00\x00\x00\x03\x00\x00\x00\x00\x00\x00\x00\x04\x00\x00\x00\x00\x00\x00\x00\x05\x00\x00\x00\x00\x00\x00\x00\x06\x00\x00\x00\x00\x00\x00\x00\x07\x00\x00\x00\x00\x00\x00\x00\x08\x00\x00\x00\x00\x00\x00\x00\t\x00\x00\x00\x00\x00\x00\x00\n\x00\x00\x00\x00\x00\x00\x00\x0b\x00\x00\x00\x00\x00\x00\x00\x0c\x00\x00\x00\x00\x00\x00\x00\r\x00\x00\x00\x00\x00\x00\x00\x0e\x00\x00\x00\x00\x00\x00\x00'
p80
tp81
bsg66
Nstp82
Rp83
a(lp84
g19
(g20
(I0
tp85
g22
tp86
Rp87
(I1
(I1
I15
tp88
g26
(S'f8'
p89
I0
I1
tp90
Rp91
(I3
S'<'
p92
NNNI-1
I-1
I0
tp93
bI00
S'\x00\x00\x00\x00\x00A\xe4@\x00\x00\x00\x00\x00A\xe4@\x00\x00\x00\x00\x00A\xe4@\x00\x00\x00\x00\x00A\xe4@\x00\x00\x00\x00\x00A\xe4@\x00\x00\x00\x00\x00A\xe4@\x00\x00\x00\x00\x00A\xe4@\x00\x00\x00\x00\x00A\xe4@\x00\x00\x00\x00\x00A\xe4@\x00\x00\x00\x00\x00A\xe4@\x00\x00\x00\x00\x00A\xe4@\x00\x00\x00\x00\x00A\xe4@\x00\x00\x00\x00\x00A\xe4@\x00\x00\x00\x00\x00\x00\xf0?\x00\x00\x00\x00\x00\x00\xf0\xbf'
p94
tp95
bag19
(g20
(I0
tp96
g22
tp97
Rp98
(I1
(I31
I15
tp99
g29
I00
(lp100
S'2017'
p101
ag101
ag101
ag101
ag101
ag101
ag101
ag101
ag101
ag101
ag101
ag101
ag101
ag33
ag33
aS'sig'
p102
ag102
ag102
ag102
ag102
ag102
ag102
ag102
ag102
ag102
ag102
ag102
ag102
aS'bkg'
p103
ag18
aS'GG2HMf05ph0'
p104
aS'GG2HbsmM'
p105
aS'GG2Hsm'
p106
aS'TTHsm'
p107
aS'VBFMf05ph0'
p108
aS'VBFbsmM'
p109
aS'VBFsm'
p110
aS'WHMf05ph0'
p111
aS'WHbsmM'
p112
aS'WHsm'
p113
aS'ZHMf05ph0'
p114
aS'ZHbsmM'
p115
aS'ZHsm'
p116
aS'bkg_mass'
p117
aS'data_obs'
p118
aS'GG2HMf05ph0_2017_hgg'
p119
aS'GG2HbsmM_2017_hgg'
p120
aS'GG2Hsm_2017_hgg'
p121
aS'tth0P_2017_hgg'
p122
aS'vbf0Mf05ph0_2017_hgg'
p123
aS'vbf0M_2017_hgg'
p124
aS'vbf0P_2017_hgg'
p125
aS'wh0Mf05ph0_2017_hgg'
p126
aS'wh0M_2017_hgg'
p127
aS'wh0P_2017_hgg'
p128
aS'zh0Mf05ph0_2017_hgg'
p129
aS'zh0M_2017_hgg'
p130
aS'zh0P_2017_hgg'
p131
ag117
ag118
aS'jjh0Mf05ph0'
p132
aS'jjh0M'
p133
aS'jjh0P'
p134
aS'tth0P'
p135
aS'vbf0Mf05ph0'
p136
aS'vbf0M'
p137
aS'vbf0P'
p138
aS'wh0Mf05ph0'
p139
aS'wh0M'
p140
aS'wh0P'
p141
aS'zh0Mf05ph0'
p142
aS'zh0M'
p143
aS'zh0P'
p144
aS'-'
p145
ag145
aS'AC_Bin25_2017'
p146
aS'AC_Bin25_2017'
p147
aS'AC_Bin25_2017'
p148
aS'AC_Bin25_2017'
p149
aS'AC_Bin25_2017'
p150
aS'AC_Bin25_2017'
p151
aS'AC_Bin25_2017'
p152
aS'AC_Bin25_2017'
p153
aS'AC_Bin25_2017'
p154
aS'AC_Bin25_2017'
p155
aS'AC_Bin25_2017'
p156
aS'AC_Bin25_2017'
p157
aS'AC_Bin25_2017'
p158
aS'AC_Bin25_2017'
p159
ag159
aS'Trees/Opt_2017/2017/Trees2WS_2017/WS/output_GluGluHToGGPlusTwoJets_MM_M125_TuneCP5_13TeV-amcatnlopowheg-minlo-pythia8_GG2HMf05ph0.root'
p160
aS'Trees/Opt_2017/2017/Trees2WS_2017/WS/output_GluGluHToGGPlusTwoJets_CPodd_M125_TuneCP5_13TeV-amcatnlopowheg-minlo-pythia8_GG2HbsmM.root'
p161
aS'Trees/Opt_2017/2017/Trees2WS_2017/WS/output_GluGluHToGGPlusTwoJets_SM_M125_TuneCP5_13TeV-amcatnlopowheg-minlo-pythia8_GG2Hsm.root'
p162
aS'Trees/Opt_2017/2017/Trees2WS_2017/WS/output_ttHJetToGG_M125_TuneCP5_13TeV-amcatnloFXFX-madspin-pythia8_TTHsm.root'
p163
aS'Trees/Opt_2017/2017/Trees2WS_2017/WS/output_VBFHiggs0Mf05ph0ToGG_M125_TuneCP5_13TeV-JHUGenV7011-pythia8_VBFMf05ph0.root'
p164
aS'Trees/Opt_2017/2017/Trees2WS_2017/WS/output_VBFHiggs0MToGG_M125_TuneCP5_13TeV-JHUGenV7011-pythia8_VBFbsmM.root'
p165
aS'Trees/Opt_2017/2017/Trees2WS_2017/WS/output_VBFHToGG_M125_TuneCP5_13TeV-amcatnlo-pythia8_VBFsm.root'
p166
aS'Trees/Opt_2017/2017/Trees2WS_2017/WS/output_WHiggs0Mf05ph0ToGG_M125_TuneCP5_13TeV-JHUGenV7011-pythia8_WHMf05ph0.root'
p167
aS'Trees/Opt_2017/2017/Trees2WS_2017/WS/output_WHiggs0MToGG_M125_TuneCP5_13TeV-JHUGenV7011-pythia8_WHbsmM.root'
p168
aS'Trees/Opt_2017/2017/Trees2WS_2017/WS/output_WHiggs0PMToGG_M125_TuneCP5_13TeV-JHUGenV7011-pythia8_WHsm.root'
p169
aS'Trees/Opt_2017/2017/Trees2WS_2017/WS/output_ZHiggs0Mf05ph0ToGG_M125_TuneCP5_13TeV-JHUGenV7011-pythia8_ZHMf05ph0.root'
p170
aS'Trees/Opt_2017/2017/Trees2WS_2017/WS/output_ZHiggs0MToGG_M125_TuneCP5_13TeV-JHUGenV7011-pythia8_ZHbsmM.root'
p171
aS'Trees/Opt_2017/2017/Trees2WS_2017/WS/output_ZH_HToGG_ZToAll_M125_TuneCP5_13TeV-powheg-pythia8_ZHsm.root'
p172
ag145
ag145
aS'jjh0Mf05ph0_125_13TeV_AC_Bin25'
p173
aS'jjh0M_125_13TeV_AC_Bin25'
p174
aS'jjh0P_125_13TeV_AC_Bin25'
p175
aS'tth0P_125_13TeV_AC_Bin25'
p176
aS'vbf0Mf05ph0_125_13TeV_AC_Bin25'
p177
aS'vbf0M_125_13TeV_AC_Bin25'
p178
aS'vbf0P_125_13TeV_AC_Bin25'
p179
aS'wh0Mf05ph0_125_13TeV_AC_Bin25'
p180
aS'wh0M_125_13TeV_AC_Bin25'
p181
aS'wh0P_125_13TeV_AC_Bin25'
p182
aS'zh0Mf05ph0_125_13TeV_AC_Bin25'
p183
aS'zh0M_125_13TeV_AC_Bin25'
p184
aS'zh0P_125_13TeV_AC_Bin25'
p185
ag145
ag145
aS'./Models/signal/CMS-HGG_sigfit_packaged_AC_Bin25_2017.root'
p186
aS'./Models/signal/CMS-HGG_sigfit_packaged_AC_Bin25_2017.root'
p187
aS'./Models/signal/CMS-HGG_sigfit_packaged_AC_Bin25_2017.root'
p188
aS'./Models/signal/CMS-HGG_sigfit_packaged_AC_Bin25_2017.root'
p189
aS'./Models/signal/CMS-HGG_sigfit_packaged_AC_Bin25_2017.root'
p190
aS'./Models/signal/CMS-HGG_sigfit_packaged_AC_Bin25_2017.root'
p191
aS'./Models/signal/CMS-HGG_sigfit_packaged_AC_Bin25_2017.root'
p192
aS'./Models/signal/CMS-HGG_sigfit_packaged_AC_Bin25_2017.root'
p193
aS'./Models/signal/CMS-HGG_sigfit_packaged_AC_Bin25_2017.root'
p194
aS'./Models/signal/CMS-HGG_sigfit_packaged_AC_Bin25_2017.root'
p195
aS'./Models/signal/CMS-HGG_sigfit_packaged_AC_Bin25_2017.root'
p196
aS'./Models/signal/CMS-HGG_sigfit_packaged_AC_Bin25_2017.root'
p197
aS'./Models/signal/CMS-HGG_sigfit_packaged_AC_Bin25_2017.root'
p198
aS'./Models/background/CMS-HGG_multipdf_AC_Bin25_2017.root'
p199
ag199
aS'wsig_13TeV:hggpdfsmrel_GG2HMf05ph0_2017_AC_Bin25_13TeV'
p200
aS'wsig_13TeV:hggpdfsmrel_GG2HbsmM_2017_AC_Bin25_13TeV'
p201
aS'wsig_13TeV:hggpdfsmrel_GG2Hsm_2017_AC_Bin25_13TeV'
p202
aS'wsig_13TeV:hggpdfsmrel_TTHsm_2017_AC_Bin25_13TeV'
p203
aS'wsig_13TeV:hggpdfsmrel_VBFMf05ph0_2017_AC_Bin25_13TeV'
p204
aS'wsig_13TeV:hggpdfsmrel_VBFbsmM_2017_AC_Bin25_13TeV'
p205
aS'wsig_13TeV:hggpdfsmrel_VBFsm_2017_AC_Bin25_13TeV'
p206
aS'wsig_13TeV:hggpdfsmrel_WHMf05ph0_2017_AC_Bin25_13TeV'
p207
aS'wsig_13TeV:hggpdfsmrel_WHbsmM_2017_AC_Bin25_13TeV'
p208
aS'wsig_13TeV:hggpdfsmrel_WHsm_2017_AC_Bin25_13TeV'
p209
aS'wsig_13TeV:hggpdfsmrel_ZHMf05ph0_2017_AC_Bin25_13TeV'
p210
aS'wsig_13TeV:hggpdfsmrel_ZHbsmM_2017_AC_Bin25_13TeV'
p211
aS'wsig_13TeV:hggpdfsmrel_ZHsm_2017_AC_Bin25_13TeV'
p212
aS'multipdf:CMS_hgg_AC_Bin25_2017_13TeV_bkgshape'
p213
aS'multipdf:roohist_data_mass_AC_Bin25'
p214
aF0.03847832597011802
aF0.046248684549937025
aF0.019561753565085382
aF0.0022873861694279185
aF0.07153749870030879
aF0.11690846352757944
aF0.048167490234618526
aF0.0006127253079739603
aF0.0011530492301972117
aF0.0002589716536931519
aF0.00040359216222896066
aF0.0006211038141827885
aF0.0006074233956496755
ag145
ag145
aF3.9812784610853086e-07
aF4.689392256160486e-07
aF1.998808246063553e-07
aF2.9196166193016222e-08
aF3.610916422833087e-07
aF5.910673786910066e-07
aF1.0445188348935798e-06
aF2.5987073139645557e-09
aF4.85546499165578e-09
aF1.1818273423619119e-09
aF1.098870730434274e-09
aF1.6981522295697368e-09
aF5.086072673212345e-09
ag145
ag145
aF0.0399613608567118
aF0.04802556448706377
aF0.020302030928955682
aF0.002369928686837381
aF0.07415023543109571
aF0.12111755160225504
aF0.049980774452065606
aF0.0006342870480372331
aF0.0011971503101671922
aF0.0002688632807159304
aF0.0004186165643525564
aF0.0006439222857550735
aF0.000629322870130335
ag145
ag145
aF0.03874645573406494
aF0.04657115825777375
aF0.019698532170625196
aF0.0023035872618526227
aF0.07204254390703571
aF0.11773949128476659
aF0.04850017527907119
aF0.0006170340448586746
aF0.0011611490076075255
aF0.0002607573897802251
aF0.00040642322362699403
aF0.0006254750466632465
aF0.0006116071022863175
ag145
ag145
aF0.03821113733601044
aF0.045927343692148695
aF0.019425457154258335
aF0.0022712428374206707
aF0.07103425106331367
aF0.11608041365277183
aF0.04783596558684729
aF0.0006084318865209902
aF0.0011449780784858344
aF0.000257192127393548
aF0.00040077111714178094
aF0.0006167480377074166
aF0.0006032541592761852
ag145
ag145
aF0.03903547278266193
aF0.0469213187482454
aF0.01984091635832438
aF0.002320400759164037
aF0.0725192596099712
aF0.11846981906075732
aF0.048848100481557216
aF0.0006204347063323471
aF0.0011697901285019382
aF0.0002629748868890476
aF0.00040927204916345653
aF0.0006297286571099648
aF0.0006155342314744754
ag145
ag145
aF0.03792514932466263
aF0.04558090793325895
aF0.019284559231479172
aF0.002254611981738774
aF0.07056240546229949
aF0.11535738755781284
aF0.04749170582589855
aF0.0006050612597178886
aF0.0011364215581237914
aF0.0002549956321461214
aF0.0003979535878040412
aF0.0006125354684358292
aF0.0005993665640277946
ag145
ag145
aF0.03857829666474739
aF0.04636958667848168
aF0.019612283328659552
aF0.0022927321256092314
aF0.07171614004787884
aF0.11719796347219928
aF0.04829871135862662
aF0.0006142513506454533
aF0.0011560303549346866
aF0.0002595969325588962
aF0.00040453834639871887
aF0.0006226651994918649
aF0.0006089464039574712
ag145
ag145
aF0.03837849305465633
aF0.0461279464101697
aF0.019511293784043697
aF0.002282046361764911
aF0.07135910527260932
aF0.11661935579233437
aF0.048036470565576875
aF0.0006112012115878166
aF0.001150072200661332
aF0.00025834716159956985
aF0.00040264712470348187
aF0.0006195444756750877
aF0.0006059023493457806
ag145
ag145
aF0.03857541110604217
aF0.046365253982589796
aF0.01961121175718891
aF0.00229266996450493
aF0.07171549687199973
aF0.1171965674961433
aF0.0482943634600387
aF0.0006142733780984942
aF0.0011560581341254186
aF0.0002595968845955304
aF0.0004046309530022865
aF0.0006226716730585021
aF0.0006088874327652676
ag145
ag145
aF0.03838136386880037
aF0.0461322626526771
aF0.01951235724281451
aF0.002282108864122905
aF0.07135972496568857
aF0.11662072086049069
aF0.04804078669214947
aF0.0006111792016415204
aF0.001150044296574388
aF0.00025834717261362004
aF0.00040255467799021145
aF0.0006195379100548697
aF0.0006059610816456711
ag145
ag145
aF0.03781384724925374
aF0.045272513019881444
aF0.019125896118111996
aF0.002269604079401688
aF0.07090367318073731
aF0.11606615170785517
aF0.04681463651172635
aF0.0005921017673244933
aF0.0011488534291856922
aF0.0002589716536931519
aF0.0003955969837079465
aF0.0006125538834567124
aF0.000599349269123195
ag145
ag145
aF0.03895768732263605
aF0.04690739126272092
aF0.01990792048536605
aF0.002333632945010322
aF0.07205812420988877
aF0.11779839430255379
aF0.048817140853543606
aF0.0006298877779045142
aF0.001164760671372278
aF0.0002636086546772276
aF0.0004091987098036043
aF0.0006297353029367514
aF0.0005992719402456714
ag145
ag145
aF0.03952061780682925
aF0.04771334073302569
aF0.020167597107047186
aF0.002306399135477477
aF0.07321534986544975
aF0.11998269560490371
aF0.049059357311989515
aF0.00062082047588774
aF0.0011656082729132322
aF0.0002768458211903635
aF0.00041172249370902136
aF0.000640891602870397
aF0.0006317338138615014
ag145
ag145
aF0.03738895537617282
aF0.04484825165309303
aF0.019115824968594097
aF0.002171516985526978
aF0.06974750400354424
aF0.11387139767793997
aF0.04669662971195976
aF0.0005974320142740908
aF0.001113887847168371
aF0.0002401322190053179
aF0.0003844401232981909
aF0.0006211789539065649
aF0.0005911605790061003
ag145
ag145
aF0.038702007033407426
aF0.04652925096343097
aF0.019674127070629766
aF0.0022910330312697624
aF0.07165608477635033
aF0.11704945327164751
aF0.0482001004918402
aF0.0006392193165538629
aF0.001170695823020651
aF0.00026338694760852377
aF0.0004093649872629612
aF0.0006351533388624375
aF0.0006074233956496755
ag145
ag145
aF0.038220295039081975
aF0.045953179261232435
aF0.019406440610055142
aF0.0022873861694279185
aF0.07145066638031494
aF0.11684418679351438
aF0.04785658622199662
aF0.0005967594231606199
aF0.0011282018567726482
aF0.0002589716536931519
aF0.00039590410483469896
aF0.0006022410832429159
aF0.0006074233956496755
ag145
ag145
aF0.041070598877013254
aF0.049234225396048714
aF0.021259446293697692
aF0.0024037645748649084
aF0.07319995885472963
aF0.11843047076195035
aF0.04998811405266679
aF0.0007219611613891175
aF0.0012794607050636841
aF0.00030753939381611417
aF0.0005059167729086766
aF0.0007482319520022429
aF0.0006555617833328142
ag145
ag145
aF0.0358614372385091
aF0.043410214597315644
aF0.01815969581321042
aF0.0021514339030090923
aF0.0694264444714463
aF0.11443523246225595
aF0.04574094514669014
aF0.0005532229120035481
aF0.0009492181827681634
aF0.00023158189560490428
aF0.00033701779784678365
aF0.0005080953505967045
aF0.0005889728722650034
ag145
ag145
aF0.03884633593952458
aF0.04639345322175359
aF0.020036923257976014
aF0.0022916974157851655
aF0.0715928782899482
aF0.11666766796520278
aF0.0479969516438814
aF0.0006476281100731285
aF0.0012254774583198014
aF0.0002683673806131992
aF0.0004315680675972544
aF0.0006628867106428515
aF0.0006155961496006057
ag145
ag145
aF0.038338136950642365
aF0.045863222407206194
aF0.019409862538395828
aF0.0022972432359438244
aF0.07138345213661523
aF0.11688124800684818
aF0.04804002181049327
aF0.0005915581489261967
aF0.001090744373641428
aF0.00024082636446109973
aF0.00037462724708348105
aF0.0005985854636492149
aF0.0006149187670416723
ag145
ag145
atp215
ba(lp216
g15
(g16
(dp217
g18
g19
(g20
(I0
tp218
g22
tp219
Rp220
(I1
(I1
tp221
g29
I00
(lp222
g43
atp223
bsg66
Nstp224
Rp225
ag15
(g16
(dp226
g18
g19
(g20
(I0
tp227
g22
tp228
Rp229
(I1
(I31
tp230
g29
I00
(lp231
g33
ag34
ag35
ag36
ag37
ag38
ag39
ag40
ag41
ag42
ag44
ag45
ag46
ag47
ag48
ag49
ag50
ag51
ag52
ag53
ag54
ag55
ag56
ag57
ag58
ag59
ag60
ag61
ag62
ag63
ag64
atp232
bsg66
Nstp233
Rp234
a(dp235
S'0.14.1'
p236
(dp237
S'axes'
p238
g14
sS'blocks'
p239
(lp240
(dp241
S'mgr_locs'
p242
c__builtin__
slice
p243
(I10
I11
I1
tp244
Rp245
sS'values'
p246
g87
sa(dp247
g242
g19
(g20
(I0
tp248
g22
tp249
Rp250
(I1
(I31
tp251
g77
I00
S'\x00\x00\x00\x00\x00\x00\x00\x00\x01\x00\x00\x00\x00\x00\x00\x00\x02\x00\x00\x00\x00\x00\x00\x00\x03\x00\x00\x00\x00\x00\x00\x00\x04\x00\x00\x00\x00\x00\x00\x00\x05\x00\x00\x00\x00\x00\x00\x00\x06\x00\x00\x00\x00\x00\x00\x00\x07\x00\x00\x00\x00\x00\x00\x00\x08\x00\x00\x00\x00\x00\x00\x00\t\x00\x00\x00\x00\x00\x00\x00\x0b\x00\x00\x00\x00\x00\x00\x00\x0c\x00\x00\x00\x00\x00\x00\x00\r\x00\x00\x00\x00\x00\x00\x00\x0e\x00\x00\x00\x00\x00\x00\x00\x0f\x00\x00\x00\x00\x00\x00\x00\x10\x00\x00\x00\x00\x00\x00\x00\x11\x00\x00\x00\x00\x00\x00\x00\x12\x00\x00\x00\x00\x00\x00\x00\x13\x00\x00\x00\x00\x00\x00\x00\x14\x00\x00\x00\x00\x00\x00\x00\x15\x00\x00\x00\x00\x00\x00\x00\x16\x00\x00\x00\x00\x00\x00\x00\x17\x00\x00\x00\x00\x00\x00\x00\x18\x00\x00\x00\x00\x00\x00\x00\x19\x00\x00\x00\x00\x00\x00\x00\x1a\x00\x00\x00\x00\x00\x00\x00\x1b\x00\x00\x00\x00\x00\x00\x00\x1c\x00\x00\x00\x00\x00\x00\x00\x1d\x00\x00\x00\x00\x00\x00\x00\x1e\x00\x00\x00\x00\x00\x00\x00\x1f\x00\x00\x00\x00\x00\x00\x00'
p252
tp253
bsg246
g98
sasstp254
bsb.