ccopy_reg
_reconstructor
p0
(cpandas.core.frame
DataFrame
p1
c__builtin__
object
p2
Ntp3
Rp4
(dp5
S'_metadata'
p6
(lp7
sS'_typ'
p8
S'dataframe'
p9
sS'_data'
p10
g0
(cpandas.core.internals
BlockManager
p11
g2
Ntp12
Rp13
((lp14
cpandas.core.indexes.base
_new_Index
p15
(cpandas.core.indexes.base
Index
p16
(dp17
S'data'
p18
cnumpy.core.multiarray
_reconstruct
p19
(cnumpy
ndarray
p20
(I0
tp21
S'b'
p22
tp23
Rp24
(I1
(I34
tp25
cnumpy
dtype
p26
(S'O8'
p27
I0
I1
tp28
Rp29
(I3
S'|'
p30
NNNI-1
I-1
I63
tp31
bI00
(lp32
S'year'
p33
aS'type'
p34
aS'procOriginal'
p35
aS'proc'
p36
aS'proc_s0'
p37
aS'cat'
p38
aS'inputWSFile'
p39
aS'nominalDataName'
p40
aS'modelWSFile'
p41
aS'model'
p42
aS'rate'
p43
aS'nominal_yield'
p44
aS'sumw2'
p45
aS'nominal_yield_COWCorr'
p46
aS'LooseMvaSF_up_yield'
p47
aS'LooseMvaSF_down_yield'
p48
aS'PreselSF_up_yield'
p49
aS'PreselSF_down_yield'
p50
aS'electronVetoSF_up_yield'
p51
aS'electronVetoSF_down_yield'
p52
aS'TriggerWeight_up_yield'
p53
aS'TriggerWeight_down_yield'
p54
aS'SigmaEOverEShift_up_yield'
p55
aS'SigmaEOverEShift_down_yield'
p56
aS'MvaShift_up_yield'
p57
aS'MvaShift_down_yield'
p58
aS'PUJIDShift_up_yield'
p59
aS'PUJIDShift_down_yield'
p60
aS'JEC_up_yield'
p61
aS'JEC_down_yield'
p62
aS'JER_up_yield'
p63
aS'JER_down_yield'
p64
aS'JetHEM_up_yield'
p65
aS'JetHEM_down_yield'
p66
atp67
bsS'name'
p68
Nstp69
Rp70
ag15
(cpandas.core.indexes.numeric
Int64Index
p71
(dp72
g18
g19
(g20
(I0
tp73
g22
tp74
Rp75
(I1
(I15
tp76
g26
(S'i8'
p77
I0
I1
tp78
Rp79
(I3
S'<'
p80
NNNI-1
I-1
I0
tp81
bI00
S'\x00\x00\x00\x00\x00\x00\x00\x00\x01\x00\x00\x00\x00\x00\x00\x00\x02\x00\x00\x00\x00\x00\x00\x00\x03\x00\x00\x00\x00\x00\x00\x00\x04\x00\x00\x00\x00\x00\x00\x00\x05\x00\x00\x00\x00\x00\x00\x00\x06\x00\x00\x00\x00\x00\x00\x00\x07\x00\x00\x00\x00\x00\x00\x00\x08\x00\x00\x00\x00\x00\x00\x00\t\x00\x00\x00\x00\x00\x00\x00\n\x00\x00\x00\x00\x00\x00\x00\x0b\x00\x00\x00\x00\x00\x00\x00\x0c\x00\x00\x00\x00\x00\x00\x00\r\x00\x00\x00\x00\x00\x00\x00\x0e\x00\x00\x00\x00\x00\x00\x00'
p82
tp83
bsg68
Nstp84
Rp85
a(lp86
g19
(g20
(I0
tp87
g22
tp88
Rp89
(I1
(I1
I15
tp90
g26
(S'f8'
p91
I0
I1
tp92
Rp93
(I3
S'<'
p94
NNNI-1
I-1
I0
tp95
bI00
S'\x00\x00\x00\x00\x00A\xe4@\x00\x00\x00\x00\x00A\xe4@\x00\x00\x00\x00\x00A\xe4@\x00\x00\x00\x00\x00A\xe4@\x00\x00\x00\x00\x00A\xe4@\x00\x00\x00\x00\x00A\xe4@\x00\x00\x00\x00\x00A\xe4@\x00\x00\x00\x00\x00A\xe4@\x00\x00\x00\x00\x00A\xe4@\x00\x00\x00\x00\x00A\xe4@\x00\x00\x00\x00\x00A\xe4@\x00\x00\x00\x00\x00A\xe4@\x00\x00\x00\x00\x00A\xe4@\x00\x00\x00\x00\x00\x00\xf0?\x00\x00\x00\x00\x00\x00\xf0\xbf'
p96
tp97
bag19
(g20
(I0
tp98
g22
tp99
Rp100
(I1
(I33
I15
tp101
g29
I00
(lp102
S'2017'
p103
ag103
ag103
ag103
ag103
ag103
ag103
ag103
ag103
ag103
ag103
ag103
ag103
ag33
ag33
aS'sig'
p104
ag104
ag104
ag104
ag104
ag104
ag104
ag104
ag104
ag104
ag104
ag104
ag104
aS'bkg'
p105
ag18
aS'GG2HMf05ph0'
p106
aS'GG2HbsmM'
p107
aS'GG2Hsm'
p108
aS'TTHsm'
p109
aS'VBFMf05ph0'
p110
aS'VBFbsmM'
p111
aS'VBFsm'
p112
aS'WHMf05ph0'
p113
aS'WHbsmM'
p114
aS'WHsm'
p115
aS'ZHMf05ph0'
p116
aS'ZHbsmM'
p117
aS'ZHsm'
p118
aS'bkg_mass'
p119
aS'data_obs'
p120
aS'GG2HMf05ph0_2017_hgg'
p121
aS'GG2HbsmM_2017_hgg'
p122
aS'GG2Hsm_2017_hgg'
p123
aS'tth0P_2017_hgg'
p124
aS'vbf0Mf05ph0_2017_hgg'
p125
aS'vbf0M_2017_hgg'
p126
aS'vbf0P_2017_hgg'
p127
aS'wh0Mf05ph0_2017_hgg'
p128
aS'wh0M_2017_hgg'
p129
aS'wh0P_2017_hgg'
p130
aS'zh0Mf05ph0_2017_hgg'
p131
aS'zh0M_2017_hgg'
p132
aS'zh0P_2017_hgg'
p133
ag119
ag120
aS'jjh0Mf05ph0'
p134
aS'jjh0M'
p135
aS'jjh0P'
p136
aS'tth0P'
p137
aS'vbf0Mf05ph0'
p138
aS'vbf0M'
p139
aS'vbf0P'
p140
aS'wh0Mf05ph0'
p141
aS'wh0M'
p142
aS'wh0P'
p143
aS'zh0Mf05ph0'
p144
aS'zh0M'
p145
aS'zh0P'
p146
aS'-'
p147
ag147
aS'AC_Bin26_2017'
p148
aS'AC_Bin26_2017'
p149
aS'AC_Bin26_2017'
p150
aS'AC_Bin26_2017'
p151
aS'AC_Bin26_2017'
p152
aS'AC_Bin26_2017'
p153
aS'AC_Bin26_2017'
p154
aS'AC_Bin26_2017'
p155
aS'AC_Bin26_2017'
p156
aS'AC_Bin26_2017'
p157
aS'AC_Bin26_2017'
p158
aS'AC_Bin26_2017'
p159
aS'AC_Bin26_2017'
p160
aS'AC_Bin26_2017'
p161
ag161
aS'Trees/Opt_2017/2017/Trees2WS_2017/WS/output_GluGluHToGGPlusTwoJets_MM_M125_TuneCP5_13TeV-amcatnlopowheg-minlo-pythia8_GG2HMf05ph0.root'
p162
aS'Trees/Opt_2017/2017/Trees2WS_2017/WS/output_GluGluHToGGPlusTwoJets_CPodd_M125_TuneCP5_13TeV-amcatnlopowheg-minlo-pythia8_GG2HbsmM.root'
p163
aS'Trees/Opt_2017/2017/Trees2WS_2017/WS/output_GluGluHToGGPlusTwoJets_SM_M125_TuneCP5_13TeV-amcatnlopowheg-minlo-pythia8_GG2Hsm.root'
p164
aS'Trees/Opt_2017/2017/Trees2WS_2017/WS/output_ttHJetToGG_M125_TuneCP5_13TeV-amcatnloFXFX-madspin-pythia8_TTHsm.root'
p165
aS'Trees/Opt_2017/2017/Trees2WS_2017/WS/output_VBFHiggs0Mf05ph0ToGG_M125_TuneCP5_13TeV-JHUGenV7011-pythia8_VBFMf05ph0.root'
p166
aS'Trees/Opt_2017/2017/Trees2WS_2017/WS/output_VBFHiggs0MToGG_M125_TuneCP5_13TeV-JHUGenV7011-pythia8_VBFbsmM.root'
p167
aS'Trees/Opt_2017/2017/Trees2WS_2017/WS/output_VBFHToGG_M125_TuneCP5_13TeV-amcatnlo-pythia8_VBFsm.root'
p168
aS'Trees/Opt_2017/2017/Trees2WS_2017/WS/output_WHiggs0Mf05ph0ToGG_M125_TuneCP5_13TeV-JHUGenV7011-pythia8_WHMf05ph0.root'
p169
aS'Trees/Opt_2017/2017/Trees2WS_2017/WS/output_WHiggs0MToGG_M125_TuneCP5_13TeV-JHUGenV7011-pythia8_WHbsmM.root'
p170
aS'Trees/Opt_2017/2017/Trees2WS_2017/WS/output_WHiggs0PMToGG_M125_TuneCP5_13TeV-JHUGenV7011-pythia8_WHsm.root'
p171
aS'Trees/Opt_2017/2017/Trees2WS_2017/WS/output_ZHiggs0Mf05ph0ToGG_M125_TuneCP5_13TeV-JHUGenV7011-pythia8_ZHMf05ph0.root'
p172
aS'Trees/Opt_2017/2017/Trees2WS_2017/WS/output_ZHiggs0MToGG_M125_TuneCP5_13TeV-JHUGenV7011-pythia8_ZHbsmM.root'
p173
aS'Trees/Opt_2017/2017/Trees2WS_2017/WS/output_ZH_HToGG_ZToAll_M125_TuneCP5_13TeV-powheg-pythia8_ZHsm.root'
p174
ag147
ag147
aS'jjh0Mf05ph0_125_13TeV_AC_Bin26'
p175
aS'jjh0M_125_13TeV_AC_Bin26'
p176
aS'jjh0P_125_13TeV_AC_Bin26'
p177
aS'tth0P_125_13TeV_AC_Bin26'
p178
aS'vbf0Mf05ph0_125_13TeV_AC_Bin26'
p179
aS'vbf0M_125_13TeV_AC_Bin26'
p180
aS'vbf0P_125_13TeV_AC_Bin26'
p181
aS'wh0Mf05ph0_125_13TeV_AC_Bin26'
p182
aS'wh0M_125_13TeV_AC_Bin26'
p183
aS'wh0P_125_13TeV_AC_Bin26'
p184
aS'zh0Mf05ph0_125_13TeV_AC_Bin26'
p185
aS'zh0M_125_13TeV_AC_Bin26'
p186
aS'zh0P_125_13TeV_AC_Bin26'
p187
ag147
ag147
aS'./Models/signal/CMS-HGG_sigfit_packaged_AC_Bin26_2017.root'
p188
aS'./Models/signal/CMS-HGG_sigfit_packaged_AC_Bin26_2017.root'
p189
aS'./Models/signal/CMS-HGG_sigfit_packaged_AC_Bin26_2017.root'
p190
aS'./Models/signal/CMS-HGG_sigfit_packaged_AC_Bin26_2017.root'
p191
aS'./Models/signal/CMS-HGG_sigfit_packaged_AC_Bin26_2017.root'
p192
aS'./Models/signal/CMS-HGG_sigfit_packaged_AC_Bin26_2017.root'
p193
aS'./Models/signal/CMS-HGG_sigfit_packaged_AC_Bin26_2017.root'
p194
aS'./Models/signal/CMS-HGG_sigfit_packaged_AC_Bin26_2017.root'
p195
aS'./Models/signal/CMS-HGG_sigfit_packaged_AC_Bin26_2017.root'
p196
aS'./Models/signal/CMS-HGG_sigfit_packaged_AC_Bin26_2017.root'
p197
aS'./Models/signal/CMS-HGG_sigfit_packaged_AC_Bin26_2017.root'
p198
aS'./Models/signal/CMS-HGG_sigfit_packaged_AC_Bin26_2017.root'
p199
aS'./Models/signal/CMS-HGG_sigfit_packaged_AC_Bin26_2017.root'
p200
aS'./Models/background/CMS-HGG_multipdf_AC_Bin26_2017.root'
p201
ag201
aS'wsig_13TeV:hggpdfsmrel_GG2HMf05ph0_2017_AC_Bin26_13TeV'
p202
aS'wsig_13TeV:hggpdfsmrel_GG2HbsmM_2017_AC_Bin26_13TeV'
p203
aS'wsig_13TeV:hggpdfsmrel_GG2Hsm_2017_AC_Bin26_13TeV'
p204
aS'wsig_13TeV:hggpdfsmrel_TTHsm_2017_AC_Bin26_13TeV'
p205
aS'wsig_13TeV:hggpdfsmrel_VBFMf05ph0_2017_AC_Bin26_13TeV'
p206
aS'wsig_13TeV:hggpdfsmrel_VBFbsmM_2017_AC_Bin26_13TeV'
p207
aS'wsig_13TeV:hggpdfsmrel_VBFsm_2017_AC_Bin26_13TeV'
p208
aS'wsig_13TeV:hggpdfsmrel_WHMf05ph0_2017_AC_Bin26_13TeV'
p209
aS'wsig_13TeV:hggpdfsmrel_WHbsmM_2017_AC_Bin26_13TeV'
p210
aS'wsig_13TeV:hggpdfsmrel_WHsm_2017_AC_Bin26_13TeV'
p211
aS'wsig_13TeV:hggpdfsmrel_ZHMf05ph0_2017_AC_Bin26_13TeV'
p212
aS'wsig_13TeV:hggpdfsmrel_ZHbsmM_2017_AC_Bin26_13TeV'
p213
aS'wsig_13TeV:hggpdfsmrel_ZHsm_2017_AC_Bin26_13TeV'
p214
aS'multipdf:CMS_hgg_AC_Bin26_2017_13TeV_bkgshape'
p215
aS'multipdf:roohist_data_mass_AC_Bin26'
p216
aF0.07525503786064291
aF0.07626092364125725
aF0.05596766934604602
aF0.006735891554853879
aF0.08350924075466537
aF0.10883319405957081
aF0.030648137494836192
aF0.0021909289223458472
aF0.003047399409524587
aF0.0008142080300785892
aF0.0011966762758675031
aF0.0019141981006214337
aF0.002269138836709317
ag147
ag147
aF7.696672508518338e-07
aF7.642447907149376e-07
aF5.509635073196628e-07
aF9.556398734533684e-08
aF5.406254798389363e-07
aF5.115739383270069e-07
aF6.911569595108274e-07
aF9.339641040346897e-09
aF1.2982354783934006e-08
aF3.7004375579133943e-09
aF3.2828394083337392e-09
aF5.272882553701924e-09
aF1.9087370250177818e-08
ag147
ag147
aF0.07814334155434999
aF0.07918835212255068
aF0.05813331714673242
aF0.006991025749539259
aF0.08654695021964269
aF0.11276428979123274
aF0.03181288775888469
aF0.002272086314517811
aF0.0031607678211460484
aF0.0008452705113139027
aF0.0012397683030185636
aF0.0019836263474931667
aF0.0023540780137208286
ag147
ag147
aF0.07577555926127126
aF0.0767902175681553
aF0.056354982257250164
aF0.006783397258101345
aF0.08409209107965557
aF0.10959574624434477
aF0.030858050828198574
aF0.0022059150227965317
aF0.003068554495171006
aF0.0008197959346491242
aF0.0012050144664762668
aF0.001927492641720847
aF0.002284857828528905
ag147
ag147
aF0.07473633400930749
aF0.07573348340678537
aF0.05558170915275889
aF0.0066885538965154884
aF0.0829284485971154
aF0.10807334474916824
aF0.030438950969930538
aF0.0021759946862594543
aF0.0030263187021586572
aF0.0008086394868420839
aF0.001188367499876299
aF0.0019009503454582015
aF0.0022534748764023917
ag147
ag147
aF0.07633725018455896
aF0.07733396655424948
aF0.056780122177410505
aF0.0068352647347145554
aF0.08461534767491456
aF0.11025630232503018
aF0.031086601980491277
aF0.002221065408446498
aF0.003089433953128668
aF0.0008253750269880235
aF0.0012122266260111518
aF0.0019397039562047303
aF0.0022997417935740594
ag147
ag147
aF0.07418064769210124
aF0.07519541759906796
aF0.05516115857055085
aF0.00663719441030752
aF0.08241049266965413
aF0.10741934666910584
aF0.030212638299027945
aF0.0021609989429673417
aF0.0030056674799591545
aF0.000803114881643113
aF0.0011812232175637423
aF0.0018888745845118144
aF0.0022387292853274965
ag147
ag147
aF0.07545726093231767
aF0.07646520122788622
aF0.05611512861818855
aF0.006752109276491752
aF0.08373016836382327
aF0.10911655255834067
aF0.030735271216783697
aF0.0021965595008560197
aF0.0030552387272734637
aF0.0008163221063098225
aF0.001199712823019646
aF0.0019193665075552034
aF0.0022752082774558846
ag147
ag147
aF0.07505311732796088
aF0.07605693995216249
aF0.05582042756434434
aF0.006719693801427994
aF0.08328863597456987
aF0.10855025553895699
aF0.030561149145825698
aF0.0021853060005601966
aF0.0030395711361468347
aF0.0008120970478240853
aF0.0011936439413146676
aF0.0019090377477323733
aF0.002263078728135951
ag147
ag147
aF0.07544713141350429
aF0.07645831949016715
aF0.05611141824305698
aF0.0067526905787581686
aF0.08372300189771918
aF0.10911137646294256
aF0.030728535432518463
aF0.002196708087514921
aF0.003055267041927671
aF0.0008163789333372086
aF0.0011997486967961683
aF0.0019190921018270544
aF0.002275000231930523
ag147
ag147
aF0.0750631926212651
aF0.0760637821088237
aF0.05582410311327886
aF0.006719113926133799
aF0.08329575331955125
aF0.10855536942258466
aF0.03056784559781756
aF0.0021851572218460204
aF0.003039542132868593
aF0.000812040124325942
aF0.0011936078389089633
aF0.0019093103413865592
aF0.0022632856131493996
ag147
ag147
aF0.07400164464843328
aF0.0752844628573257
aF0.05507030420767478
aF0.0066522309621177556
aF0.08290491536718037
aF0.10811601443992913
aF0.028271681389696823
aF0.0021628970332585595
aF0.0030138245087982796
aF0.0007963026027937303
aF0.0011802658727901871
aF0.0019027704349809937
aF0.0022444551814260194
ag147
ag147
aF0.07632062518541716
aF0.07739124609497594
aF0.05662105312285348
aF0.0068405120071020065
aF0.08403237891297977
aF0.1094352444638389
aF0.03107729603948428
aF0.002209625230761958
aF0.0030856120222324535
aF0.0008142080300785892
aF0.0012050897523749882
aF0.0019337406085924158
aF0.002303693825524533
ag147
ag147
aF0.07737185207543007
aF0.07818835699208648
aF0.05759245363151422
aF0.0071846927976366715
aF0.08593113720598922
aF0.1120111595059825
aF0.02939575688083096
aF0.0022536409228450793
aF0.003132865075258451
aF0.000826569056698645
aF0.00122335351466063
aF0.0019862532167280733
aF0.0022933019372430863
ag147
ag147
aF0.07342531630547455
aF0.07424089780715803
aF0.054446406993065466
aF0.006564093443103047
aF0.0810217618122806
aF0.10555742201290741
aF0.028316825295632952
aF0.0021029417082445434
aF0.0029939476701201784
aF0.000801247635308755
aF0.0011745486847303255
aF0.0018782994179673551
aF0.0021919217506365385
ag147
ag147
aF0.07565980679601125
aF0.07677169765838698
aF0.05621374585780359
aF0.006735629892318684
aF0.08360032246082483
aF0.10892287504429987
aF0.02896579517778264
aF0.0022167205506775645
aF0.003107353938730739
aF0.0008457953294964682
aF0.001216459592569663
aF0.0019315238564558967
aF0.002269138836709317
ag147
ag147
aF0.07489525726077773
aF0.07590094921715718
aF0.055621276114379725
aF0.006735891554853879
aF0.08343728204317813
aF0.10870168923906931
aF0.028689083119616043
aF0.00216998562768822
aF0.0030351539551247697
aF0.0008142080300785892
aF0.0011742193187274097
aF0.001871228187383167
aF0.002243721714876301
ag147
ag147
aF0.07824838319629634
aF0.07912340019265685
aF0.059057181729258446
aF0.00666962470108956
aF0.08427305660279671
aF0.1091974171908987
aF0.029208032253563943
aF0.002462011883608284
aF0.003486277693127704
aF0.0009850159210600395
aF0.001291776250809562
aF0.0021937707745109947
aF0.0023520710583397886
ag147
ag147
aF0.07217803466255646
aF0.07318214797533074
aF0.0534854858210565
aF0.006672164143992632
aF0.08258077415666776
aF0.10871094096410161
aF0.02820005947091886
aF0.001955410623622811
aF0.002799012557716196
aF0.0007251809583976865
aF0.0011045321484743909
aF0.0016087760945993068
aF0.0021860822635062505
ag147
ag147
aF0.07567332855433051
aF0.07695616829505525
aF0.056462678957814205
aF0.006677896758674251
aF0.0834965298518
aF0.10874954394398628
aF0.02850858171245818
aF0.0022647719647466147
aF0.003088370487375869
aF0.0008671670027524669
aF0.001236093287843687
aF0.0019595098219724605
aF0.0022499513279399252
ag147
ag147
aF0.07481463992371573
aF0.07575158125564485
aF0.055927813791186054
aF0.006767828936517617
aF0.0835612536093322
aF0.10919092697054111
aF0.03045519043985223
aF0.0021311800555849914
aF0.0029947477153200452
aF0.0008302602532239689
aF0.0012112811089082243
aF0.0018824509195383143
aF0.0022641528585154447
ag147
ag147
aF0.07525503786064291
aF0.07626092364125725
aF0.05596766934604602
aF0.006735891554853879
aF0.08350924075466537
aF0.10883319405957081
aF0.030648137494836192
aF0.0021909289223458472
aF0.003047399409524587
aF0.0008142080300785892
aF0.0011966762758675031
aF0.0019141981006214337
aF0.002269138836709317
ag147
ag147
aF0.07525503786064291
aF0.07626092364125725
aF0.05596766934604602
aF0.006735891554853879
aF0.08350924075466537
aF0.10883319405957081
aF0.030648137494836192
aF0.0021909289223458472
aF0.003047399409524587
aF0.0008142080300785892
aF0.0011966762758675031
aF0.0019141981006214337
aF0.002269138836709317
ag147
ag147
atp217
ba(lp218
g15
(g16
(dp219
g18
g19
(g20
(I0
tp220
g22
tp221
Rp222
(I1
(I1
tp223
g29
I00
(lp224
g43
atp225
bsg68
Nstp226
Rp227
ag15
(g16
(dp228
g18
g19
(g20
(I0
tp229
g22
tp230
Rp231
(I1
(I33
tp232
g29
I00
(lp233
g33
ag34
ag35
ag36
ag37
ag38
ag39
ag40
ag41
ag42
ag44
ag45
ag46
ag47
ag48
ag49
ag50
ag51
ag52
ag53
ag54
ag55
ag56
ag57
ag58
ag59
ag60
ag61
ag62
ag63
ag64
ag65
ag66
atp234
bsg68
Nstp235
Rp236
a(dp237
S'0.14.1'
p238
(dp239
S'axes'
p240
g14
sS'blocks'
p241
(lp242
(dp243
S'mgr_locs'
p244
c__builtin__
slice
p245
(I10
I11
I1
tp246
Rp247
sS'values'
p248
g89
sa(dp249
g244
g19
(g20
(I0
tp250
g22
tp251
Rp252
(I1
(I33
tp253
g79
I00
S'\x00\x00\x00\x00\x00\x00\x00\x00\x01\x00\x00\x00\x00\x00\x00\x00\x02\x00\x00\x00\x00\x00\x00\x00\x03\x00\x00\x00\x00\x00\x00\x00\x04\x00\x00\x00\x00\x00\x00\x00\x05\x00\x00\x00\x00\x00\x00\x00\x06\x00\x00\x00\x00\x00\x00\x00\x07\x00\x00\x00\x00\x00\x00\x00\x08\x00\x00\x00\x00\x00\x00\x00\t\x00\x00\x00\x00\x00\x00\x00\x0b\x00\x00\x00\x00\x00\x00\x00\x0c\x00\x00\x00\x00\x00\x00\x00\r\x00\x00\x00\x00\x00\x00\x00\x0e\x00\x00\x00\x00\x00\x00\x00\x0f\x00\x00\x00\x00\x00\x00\x00\x10\x00\x00\x00\x00\x00\x00\x00\x11\x00\x00\x00\x00\x00\x00\x00\x12\x00\x00\x00\x00\x00\x00\x00\x13\x00\x00\x00\x00\x00\x00\x00\x14\x00\x00\x00\x00\x00\x00\x00\x15\x00\x00\x00\x00\x00\x00\x00\x16\x00\x00\x00\x00\x00\x00\x00\x17\x00\x00\x00\x00\x00\x00\x00\x18\x00\x00\x00\x00\x00\x00\x00\x19\x00\x00\x00\x00\x00\x00\x00\x1a\x00\x00\x00\x00\x00\x00\x00\x1b\x00\x00\x00\x00\x00\x00\x00\x1c\x00\x00\x00\x00\x00\x00\x00\x1d\x00\x00\x00\x00\x00\x00\x00\x1e\x00\x00\x00\x00\x00\x00\x00\x1f\x00\x00\x00\x00\x00\x00\x00 \x00\x00\x00\x00\x00\x00\x00!\x00\x00\x00\x00\x00\x00\x00'
p254
tp255
bsg248
g100
sasstp256
bsb.