ccopy_reg
_reconstructor
p0
(cpandas.core.frame
DataFrame
p1
c__builtin__
object
p2
Ntp3
Rp4
(dp5
S'_metadata'
p6
(lp7
sS'_typ'
p8
S'dataframe'
p9
sS'_data'
p10
g0
(cpandas.core.internals
BlockManager
p11
g2
Ntp12
Rp13
((lp14
cpandas.core.indexes.base
_new_Index
p15
(cpandas.core.indexes.base
Index
p16
(dp17
S'data'
p18
cnumpy.core.multiarray
_reconstruct
p19
(cnumpy
ndarray
p20
(I0
tp21
S'b'
p22
tp23
Rp24
(I1
(I32
tp25
cnumpy
dtype
p26
(S'O8'
p27
I0
I1
tp28
Rp29
(I3
S'|'
p30
NNNI-1
I-1
I63
tp31
bI00
(lp32
S'year'
p33
aS'type'
p34
aS'procOriginal'
p35
aS'proc'
p36
aS'proc_s0'
p37
aS'cat'
p38
aS'inputWSFile'
p39
aS'nominalDataName'
p40
aS'modelWSFile'
p41
aS'model'
p42
aS'rate'
p43
aS'nominal_yield'
p44
aS'sumw2'
p45
aS'nominal_yield_COWCorr'
p46
aS'LooseMvaSF_up_yield'
p47
aS'LooseMvaSF_down_yield'
p48
aS'PreselSF_up_yield'
p49
aS'PreselSF_down_yield'
p50
aS'electronVetoSF_up_yield'
p51
aS'electronVetoSF_down_yield'
p52
aS'TriggerWeight_up_yield'
p53
aS'TriggerWeight_down_yield'
p54
aS'SigmaEOverEShift_up_yield'
p55
aS'SigmaEOverEShift_down_yield'
p56
aS'MvaShift_up_yield'
p57
aS'MvaShift_down_yield'
p58
aS'PUJIDShift_up_yield'
p59
aS'PUJIDShift_down_yield'
p60
aS'JEC_up_yield'
p61
aS'JEC_down_yield'
p62
aS'JER_up_yield'
p63
aS'JER_down_yield'
p64
atp65
bsS'name'
p66
Nstp67
Rp68
ag15
(cpandas.core.indexes.numeric
Int64Index
p69
(dp70
g18
g19
(g20
(I0
tp71
g22
tp72
Rp73
(I1
(I15
tp74
g26
(S'i8'
p75
I0
I1
tp76
Rp77
(I3
S'<'
p78
NNNI-1
I-1
I0
tp79
bI00
S'\x00\x00\x00\x00\x00\x00\x00\x00\x01\x00\x00\x00\x00\x00\x00\x00\x02\x00\x00\x00\x00\x00\x00\x00\x03\x00\x00\x00\x00\x00\x00\x00\x04\x00\x00\x00\x00\x00\x00\x00\x05\x00\x00\x00\x00\x00\x00\x00\x06\x00\x00\x00\x00\x00\x00\x00\x07\x00\x00\x00\x00\x00\x00\x00\x08\x00\x00\x00\x00\x00\x00\x00\t\x00\x00\x00\x00\x00\x00\x00\n\x00\x00\x00\x00\x00\x00\x00\x0b\x00\x00\x00\x00\x00\x00\x00\x0c\x00\x00\x00\x00\x00\x00\x00\r\x00\x00\x00\x00\x00\x00\x00\x0e\x00\x00\x00\x00\x00\x00\x00'
p80
tp81
bsg66
Nstp82
Rp83
a(lp84
g19
(g20
(I0
tp85
g22
tp86
Rp87
(I1
(I1
I15
tp88
g26
(S'f8'
p89
I0
I1
tp90
Rp91
(I3
S'<'
p92
NNNI-1
I-1
I0
tp93
bI00
S'\x00\x00\x00\x00\x00A\xe4@\x00\x00\x00\x00\x00A\xe4@\x00\x00\x00\x00\x00A\xe4@\x00\x00\x00\x00\x00A\xe4@\x00\x00\x00\x00\x00A\xe4@\x00\x00\x00\x00\x00A\xe4@\x00\x00\x00\x00\x00A\xe4@\x00\x00\x00\x00\x00A\xe4@\x00\x00\x00\x00\x00A\xe4@\x00\x00\x00\x00\x00A\xe4@\x00\x00\x00\x00\x00A\xe4@\x00\x00\x00\x00\x00A\xe4@\x00\x00\x00\x00\x00A\xe4@\x00\x00\x00\x00\x00\x00\xf0?\x00\x00\x00\x00\x00\x00\xf0\xbf'
p94
tp95
bag19
(g20
(I0
tp96
g22
tp97
Rp98
(I1
(I31
I15
tp99
g29
I00
(lp100
S'2017'
p101
ag101
ag101
ag101
ag101
ag101
ag101
ag101
ag101
ag101
ag101
ag101
ag101
ag33
ag33
aS'sig'
p102
ag102
ag102
ag102
ag102
ag102
ag102
ag102
ag102
ag102
ag102
ag102
ag102
aS'bkg'
p103
ag18
aS'GG2HMf05ph0'
p104
aS'GG2HbsmM'
p105
aS'GG2Hsm'
p106
aS'TTHsm'
p107
aS'VBFMf05ph0'
p108
aS'VBFbsmM'
p109
aS'VBFsm'
p110
aS'WHMf05ph0'
p111
aS'WHbsmM'
p112
aS'WHsm'
p113
aS'ZHMf05ph0'
p114
aS'ZHbsmM'
p115
aS'ZHsm'
p116
aS'bkg_mass'
p117
aS'data_obs'
p118
aS'GG2HMf05ph0_2017_hgg'
p119
aS'GG2HbsmM_2017_hgg'
p120
aS'GG2Hsm_2017_hgg'
p121
aS'tth0P_2017_hgg'
p122
aS'vbf0Mf05ph0_2017_hgg'
p123
aS'vbf0M_2017_hgg'
p124
aS'vbf0P_2017_hgg'
p125
aS'wh0Mf05ph0_2017_hgg'
p126
aS'wh0M_2017_hgg'
p127
aS'wh0P_2017_hgg'
p128
aS'zh0Mf05ph0_2017_hgg'
p129
aS'zh0M_2017_hgg'
p130
aS'zh0P_2017_hgg'
p131
ag117
ag118
aS'jjh0Mf05ph0'
p132
aS'jjh0M'
p133
aS'jjh0P'
p134
aS'tth0P'
p135
aS'vbf0Mf05ph0'
p136
aS'vbf0M'
p137
aS'vbf0P'
p138
aS'wh0Mf05ph0'
p139
aS'wh0M'
p140
aS'wh0P'
p141
aS'zh0Mf05ph0'
p142
aS'zh0M'
p143
aS'zh0P'
p144
aS'-'
p145
ag145
aS'AC_Bin13_2017'
p146
aS'AC_Bin13_2017'
p147
aS'AC_Bin13_2017'
p148
aS'AC_Bin13_2017'
p149
aS'AC_Bin13_2017'
p150
aS'AC_Bin13_2017'
p151
aS'AC_Bin13_2017'
p152
aS'AC_Bin13_2017'
p153
aS'AC_Bin13_2017'
p154
aS'AC_Bin13_2017'
p155
aS'AC_Bin13_2017'
p156
aS'AC_Bin13_2017'
p157
aS'AC_Bin13_2017'
p158
aS'AC_Bin13_2017'
p159
ag159
aS'Trees/Opt_2017/2017/Trees2WS_2017/WS/output_GluGluHToGGPlusTwoJets_MM_M125_TuneCP5_13TeV-amcatnlopowheg-minlo-pythia8_GG2HMf05ph0.root'
p160
aS'Trees/Opt_2017/2017/Trees2WS_2017/WS/output_GluGluHToGGPlusTwoJets_CPodd_M125_TuneCP5_13TeV-amcatnlopowheg-minlo-pythia8_GG2HbsmM.root'
p161
aS'Trees/Opt_2017/2017/Trees2WS_2017/WS/output_GluGluHToGGPlusTwoJets_SM_M125_TuneCP5_13TeV-amcatnlopowheg-minlo-pythia8_GG2Hsm.root'
p162
aS'Trees/Opt_2017/2017/Trees2WS_2017/WS/output_ttHJetToGG_M125_TuneCP5_13TeV-amcatnloFXFX-madspin-pythia8_TTHsm.root'
p163
aS'Trees/Opt_2017/2017/Trees2WS_2017/WS/output_VBFHiggs0Mf05ph0ToGG_M125_TuneCP5_13TeV-JHUGenV7011-pythia8_VBFMf05ph0.root'
p164
aS'Trees/Opt_2017/2017/Trees2WS_2017/WS/output_VBFHiggs0MToGG_M125_TuneCP5_13TeV-JHUGenV7011-pythia8_VBFbsmM.root'
p165
aS'Trees/Opt_2017/2017/Trees2WS_2017/WS/output_VBFHToGG_M125_TuneCP5_13TeV-amcatnlo-pythia8_VBFsm.root'
p166
aS'Trees/Opt_2017/2017/Trees2WS_2017/WS/output_WHiggs0Mf05ph0ToGG_M125_TuneCP5_13TeV-JHUGenV7011-pythia8_WHMf05ph0.root'
p167
aS'Trees/Opt_2017/2017/Trees2WS_2017/WS/output_WHiggs0MToGG_M125_TuneCP5_13TeV-JHUGenV7011-pythia8_WHbsmM.root'
p168
aS'Trees/Opt_2017/2017/Trees2WS_2017/WS/output_WHiggs0PMToGG_M125_TuneCP5_13TeV-JHUGenV7011-pythia8_WHsm.root'
p169
aS'Trees/Opt_2017/2017/Trees2WS_2017/WS/output_ZHiggs0Mf05ph0ToGG_M125_TuneCP5_13TeV-JHUGenV7011-pythia8_ZHMf05ph0.root'
p170
aS'Trees/Opt_2017/2017/Trees2WS_2017/WS/output_ZHiggs0MToGG_M125_TuneCP5_13TeV-JHUGenV7011-pythia8_ZHbsmM.root'
p171
aS'Trees/Opt_2017/2017/Trees2WS_2017/WS/output_ZH_HToGG_ZToAll_M125_TuneCP5_13TeV-powheg-pythia8_ZHsm.root'
p172
ag145
ag145
aS'jjh0Mf05ph0_125_13TeV_AC_Bin13'
p173
aS'jjh0M_125_13TeV_AC_Bin13'
p174
aS'jjh0P_125_13TeV_AC_Bin13'
p175
aS'tth0P_125_13TeV_AC_Bin13'
p176
aS'vbf0Mf05ph0_125_13TeV_AC_Bin13'
p177
aS'vbf0M_125_13TeV_AC_Bin13'
p178
aS'vbf0P_125_13TeV_AC_Bin13'
p179
aS'wh0Mf05ph0_125_13TeV_AC_Bin13'
p180
aS'wh0M_125_13TeV_AC_Bin13'
p181
aS'wh0P_125_13TeV_AC_Bin13'
p182
aS'zh0Mf05ph0_125_13TeV_AC_Bin13'
p183
aS'zh0M_125_13TeV_AC_Bin13'
p184
aS'zh0P_125_13TeV_AC_Bin13'
p185
ag145
ag145
aS'./Models/signal/CMS-HGG_sigfit_packaged_AC_Bin13_2017.root'
p186
aS'./Models/signal/CMS-HGG_sigfit_packaged_AC_Bin13_2017.root'
p187
aS'./Models/signal/CMS-HGG_sigfit_packaged_AC_Bin13_2017.root'
p188
aS'./Models/signal/CMS-HGG_sigfit_packaged_AC_Bin13_2017.root'
p189
aS'./Models/signal/CMS-HGG_sigfit_packaged_AC_Bin13_2017.root'
p190
aS'./Models/signal/CMS-HGG_sigfit_packaged_AC_Bin13_2017.root'
p191
aS'./Models/signal/CMS-HGG_sigfit_packaged_AC_Bin13_2017.root'
p192
aS'./Models/signal/CMS-HGG_sigfit_packaged_AC_Bin13_2017.root'
p193
aS'./Models/signal/CMS-HGG_sigfit_packaged_AC_Bin13_2017.root'
p194
aS'./Models/signal/CMS-HGG_sigfit_packaged_AC_Bin13_2017.root'
p195
aS'./Models/signal/CMS-HGG_sigfit_packaged_AC_Bin13_2017.root'
p196
aS'./Models/signal/CMS-HGG_sigfit_packaged_AC_Bin13_2017.root'
p197
aS'./Models/signal/CMS-HGG_sigfit_packaged_AC_Bin13_2017.root'
p198
aS'./Models/background/CMS-HGG_multipdf_AC_Bin13_2017.root'
p199
ag199
aS'wsig_13TeV:hggpdfsmrel_GG2HMf05ph0_2017_AC_Bin13_13TeV'
p200
aS'wsig_13TeV:hggpdfsmrel_GG2HbsmM_2017_AC_Bin13_13TeV'
p201
aS'wsig_13TeV:hggpdfsmrel_GG2Hsm_2017_AC_Bin13_13TeV'
p202
aS'wsig_13TeV:hggpdfsmrel_TTHsm_2017_AC_Bin13_13TeV'
p203
aS'wsig_13TeV:hggpdfsmrel_VBFMf05ph0_2017_AC_Bin13_13TeV'
p204
aS'wsig_13TeV:hggpdfsmrel_VBFbsmM_2017_AC_Bin13_13TeV'
p205
aS'wsig_13TeV:hggpdfsmrel_VBFsm_2017_AC_Bin13_13TeV'
p206
aS'wsig_13TeV:hggpdfsmrel_WHMf05ph0_2017_AC_Bin13_13TeV'
p207
aS'wsig_13TeV:hggpdfsmrel_WHbsmM_2017_AC_Bin13_13TeV'
p208
aS'wsig_13TeV:hggpdfsmrel_WHsm_2017_AC_Bin13_13TeV'
p209
aS'wsig_13TeV:hggpdfsmrel_ZHMf05ph0_2017_AC_Bin13_13TeV'
p210
aS'wsig_13TeV:hggpdfsmrel_ZHbsmM_2017_AC_Bin13_13TeV'
p211
aS'wsig_13TeV:hggpdfsmrel_ZHsm_2017_AC_Bin13_13TeV'
p212
aS'multipdf:CMS_hgg_AC_Bin13_2017_13TeV_bkgshape'
p213
aS'multipdf:roohist_data_mass_AC_Bin13'
p214
aF0.044329841591661534
aF0.045939078057472216
aF0.060506754437028576
aF0.008249708694847868
aF0.029395568078598444
aF0.04168595940996056
aF0.025628192127669536
aF0.0023924652318783046
aF0.0036573543281974707
aF0.0008030769010929362
aF0.0011500833522859466
aF0.0018799658812440612
aF0.0021162151037970034
ag145
ag145
aF4.5827015871659684e-07
aF4.6655905508568027e-07
aF5.929197512634153e-07
aF1.0476544991944458e-07
aF1.4830385814990142e-07
aF2.1055572269098906e-07
aF5.898472386921458e-07
aF1.0230906152136174e-08
aF1.5601032329817278e-08
aF3.6221627955032624e-09
aF3.153689818816339e-09
aF5.158605997155346e-09
aF1.7498126022609453e-08
ag145
ag145
aF0.04603218367838629
aF0.04770516197436967
aF0.06280459328384268
aF0.00855489911427527
aF0.03046937974885443
aF0.04319217685864659
aF0.026582979922178483
aF0.002480067042074719
aF0.0037886162023042912
aF0.0008353955525938534
aF0.0011932220540436145
aF0.0019484648401634653
aF0.002197252086228782
ag145
ag145
aF0.04463857796172055
aF0.0462589044101344
aF0.06092739679768196
aF0.00830824280834631
aF0.029600605877206206
aF0.041979746094454456
aF0.025804802378851553
aF0.0024091289136565905
aF0.0036831410195412835
aF0.0008083956891676436
aF0.0011579835427797467
aF0.0018929873589305561
aF0.002130473676824112
ag145
ag145
aF0.04402219032515021
aF0.04562037457419121
aF0.06008758790139741
aF0.008191383375786133
aF0.029191253638343607
aF0.041393219198352274
aF0.02545219734535698
aF0.002375860216071034
aF0.0036316595453490304
aF0.0007977760462081727
aF0.0011422106579132096
aF0.0018669900336496046
aF0.0021020054608866584
ag145
ag145
aF0.044954540687025896
aF0.04658764270146306
aF0.061359427572699486
aF0.008369434078757133
aF0.029791936508429474
aF0.04223360097165631
aF0.025994673936366893
aF0.002424893221671352
aF0.0037040055799340697
aF0.0008154784437619043
aF0.0011656114487683966
aF0.0019052448934520124
aF0.0021477513721524628
ag145
ag145
aF0.04370951114520629
aF0.04529499951085416
aF0.05966012283897882
aF0.00813081800715873
aF0.029001885858075276
aF0.041141897108338765
aF0.02526427375903718
aF0.002360255107788041
aF0.003610998727189939
aF0.0007907832707447626
aF0.001134666423452629
aF0.0018548532564908442
aF0.0020849297012975805
ag145
ag145
aF0.04444465572494028
aF0.046061616732009536
aF0.06066697230990562
aF0.008269427345807925
aF0.02947213470829939
aF0.04179399439361566
aF0.025696977264255027
aF0.002398681053279069
aF0.003666977749018934
aF0.0008055078042678687
aF0.001153458955176343
aF0.0018849686857935468
aF0.0021223487134234007
ag145
ag145
aF0.044215199465506234
aF0.04581672371554294
aF0.06034676644446605
aF0.008230015021602139
aF0.029319112206037657
aF0.041578082042568895
aF0.02555951309501704
aF0.002386258504960818
aF0.003647744774157735
aF0.0008006500896388136
aF0.0011467132178178666
aF0.0018749704790259774
aF0.002110091823695
ag145
ag145
aF0.04444307464909952
aF0.04605714377379022
aF0.060659935416927685
aF0.008269170223006899
aF0.029470810662081445
aF0.0417913059577491
aF0.02569302454871822
aF0.0023985607669475125
aF0.003666695321048435
aF0.0008053506697595171
aF0.0011531496166194166
aF0.0018848128767487663
aF0.0021219078314148195
ag145
ag145
aF0.04421675315924889
aF0.045821164653890134
aF0.060353769649725046
aF0.008230270655282399
aF0.029320421676203468
aF0.04158075025727549
aF0.025563440221726543
aF0.0023863774102405506
aF0.0036480250707386563
aF0.0008008063291210504
aF0.0011470212452832733
aF0.001875125124296235
aF0.0021105304528757744
ag145
ag145
aF0.04375011564616216
aF0.045238510557737754
aF0.059542990569298127
aF0.008119699353073884
aF0.02913628078522379
aF0.041363175342894465
aF0.02513485188251252
aF0.0023747202303638915
aF0.0036210337716511276
aF0.0007679683615151589
aF0.0011417031555538415
aF0.0018601664139623608
aF0.002100544277254812
ag145
ag145
aF0.04482885258084934
aF0.046375039295071474
aF0.061336406032751256
aF0.00833717856403382
aF0.029541376241468242
aF0.04186870380885921
aF0.025942000936765908
aF0.0024179298989110976
aF0.0036786450950785365
aF0.0008302734065637196
aF0.0011588860838855908
aF0.0018987389319136128
aF0.0021163041687941586
ag145
ag145
aF0.045610110526922654
aF0.047400795813700825
aF0.06229870364040835
aF0.00867308250167298
aF0.030455875417374045
aF0.04304299171803905
aF0.025909841503334974
aF0.0024656585437696776
aF0.003743144870895776
aF0.0008075526918673859
aF0.0011774680924645509
aF0.001957890646508531
aF0.002178670869398047
ag145
ag145
aF0.04306350570050199
aF0.044797478378768574
aF0.058902775499063864
aF0.007848202782497538
aF0.028484923775977222
aF0.04043462388995067
aF0.025169377586053088
aF0.0023366545326553023
aF0.0035758480880758725
aF0.0007855732599182375
aF0.0011053611931401974
aF0.0018122802932794002
aF0.002051585377103038
ag145
ag145
aF0.044766360947051
aF0.04617314597226141
aF0.06079652629659904
aF0.008254163371702816
aF0.029475281131453812
aF0.04178915889929158
aF0.025897966825368712
aF0.0024230995677498868
aF0.0037426166193199606
aF0.0008163117679487186
aF0.0011667707267406513
aF0.0019182693786206073
aF0.0021242450416139036
ag145
ag145
aF0.044030561543422664
aF0.04554165297895452
aF0.06009025668618051
aF0.008236256165901068
aF0.029311827927813283
aF0.04165075984133182
aF0.02538536186807505
aF0.0023538210823517147
aF0.003592168493241843
aF0.0007886327869073284
aF0.0011352815665759408
aF0.0018466955830263032
aF0.0021162151037970034
ag145
ag145
aF0.04695316883180567
aF0.04848794986219218
aF0.06290118517881638
aF0.008471875786199234
aF0.02948564489201999
aF0.04223052344423195
aF0.02526911323616332
aF0.0027346465035407164
aF0.004054507301589183
aF0.0009201047896567616
aF0.0013011914427352167
aF0.002122624463027023
aF0.0021351428545131057
ag145
ag145
aF0.042082881632268254
aF0.043378605493671785
aF0.05786480914866843
aF0.008120410281435397
aF0.029333257372627486
aF0.041008632795183075
aF0.02536862472948087
aF0.0020947486782461056
aF0.0031441609223747946
aF0.0006854554760593601
aF0.0010283559579420398
aF0.00170182020019638
aF0.001981597925805545
ag145
ag145
aF0.044948199426926294
aF0.046256529060428875
aF0.060743672141597926
aF0.008247901010690839
aF0.02934005815995988
aF0.04176881304647395
aF0.025463834165520893
aF0.00246912378770503
aF0.003743031981684908
aF0.0008035610112528957
aF0.0011590371859711013
aF0.0019161237007665477
aF0.0020747156395373167
ag145
ag145
aF0.04393189411894127
aF0.045309521578019485
aF0.0599538568517346
aF0.008145166918893665
aF0.02940416875185292
aF0.041671864935324265
aF0.02570183295551942
aF0.0022713337011737167
aF0.003501460718780436
aF0.0007673941533994366
aF0.0011440216803748626
aF0.0018280485819559544
aF0.002057609991879872
ag145
ag145
atp215
ba(lp216
g15
(g16
(dp217
g18
g19
(g20
(I0
tp218
g22
tp219
Rp220
(I1
(I1
tp221
g29
I00
(lp222
g43
atp223
bsg66
Nstp224
Rp225
ag15
(g16
(dp226
g18
g19
(g20
(I0
tp227
g22
tp228
Rp229
(I1
(I31
tp230
g29
I00
(lp231
g33
ag34
ag35
ag36
ag37
ag38
ag39
ag40
ag41
ag42
ag44
ag45
ag46
ag47
ag48
ag49
ag50
ag51
ag52
ag53
ag54
ag55
ag56
ag57
ag58
ag59
ag60
ag61
ag62
ag63
ag64
atp232
bsg66
Nstp233
Rp234
a(dp235
S'0.14.1'
p236
(dp237
S'axes'
p238
g14
sS'blocks'
p239
(lp240
(dp241
S'mgr_locs'
p242
c__builtin__
slice
p243
(I10
I11
I1
tp244
Rp245
sS'values'
p246
g87
sa(dp247
g242
g19
(g20
(I0
tp248
g22
tp249
Rp250
(I1
(I31
tp251
g77
I00
S'\x00\x00\x00\x00\x00\x00\x00\x00\x01\x00\x00\x00\x00\x00\x00\x00\x02\x00\x00\x00\x00\x00\x00\x00\x03\x00\x00\x00\x00\x00\x00\x00\x04\x00\x00\x00\x00\x00\x00\x00\x05\x00\x00\x00\x00\x00\x00\x00\x06\x00\x00\x00\x00\x00\x00\x00\x07\x00\x00\x00\x00\x00\x00\x00\x08\x00\x00\x00\x00\x00\x00\x00\t\x00\x00\x00\x00\x00\x00\x00\x0b\x00\x00\x00\x00\x00\x00\x00\x0c\x00\x00\x00\x00\x00\x00\x00\r\x00\x00\x00\x00\x00\x00\x00\x0e\x00\x00\x00\x00\x00\x00\x00\x0f\x00\x00\x00\x00\x00\x00\x00\x10\x00\x00\x00\x00\x00\x00\x00\x11\x00\x00\x00\x00\x00\x00\x00\x12\x00\x00\x00\x00\x00\x00\x00\x13\x00\x00\x00\x00\x00\x00\x00\x14\x00\x00\x00\x00\x00\x00\x00\x15\x00\x00\x00\x00\x00\x00\x00\x16\x00\x00\x00\x00\x00\x00\x00\x17\x00\x00\x00\x00\x00\x00\x00\x18\x00\x00\x00\x00\x00\x00\x00\x19\x00\x00\x00\x00\x00\x00\x00\x1a\x00\x00\x00\x00\x00\x00\x00\x1b\x00\x00\x00\x00\x00\x00\x00\x1c\x00\x00\x00\x00\x00\x00\x00\x1d\x00\x00\x00\x00\x00\x00\x00\x1e\x00\x00\x00\x00\x00\x00\x00\x1f\x00\x00\x00\x00\x00\x00\x00'
p252
tp253
bsg246
g98
sasstp254
bsb.