ccopy_reg
_reconstructor
p0
(cpandas.core.frame
DataFrame
p1
c__builtin__
object
p2
Ntp3
Rp4
(dp5
S'_metadata'
p6
(lp7
sS'_typ'
p8
S'dataframe'
p9
sS'_data'
p10
g0
(cpandas.core.internals
BlockManager
p11
g2
Ntp12
Rp13
((lp14
cpandas.core.indexes.base
_new_Index
p15
(cpandas.core.indexes.base
Index
p16
(dp17
S'data'
p18
cnumpy.core.multiarray
_reconstruct
p19
(cnumpy
ndarray
p20
(I0
tp21
S'b'
p22
tp23
Rp24
(I1
(I34
tp25
cnumpy
dtype
p26
(S'O8'
p27
I0
I1
tp28
Rp29
(I3
S'|'
p30
NNNI-1
I-1
I63
tp31
bI00
(lp32
S'year'
p33
aS'type'
p34
aS'procOriginal'
p35
aS'proc'
p36
aS'proc_s0'
p37
aS'cat'
p38
aS'inputWSFile'
p39
aS'nominalDataName'
p40
aS'modelWSFile'
p41
aS'model'
p42
aS'rate'
p43
aS'nominal_yield'
p44
aS'sumw2'
p45
aS'nominal_yield_COWCorr'
p46
aS'LooseMvaSF_up_yield'
p47
aS'LooseMvaSF_down_yield'
p48
aS'PreselSF_up_yield'
p49
aS'PreselSF_down_yield'
p50
aS'electronVetoSF_up_yield'
p51
aS'electronVetoSF_down_yield'
p52
aS'TriggerWeight_up_yield'
p53
aS'TriggerWeight_down_yield'
p54
aS'SigmaEOverEShift_up_yield'
p55
aS'SigmaEOverEShift_down_yield'
p56
aS'MvaShift_up_yield'
p57
aS'MvaShift_down_yield'
p58
aS'PUJIDShift_up_yield'
p59
aS'PUJIDShift_down_yield'
p60
aS'JEC_up_yield'
p61
aS'JEC_down_yield'
p62
aS'JER_up_yield'
p63
aS'JER_down_yield'
p64
aS'JetHEM_up_yield'
p65
aS'JetHEM_down_yield'
p66
atp67
bsS'name'
p68
Nstp69
Rp70
ag15
(cpandas.core.indexes.numeric
Int64Index
p71
(dp72
g18
g19
(g20
(I0
tp73
g22
tp74
Rp75
(I1
(I15
tp76
g26
(S'i8'
p77
I0
I1
tp78
Rp79
(I3
S'<'
p80
NNNI-1
I-1
I0
tp81
bI00
S'\x00\x00\x00\x00\x00\x00\x00\x00\x01\x00\x00\x00\x00\x00\x00\x00\x02\x00\x00\x00\x00\x00\x00\x00\x03\x00\x00\x00\x00\x00\x00\x00\x04\x00\x00\x00\x00\x00\x00\x00\x05\x00\x00\x00\x00\x00\x00\x00\x06\x00\x00\x00\x00\x00\x00\x00\x07\x00\x00\x00\x00\x00\x00\x00\x08\x00\x00\x00\x00\x00\x00\x00\t\x00\x00\x00\x00\x00\x00\x00\n\x00\x00\x00\x00\x00\x00\x00\x0b\x00\x00\x00\x00\x00\x00\x00\x0c\x00\x00\x00\x00\x00\x00\x00\r\x00\x00\x00\x00\x00\x00\x00\x0e\x00\x00\x00\x00\x00\x00\x00'
p82
tp83
bsg68
Nstp84
Rp85
a(lp86
g19
(g20
(I0
tp87
g22
tp88
Rp89
(I1
(I1
I15
tp90
g26
(S'f8'
p91
I0
I1
tp92
Rp93
(I3
S'<'
p94
NNNI-1
I-1
I0
tp95
bI00
S'\x00\x00\x00\x00\x00A\xe4@\x00\x00\x00\x00\x00A\xe4@\x00\x00\x00\x00\x00A\xe4@\x00\x00\x00\x00\x00A\xe4@\x00\x00\x00\x00\x00A\xe4@\x00\x00\x00\x00\x00A\xe4@\x00\x00\x00\x00\x00A\xe4@\x00\x00\x00\x00\x00A\xe4@\x00\x00\x00\x00\x00A\xe4@\x00\x00\x00\x00\x00A\xe4@\x00\x00\x00\x00\x00A\xe4@\x00\x00\x00\x00\x00A\xe4@\x00\x00\x00\x00\x00A\xe4@\x00\x00\x00\x00\x00\x00\xf0?\x00\x00\x00\x00\x00\x00\xf0\xbf'
p96
tp97
bag19
(g20
(I0
tp98
g22
tp99
Rp100
(I1
(I33
I15
tp101
g29
I00
(lp102
S'2017'
p103
ag103
ag103
ag103
ag103
ag103
ag103
ag103
ag103
ag103
ag103
ag103
ag103
ag33
ag33
aS'sig'
p104
ag104
ag104
ag104
ag104
ag104
ag104
ag104
ag104
ag104
ag104
ag104
ag104
aS'bkg'
p105
ag18
aS'GG2HMf05ph0'
p106
aS'GG2HbsmM'
p107
aS'GG2Hsm'
p108
aS'TTHsm'
p109
aS'VBFMf05ph0'
p110
aS'VBFbsmM'
p111
aS'VBFsm'
p112
aS'WHMf05ph0'
p113
aS'WHbsmM'
p114
aS'WHsm'
p115
aS'ZHMf05ph0'
p116
aS'ZHbsmM'
p117
aS'ZHsm'
p118
aS'bkg_mass'
p119
aS'data_obs'
p120
aS'GG2HMf05ph0_2017_hgg'
p121
aS'GG2HbsmM_2017_hgg'
p122
aS'GG2Hsm_2017_hgg'
p123
aS'tth0P_2017_hgg'
p124
aS'vbf0Mf05ph0_2017_hgg'
p125
aS'vbf0M_2017_hgg'
p126
aS'vbf0P_2017_hgg'
p127
aS'wh0Mf05ph0_2017_hgg'
p128
aS'wh0M_2017_hgg'
p129
aS'wh0P_2017_hgg'
p130
aS'zh0Mf05ph0_2017_hgg'
p131
aS'zh0M_2017_hgg'
p132
aS'zh0P_2017_hgg'
p133
ag119
ag120
aS'jjh0Mf05ph0'
p134
aS'jjh0M'
p135
aS'jjh0P'
p136
aS'tth0P'
p137
aS'vbf0Mf05ph0'
p138
aS'vbf0M'
p139
aS'vbf0P'
p140
aS'wh0Mf05ph0'
p141
aS'wh0M'
p142
aS'wh0P'
p143
aS'zh0Mf05ph0'
p144
aS'zh0M'
p145
aS'zh0P'
p146
aS'-'
p147
ag147
aS'AC_Bin8_2017'
p148
aS'AC_Bin8_2017'
p149
aS'AC_Bin8_2017'
p150
aS'AC_Bin8_2017'
p151
aS'AC_Bin8_2017'
p152
aS'AC_Bin8_2017'
p153
aS'AC_Bin8_2017'
p154
aS'AC_Bin8_2017'
p155
aS'AC_Bin8_2017'
p156
aS'AC_Bin8_2017'
p157
aS'AC_Bin8_2017'
p158
aS'AC_Bin8_2017'
p159
aS'AC_Bin8_2017'
p160
aS'AC_Bin8_2017'
p161
ag161
aS'Trees/Opt_2017/2017/Trees2WS_2017/WS/output_GluGluHToGGPlusTwoJets_MM_M125_TuneCP5_13TeV-amcatnlopowheg-minlo-pythia8_GG2HMf05ph0.root'
p162
aS'Trees/Opt_2017/2017/Trees2WS_2017/WS/output_GluGluHToGGPlusTwoJets_CPodd_M125_TuneCP5_13TeV-amcatnlopowheg-minlo-pythia8_GG2HbsmM.root'
p163
aS'Trees/Opt_2017/2017/Trees2WS_2017/WS/output_GluGluHToGGPlusTwoJets_SM_M125_TuneCP5_13TeV-amcatnlopowheg-minlo-pythia8_GG2Hsm.root'
p164
aS'Trees/Opt_2017/2017/Trees2WS_2017/WS/output_ttHJetToGG_M125_TuneCP5_13TeV-amcatnloFXFX-madspin-pythia8_TTHsm.root'
p165
aS'Trees/Opt_2017/2017/Trees2WS_2017/WS/output_VBFHiggs0Mf05ph0ToGG_M125_TuneCP5_13TeV-JHUGenV7011-pythia8_VBFMf05ph0.root'
p166
aS'Trees/Opt_2017/2017/Trees2WS_2017/WS/output_VBFHiggs0MToGG_M125_TuneCP5_13TeV-JHUGenV7011-pythia8_VBFbsmM.root'
p167
aS'Trees/Opt_2017/2017/Trees2WS_2017/WS/output_VBFHToGG_M125_TuneCP5_13TeV-amcatnlo-pythia8_VBFsm.root'
p168
aS'Trees/Opt_2017/2017/Trees2WS_2017/WS/output_WHiggs0Mf05ph0ToGG_M125_TuneCP5_13TeV-JHUGenV7011-pythia8_WHMf05ph0.root'
p169
aS'Trees/Opt_2017/2017/Trees2WS_2017/WS/output_WHiggs0MToGG_M125_TuneCP5_13TeV-JHUGenV7011-pythia8_WHbsmM.root'
p170
aS'Trees/Opt_2017/2017/Trees2WS_2017/WS/output_WHiggs0PMToGG_M125_TuneCP5_13TeV-JHUGenV7011-pythia8_WHsm.root'
p171
aS'Trees/Opt_2017/2017/Trees2WS_2017/WS/output_ZHiggs0Mf05ph0ToGG_M125_TuneCP5_13TeV-JHUGenV7011-pythia8_ZHMf05ph0.root'
p172
aS'Trees/Opt_2017/2017/Trees2WS_2017/WS/output_ZHiggs0MToGG_M125_TuneCP5_13TeV-JHUGenV7011-pythia8_ZHbsmM.root'
p173
aS'Trees/Opt_2017/2017/Trees2WS_2017/WS/output_ZH_HToGG_ZToAll_M125_TuneCP5_13TeV-powheg-pythia8_ZHsm.root'
p174
ag147
ag147
aS'jjh0Mf05ph0_125_13TeV_AC_Bin8'
p175
aS'jjh0M_125_13TeV_AC_Bin8'
p176
aS'jjh0P_125_13TeV_AC_Bin8'
p177
aS'tth0P_125_13TeV_AC_Bin8'
p178
aS'vbf0Mf05ph0_125_13TeV_AC_Bin8'
p179
aS'vbf0M_125_13TeV_AC_Bin8'
p180
aS'vbf0P_125_13TeV_AC_Bin8'
p181
aS'wh0Mf05ph0_125_13TeV_AC_Bin8'
p182
aS'wh0M_125_13TeV_AC_Bin8'
p183
aS'wh0P_125_13TeV_AC_Bin8'
p184
aS'zh0Mf05ph0_125_13TeV_AC_Bin8'
p185
aS'zh0M_125_13TeV_AC_Bin8'
p186
aS'zh0P_125_13TeV_AC_Bin8'
p187
ag147
ag147
aS'./Models/signal/CMS-HGG_sigfit_packaged_AC_Bin8_2017.root'
p188
aS'./Models/signal/CMS-HGG_sigfit_packaged_AC_Bin8_2017.root'
p189
aS'./Models/signal/CMS-HGG_sigfit_packaged_AC_Bin8_2017.root'
p190
aS'./Models/signal/CMS-HGG_sigfit_packaged_AC_Bin8_2017.root'
p191
aS'./Models/signal/CMS-HGG_sigfit_packaged_AC_Bin8_2017.root'
p192
aS'./Models/signal/CMS-HGG_sigfit_packaged_AC_Bin8_2017.root'
p193
aS'./Models/signal/CMS-HGG_sigfit_packaged_AC_Bin8_2017.root'
p194
aS'./Models/signal/CMS-HGG_sigfit_packaged_AC_Bin8_2017.root'
p195
aS'./Models/signal/CMS-HGG_sigfit_packaged_AC_Bin8_2017.root'
p196
aS'./Models/signal/CMS-HGG_sigfit_packaged_AC_Bin8_2017.root'
p197
aS'./Models/signal/CMS-HGG_sigfit_packaged_AC_Bin8_2017.root'
p198
aS'./Models/signal/CMS-HGG_sigfit_packaged_AC_Bin8_2017.root'
p199
aS'./Models/signal/CMS-HGG_sigfit_packaged_AC_Bin8_2017.root'
p200
aS'./Models/background/CMS-HGG_multipdf_AC_Bin8_2017.root'
p201
ag201
aS'wsig_13TeV:hggpdfsmrel_GG2HMf05ph0_2017_AC_Bin8_13TeV'
p202
aS'wsig_13TeV:hggpdfsmrel_GG2HbsmM_2017_AC_Bin8_13TeV'
p203
aS'wsig_13TeV:hggpdfsmrel_GG2Hsm_2017_AC_Bin8_13TeV'
p204
aS'wsig_13TeV:hggpdfsmrel_TTHsm_2017_AC_Bin8_13TeV'
p205
aS'wsig_13TeV:hggpdfsmrel_VBFMf05ph0_2017_AC_Bin8_13TeV'
p206
aS'wsig_13TeV:hggpdfsmrel_VBFbsmM_2017_AC_Bin8_13TeV'
p207
aS'wsig_13TeV:hggpdfsmrel_VBFsm_2017_AC_Bin8_13TeV'
p208
aS'wsig_13TeV:hggpdfsmrel_WHMf05ph0_2017_AC_Bin8_13TeV'
p209
aS'wsig_13TeV:hggpdfsmrel_WHbsmM_2017_AC_Bin8_13TeV'
p210
aS'wsig_13TeV:hggpdfsmrel_WHsm_2017_AC_Bin8_13TeV'
p211
aS'wsig_13TeV:hggpdfsmrel_ZHMf05ph0_2017_AC_Bin8_13TeV'
p212
aS'wsig_13TeV:hggpdfsmrel_ZHbsmM_2017_AC_Bin8_13TeV'
p213
aS'wsig_13TeV:hggpdfsmrel_ZHsm_2017_AC_Bin8_13TeV'
p214
aS'multipdf:CMS_hgg_AC_Bin8_2017_13TeV_bkgshape'
p215
aS'multipdf:roohist_data_mass_AC_Bin8'
p216
aF0.06538278998914393
aF0.06239203279619687
aF0.08083252541837282
aF0.0028144119823991787
aF0.012391920850404858
aF0.006330221467578667
aF0.025746673975390877
aF0.002121701269516052
aF0.0013500287038823444
aF0.002178671087449402
aF0.001388656651670317
aF0.0009412022844799139
aF0.003119620266261336
ag147
ag147
aF6.944883471468646e-07
aF6.531402752477985e-07
aF8.178844280121115e-07
aF3.947101443513358e-08
aF7.930744193082055e-08
aF2.9540112241478586e-08
aF6.022516051251776e-07
aF8.946113889603836e-09
aF5.691171052322216e-09
aF9.732894068545573e-09
aF3.76391792623163e-09
aF2.558696992312496e-09
aF2.617710330897627e-08
ag147
ag147
aF0.06833264471499075
aF0.06521650311787736
aF0.08458546454622524
aF0.0029461508611802584
aF0.012941294362940767
aF0.0066086583491336845
aF0.026926161404872785
aF0.0022179409453175563
aF0.0014079733309979479
aF0.0022799363085491088
aF0.0014545881920142098
aF0.000983263202402354
aF0.003263232880225417
ag147
ag147
aF0.065822270129638
aF0.0628118883431824
aF0.08137416696574859
aF0.0028332648943588576
aF0.012473137908425838
aF0.006371559432580804
aF0.025913605641192137
aF0.0021356975753502026
aF0.001358879332436783
aF0.0021929591198935373
aF0.0013977096096247019
aF0.0009474403383916573
aF0.0031399875719844766
ag147
ag147
aF0.06494480217584149
aF0.06197360227654416
aF0.08029271579707259
aF0.0027956223923107865
aF0.012310970823039308
aF0.006289018642340727
aF0.025580292136510994
aF0.0021077515239868345
aF0.0013412072030142524
aF0.0021644303615279336
aF0.0013796334607365788
aF0.0009349851075549471
aF0.0030993201320158414
ag147
ag147
aF0.06641202336867819
aF0.06337967884720011
aF0.082107158505824
aF0.002863576842365904
aF0.012586035258929698
aF0.006432279253459445
aF0.02615764482450154
aF0.002154032228099638
aF0.0013706819214759907
aF0.0022136984273508032
aF0.0014109757022701612
aF0.0009558175753426723
aF0.0031724974860984187
ag147
ag147
aF0.06436179620368873
aF0.06141211952500609
aF0.07956785273511945
aF0.002765646469918043
aF0.012199281208590498
aF0.0062289092788136305
aF0.025339199376293527
aF0.002089613856518994
aF0.0013295215400758184
aF0.0021439168967778053
aF0.0013665048501263594
aF0.0009266887760193219
aF0.0030671624245535963
ag147
ag147
aF0.06557012678685523
aF0.06257071127259707
aF0.08107125897583933
aF0.0028228951680052392
aF0.012431227080157323
aF0.006349727928400904
aF0.025830218942025158
aF0.0021281442097097407
aF0.0013543569531445448
aF0.0021851944473227163
aF0.0013929229738161091
aF0.0009441941183013466
aF0.003129854229506808
ag147
ag147
aF0.06519574142917788
aF0.062213639937491585
aF0.08059419560405792
aF0.0028059382735566027
aF0.012352679888122114
aF0.006310745262780801
aF0.025663287751164558
aF0.0021152686214568578
aF0.0013457072527241437
aF0.0021721583432252455
aF0.0013843973704923877
aF0.0009382155922384625
aF0.0031094092060212687
ag147
ag147
aF0.0656101700002839
aF0.0626076991648409
aF0.08110903591678528
aF0.002822246423417233
aF0.012427785532338786
aF0.006347385322715745
aF0.02582783869233368
aF0.0021287115836551695
aF0.0013539148696642294
aF0.0021867059997162366
aF0.0013934455211971437
aF0.0009440011269584223
aF0.0031305368202827893
ag147
ag147
aF0.06515575353089474
aF0.06217669199781358
aF0.08055643731184196
aF0.0028065912019285435
aF0.012356106599033675
aF0.00631307987003024
aF0.025665635819553948
aF0.002114701036871528
aF0.0013461480417086681
aF0.0021706485829128897
aF0.0013838750889646272
aF0.0009384073041467645
aF0.0031087208938298527
ag147
ag147
aF0.06492111445049886
aF0.061957201661243744
aF0.08015962820218192
aF0.0028640934467603074
aF0.012547996243483794
aF0.00652646640128296
aF0.029556592871131215
aF0.002123649396253313
aF0.001355682731627894
aF0.0021744086914168292
aF0.0013784575535282784
aF0.000947203318787615
aF0.0031029128658701666
ag147
ag147
aF0.06581909578517298
aF0.06283125334402939
aF0.0813571262278856
aF0.0027634693960862933
aF0.012288663164326863
aF0.006212705643974914
aF0.020295544941745902
aF0.0021092446777402074
aF0.0013373007941481774
aF0.0021949849115117104
aF0.0014069640753859858
aF0.0009355584078321044
aF0.0032013091508815705
ag147
ag147
aF0.0678813889489902
aF0.0649766899896349
aF0.08429752547590397
aF0.0029973323266858642
aF0.012559591343233478
aF0.006496104594589269
aF0.021049159502126713
aF0.0021810914961406525
aF0.0014008459597789624
aF0.002310796256097092
aF0.0014399352805867238
aF0.0009555991861134316
aF0.003246563839184091
ag147
ag147
aF0.06295912715495433
aF0.05987199709534252
aF0.07718069726388421
aF0.0026429818340147904
aF0.01192518804100473
aF0.0061116114102333086
aF0.03416420434655265
aF0.0020156696004960395
aF0.0012799834360066598
aF0.002056831692243577
aF0.0013357158816234005
aF0.0008959306625229146
aF0.0029831514993929886
ag147
ag147
aF0.06650981136544942
aF0.06319653944956372
aF0.08204637453945907
aF0.0028151632163826434
aF0.012504399745921546
aF0.006358288544106472
aF0.02080668876214986
aF0.00215193236772393
aF0.0013714029312268394
aF0.0022146716767110775
aF0.0014106708449617145
aF0.0009467948717656327
aF0.003178073548951943
ag147
ag147
aF0.06440601509120825
aF0.061332338961619826
aF0.07947021418431177
aF0.0028103636377636576
aF0.012299766339310736
aF0.006316190851066494
aF0.0351810085114721
aF0.0020986010492833884
aF0.0013372269443152618
aF0.0021526831499159016
aF0.0013800583608372108
aF0.0009163903101807591
aF0.0030713021992596623
ag147
ag147
aF0.07234682016769511
aF0.06901031962615889
aF0.08721354894532851
aF0.0029601491705761873
aF0.012635015992145782
aF0.0064363715962372225
aF0.01994981364487103
aF0.0024416940389073716
aF0.001527681966081218
aF0.0025244345670216717
aF0.0015978125884430483
aF0.0010980101318409652
aF0.0032612261829854106
ag147
ag147
aF0.05907602057186523
aF0.05624789769126437
aF0.07367495132075419
aF0.0028608565087324678
aF0.01215001417995154
aF0.006288287350798782
aF0.019779937242219603
aF0.0017509721019450808
aF0.001197583627572385
aF0.00199922961496668
aF0.0011951499907354446
aF0.0008294269263160459
aF0.0029388084562924632
ag147
ag147
aF0.06667500763569478
aF0.06325990530285708
aF0.0815418576871707
aF0.0028214663818744157
aF0.012474047516207065
aF0.006301404325995463
aF0.020228066797699285
aF0.002153308317247138
aF0.0013956671516552888
aF0.002323956543477834
aF0.001416276264762928
aF0.0009657020424356233
aF0.003144275087834103
ag147
ag147
aF0.06467128104077347
aF0.061307938638947235
aF0.07993991851708415
aF0.002812204113979533
aF0.012465871303902532
aF0.0063149763141154835
aF0.020297050959015905
aF0.002060668359945339
aF0.0012796529417755664
aF0.0021445973045501887
aF0.0013509543412055791
aF0.0009056181880851
aF0.003074254529110476
ag147
ag147
aF0.06538278998914393
aF0.06239203279619687
aF0.08083252541837282
aF0.0028144119823991787
aF0.012391920850404858
aF0.006330221467578667
aF0.025746673975390877
aF0.002121701269516052
aF0.0013500287038823444
aF0.002178671087449402
aF0.001388656651670317
aF0.0009412022844799139
aF0.003119620266261336
ag147
ag147
aF0.06538278998914393
aF0.06239203279619687
aF0.08083252541837282
aF0.0028144119823991787
aF0.012391920850404858
aF0.006330221467578667
aF0.025746673975390877
aF0.002121701269516052
aF0.0013500287038823444
aF0.002178671087449402
aF0.001388656651670317
aF0.0009412022844799139
aF0.003119620266261336
ag147
ag147
atp217
ba(lp218
g15
(g16
(dp219
g18
g19
(g20
(I0
tp220
g22
tp221
Rp222
(I1
(I1
tp223
g29
I00
(lp224
g43
atp225
bsg68
Nstp226
Rp227
ag15
(g16
(dp228
g18
g19
(g20
(I0
tp229
g22
tp230
Rp231
(I1
(I33
tp232
g29
I00
(lp233
g33
ag34
ag35
ag36
ag37
ag38
ag39
ag40
ag41
ag42
ag44
ag45
ag46
ag47
ag48
ag49
ag50
ag51
ag52
ag53
ag54
ag55
ag56
ag57
ag58
ag59
ag60
ag61
ag62
ag63
ag64
ag65
ag66
atp234
bsg68
Nstp235
Rp236
a(dp237
S'0.14.1'
p238
(dp239
S'axes'
p240
g14
sS'blocks'
p241
(lp242
(dp243
S'mgr_locs'
p244
c__builtin__
slice
p245
(I10
I11
I1
tp246
Rp247
sS'values'
p248
g89
sa(dp249
g244
g19
(g20
(I0
tp250
g22
tp251
Rp252
(I1
(I33
tp253
g79
I00
S'\x00\x00\x00\x00\x00\x00\x00\x00\x01\x00\x00\x00\x00\x00\x00\x00\x02\x00\x00\x00\x00\x00\x00\x00\x03\x00\x00\x00\x00\x00\x00\x00\x04\x00\x00\x00\x00\x00\x00\x00\x05\x00\x00\x00\x00\x00\x00\x00\x06\x00\x00\x00\x00\x00\x00\x00\x07\x00\x00\x00\x00\x00\x00\x00\x08\x00\x00\x00\x00\x00\x00\x00\t\x00\x00\x00\x00\x00\x00\x00\x0b\x00\x00\x00\x00\x00\x00\x00\x0c\x00\x00\x00\x00\x00\x00\x00\r\x00\x00\x00\x00\x00\x00\x00\x0e\x00\x00\x00\x00\x00\x00\x00\x0f\x00\x00\x00\x00\x00\x00\x00\x10\x00\x00\x00\x00\x00\x00\x00\x11\x00\x00\x00\x00\x00\x00\x00\x12\x00\x00\x00\x00\x00\x00\x00\x13\x00\x00\x00\x00\x00\x00\x00\x14\x00\x00\x00\x00\x00\x00\x00\x15\x00\x00\x00\x00\x00\x00\x00\x16\x00\x00\x00\x00\x00\x00\x00\x17\x00\x00\x00\x00\x00\x00\x00\x18\x00\x00\x00\x00\x00\x00\x00\x19\x00\x00\x00\x00\x00\x00\x00\x1a\x00\x00\x00\x00\x00\x00\x00\x1b\x00\x00\x00\x00\x00\x00\x00\x1c\x00\x00\x00\x00\x00\x00\x00\x1d\x00\x00\x00\x00\x00\x00\x00\x1e\x00\x00\x00\x00\x00\x00\x00\x1f\x00\x00\x00\x00\x00\x00\x00 \x00\x00\x00\x00\x00\x00\x00!\x00\x00\x00\x00\x00\x00\x00'
p254
tp255
bsg248
g100
sasstp256
bsb.