ccopy_reg
_reconstructor
p0
(cpandas.core.frame
DataFrame
p1
c__builtin__
object
p2
Ntp3
Rp4
(dp5
S'_metadata'
p6
(lp7
sS'_typ'
p8
S'dataframe'
p9
sS'_data'
p10
g0
(cpandas.core.internals
BlockManager
p11
g2
Ntp12
Rp13
((lp14
cpandas.core.indexes.base
_new_Index
p15
(cpandas.core.indexes.base
Index
p16
(dp17
S'data'
p18
cnumpy.core.multiarray
_reconstruct
p19
(cnumpy
ndarray
p20
(I0
tp21
S'b'
p22
tp23
Rp24
(I1
(I34
tp25
cnumpy
dtype
p26
(S'O8'
p27
I0
I1
tp28
Rp29
(I3
S'|'
p30
NNNI-1
I-1
I63
tp31
bI00
(lp32
S'year'
p33
aS'type'
p34
aS'procOriginal'
p35
aS'proc'
p36
aS'proc_s0'
p37
aS'cat'
p38
aS'inputWSFile'
p39
aS'nominalDataName'
p40
aS'modelWSFile'
p41
aS'model'
p42
aS'rate'
p43
aS'nominal_yield'
p44
aS'sumw2'
p45
aS'nominal_yield_COWCorr'
p46
aS'LooseMvaSF_up_yield'
p47
aS'LooseMvaSF_down_yield'
p48
aS'PreselSF_up_yield'
p49
aS'PreselSF_down_yield'
p50
aS'electronVetoSF_up_yield'
p51
aS'electronVetoSF_down_yield'
p52
aS'TriggerWeight_up_yield'
p53
aS'TriggerWeight_down_yield'
p54
aS'SigmaEOverEShift_up_yield'
p55
aS'SigmaEOverEShift_down_yield'
p56
aS'MvaShift_up_yield'
p57
aS'MvaShift_down_yield'
p58
aS'PUJIDShift_up_yield'
p59
aS'PUJIDShift_down_yield'
p60
aS'JEC_up_yield'
p61
aS'JEC_down_yield'
p62
aS'JER_up_yield'
p63
aS'JER_down_yield'
p64
aS'JetHEM_up_yield'
p65
aS'JetHEM_down_yield'
p66
atp67
bsS'name'
p68
Nstp69
Rp70
ag15
(cpandas.core.indexes.numeric
Int64Index
p71
(dp72
g18
g19
(g20
(I0
tp73
g22
tp74
Rp75
(I1
(I54
tp76
g26
(S'i8'
p77
I0
I1
tp78
Rp79
(I3
S'<'
p80
NNNI-1
I-1
I0
tp81
bI00
S'\x00\x00\x00\x00\x00\x00\x00\x00\x01\x00\x00\x00\x00\x00\x00\x00\x02\x00\x00\x00\x00\x00\x00\x00\x03\x00\x00\x00\x00\x00\x00\x00\x04\x00\x00\x00\x00\x00\x00\x00\x05\x00\x00\x00\x00\x00\x00\x00\x06\x00\x00\x00\x00\x00\x00\x00\x07\x00\x00\x00\x00\x00\x00\x00\x08\x00\x00\x00\x00\x00\x00\x00\t\x00\x00\x00\x00\x00\x00\x00\n\x00\x00\x00\x00\x00\x00\x00\x0b\x00\x00\x00\x00\x00\x00\x00\x0c\x00\x00\x00\x00\x00\x00\x00\r\x00\x00\x00\x00\x00\x00\x00\x0e\x00\x00\x00\x00\x00\x00\x00\x0f\x00\x00\x00\x00\x00\x00\x00\x10\x00\x00\x00\x00\x00\x00\x00\x11\x00\x00\x00\x00\x00\x00\x00\x12\x00\x00\x00\x00\x00\x00\x00\x13\x00\x00\x00\x00\x00\x00\x00\x14\x00\x00\x00\x00\x00\x00\x00\x15\x00\x00\x00\x00\x00\x00\x00\x16\x00\x00\x00\x00\x00\x00\x00\x17\x00\x00\x00\x00\x00\x00\x00\x18\x00\x00\x00\x00\x00\x00\x00\x19\x00\x00\x00\x00\x00\x00\x00\x1a\x00\x00\x00\x00\x00\x00\x00\x1b\x00\x00\x00\x00\x00\x00\x00\x1c\x00\x00\x00\x00\x00\x00\x00\x1d\x00\x00\x00\x00\x00\x00\x00\x1e\x00\x00\x00\x00\x00\x00\x00\x1f\x00\x00\x00\x00\x00\x00\x00 \x00\x00\x00\x00\x00\x00\x00!\x00\x00\x00\x00\x00\x00\x00"\x00\x00\x00\x00\x00\x00\x00#\x00\x00\x00\x00\x00\x00\x00$\x00\x00\x00\x00\x00\x00\x00%\x00\x00\x00\x00\x00\x00\x00&\x00\x00\x00\x00\x00\x00\x00\'\x00\x00\x00\x00\x00\x00\x00(\x00\x00\x00\x00\x00\x00\x00)\x00\x00\x00\x00\x00\x00\x00*\x00\x00\x00\x00\x00\x00\x00+\x00\x00\x00\x00\x00\x00\x00,\x00\x00\x00\x00\x00\x00\x00-\x00\x00\x00\x00\x00\x00\x00.\x00\x00\x00\x00\x00\x00\x00/\x00\x00\x00\x00\x00\x00\x000\x00\x00\x00\x00\x00\x00\x001\x00\x00\x00\x00\x00\x00\x002\x00\x00\x00\x00\x00\x00\x003\x00\x00\x00\x00\x00\x00\x004\x00\x00\x00\x00\x00\x00\x005\x00\x00\x00\x00\x00\x00\x00'
p82
tp83
bsg68
Nstp84
Rp85
a(lp86
g19
(g20
(I0
tp87
g22
tp88
Rp89
(I1
(I1
I54
tp90
g26
(S'f8'
p91
I0
I1
tp92
Rp93
(I3
S'<'
p94
NNNI-1
I-1
I0
tp95
bI00
S'\x00\x00\x00\x00\x00\x10\xd3@\x00\x00\x00\x00\x00\x10\xd3@\x00\x00\x00\x00\x00\x10\xd3@\x00\x00\x00\x00\x00\x10\xd3@\x00\x00\x00\x00\x00\x10\xd3@\x00\x00\x00\x00\x00\x10\xd3@\x00\x00\x00\x00\x00\x10\xd3@\x00\x00\x00\x00\x00\x10\xd3@\x00\x00\x00\x00\x00\x10\xd3@\x00\x00\x00\x00\x00\x10\xd3@\x00\x00\x00\x00\x00\x10\xd3@\x00\x00\x00\x00\x00\x10\xd3@\x00\x00\x00\x00\x00\x10\xd3@\x00\x00\x00\x00\x80j\xd0@\x00\x00\x00\x00\x80j\xd0@\x00\x00\x00\x00\x80j\xd0@\x00\x00\x00\x00\x80j\xd0@\x00\x00\x00\x00\x80j\xd0@\x00\x00\x00\x00\x80j\xd0@\x00\x00\x00\x00\x80j\xd0@\x00\x00\x00\x00\x80j\xd0@\x00\x00\x00\x00\x80j\xd0@\x00\x00\x00\x00\x80j\xd0@\x00\x00\x00\x00\x80j\xd0@\x00\x00\x00\x00\x80j\xd0@\x00\x00\x00\x00\x80j\xd0@\x00\x00\x00\x00\x00A\xe4@\x00\x00\x00\x00\x00A\xe4@\x00\x00\x00\x00\x00A\xe4@\x00\x00\x00\x00\x00A\xe4@\x00\x00\x00\x00\x00A\xe4@\x00\x00\x00\x00\x00A\xe4@\x00\x00\x00\x00\x00A\xe4@\x00\x00\x00\x00\x00A\xe4@\x00\x00\x00\x00\x00A\xe4@\x00\x00\x00\x00\x00A\xe4@\x00\x00\x00\x00\x00A\xe4@\x00\x00\x00\x00\x00A\xe4@\x00\x00\x00\x00\x00A\xe4@\x00\x00\x00\x00\xc0\xfa\xec@\x00\x00\x00\x00\xc0\xfa\xec@\x00\x00\x00\x00\xc0\xfa\xec@\x00\x00\x00\x00\xc0\xfa\xec@\x00\x00\x00\x00\xc0\xfa\xec@\x00\x00\x00\x00\xc0\xfa\xec@\x00\x00\x00\x00\xc0\xfa\xec@\x00\x00\x00\x00\xc0\xfa\xec@\x00\x00\x00\x00\xc0\xfa\xec@\x00\x00\x00\x00\xc0\xfa\xec@\x00\x00\x00\x00\xc0\xfa\xec@\x00\x00\x00\x00\xc0\xfa\xec@\x00\x00\x00\x00\xc0\xfa\xec@\x00\x00\x00\x00\x00\x00\xf0?\x00\x00\x00\x00\x00\x00\xf0\xbf'
p96
tp97
bag19
(g20
(I0
tp98
g22
tp99
Rp100
(I1
(I33
I54
tp101
g29
I00
(lp102
S'2016preVFP'
p103
ag103
ag103
ag103
ag103
ag103
ag103
ag103
ag103
ag103
ag103
ag103
ag103
aS'2016postVFP'
p104
ag104
ag104
ag104
ag104
ag104
ag104
ag104
ag104
ag104
ag104
ag104
ag104
aS'2017'
p105
ag105
ag105
ag105
ag105
ag105
ag105
ag105
ag105
ag105
ag105
ag105
ag105
aS'2018'
p106
ag106
ag106
ag106
ag106
ag106
ag106
ag106
ag106
ag106
ag106
ag106
ag106
aS'merged'
p107
ag107
aS'sig'
p108
ag108
ag108
ag108
ag108
ag108
ag108
ag108
ag108
ag108
ag108
ag108
ag108
ag108
ag108
ag108
ag108
ag108
ag108
ag108
ag108
ag108
ag108
ag108
ag108
ag108
ag108
ag108
ag108
ag108
ag108
ag108
ag108
ag108
ag108
ag108
ag108
ag108
ag108
ag108
ag108
ag108
ag108
ag108
ag108
ag108
ag108
ag108
ag108
ag108
ag108
ag108
aS'bkg'
p109
ag18
aS'GG2HMf05ph0'
p110
aS'GG2HbsmM'
p111
aS'GG2Hsm'
p112
aS'TTHsm'
p113
aS'VBFMf05ph0'
p114
aS'VBFbsmM'
p115
aS'VBFsm'
p116
aS'WHMf05ph0'
p117
aS'WHbsmM'
p118
aS'WHsm'
p119
aS'ZHMf05ph0'
p120
aS'ZHbsmM'
p121
aS'ZHsm'
p122
ag110
ag111
ag112
ag113
ag114
ag115
ag116
ag117
ag118
ag119
ag120
ag121
ag122
ag110
ag111
ag112
ag113
ag114
ag115
ag116
ag117
ag118
ag119
ag120
ag121
ag122
ag110
ag111
ag112
ag113
ag114
ag115
ag116
ag117
ag118
ag119
ag120
ag121
ag122
aS'bkg_mass'
p123
aS'data_obs'
p124
aS'GG2HMf05ph0_2016preVFP_hgg'
p125
aS'GG2HbsmM_2016preVFP_hgg'
p126
aS'GG2Hsm_2016preVFP_hgg'
p127
aS'tth0P_2016preVFP_hgg'
p128
aS'vbf0Mf05ph0_2016preVFP_hgg'
p129
aS'vbf0M_2016preVFP_hgg'
p130
aS'vbf0P_2016preVFP_hgg'
p131
aS'wh0Mf05ph0_2016preVFP_hgg'
p132
aS'wh0M_2016preVFP_hgg'
p133
aS'wh0P_2016preVFP_hgg'
p134
aS'zh0Mf05ph0_2016preVFP_hgg'
p135
aS'zh0M_2016preVFP_hgg'
p136
aS'zh0P_2016preVFP_hgg'
p137
aS'GG2HMf05ph0_2016postVFP_hgg'
p138
aS'GG2HbsmM_2016postVFP_hgg'
p139
aS'GG2Hsm_2016postVFP_hgg'
p140
aS'tth0P_2016postVFP_hgg'
p141
aS'vbf0Mf05ph0_2016postVFP_hgg'
p142
aS'vbf0M_2016postVFP_hgg'
p143
aS'vbf0P_2016postVFP_hgg'
p144
aS'wh0Mf05ph0_2016postVFP_hgg'
p145
aS'wh0M_2016postVFP_hgg'
p146
aS'wh0P_2016postVFP_hgg'
p147
aS'zh0Mf05ph0_2016postVFP_hgg'
p148
aS'zh0M_2016postVFP_hgg'
p149
aS'zh0P_2016postVFP_hgg'
p150
aS'GG2HMf05ph0_2017_hgg'
p151
aS'GG2HbsmM_2017_hgg'
p152
aS'GG2Hsm_2017_hgg'
p153
aS'tth0P_2017_hgg'
p154
aS'vbf0Mf05ph0_2017_hgg'
p155
aS'vbf0M_2017_hgg'
p156
aS'vbf0P_2017_hgg'
p157
aS'wh0Mf05ph0_2017_hgg'
p158
aS'wh0M_2017_hgg'
p159
aS'wh0P_2017_hgg'
p160
aS'zh0Mf05ph0_2017_hgg'
p161
aS'zh0M_2017_hgg'
p162
aS'zh0P_2017_hgg'
p163
aS'GG2HMf05ph0_2018_hgg'
p164
aS'GG2HbsmM_2018_hgg'
p165
aS'GG2Hsm_2018_hgg'
p166
aS'tth0P_2018_hgg'
p167
aS'vbf0Mf05ph0_2018_hgg'
p168
aS'vbf0M_2018_hgg'
p169
aS'vbf0P_2018_hgg'
p170
aS'wh0Mf05ph0_2018_hgg'
p171
aS'wh0M_2018_hgg'
p172
aS'wh0P_2018_hgg'
p173
aS'zh0Mf05ph0_2018_hgg'
p174
aS'zh0M_2018_hgg'
p175
aS'zh0P_2018_hgg'
p176
ag123
ag124
aS'jjh0Mf05ph0'
p177
aS'jjh0M'
p178
aS'jjh0P'
p179
aS'tth0P'
p180
aS'vbf0Mf05ph0'
p181
aS'vbf0M'
p182
aS'vbf0P'
p183
aS'wh0Mf05ph0'
p184
aS'wh0M'
p185
aS'wh0P'
p186
aS'zh0Mf05ph0'
p187
aS'zh0M'
p188
aS'zh0P'
p189
ag177
ag178
ag179
ag180
ag181
ag182
ag183
ag184
ag185
ag186
ag187
ag188
ag189
ag177
ag178
ag179
ag180
ag181
ag182
ag183
ag184
ag185
ag186
ag187
ag188
ag189
ag177
ag178
ag179
ag180
ag181
ag182
ag183
ag184
ag185
ag186
ag187
ag188
ag189
aS'-'
p190
ag190
aS'AC_Bin28'
p191
ag191
ag191
ag191
ag191
ag191
ag191
ag191
ag191
ag191
ag191
ag191
ag191
ag191
ag191
ag191
ag191
ag191
ag191
ag191
ag191
ag191
ag191
ag191
ag191
ag191
ag191
ag191
ag191
ag191
ag191
ag191
ag191
ag191
ag191
ag191
ag191
ag191
ag191
ag191
ag191
ag191
ag191
ag191
ag191
ag191
ag191
ag191
ag191
ag191
ag191
ag191
ag191
ag191
aS'Trees/Opt_RunII/RunII/Trees2WS_RunII/WS_2016preVFP/output_GluGluHToGGPlusTwoJets_MM_M125_TuneCP5_13TeV-amcatnlopowheg-minlo-pythia8_GG2HMf05ph0.root'
p192
aS'Trees/Opt_RunII/RunII/Trees2WS_RunII/WS_2016preVFP/output_GluGluHToGGPlusTwoJets_CPodd_M125_TuneCP5_13TeV-amcatnlopowheg-minlo-pythia8_GG2HbsmM.root'
p193
aS'Trees/Opt_RunII/RunII/Trees2WS_RunII/WS_2016preVFP/output_GluGluHToGGPlusTwoJets_SM_M125_TuneCP5_13TeV-amcatnlopowheg-minlo-pythia8_GG2Hsm.root'
p194
aS'Trees/Opt_RunII/RunII/Trees2WS_RunII/WS_2016preVFP/output_ttHJetToGG_M125_TuneCP5_13TeV-amcatnloFXFX-madspin-pythia8_TTHsm.root'
p195
aS'Trees/Opt_RunII/RunII/Trees2WS_RunII/WS_2016preVFP/output_VBFHiggs0Mf05ph0ToGG_M125_TuneCP5_13TeV-JHUGenV7011-pythia8_VBFMf05ph0.root'
p196
aS'Trees/Opt_RunII/RunII/Trees2WS_RunII/WS_2016preVFP/output_VBFHiggs0MToGG_M125_TuneCP5_13TeV-JHUGenV7011-pythia8_VBFbsmM.root'
p197
aS'Trees/Opt_RunII/RunII/Trees2WS_RunII/WS_2016preVFP/output_VBFHToGG_M125_TuneCP5_13TeV-amcatnlo-pythia8_VBFsm.root'
p198
aS'Trees/Opt_RunII/RunII/Trees2WS_RunII/WS_2016preVFP/output_WHiggs0Mf05ph0ToGG_M125_TuneCP5_13TeV-JHUGenV7011-pythia8_WHMf05ph0.root'
p199
aS'Trees/Opt_RunII/RunII/Trees2WS_RunII/WS_2016preVFP/output_WHiggs0MToGG_M125_TuneCP5_13TeV-JHUGenV7011-pythia8_WHbsmM.root'
p200
aS'Trees/Opt_RunII/RunII/Trees2WS_RunII/WS_2016preVFP/output_WHiggs0PMToGG_M125_TuneCP5_13TeV-JHUGenV7011-pythia8_WHsm.root'
p201
aS'Trees/Opt_RunII/RunII/Trees2WS_RunII/WS_2016preVFP/output_ZHiggs0Mf05ph0ToGG_M125_TuneCP5_13TeV-JHUGenV7011-pythia8_ZHMf05ph0.root'
p202
aS'Trees/Opt_RunII/RunII/Trees2WS_RunII/WS_2016preVFP/output_ZHiggs0MToGG_M125_TuneCP5_13TeV-JHUGenV7011-pythia8_ZHbsmM.root'
p203
aS'Trees/Opt_RunII/RunII/Trees2WS_RunII/WS_2016preVFP/output_ZH_HToGG_ZToAll_M125_TuneCP5_13TeV-powheg-pythia8_ZHsm.root'
p204
aS'Trees/Opt_RunII/RunII/Trees2WS_RunII/WS_2016postVFP/output_GluGluHToGGPlusTwoJets_MM_M125_TuneCP5_13TeV-amcatnlopowheg-minlo-pythia8_GG2HMf05ph0.root'
p205
aS'Trees/Opt_RunII/RunII/Trees2WS_RunII/WS_2016postVFP/output_GluGluHToGGPlusTwoJets_CPodd_M125_TuneCP5_13TeV-amcatnlopowheg-minlo-pythia8_GG2HbsmM.root'
p206
aS'Trees/Opt_RunII/RunII/Trees2WS_RunII/WS_2016postVFP/output_GluGluHToGGPlusTwoJets_SM_M125_TuneCP5_13TeV-amcatnlopowheg-minlo-pythia8_GG2Hsm.root'
p207
aS'Trees/Opt_RunII/RunII/Trees2WS_RunII/WS_2016postVFP/output_ttHJetToGG_M125_TuneCP5_13TeV-amcatnloFXFX-madspin-pythia8_TTHsm.root'
p208
aS'Trees/Opt_RunII/RunII/Trees2WS_RunII/WS_2016postVFP/output_VBFHiggs0Mf05ph0ToGG_M125_TuneCP5_13TeV-JHUGenV7011-pythia8_VBFMf05ph0.root'
p209
aS'Trees/Opt_RunII/RunII/Trees2WS_RunII/WS_2016postVFP/output_VBFHiggs0MToGG_M125_TuneCP5_13TeV-JHUGenV7011-pythia8_VBFbsmM.root'
p210
aS'Trees/Opt_RunII/RunII/Trees2WS_RunII/WS_2016postVFP/output_VBFHToGG_M125_TuneCP5_13TeV-amcatnlo-pythia8_VBFsm.root'
p211
aS'Trees/Opt_RunII/RunII/Trees2WS_RunII/WS_2016postVFP/output_WHiggs0Mf05ph0ToGG_M125_TuneCP5_13TeV-JHUGenV7011-pythia8_WHMf05ph0.root'
p212
aS'Trees/Opt_RunII/RunII/Trees2WS_RunII/WS_2016postVFP/output_WHiggs0MToGG_M125_TuneCP5_13TeV-JHUGenV7011-pythia8_WHbsmM.root'
p213
aS'Trees/Opt_RunII/RunII/Trees2WS_RunII/WS_2016postVFP/output_WHiggs0PMToGG_M125_TuneCP5_13TeV-JHUGenV7011-pythia8_WHsm.root'
p214
aS'Trees/Opt_RunII/RunII/Trees2WS_RunII/WS_2016postVFP/output_ZHiggs0Mf05ph0ToGG_M125_TuneCP5_13TeV-JHUGenV7011-pythia8_ZHMf05ph0.root'
p215
aS'Trees/Opt_RunII/RunII/Trees2WS_RunII/WS_2016postVFP/output_ZHiggs0MToGG_M125_TuneCP5_13TeV-JHUGenV7011-pythia8_ZHbsmM.root'
p216
aS'Trees/Opt_RunII/RunII/Trees2WS_RunII/WS_2016postVFP/output_ZH_HToGG_ZToAll_M125_TuneCP5_13TeV-powheg-pythia8_ZHsm.root'
p217
aS'Trees/Opt_RunII/RunII/Trees2WS_RunII/WS_2017/output_GluGluHToGGPlusTwoJets_MM_M125_TuneCP5_13TeV-amcatnlopowheg-minlo-pythia8_GG2HMf05ph0.root'
p218
aS'Trees/Opt_RunII/RunII/Trees2WS_RunII/WS_2017/output_GluGluHToGGPlusTwoJets_CPodd_M125_TuneCP5_13TeV-amcatnlopowheg-minlo-pythia8_GG2HbsmM.root'
p219
aS'Trees/Opt_RunII/RunII/Trees2WS_RunII/WS_2017/output_GluGluHToGGPlusTwoJets_SM_M125_TuneCP5_13TeV-amcatnlopowheg-minlo-pythia8_GG2Hsm.root'
p220
aS'Trees/Opt_RunII/RunII/Trees2WS_RunII/WS_2017/output_ttHJetToGG_M125_TuneCP5_13TeV-amcatnloFXFX-madspin-pythia8_TTHsm.root'
p221
aS'Trees/Opt_RunII/RunII/Trees2WS_RunII/WS_2017/output_VBFHiggs0Mf05ph0ToGG_M125_TuneCP5_13TeV-JHUGenV7011-pythia8_VBFMf05ph0.root'
p222
aS'Trees/Opt_RunII/RunII/Trees2WS_RunII/WS_2017/output_VBFHiggs0MToGG_M125_TuneCP5_13TeV-JHUGenV7011-pythia8_VBFbsmM.root'
p223
aS'Trees/Opt_RunII/RunII/Trees2WS_RunII/WS_2017/output_VBFHToGG_M125_TuneCP5_13TeV-amcatnlo-pythia8_VBFsm.root'
p224
aS'Trees/Opt_RunII/RunII/Trees2WS_RunII/WS_2017/output_WHiggs0Mf05ph0ToGG_M125_TuneCP5_13TeV-JHUGenV7011-pythia8_WHMf05ph0.root'
p225
aS'Trees/Opt_RunII/RunII/Trees2WS_RunII/WS_2017/output_WHiggs0MToGG_M125_TuneCP5_13TeV-JHUGenV7011-pythia8_WHbsmM.root'
p226
aS'Trees/Opt_RunII/RunII/Trees2WS_RunII/WS_2017/output_WHiggs0PMToGG_M125_TuneCP5_13TeV-JHUGenV7011-pythia8_WHsm.root'
p227
aS'Trees/Opt_RunII/RunII/Trees2WS_RunII/WS_2017/output_ZHiggs0Mf05ph0ToGG_M125_TuneCP5_13TeV-JHUGenV7011-pythia8_ZHMf05ph0.root'
p228
aS'Trees/Opt_RunII/RunII/Trees2WS_RunII/WS_2017/output_ZHiggs0MToGG_M125_TuneCP5_13TeV-JHUGenV7011-pythia8_ZHbsmM.root'
p229
aS'Trees/Opt_RunII/RunII/Trees2WS_RunII/WS_2017/output_ZH_HToGG_ZToAll_M125_TuneCP5_13TeV-powheg-pythia8_ZHsm.root'
p230
aS'Trees/Opt_RunII/RunII/Trees2WS_RunII/WS_2018/output_GluGluHToGGPlusTwoJets_MM_M125_TuneCP5_13TeV-amcatnlopowheg-minlo-pythia8_GG2HMf05ph0.root'
p231
aS'Trees/Opt_RunII/RunII/Trees2WS_RunII/WS_2018/output_GluGluHToGGPlusTwoJets_CPodd_M125_TuneCP5_13TeV-amcatnlopowheg-minlo-pythia8_GG2HbsmM.root'
p232
aS'Trees/Opt_RunII/RunII/Trees2WS_RunII/WS_2018/output_GluGluHToGGPlusTwoJets_SM_M125_TuneCP5_13TeV-amcatnlopowheg-minlo-pythia8_GG2Hsm.root'
p233
aS'Trees/Opt_RunII/RunII/Trees2WS_RunII/WS_2018/output_ttHJetToGG_M125_TuneCP5_13TeV-amcatnloFXFX-madspin-pythia8_TTHsm.root'
p234
aS'Trees/Opt_RunII/RunII/Trees2WS_RunII/WS_2018/output_VBFHiggs0Mf05ph0ToGG_M125_TuneCP5_13TeV-JHUGenV7011-pythia8_VBFMf05ph0.root'
p235
aS'Trees/Opt_RunII/RunII/Trees2WS_RunII/WS_2018/output_VBFHiggs0MToGG_M125_TuneCP5_13TeV-JHUGenV7011-pythia8_VBFbsmM.root'
p236
aS'Trees/Opt_RunII/RunII/Trees2WS_RunII/WS_2018/output_VBFHToGG_M125_TuneCP5_13TeV-amcatnlo-pythia8_VBFsm.root'
p237
aS'Trees/Opt_RunII/RunII/Trees2WS_RunII/WS_2018/output_WHiggs0Mf05ph0ToGG_M125_TuneCP5_13TeV-JHUGenV7011-pythia8_WHMf05ph0.root'
p238
aS'Trees/Opt_RunII/RunII/Trees2WS_RunII/WS_2018/output_WHiggs0MToGG_M125_TuneCP5_13TeV-JHUGenV7011-pythia8_WHbsmM.root'
p239
aS'Trees/Opt_RunII/RunII/Trees2WS_RunII/WS_2018/output_WHiggs0PMToGG_M125_TuneCP5_13TeV-JHUGenV7011-pythia8_WHsm.root'
p240
aS'Trees/Opt_RunII/RunII/Trees2WS_RunII/WS_2018/output_ZHiggs0Mf05ph0ToGG_M125_TuneCP5_13TeV-JHUGenV7011-pythia8_ZHMf05ph0.root'
p241
aS'Trees/Opt_RunII/RunII/Trees2WS_RunII/WS_2018/output_ZHiggs0MToGG_M125_TuneCP5_13TeV-JHUGenV7011-pythia8_ZHbsmM.root'
p242
aS'Trees/Opt_RunII/RunII/Trees2WS_RunII/WS_2018/output_ZH_HToGG_ZToAll_M125_TuneCP5_13TeV-powheg-pythia8_ZHsm.root'
p243
ag190
ag190
aS'jjh0Mf05ph0_125_13TeV_AC_Bin28'
p244
aS'jjh0M_125_13TeV_AC_Bin28'
p245
aS'jjh0P_125_13TeV_AC_Bin28'
p246
aS'tth0P_125_13TeV_AC_Bin28'
p247
aS'vbf0Mf05ph0_125_13TeV_AC_Bin28'
p248
aS'vbf0M_125_13TeV_AC_Bin28'
p249
aS'vbf0P_125_13TeV_AC_Bin28'
p250
aS'wh0Mf05ph0_125_13TeV_AC_Bin28'
p251
aS'wh0M_125_13TeV_AC_Bin28'
p252
aS'wh0P_125_13TeV_AC_Bin28'
p253
aS'zh0Mf05ph0_125_13TeV_AC_Bin28'
p254
aS'zh0M_125_13TeV_AC_Bin28'
p255
aS'zh0P_125_13TeV_AC_Bin28'
p256
aS'jjh0Mf05ph0_125_13TeV_AC_Bin28'
p257
aS'jjh0M_125_13TeV_AC_Bin28'
p258
aS'jjh0P_125_13TeV_AC_Bin28'
p259
aS'tth0P_125_13TeV_AC_Bin28'
p260
aS'vbf0Mf05ph0_125_13TeV_AC_Bin28'
p261
aS'vbf0M_125_13TeV_AC_Bin28'
p262
aS'vbf0P_125_13TeV_AC_Bin28'
p263
aS'wh0Mf05ph0_125_13TeV_AC_Bin28'
p264
aS'wh0M_125_13TeV_AC_Bin28'
p265
aS'wh0P_125_13TeV_AC_Bin28'
p266
aS'zh0Mf05ph0_125_13TeV_AC_Bin28'
p267
aS'zh0M_125_13TeV_AC_Bin28'
p268
aS'zh0P_125_13TeV_AC_Bin28'
p269
aS'jjh0Mf05ph0_125_13TeV_AC_Bin28'
p270
aS'jjh0M_125_13TeV_AC_Bin28'
p271
aS'jjh0P_125_13TeV_AC_Bin28'
p272
aS'tth0P_125_13TeV_AC_Bin28'
p273
aS'vbf0Mf05ph0_125_13TeV_AC_Bin28'
p274
aS'vbf0M_125_13TeV_AC_Bin28'
p275
aS'vbf0P_125_13TeV_AC_Bin28'
p276
aS'wh0Mf05ph0_125_13TeV_AC_Bin28'
p277
aS'wh0M_125_13TeV_AC_Bin28'
p278
aS'wh0P_125_13TeV_AC_Bin28'
p279
aS'zh0Mf05ph0_125_13TeV_AC_Bin28'
p280
aS'zh0M_125_13TeV_AC_Bin28'
p281
aS'zh0P_125_13TeV_AC_Bin28'
p282
aS'jjh0Mf05ph0_125_13TeV_AC_Bin28'
p283
aS'jjh0M_125_13TeV_AC_Bin28'
p284
aS'jjh0P_125_13TeV_AC_Bin28'
p285
aS'tth0P_125_13TeV_AC_Bin28'
p286
aS'vbf0Mf05ph0_125_13TeV_AC_Bin28'
p287
aS'vbf0M_125_13TeV_AC_Bin28'
p288
aS'vbf0P_125_13TeV_AC_Bin28'
p289
aS'wh0Mf05ph0_125_13TeV_AC_Bin28'
p290
aS'wh0M_125_13TeV_AC_Bin28'
p291
aS'wh0P_125_13TeV_AC_Bin28'
p292
aS'zh0Mf05ph0_125_13TeV_AC_Bin28'
p293
aS'zh0M_125_13TeV_AC_Bin28'
p294
aS'zh0P_125_13TeV_AC_Bin28'
p295
ag190
ag190
aS'./Models/signal/CMS-HGG_sigfit_packaged_AC_Bin28.root'
p296
aS'./Models/signal/CMS-HGG_sigfit_packaged_AC_Bin28.root'
p297
aS'./Models/signal/CMS-HGG_sigfit_packaged_AC_Bin28.root'
p298
aS'./Models/signal/CMS-HGG_sigfit_packaged_AC_Bin28.root'
p299
aS'./Models/signal/CMS-HGG_sigfit_packaged_AC_Bin28.root'
p300
aS'./Models/signal/CMS-HGG_sigfit_packaged_AC_Bin28.root'
p301
aS'./Models/signal/CMS-HGG_sigfit_packaged_AC_Bin28.root'
p302
aS'./Models/signal/CMS-HGG_sigfit_packaged_AC_Bin28.root'
p303
aS'./Models/signal/CMS-HGG_sigfit_packaged_AC_Bin28.root'
p304
aS'./Models/signal/CMS-HGG_sigfit_packaged_AC_Bin28.root'
p305
aS'./Models/signal/CMS-HGG_sigfit_packaged_AC_Bin28.root'
p306
aS'./Models/signal/CMS-HGG_sigfit_packaged_AC_Bin28.root'
p307
aS'./Models/signal/CMS-HGG_sigfit_packaged_AC_Bin28.root'
p308
aS'./Models/signal/CMS-HGG_sigfit_packaged_AC_Bin28.root'
p309
aS'./Models/signal/CMS-HGG_sigfit_packaged_AC_Bin28.root'
p310
aS'./Models/signal/CMS-HGG_sigfit_packaged_AC_Bin28.root'
p311
aS'./Models/signal/CMS-HGG_sigfit_packaged_AC_Bin28.root'
p312
aS'./Models/signal/CMS-HGG_sigfit_packaged_AC_Bin28.root'
p313
aS'./Models/signal/CMS-HGG_sigfit_packaged_AC_Bin28.root'
p314
aS'./Models/signal/CMS-HGG_sigfit_packaged_AC_Bin28.root'
p315
aS'./Models/signal/CMS-HGG_sigfit_packaged_AC_Bin28.root'
p316
aS'./Models/signal/CMS-HGG_sigfit_packaged_AC_Bin28.root'
p317
aS'./Models/signal/CMS-HGG_sigfit_packaged_AC_Bin28.root'
p318
aS'./Models/signal/CMS-HGG_sigfit_packaged_AC_Bin28.root'
p319
aS'./Models/signal/CMS-HGG_sigfit_packaged_AC_Bin28.root'
p320
aS'./Models/signal/CMS-HGG_sigfit_packaged_AC_Bin28.root'
p321
aS'./Models/signal/CMS-HGG_sigfit_packaged_AC_Bin28.root'
p322
aS'./Models/signal/CMS-HGG_sigfit_packaged_AC_Bin28.root'
p323
aS'./Models/signal/CMS-HGG_sigfit_packaged_AC_Bin28.root'
p324
aS'./Models/signal/CMS-HGG_sigfit_packaged_AC_Bin28.root'
p325
aS'./Models/signal/CMS-HGG_sigfit_packaged_AC_Bin28.root'
p326
aS'./Models/signal/CMS-HGG_sigfit_packaged_AC_Bin28.root'
p327
aS'./Models/signal/CMS-HGG_sigfit_packaged_AC_Bin28.root'
p328
aS'./Models/signal/CMS-HGG_sigfit_packaged_AC_Bin28.root'
p329
aS'./Models/signal/CMS-HGG_sigfit_packaged_AC_Bin28.root'
p330
aS'./Models/signal/CMS-HGG_sigfit_packaged_AC_Bin28.root'
p331
aS'./Models/signal/CMS-HGG_sigfit_packaged_AC_Bin28.root'
p332
aS'./Models/signal/CMS-HGG_sigfit_packaged_AC_Bin28.root'
p333
aS'./Models/signal/CMS-HGG_sigfit_packaged_AC_Bin28.root'
p334
aS'./Models/signal/CMS-HGG_sigfit_packaged_AC_Bin28.root'
p335
aS'./Models/signal/CMS-HGG_sigfit_packaged_AC_Bin28.root'
p336
aS'./Models/signal/CMS-HGG_sigfit_packaged_AC_Bin28.root'
p337
aS'./Models/signal/CMS-HGG_sigfit_packaged_AC_Bin28.root'
p338
aS'./Models/signal/CMS-HGG_sigfit_packaged_AC_Bin28.root'
p339
aS'./Models/signal/CMS-HGG_sigfit_packaged_AC_Bin28.root'
p340
aS'./Models/signal/CMS-HGG_sigfit_packaged_AC_Bin28.root'
p341
aS'./Models/signal/CMS-HGG_sigfit_packaged_AC_Bin28.root'
p342
aS'./Models/signal/CMS-HGG_sigfit_packaged_AC_Bin28.root'
p343
aS'./Models/signal/CMS-HGG_sigfit_packaged_AC_Bin28.root'
p344
aS'./Models/signal/CMS-HGG_sigfit_packaged_AC_Bin28.root'
p345
aS'./Models/signal/CMS-HGG_sigfit_packaged_AC_Bin28.root'
p346
aS'./Models/signal/CMS-HGG_sigfit_packaged_AC_Bin28.root'
p347
aS'./Models/background/CMS-HGG_multipdf_AC_Bin28.root'
p348
ag348
aS'wsig_13TeV:hggpdfsmrel_GG2HMf05ph0_2016preVFP_AC_Bin28_13TeV'
p349
aS'wsig_13TeV:hggpdfsmrel_GG2HbsmM_2016preVFP_AC_Bin28_13TeV'
p350
aS'wsig_13TeV:hggpdfsmrel_GG2Hsm_2016preVFP_AC_Bin28_13TeV'
p351
aS'wsig_13TeV:hggpdfsmrel_TTHsm_2016preVFP_AC_Bin28_13TeV'
p352
aS'wsig_13TeV:hggpdfsmrel_VBFMf05ph0_2016preVFP_AC_Bin28_13TeV'
p353
aS'wsig_13TeV:hggpdfsmrel_VBFbsmM_2016preVFP_AC_Bin28_13TeV'
p354
aS'wsig_13TeV:hggpdfsmrel_VBFsm_2016preVFP_AC_Bin28_13TeV'
p355
aS'wsig_13TeV:hggpdfsmrel_WHMf05ph0_2016preVFP_AC_Bin28_13TeV'
p356
aS'wsig_13TeV:hggpdfsmrel_WHbsmM_2016preVFP_AC_Bin28_13TeV'
p357
aS'wsig_13TeV:hggpdfsmrel_WHsm_2016preVFP_AC_Bin28_13TeV'
p358
aS'wsig_13TeV:hggpdfsmrel_ZHMf05ph0_2016preVFP_AC_Bin28_13TeV'
p359
aS'wsig_13TeV:hggpdfsmrel_ZHbsmM_2016preVFP_AC_Bin28_13TeV'
p360
aS'wsig_13TeV:hggpdfsmrel_ZHsm_2016preVFP_AC_Bin28_13TeV'
p361
aS'wsig_13TeV:hggpdfsmrel_GG2HMf05ph0_2016postVFP_AC_Bin28_13TeV'
p362
aS'wsig_13TeV:hggpdfsmrel_GG2HbsmM_2016postVFP_AC_Bin28_13TeV'
p363
aS'wsig_13TeV:hggpdfsmrel_GG2Hsm_2016postVFP_AC_Bin28_13TeV'
p364
aS'wsig_13TeV:hggpdfsmrel_TTHsm_2016postVFP_AC_Bin28_13TeV'
p365
aS'wsig_13TeV:hggpdfsmrel_VBFMf05ph0_2016postVFP_AC_Bin28_13TeV'
p366
aS'wsig_13TeV:hggpdfsmrel_VBFbsmM_2016postVFP_AC_Bin28_13TeV'
p367
aS'wsig_13TeV:hggpdfsmrel_VBFsm_2016postVFP_AC_Bin28_13TeV'
p368
aS'wsig_13TeV:hggpdfsmrel_WHMf05ph0_2016postVFP_AC_Bin28_13TeV'
p369
aS'wsig_13TeV:hggpdfsmrel_WHbsmM_2016postVFP_AC_Bin28_13TeV'
p370
aS'wsig_13TeV:hggpdfsmrel_WHsm_2016postVFP_AC_Bin28_13TeV'
p371
aS'wsig_13TeV:hggpdfsmrel_ZHMf05ph0_2016postVFP_AC_Bin28_13TeV'
p372
aS'wsig_13TeV:hggpdfsmrel_ZHbsmM_2016postVFP_AC_Bin28_13TeV'
p373
aS'wsig_13TeV:hggpdfsmrel_ZHsm_2016postVFP_AC_Bin28_13TeV'
p374
aS'wsig_13TeV:hggpdfsmrel_GG2HMf05ph0_2017_AC_Bin28_13TeV'
p375
aS'wsig_13TeV:hggpdfsmrel_GG2HbsmM_2017_AC_Bin28_13TeV'
p376
aS'wsig_13TeV:hggpdfsmrel_GG2Hsm_2017_AC_Bin28_13TeV'
p377
aS'wsig_13TeV:hggpdfsmrel_TTHsm_2017_AC_Bin28_13TeV'
p378
aS'wsig_13TeV:hggpdfsmrel_VBFMf05ph0_2017_AC_Bin28_13TeV'
p379
aS'wsig_13TeV:hggpdfsmrel_VBFbsmM_2017_AC_Bin28_13TeV'
p380
aS'wsig_13TeV:hggpdfsmrel_VBFsm_2017_AC_Bin28_13TeV'
p381
aS'wsig_13TeV:hggpdfsmrel_WHMf05ph0_2017_AC_Bin28_13TeV'
p382
aS'wsig_13TeV:hggpdfsmrel_WHbsmM_2017_AC_Bin28_13TeV'
p383
aS'wsig_13TeV:hggpdfsmrel_WHsm_2017_AC_Bin28_13TeV'
p384
aS'wsig_13TeV:hggpdfsmrel_ZHMf05ph0_2017_AC_Bin28_13TeV'
p385
aS'wsig_13TeV:hggpdfsmrel_ZHbsmM_2017_AC_Bin28_13TeV'
p386
aS'wsig_13TeV:hggpdfsmrel_ZHsm_2017_AC_Bin28_13TeV'
p387
aS'wsig_13TeV:hggpdfsmrel_GG2HMf05ph0_2018_AC_Bin28_13TeV'
p388
aS'wsig_13TeV:hggpdfsmrel_GG2HbsmM_2018_AC_Bin28_13TeV'
p389
aS'wsig_13TeV:hggpdfsmrel_GG2Hsm_2018_AC_Bin28_13TeV'
p390
aS'wsig_13TeV:hggpdfsmrel_TTHsm_2018_AC_Bin28_13TeV'
p391
aS'wsig_13TeV:hggpdfsmrel_VBFMf05ph0_2018_AC_Bin28_13TeV'
p392
aS'wsig_13TeV:hggpdfsmrel_VBFbsmM_2018_AC_Bin28_13TeV'
p393
aS'wsig_13TeV:hggpdfsmrel_VBFsm_2018_AC_Bin28_13TeV'
p394
aS'wsig_13TeV:hggpdfsmrel_WHMf05ph0_2018_AC_Bin28_13TeV'
p395
aS'wsig_13TeV:hggpdfsmrel_WHbsmM_2018_AC_Bin28_13TeV'
p396
aS'wsig_13TeV:hggpdfsmrel_WHsm_2018_AC_Bin28_13TeV'
p397
aS'wsig_13TeV:hggpdfsmrel_ZHMf05ph0_2018_AC_Bin28_13TeV'
p398
aS'wsig_13TeV:hggpdfsmrel_ZHbsmM_2018_AC_Bin28_13TeV'
p399
aS'wsig_13TeV:hggpdfsmrel_ZHsm_2018_AC_Bin28_13TeV'
p400
aS'multipdf:CMS_hgg_AC_Bin28_13TeV_bkgshape'
p401
aS'multipdf:roohist_data_mass_AC_Bin28'
p402
aF0.06097749868104074
aF0.04257167884293267
aF0.05312586943114184
aF0.004496471952961656
aF0.029274056252461378
aF0.031133988307828986
aF0.026409151823145294
aF0.002022255985366428
aF0.0035172575721844623
aF0.0011377898158571043
aF0.00038988904998404905
aF0.0009028085187310353
aF0.001496521543003837
aF0.06290879008952288
aF0.046693472186461804
aF0.060073782220342764
aF0.007085101050506637
aF0.032098874057624016
aF0.04106187366232916
aF0.027535091660865874
aF0.00039853235921327723
aF0.00176383897667165
aF0.0010280376341142983
aF0.001148748247317144
aF0.001645493610055837
aF0.002226133483304693
aF0.05742483875474136
aF0.042329326987783134
aF0.05618228493767674
aF0.00597730945105468
aF0.029929285569778585
aF0.03623369006231769
aF0.024689047932497488
aF0.002290732658593697
aF0.003424032154271117
aF0.0008433774735294719
aF0.0011875869915911608
aF0.0018999282960976416
aF0.001523195356639917
aF0.058514625792668085
aF0.04261271409495748
aF0.0572494167631703
aF0.00621606268123287
aF0.03263242244383946
aF0.03953869473411942
aF0.0242077493794568
aF0.002510238057539027
aF0.0032511865279047925
aF0.000979295365368671
aF0.0011822244593986397
aF0.001955848490297285
aF0.002057991255696834
ag190
ag190
aF1.2557989764818333e-05
aF1.2837987101551714e-05
aF5.928507899596021e-06
aF1.3877837100261355e-06
aF1.9332053090975427e-06
aF8.5705498044884e-06
aF6.048392668025331e-06
aF4.7006361098797185e-08
aF2.43416851561558e-07
aF7.969927291785983e-08
aF4.257378135107866e-08
aF1.2380334011072568e-07
aF3.9091519054685704e-08
aF1.4759676391798975e-06
aF1.0956236999346583e-06
aF1.3736790896833342e-06
aF2.1831521842926917e-06
aF5.223221329286183e-07
aF4.871469681060309e-07
aF1.4049464888403907e-06
aF8.64386816481516e-09
aF1.800238192475358e-08
aF1.0393785073133021e-08
aF7.793915213178864e-09
aF1.14197537680945e-08
aF3.948423483276662e-08
aF5.889230786836763e-07
aF4.31302498491318e-07
aF5.516859689524614e-07
aF8.235609021038677e-08
aF1.934282531327657e-07
aF1.7022626845776575e-07
aF5.695460360843459e-07
aF9.772753974088705e-09
aF1.4594529435253764e-08
aF3.840069678211088e-09
aF3.258174383486963e-09
aF5.217036351110652e-09
aF1.2930211614959715e-08
aF6.89361632152885e-07
aF4.2094713042135896e-07
aF5.729469755768507e-07
aF7.785454178043341e-08
aF2.1185451601490577e-07
aF1.8671068303711878e-07
aF6.540175497804682e-07
aF1.072384311052469e-08
aF1.389641533269957e-08
aF4.186325154675806e-09
aF3.396956212496665e-09
aF6.801400304622816e-09
aF1.6234041055574363e-08
ag190
ag190
aF0.06234440888875117
aF0.0435227745570821
aF0.05434737409672768
aF0.004606145666989838
aF0.02990695709235306
aF0.03176235123593617
aF0.027001305428064268
aF0.0020643627052430017
aF0.003587791093937863
aF0.0011624081569495892
aF0.00039862515950080015
aF0.0009181379051505224
aF0.0015282042509942222
aF0.06408226765025715
aF0.04757938818429098
aF0.06115036276805875
aF0.007198985616711269
aF0.032704400313295655
aF0.04184237234612875
aF0.02803128490549955
aF0.00040568094798988777
aF0.0017974618147081967
aF0.001044367194723408
aF0.0011739882857275388
aF0.0016746839350654877
aF0.002267201788168304
aF0.0596135802368931
aF0.04393289750857554
aF0.05834097329997734
aF0.006195992161948106
aF0.031016403931499528
aF0.03754181191647642
aF0.02564184700842723
aF0.0023737222112198146
aF0.003549244710750369
aF0.0008758199088531707
aF0.0012324213054157648
aF0.001969631105510131
aF0.0015806893638469197
aF0.060439693129668126
aF0.04401531211864015
aF0.059151066561063254
aF0.0064109123115546115
aF0.033653127961141144
aF0.04076940590004059
aF0.024999653480149965
aF0.0025921919630256572
aF0.0033539278279069
aF0.0010121896686549302
aF0.0012202236154495458
aF0.002018691536429574
aF0.002123782858997985
ag190
ag190
aF0.061380251241578726
aF0.04285335287234564
aF0.053476809466271244
aF0.004526404998450643
aF0.02946846907165934
aF0.031339808397203316
aF0.026581044429892557
aF0.0020355560206672704
aF0.003540509603948567
aF0.0011451887300480599
aF0.0003925477592403782
aF0.0009087615301636609
aF0.0015062058981178393
aF0.06335798875181353
aF0.04702818109375556
aF0.06050258804484801
aF0.007136545771330109
aF0.03232955608045888
aF0.04135771525265832
aF0.027730156555377958
aF0.0004013619422290649
aF0.0017763153926256337
aF0.00103498717130764
aF0.0011570812388387902
aF0.0016572133264563828
aF0.0022416856730178634
aF0.05782377634496156
aF0.0426250954536784
aF0.056572610398771775
aF0.006019812401797535
aF0.030139777416604206
aF0.036489562445160134
aF0.024858962432208122
aF0.002306818632215681
aF0.0034480844408868766
aF0.0008490701266374313
aF0.0011957326761533062
aF0.0019132277681382422
aF0.0015334951361608196
aF0.05887738787001085
aF0.04287610723281486
aF0.057603870278560634
aF0.0062549589822366
aF0.032836762269354336
aF0.03978790930695585
aF0.02435768219120168
aF0.002525816061108347
aF0.003271538804039877
aF0.00098531054112666
aF0.0011896087484515204
aF0.0019679369598974874
aF0.0020708607589321384
ag190
ag190
aF0.060576073699509556
aF0.04229093473826418
aF0.052776086340919855
aF0.004466638101875966
aF0.029080287726067338
aF0.030928847010676094
aF0.026237817336043176
aF0.0020089996011076446
aF0.0034940822110826283
aF0.001130414946845176
aF0.00038723938324439596
aF0.0008968751573697441
aF0.0014868685335352216
aF0.062461202562382336
aF0.04635996754359598
aF0.05964651363055263
aF0.007033844330197754
aF0.031869025514474
aF0.04076710470488067
aF0.027340721279252717
aF0.0003957130091189733
aF0.0017514071420082788
aF0.001021111969133706
aF0.001140445679748543
aF0.0016338159361642996
aF0.0022106361043518715
aF0.057027300837230795
aF0.04203460140924266
aF0.05579332809500554
aF0.005934958260464388
aF0.029719541660703362
aF0.03597873061325387
aF0.024519723907944747
aF0.0022747036954120286
aF0.003400065130910145
aF0.0008377042832894616
aF0.0011794696481122896
aF0.0018866759736345868
aF0.0015129308875224718
aF0.05815298676990182
aF0.04235013411509019
aF0.05689605890043716
aF0.006177287683832748
aF0.03242872228283565
aF0.039290265730566605
aF0.024058280124026124
aF0.0024947084412025996
aF0.0032308979800398496
aF0.0009732986923075588
aF0.0011748632181775083
aF0.0019437974464812447
aF0.0020451621507880896
ag190
ag190
aF0.06187736435587804
aF0.04320052318100995
aF0.05390340380112045
aF0.004564783255391623
aF0.029681373813254676
aF0.03155561582531226
aF0.026824082619153235
aF0.002051985094634071
aF0.0035645132861001788
aF0.0011522189887616426
aF0.0003944394653182933
aF0.0009124844856044418
aF0.0015240886926830995
aF0.06358401644212013
aF0.04720425111024123
aF0.060729264996711135
aF0.007147084998366932
aF0.03241779726159831
aF0.04146007512816277
aF0.02781967750039782
aF0.00040247526898700553
aF0.0017823364066708097
aF0.001039110410270626
aF0.0011614654137315375
aF0.001663049345261546
aF0.002251056658567436
aF0.05824056483995533
aF0.04292030198148572
aF0.056992184445922314
aF0.006058491508049492
aF0.030327058304453487
aF0.03671052529664819
aF0.02505189496515049
aF0.0023216329011404068
aF0.00347038368577774
aF0.0008557434190923138
aF0.0012043894315749311
aF0.0019256204480185561
aF0.0015453460506051056
aF0.059397021293169455
aF0.04325947710671288
aF0.05811028426776445
aF0.006311846989588502
aF0.033108976680003774
aF0.04010700928494026
aF0.024564941937606825
aF0.0025468526486741045
aF0.003298960227866777
aF0.000993785723794768
aF0.0011990982662907729
aF0.001984537068255519
aF0.002086709064286816
ag190
ag190
aF0.06008446655900402
aF0.04194727825019668
aF0.0523539947057788
aF0.00442859987488144
aF0.028869513226905605
aF0.030715159842200242
aF0.025997618847578112
aF0.0019927452011431466
aF0.003470313939127685
aF0.0011234513306912024
aF0.0003853650073963477
aF0.0008931854974390753
aF0.0014692986863777304
aF0.06223709250113046
aF0.04618543735999624
aF0.059421725950281445
aF0.007023243529659315
aF0.0317815478742577
aF0.0406656193688654
aF0.02725191628942305
aF0.0003946067732999551
aF0.0017454343551728201
aF0.0010170236968164818
aF0.001136093322005668
aF0.0016280308215503526
aF0.002201331014508724
aF0.05661485836390066
aF0.04174238771776277
aF0.0553780955731265
aF0.005896667494279883
aF0.02953416271917333
aF0.035759971089921856
aF0.024328844382173313
aF0.0022600363702530634
aF0.0033779926857623013
aF0.000831113567532487
aF0.001170906475474243
aF0.0018744116964774173
aF0.0015011876414493942
aF0.05763884536259838
aF0.041970846390176765
aF0.056394984177026444
aF0.006121001009249489
aF0.032159325034571466
aF0.03897447113229515
aF0.023853127409427854
aF0.002473895661508388
aF0.0032037619301882514
aF0.000964915311284386
aF0.0011654732854204472
aF0.0019273737893484746
aF0.0020294866307691553
ag190
ag190
aF0.061068764252276524
aF0.0426349024967676
aF0.053206055804424626
aF0.0045023934545016684
aF0.029315908715959724
aF0.031180419077302
aF0.02645407168380009
aF0.002025374236781143
aF0.003522353736797503
aF0.0011397434697832142
aF0.0003902799742975737
aF0.000904156958683496
aF0.0014991324155299859
aF0.06300697900421827
aF0.046765561401372426
aF0.06016739950968949
aF0.00709503064913622
aF0.03214592943891651
aF0.041120695066957924
aF0.02757886474821547
aF0.00039927036846578064
aF0.001766579249376098
aF0.001029871026847548
aF0.0011504908568346565
aF0.001648190911914646
aF0.002229838838757692
aF0.05757534408403171
aF0.04243910877733773
aF0.05632961485170502
aF0.005992465695185257
aF0.03000664721233595
aF0.03632524306636942
aF0.024756648487477998
aF0.0022966320190678075
aF0.0034325962102551657
aF0.0008458379791366611
aF0.0011910573668212857
aF0.0019046874023989952
aF0.001527773389622074
aF0.058607573702130995
aF0.04268159357668337
aF0.05734143334248583
aF0.006224957473440027
aF0.03268177465105293
aF0.03959788655492811
aF0.02424740152949152
aF0.0025143662423522855
aF0.0032562791827067594
aF0.0009809551605919305
aF0.0011841137320741137
aF0.001959021934315753
aF0.0020613883724750295
ag190
ag190
aF0.060886304104926736
aF0.04250850247272475
aF0.05304574546602851
aF0.004490553973605893
aF0.02923223382941527
aF0.03108759023584236
aF0.02636426925048339
aF0.0020191402443933268
aF0.0035121650076866307
aF0.0011358379891756856
aF0.00038949827548258336
aF0.0009014613839042397
aF0.0014939132709012115
aF0.06281068256907214
aF0.04662144012842815
aF0.059980241334191504
aF0.00707517722927563
aF0.03205185474085254
aF0.04100309814172206
aF0.027491353945056404
aF0.0003977953673990439
aF0.0017611010795797392
aF0.001026206081614439
aF0.0011470070176809784
aF0.001642798962730246
aF0.0022224313993738348
aF0.05727454639547733
aF0.04221970021741036
aF0.056035175450617807
aF0.005962172884769055
aF0.029852035404752054
aF0.036142265250401255
aF0.024621550457365752
aF0.0022848409020641215
aF0.003415479786287613
aF0.0008409204392608767
aF0.0011841220810648455
aF0.0018951757090122634
aF0.001518624896380283
aF0.058421764084493955
aF0.042543899562889606
aF0.0571574851117531
aF0.00620717509111993
aF0.032583115366779686
aF0.03947955842119178
aF0.024168135455509006
aF0.002506114062832337
aF0.003246098684933182
aF0.0009776372157157699
aF0.0011803369848829123
aF0.0019526782156071144
aF0.00205459753943709
ag190
ag190
aF0.061106234923835004
aF0.0426642274244014
aF0.05323741301526081
aF0.0045068403102964776
aF0.029335031394066808
aF0.03119749458007253
aF0.026470614256499304
aF0.002026412343925235
aF0.0035245583402303345
aF0.0011405381965351844
aF0.0003906726615997688
aF0.0009046216565372339
aF0.001499563817909697
aF0.06304409424835289
aF0.04679223749056782
aF0.060198700899033016
aF0.0070968634541697245
aF0.03216618887007954
aF0.04114912484070386
aF0.027592203908241998
aF0.00039935711343257576
aF0.0017677093908949329
aF0.0010301181841117371
aF0.001151354866151438
aF0.0016488307126741473
aF0.002230730401285119
aF0.05757056219438769
aF0.042435363002090006
aF0.056323587675639074
aF0.005992026131739957
aF0.03000469481416138
aF0.03632498153494957
aF0.024754098641716207
aF0.0022964244189394305
aF0.0034328537290239216
aF0.0008456472971631695
aF0.001190774717606409
aF0.001904871326378923
aF0.0015270391141096486
aF0.05864751108999187
aF0.042708633832790485
aF0.05737974865520876
aF0.006229738839794073
aF0.032703889879289356
aF0.039625335598837255
aF0.024261600264281792
aF0.002515936551923847
aF0.0032584861646951977
aF0.000981580470702884
aF0.0011848444213710615
aF0.0019602033015102814
aF0.0020624913987525558
ag190
ag190
aF0.0608488992203758
aF0.04247923059684483
aF0.053014442994320926
aF0.00448611763438212
aF0.029213145530925903
aF0.0310705480014843
aF0.0263477623417212
aF0.0020181039630008824
aF0.0035099644643870726
aF0.0011350446532801767
aF0.0003891062361958777
aF0.0009009972261082539
aF0.001493482378161862
aF0.06277363107673165
aF0.04659481111968181
aF0.059948993213505566
aF0.007073347822983623
aF0.03203162941706303
aF0.0409747144953954
aF0.027478037811006207
aF0.0003977084680059209
aF0.0017599727746896545
aF0.001025959195995889
aF0.0011461445378057702
aF0.0016421598824265964
aF0.0022215413143151434
aF0.057279299730404645
aF0.04222342315628008
aF0.05604116190987532
aF0.005962610893299052
aF0.029853971654021146
aF0.03614251571180168
aF0.024624086246949433
aF0.002285047854015414
aF0.0034152219507664304
aF0.0008411105972985951
aF0.001184403512727373
aF0.0018949915774547255
aF0.0015193563617020493
aF0.058381891270199125
aF0.04251690283645456
aF0.057119232294600426
aF0.006202401411242347
aF0.032561033397759086
aF0.0394521493715681
aF0.02415395796385042
aF0.002504545989008518
aF0.0032438951401896
aF0.0009770128876224196
aF0.0011796074104314016
aF0.001951498513490272
aF0.002053495992065396
ag190
ag190
aF0.060237489161636404
aF0.041716767621664985
aF0.05263085280762425
aF0.004360223946036967
aF0.028847938034914478
aF0.031077278482371185
aF0.027320604706005724
aF0.002009471756423409
aF0.003508162088564859
aF0.0009654142106683139
aF0.00038988904998404905
aF0.0009028085187310353
aF0.0014710901687067235
aF0.06228917746261686
aF0.04618834740290367
aF0.05939666557014789
aF0.006978960763262876
aF0.03187236504959401
aF0.04086289169754309
aF0.028184321002072465
aF0.0025951432849069533
aF0.0033770246425319783
aF0.0010118596542270097
aF0.0011336816231164448
aF0.001645493610055837
aF0.002216961851331689
aF0.056485630746465176
aF0.04178293233326258
aF0.055329629813968495
aF0.005829485715821647
aF0.029691325400563073
aF0.036038293765841445
aF0.023643014367280557
aF0.0022561107264209568
aF0.0033860208666283143
aF0.0008249836473623873
aF0.0011875869915911608
aF0.0018917499976396357
aF0.0015075527148837864
aF0.0580952464542861
aF0.042234500104314066
aF0.056810860145105835
aF0.0061765898717567325
aF0.032450723998863396
aF0.03944734940819217
aF0.023468306911127
aF0.0024935993778854026
aF0.0032471540139340505
aF0.0009752857688454242
aF0.00117707705067005
aF0.001952435099383365
aF0.00204234272996473
ag190
ag190
aF0.06149386376660004
aF0.04313401430886188
aF0.053386638977826806
aF0.004600384186687734
aF0.029436528682936114
aF0.0312677503826535
aF0.029191197934892443
aF0.002035935375943154
aF0.0035209623335958895
aF0.0011613068012366057
aF0.00047516299673588946
aF0.0009028085187310353
aF0.0015009245541932614
aF0.06355280527645846
aF0.04727868545751335
aF0.060876250750652616
aF0.007476744621271791
aF0.03226508566183384
aF0.04121082966821632
aF0.028933333630448033
aF0.0026198208847745263
aF0.003417854563963374
aF0.0010280376341142983
aF0.0011643912583281235
aF0.001670314024693198
aF0.002234464573916739
aF0.058106296249206935
aF0.04286096392843319
aF0.05679092355967441
aF0.005982674908636909
aF0.03010783722720589
aF0.03642702826414279
aF0.024355033857773378
aF0.002306932528881589
aF0.0034667737872950966
aF0.0008526843391791772
aF0.0012034025428420136
aF0.0019132206462018075
aF0.0015304747530535678
aF0.059040018907580816
aF0.04298244244773741
aF0.05772372713408913
aF0.006257140952811824
aF0.032760370530922955
aF0.039667951120236467
aF0.024246895432952442
aF0.002514348582508319
aF0.0032636600267323956
aF0.0009919434626226575
aF0.001196624727526796
aF0.001962759960179028
aF0.002089365151277889
ag190
ag190
aF0.06241772818702884
aF0.0430430907824757
aF0.05389091452911998
aF0.005009223387787642
aF0.02962356230614205
aF0.03144113817518246
aF0.027260463422067005
aF0.002079245288086895
aF0.0035922761967412953
aF0.0011571248769541853
aF0.00038988904998404905
aF0.0009028085187310353
aF0.0015181989590473677
aF0.06379075059817296
aF0.047565116308987854
aF0.0610616834967459
aF0.007798822935910721
aF0.03255255292356196
aF0.04164412771831394
aF0.027400177271829307
aF0.0026442631005920703
aF0.0034832653789180767
aF0.0010446795813550125
aF0.0011793744086503466
aF0.0017023996587681722
aF0.0022412851820945434
aF0.05904529530380387
aF0.043787134056401555
aF0.057823684366667294
aF0.006214414034729998
aF0.030818997928690806
aF0.03751094354674933
aF0.024783291570201982
aF0.002371367814248515
aF0.0035327732148289215
aF0.0008657798391595861
aF0.0012294859843677841
aF0.0019545996399301657
aF0.0015476007802135427
aF0.06031935862665705
aF0.04374147433100006
aF0.058627968990094814
aF0.0066038374598065275
aF0.0335662357288129
aF0.04064302984238566
aF0.024203519585626054
aF0.0026207723369680025
aF0.003350459108105497
aF0.000987800512348258
aF0.0011883932947966969
aF0.0020119397340749856
aF0.0020888465232928866
ag190
ag190
aF0.059860164609972344
aF0.04169276055949922
aF0.05217610673275885
aF0.004410911252875849
aF0.028960530441509036
aF0.030726198767411006
aF0.02737054799888483
aF0.0018355561630869488
aF0.0034541144707418425
aF0.0011268832749919966
aF0.00038988904998404905
aF0.0009028085187310353
aF0.001466889339781119
aF0.06181128724347218
aF0.045729682223054624
aF0.058993163846480456
aF0.007303647748813091
aF0.03160438564248125
aF0.040227007559337835
aF0.02640266918274392
aF0.0025951432849069533
aF0.003376257875288502
aF0.001008561997423385
aF0.0011509739421171616
aF0.0016249175334337451
aF0.002172400671838659
aF0.055827603147918126
aF0.04116557372708485
aF0.05460792296389627
aF0.005602579642527417
aF0.029098716625412635
aF0.03521539032635701
aF0.025011943065237574
aF0.0022534342626840953
aF0.0033358347918692743
aF0.0008125593342356296
aF0.001157397333145127
aF0.0018646509126938327
aF0.0014628203439315257
aF0.05687734277944401
aF0.04137081716726243
aF0.055665316902832274
aF0.005821593757445953
aF0.03166448471347394
aF0.03834790751579931
aF0.023385714256164647
aF0.0024713715947655146
aF0.0031525011443136464
aF0.0009450582094814308
aF0.0011513738977555477
aF0.0019047954554025637
aF0.0019826941770588746
ag190
ag190
aF0.06135521663236432
aF0.0430036996981471
aF0.053338042180712364
aF0.004483793014742332
aF0.029331626921930365
aF0.031160665266497745
aF0.02710206117751568
aF0.0020869795187081763
aF0.0035783007338068273
aF0.0011431062441715767
aF0.00038988904998404905
aF0.0009028085187310353
aF0.001496521543003837
aF0.06350712169819417
aF0.04718156226613246
aF0.060613555977624856
aF0.007085101050506637
aF0.03214445048286052
aF0.041106019926701265
aF0.027115325741419838
aF0.0026236637054353196
aF0.003478245778978817
aF0.0010460193248036376
aF0.0011619359045766942
aF0.0016576196514392905
aF0.002226133483304693
aF0.05785489334812155
aF0.0425954059974174
aF0.056561935698937305
aF0.005981680562172187
aF0.029993427885528945
aF0.036284242719602844
aF0.026086242467954435
aF0.002336388257390354
aF0.00348076713453338
aF0.0008524802676674881
aF0.0012186398892026773
aF0.0019080355243659142
aF0.001523195356639917
aF0.05894952261587605
aF0.04291439786311457
aF0.05768924281483123
aF0.0062114716163250705
aF0.032703148646305635
aF0.03960504957262856
aF0.02538420787641371
aF0.0025394927461093175
aF0.0033187964397711767
aF0.000979295365368671
aF0.0011999005525922257
aF0.001984201654295248
aF0.0020658162425206683
ag190
ag190
aF0.060414824365352615
aF0.0418109008612646
aF0.05272108802978437
aF0.004488906223627964
aF0.029106792699167272
aF0.031188009754259838
aF0.027217285604024255
aF0.0020003293145691714
aF0.003548115810872332
aF0.0011281248964678525
aF0.00038988904998404905
aF0.0009028085187310353
aF0.0015068890895690856
aF0.06251116086036745
aF0.04640238099113958
aF0.059804142597158716
aF0.007085101050506637
aF0.03198696206425211
aF0.041017775053660444
aF0.026694915591292556
aF0.002577684826519544
aF0.00334281347227261
aF0.0009840664702096547
aF0.0011000493494179864
aF0.001636900275741482
aF0.002215618821423959
aF0.056951664201733365
aF0.04193935502553359
aF0.055819516030169325
aF0.00597730945105468
aF0.02985245356876476
aF0.03618450997214495
aF0.023991188218587922
aF0.0022476805982023507
aF0.003329188367615643
aF0.0008385952853586787
aF0.0011652697389763489
aF0.0018589745266126556
aF0.0015142973988986341
aF0.058266619445021206
aF0.04232365378493341
aF0.056945198733501456
aF0.006219907313152362
aF0.032515758484350954
aF0.039471186940090774
aF0.023761539687711775
aF0.0024670386076195427
aF0.0031989068734219472
aF0.0009532968731491565
aF0.0011739741132714698
aF0.001921839288343108
aF0.002057991255696834
ag190
ag190
aF0.061332851134693556
aF0.043639497923095405
aF0.058078587157751826
aF0.004909510581114773
aF0.03026035463790322
aF0.03142799354782255
aF0.027216846149599405
aF0.002267036594844285
aF0.0036384919983447617
aF0.0011509298487908382
aF0.00038988904998404905
aF0.0008538501097064
aF0.0015643083265786117
aF0.06476973630947214
aF0.047841326442039644
aF0.0616029357959178
aF0.007479073409740522
aF0.03263463401071931
aF0.04175943582299624
aF0.026398487575420404
aF0.003002466273301252
aF0.003549041614633097
aF0.0010266310301858539
aF0.0012788386304123378
aF0.0017463378782736072
aF0.002253227091273402
aF0.05980436871686834
aF0.044572464199518436
aF0.05826733791127481
aF0.006064823767701455
aF0.030536337452303997
aF0.03677253664795899
aF0.023937878055676265
aF0.002527132077375427
aF0.0038550131016563682
aF0.0009918984826526867
aF0.0013118613487677067
aF0.0021483074065145047
aF0.0015907078245618322
aF0.060757862562240916
aF0.04438602384425394
aF0.05891039307243773
aF0.006250381769405067
aF0.033625637820478005
aF0.03996689151881583
aF0.023839619843329274
aF0.00270189578100144
aF0.0035680150970165414
aF0.0010472494598161575
aF0.00131627945938817
aF0.002141780780902991
aF0.0021097424946674437
ag190
ag190
aF0.05768140498230423
aF0.04178005579115052
aF0.05115188243007651
aF0.004010547000689257
aF0.028470061798316237
aF0.03103152368123574
aF0.026146914676587585
aF0.0017519555360649974
aF0.0029933634301642087
aF0.0011073490616126946
aF0.00038988904998404905
aF0.0009862767656159122
aF0.0014523054328492435
aF0.06102469315123926
aF0.045213466372615585
aF0.058351696498675665
aF0.006640533841164142
aF0.03162484345875782
aF0.04054502800283899
aF0.02673269946524215
aF0.0024285321419483807
aF0.0032061756854773193
aF0.000991729184079304
aF0.0011024775211012638
aF0.001594113907742667
aF0.0021741143769986593
aF0.05446407334693504
aF0.04006101821869379
aF0.05392943690958418
aF0.006044604388080188
aF0.02925188015024105
aF0.03587619498989625
aF0.025010682268657547
aF0.0019614483167060826
aF0.0028402461634868814
aF0.0007078186629314587
aF0.001011140804621391
aF0.001662965248897308
aF0.0014110520396570791
aF0.05623461935738305
aF0.040693050253594265
aF0.05540134806005881
aF0.006097610744973281
aF0.03182726827571969
aF0.03903784593308046
aF0.02402978747841189
aF0.0022667159603315667
aF0.0028238665972821764
aF0.000866521981834012
aF0.001047911005343849
aF0.0017682982881979115
aF0.0019425074751779903
ag190
ag190
aF0.05932875427379258
aF0.04240642517015658
aF0.053187023203236095
aF0.004582331845654153
aF0.029289280085549763
aF0.031103855815558745
aF0.02698628687414839
aF0.0019927025982724444
aF0.0032236541725296775
aF0.0011458551182386145
aF0.00038988904998404905
aF0.0008538501097064
aF0.001531481362917475
aF0.06310215801840968
aF0.046893702210354604
aF0.060576760750791436
aF0.007289023063094646
aF0.03217859086169028
aF0.041176609790568364
aF0.028522709663093337
aF0.002731314736593049
aF0.003387128190979638
aF0.0010200263077422278
aF0.001163540056779766
aF0.0016977439854031218
aF0.0022278662362396062
aF0.057528731505954056
aF0.042574202340802
aF0.056829412178103667
aF0.005933098192826947
aF0.02989076036510596
aF0.036338940193445524
aF0.02411775894188395
aF0.002284359615032372
aF0.003557825774350931
aF0.0008948850193064573
aF0.001206426525641291
aF0.0019830988594549126
aF0.0015831495666134288
aF0.05929565247606661
aF0.04297146726412393
aF0.05787580032256301
aF0.006273422299045706
aF0.03273671367469433
aF0.039617669616291096
aF0.024209760618305154
aF0.0025550819923410018
aF0.0032902532177558896
aF0.0009847137855558685
aF0.00118725834227007
aF0.0020238369420439994
aF0.002113147805630433
ag190
ag190
aF0.06092407808614553
aF0.04238046849832244
aF0.05193692725015353
aF0.0043572363349539955
aF0.029128736731763638
aF0.03109630241499417
aF0.029134360446619212
aF0.0020115694740070467
aF0.0034605019587843344
aF0.0011566046043753886
aF0.00038988904998404905
aF0.0009368242317577824
aF0.0014822759603703162
aF0.06256823585272286
aF0.04639146953309137
aF0.059725918848243964
aF0.006941234100850124
aF0.03209362849293029
aF0.040960132107102254
aF0.02801468945756369
aF0.0025601625698072894
aF0.00342097395446217
aF0.001033301649385976
aF0.0011634283985699767
aF0.0016290372543039666
aF0.0021920851601180402
aF0.05720337379807461
aF0.04195307506279278
aF0.056042023527425044
aF0.006068305314329336
aF0.029862874680020468
aF0.03626111725384362
aF0.02426734372102146
aF0.0022323938642330177
aF0.0032864397544472013
aF0.000794416969483791
aF0.0011270070019691047
aF0.0018654346472430916
aF0.0014401161452042288
aF0.05825322664622945
aF0.04230617399980474
aF0.056933285837203584
aF0.006253363877021911
aF0.0327323961687398
aF0.039569275456187825
aF0.023999886835554207
aF0.002442684924972127
aF0.003120950867469219
aF0.0009386518461269588
aF0.0011505517084060557
aF0.001885037601368822
aF0.002017891628838697
ag190
ag190
aF0.06097749868104074
aF0.04257167884293267
aF0.05312586943114184
aF0.004496471952961656
aF0.029274056252461378
aF0.031133988307828986
aF0.026409151823145294
aF0.002022255985366428
aF0.0035172575721844623
aF0.0011377898158571043
aF0.00038988904998404905
aF0.0009028085187310353
aF0.001496521543003837
aF0.06290879008952288
aF0.046693472186461804
aF0.060073782220342764
aF0.007085101050506637
aF0.032098874057624016
aF0.04106187366232916
aF0.027535091660865874
aF0.00039853235921327723
aF0.00176383897667165
aF0.0010280376341142983
aF0.001148748247317144
aF0.001645493610055837
aF0.002226133483304693
aF0.05742483875474136
aF0.042329326987783134
aF0.05618228493767674
aF0.00597730945105468
aF0.029929285569778585
aF0.03623369006231769
aF0.024689047932497488
aF0.002290732658593697
aF0.003424032154271117
aF0.0008433774735294719
aF0.0011875869915911608
aF0.0018999282960976416
aF0.001523195356639917
aF0.058923601482092636
aF0.042939944853515044
aF0.05768183376903835
aF0.006194560792209813
aF0.03271758876599051
aF0.03959848817544298
aF0.02539375954938805
aF0.0025630311431541486
aF0.0033669029762677383
aF0.0010094253195802594
aF0.0012178013296306744
aF0.0019766331574828655
aF0.0020983203748983215
ag190
ag190
aF0.06097749868104074
aF0.04257167884293267
aF0.05312586943114184
aF0.004496471952961656
aF0.029274056252461378
aF0.031133988307828986
aF0.026409151823145294
aF0.002022255985366428
aF0.0035172575721844623
aF0.0011377898158571043
aF0.00038988904998404905
aF0.0009028085187310353
aF0.001496521543003837
aF0.06290879008952288
aF0.046693472186461804
aF0.060073782220342764
aF0.007085101050506637
aF0.032098874057624016
aF0.04106187366232916
aF0.027535091660865874
aF0.00039853235921327723
aF0.00176383897667165
aF0.0010280376341142983
aF0.001148748247317144
aF0.001645493610055837
aF0.002226133483304693
aF0.05742483875474136
aF0.042329326987783134
aF0.05618228493767674
aF0.00597730945105468
aF0.029929285569778585
aF0.03623369006231769
aF0.024689047932497488
aF0.002290732658593697
aF0.003424032154271117
aF0.0008433774735294719
aF0.0011875869915911608
aF0.0018999282960976416
aF0.001523195356639917
aF0.05793619133237371
aF0.04229835603700849
aF0.05710230180693543
aF0.006204374795061085
aF0.03241455127590598
aF0.03926653607254593
aF0.02389207287251338
aF0.002455344258578407
aF0.003202765955393261
aF0.0009368061867007782
aF0.001162586338523397
aF0.0019271570824912487
aF0.0020415424223756418
ag190
ag190
atp403
ba(lp404
g15
(g16
(dp405
g18
g19
(g20
(I0
tp406
g22
tp407
Rp408
(I1
(I1
tp409
g29
I00
(lp410
g43
atp411
bsg68
Nstp412
Rp413
ag15
(g16
(dp414
g18
g19
(g20
(I0
tp415
g22
tp416
Rp417
(I1
(I33
tp418
g29
I00
(lp419
g33
ag34
ag35
ag36
ag37
ag38
ag39
ag40
ag41
ag42
ag44
ag45
ag46
ag47
ag48
ag49
ag50
ag51
ag52
ag53
ag54
ag55
ag56
ag57
ag58
ag59
ag60
ag61
ag62
ag63
ag64
ag65
ag66
atp420
bsg68
Nstp421
Rp422
a(dp423
S'0.14.1'
p424
(dp425
S'axes'
p426
g14
sS'blocks'
p427
(lp428
(dp429
S'mgr_locs'
p430
c__builtin__
slice
p431
(I10
I11
I1
tp432
Rp433
sS'values'
p434
g89
sa(dp435
g430
g19
(g20
(I0
tp436
g22
tp437
Rp438
(I1
(I33
tp439
g79
I00
S'\x00\x00\x00\x00\x00\x00\x00\x00\x01\x00\x00\x00\x00\x00\x00\x00\x02\x00\x00\x00\x00\x00\x00\x00\x03\x00\x00\x00\x00\x00\x00\x00\x04\x00\x00\x00\x00\x00\x00\x00\x05\x00\x00\x00\x00\x00\x00\x00\x06\x00\x00\x00\x00\x00\x00\x00\x07\x00\x00\x00\x00\x00\x00\x00\x08\x00\x00\x00\x00\x00\x00\x00\t\x00\x00\x00\x00\x00\x00\x00\x0b\x00\x00\x00\x00\x00\x00\x00\x0c\x00\x00\x00\x00\x00\x00\x00\r\x00\x00\x00\x00\x00\x00\x00\x0e\x00\x00\x00\x00\x00\x00\x00\x0f\x00\x00\x00\x00\x00\x00\x00\x10\x00\x00\x00\x00\x00\x00\x00\x11\x00\x00\x00\x00\x00\x00\x00\x12\x00\x00\x00\x00\x00\x00\x00\x13\x00\x00\x00\x00\x00\x00\x00\x14\x00\x00\x00\x00\x00\x00\x00\x15\x00\x00\x00\x00\x00\x00\x00\x16\x00\x00\x00\x00\x00\x00\x00\x17\x00\x00\x00\x00\x00\x00\x00\x18\x00\x00\x00\x00\x00\x00\x00\x19\x00\x00\x00\x00\x00\x00\x00\x1a\x00\x00\x00\x00\x00\x00\x00\x1b\x00\x00\x00\x00\x00\x00\x00\x1c\x00\x00\x00\x00\x00\x00\x00\x1d\x00\x00\x00\x00\x00\x00\x00\x1e\x00\x00\x00\x00\x00\x00\x00\x1f\x00\x00\x00\x00\x00\x00\x00 \x00\x00\x00\x00\x00\x00\x00!\x00\x00\x00\x00\x00\x00\x00'
p440
tp441
bsg434
g100
sasstp442
bsb.