ccopy_reg
_reconstructor
p0
(cpandas.core.frame
DataFrame
p1
c__builtin__
object
p2
Ntp3
Rp4
(dp5
S'_metadata'
p6
(lp7
sS'_typ'
p8
S'dataframe'
p9
sS'_data'
p10
g0
(cpandas.core.internals
BlockManager
p11
g2
Ntp12
Rp13
((lp14
cpandas.core.indexes.base
_new_Index
p15
(cpandas.core.indexes.base
Index
p16
(dp17
S'data'
p18
cnumpy.core.multiarray
_reconstruct
p19
(cnumpy
ndarray
p20
(I0
tp21
S'b'
p22
tp23
Rp24
(I1
(I34
tp25
cnumpy
dtype
p26
(S'O8'
p27
I0
I1
tp28
Rp29
(I3
S'|'
p30
NNNI-1
I-1
I63
tp31
bI00
(lp32
S'year'
p33
aS'type'
p34
aS'procOriginal'
p35
aS'proc'
p36
aS'proc_s0'
p37
aS'cat'
p38
aS'inputWSFile'
p39
aS'nominalDataName'
p40
aS'modelWSFile'
p41
aS'model'
p42
aS'rate'
p43
aS'nominal_yield'
p44
aS'sumw2'
p45
aS'nominal_yield_COWCorr'
p46
aS'LooseMvaSF_up_yield'
p47
aS'LooseMvaSF_down_yield'
p48
aS'PreselSF_up_yield'
p49
aS'PreselSF_down_yield'
p50
aS'electronVetoSF_up_yield'
p51
aS'electronVetoSF_down_yield'
p52
aS'TriggerWeight_up_yield'
p53
aS'TriggerWeight_down_yield'
p54
aS'SigmaEOverEShift_up_yield'
p55
aS'SigmaEOverEShift_down_yield'
p56
aS'MvaShift_up_yield'
p57
aS'MvaShift_down_yield'
p58
aS'PUJIDShift_up_yield'
p59
aS'PUJIDShift_down_yield'
p60
aS'JEC_up_yield'
p61
aS'JEC_down_yield'
p62
aS'JER_up_yield'
p63
aS'JER_down_yield'
p64
aS'JetHEM_up_yield'
p65
aS'JetHEM_down_yield'
p66
atp67
bsS'name'
p68
Nstp69
Rp70
ag15
(cpandas.core.indexes.numeric
Int64Index
p71
(dp72
g18
g19
(g20
(I0
tp73
g22
tp74
Rp75
(I1
(I54
tp76
g26
(S'i8'
p77
I0
I1
tp78
Rp79
(I3
S'<'
p80
NNNI-1
I-1
I0
tp81
bI00
S'\x00\x00\x00\x00\x00\x00\x00\x00\x01\x00\x00\x00\x00\x00\x00\x00\x02\x00\x00\x00\x00\x00\x00\x00\x03\x00\x00\x00\x00\x00\x00\x00\x04\x00\x00\x00\x00\x00\x00\x00\x05\x00\x00\x00\x00\x00\x00\x00\x06\x00\x00\x00\x00\x00\x00\x00\x07\x00\x00\x00\x00\x00\x00\x00\x08\x00\x00\x00\x00\x00\x00\x00\t\x00\x00\x00\x00\x00\x00\x00\n\x00\x00\x00\x00\x00\x00\x00\x0b\x00\x00\x00\x00\x00\x00\x00\x0c\x00\x00\x00\x00\x00\x00\x00\r\x00\x00\x00\x00\x00\x00\x00\x0e\x00\x00\x00\x00\x00\x00\x00\x0f\x00\x00\x00\x00\x00\x00\x00\x10\x00\x00\x00\x00\x00\x00\x00\x11\x00\x00\x00\x00\x00\x00\x00\x12\x00\x00\x00\x00\x00\x00\x00\x13\x00\x00\x00\x00\x00\x00\x00\x14\x00\x00\x00\x00\x00\x00\x00\x15\x00\x00\x00\x00\x00\x00\x00\x16\x00\x00\x00\x00\x00\x00\x00\x17\x00\x00\x00\x00\x00\x00\x00\x18\x00\x00\x00\x00\x00\x00\x00\x19\x00\x00\x00\x00\x00\x00\x00\x1a\x00\x00\x00\x00\x00\x00\x00\x1b\x00\x00\x00\x00\x00\x00\x00\x1c\x00\x00\x00\x00\x00\x00\x00\x1d\x00\x00\x00\x00\x00\x00\x00\x1e\x00\x00\x00\x00\x00\x00\x00\x1f\x00\x00\x00\x00\x00\x00\x00 \x00\x00\x00\x00\x00\x00\x00!\x00\x00\x00\x00\x00\x00\x00"\x00\x00\x00\x00\x00\x00\x00#\x00\x00\x00\x00\x00\x00\x00$\x00\x00\x00\x00\x00\x00\x00%\x00\x00\x00\x00\x00\x00\x00&\x00\x00\x00\x00\x00\x00\x00\'\x00\x00\x00\x00\x00\x00\x00(\x00\x00\x00\x00\x00\x00\x00)\x00\x00\x00\x00\x00\x00\x00*\x00\x00\x00\x00\x00\x00\x00+\x00\x00\x00\x00\x00\x00\x00,\x00\x00\x00\x00\x00\x00\x00-\x00\x00\x00\x00\x00\x00\x00.\x00\x00\x00\x00\x00\x00\x00/\x00\x00\x00\x00\x00\x00\x000\x00\x00\x00\x00\x00\x00\x001\x00\x00\x00\x00\x00\x00\x002\x00\x00\x00\x00\x00\x00\x003\x00\x00\x00\x00\x00\x00\x004\x00\x00\x00\x00\x00\x00\x005\x00\x00\x00\x00\x00\x00\x00'
p82
tp83
bsg68
Nstp84
Rp85
a(lp86
g19
(g20
(I0
tp87
g22
tp88
Rp89
(I1
(I1
I54
tp90
g26
(S'f8'
p91
I0
I1
tp92
Rp93
(I3
S'<'
p94
NNNI-1
I-1
I0
tp95
bI00
S'\x00\x00\x00\x00\x00\x10\xd3@\x00\x00\x00\x00\x00\x10\xd3@\x00\x00\x00\x00\x00\x10\xd3@\x00\x00\x00\x00\x00\x10\xd3@\x00\x00\x00\x00\x00\x10\xd3@\x00\x00\x00\x00\x00\x10\xd3@\x00\x00\x00\x00\x00\x10\xd3@\x00\x00\x00\x00\x00\x10\xd3@\x00\x00\x00\x00\x00\x10\xd3@\x00\x00\x00\x00\x00\x10\xd3@\x00\x00\x00\x00\x00\x10\xd3@\x00\x00\x00\x00\x00\x10\xd3@\x00\x00\x00\x00\x00\x10\xd3@\x00\x00\x00\x00\x80j\xd0@\x00\x00\x00\x00\x80j\xd0@\x00\x00\x00\x00\x80j\xd0@\x00\x00\x00\x00\x80j\xd0@\x00\x00\x00\x00\x80j\xd0@\x00\x00\x00\x00\x80j\xd0@\x00\x00\x00\x00\x80j\xd0@\x00\x00\x00\x00\x80j\xd0@\x00\x00\x00\x00\x80j\xd0@\x00\x00\x00\x00\x80j\xd0@\x00\x00\x00\x00\x80j\xd0@\x00\x00\x00\x00\x80j\xd0@\x00\x00\x00\x00\x80j\xd0@\x00\x00\x00\x00\x00A\xe4@\x00\x00\x00\x00\x00A\xe4@\x00\x00\x00\x00\x00A\xe4@\x00\x00\x00\x00\x00A\xe4@\x00\x00\x00\x00\x00A\xe4@\x00\x00\x00\x00\x00A\xe4@\x00\x00\x00\x00\x00A\xe4@\x00\x00\x00\x00\x00A\xe4@\x00\x00\x00\x00\x00A\xe4@\x00\x00\x00\x00\x00A\xe4@\x00\x00\x00\x00\x00A\xe4@\x00\x00\x00\x00\x00A\xe4@\x00\x00\x00\x00\x00A\xe4@\x00\x00\x00\x00\xc0\xfa\xec@\x00\x00\x00\x00\xc0\xfa\xec@\x00\x00\x00\x00\xc0\xfa\xec@\x00\x00\x00\x00\xc0\xfa\xec@\x00\x00\x00\x00\xc0\xfa\xec@\x00\x00\x00\x00\xc0\xfa\xec@\x00\x00\x00\x00\xc0\xfa\xec@\x00\x00\x00\x00\xc0\xfa\xec@\x00\x00\x00\x00\xc0\xfa\xec@\x00\x00\x00\x00\xc0\xfa\xec@\x00\x00\x00\x00\xc0\xfa\xec@\x00\x00\x00\x00\xc0\xfa\xec@\x00\x00\x00\x00\xc0\xfa\xec@\x00\x00\x00\x00\x00\x00\xf0?\x00\x00\x00\x00\x00\x00\xf0\xbf'
p96
tp97
bag19
(g20
(I0
tp98
g22
tp99
Rp100
(I1
(I33
I54
tp101
g29
I00
(lp102
S'2016preVFP'
p103
ag103
ag103
ag103
ag103
ag103
ag103
ag103
ag103
ag103
ag103
ag103
ag103
aS'2016postVFP'
p104
ag104
ag104
ag104
ag104
ag104
ag104
ag104
ag104
ag104
ag104
ag104
ag104
aS'2017'
p105
ag105
ag105
ag105
ag105
ag105
ag105
ag105
ag105
ag105
ag105
ag105
ag105
aS'2018'
p106
ag106
ag106
ag106
ag106
ag106
ag106
ag106
ag106
ag106
ag106
ag106
ag106
aS'merged'
p107
ag107
aS'sig'
p108
ag108
ag108
ag108
ag108
ag108
ag108
ag108
ag108
ag108
ag108
ag108
ag108
ag108
ag108
ag108
ag108
ag108
ag108
ag108
ag108
ag108
ag108
ag108
ag108
ag108
ag108
ag108
ag108
ag108
ag108
ag108
ag108
ag108
ag108
ag108
ag108
ag108
ag108
ag108
ag108
ag108
ag108
ag108
ag108
ag108
ag108
ag108
ag108
ag108
ag108
ag108
aS'bkg'
p109
ag18
aS'GG2HMf05ph0'
p110
aS'GG2HbsmM'
p111
aS'GG2Hsm'
p112
aS'TTHsm'
p113
aS'VBFMf05ph0'
p114
aS'VBFbsmM'
p115
aS'VBFsm'
p116
aS'WHMf05ph0'
p117
aS'WHbsmM'
p118
aS'WHsm'
p119
aS'ZHMf05ph0'
p120
aS'ZHbsmM'
p121
aS'ZHsm'
p122
ag110
ag111
ag112
ag113
ag114
ag115
ag116
ag117
ag118
ag119
ag120
ag121
ag122
ag110
ag111
ag112
ag113
ag114
ag115
ag116
ag117
ag118
ag119
ag120
ag121
ag122
ag110
ag111
ag112
ag113
ag114
ag115
ag116
ag117
ag118
ag119
ag120
ag121
ag122
aS'bkg_mass'
p123
aS'data_obs'
p124
aS'GG2HMf05ph0_2016preVFP_hgg'
p125
aS'GG2HbsmM_2016preVFP_hgg'
p126
aS'GG2Hsm_2016preVFP_hgg'
p127
aS'tth0P_2016preVFP_hgg'
p128
aS'vbf0Mf05ph0_2016preVFP_hgg'
p129
aS'vbf0M_2016preVFP_hgg'
p130
aS'vbf0P_2016preVFP_hgg'
p131
aS'wh0Mf05ph0_2016preVFP_hgg'
p132
aS'wh0M_2016preVFP_hgg'
p133
aS'wh0P_2016preVFP_hgg'
p134
aS'zh0Mf05ph0_2016preVFP_hgg'
p135
aS'zh0M_2016preVFP_hgg'
p136
aS'zh0P_2016preVFP_hgg'
p137
aS'GG2HMf05ph0_2016postVFP_hgg'
p138
aS'GG2HbsmM_2016postVFP_hgg'
p139
aS'GG2Hsm_2016postVFP_hgg'
p140
aS'tth0P_2016postVFP_hgg'
p141
aS'vbf0Mf05ph0_2016postVFP_hgg'
p142
aS'vbf0M_2016postVFP_hgg'
p143
aS'vbf0P_2016postVFP_hgg'
p144
aS'wh0Mf05ph0_2016postVFP_hgg'
p145
aS'wh0M_2016postVFP_hgg'
p146
aS'wh0P_2016postVFP_hgg'
p147
aS'zh0Mf05ph0_2016postVFP_hgg'
p148
aS'zh0M_2016postVFP_hgg'
p149
aS'zh0P_2016postVFP_hgg'
p150
aS'GG2HMf05ph0_2017_hgg'
p151
aS'GG2HbsmM_2017_hgg'
p152
aS'GG2Hsm_2017_hgg'
p153
aS'tth0P_2017_hgg'
p154
aS'vbf0Mf05ph0_2017_hgg'
p155
aS'vbf0M_2017_hgg'
p156
aS'vbf0P_2017_hgg'
p157
aS'wh0Mf05ph0_2017_hgg'
p158
aS'wh0M_2017_hgg'
p159
aS'wh0P_2017_hgg'
p160
aS'zh0Mf05ph0_2017_hgg'
p161
aS'zh0M_2017_hgg'
p162
aS'zh0P_2017_hgg'
p163
aS'GG2HMf05ph0_2018_hgg'
p164
aS'GG2HbsmM_2018_hgg'
p165
aS'GG2Hsm_2018_hgg'
p166
aS'tth0P_2018_hgg'
p167
aS'vbf0Mf05ph0_2018_hgg'
p168
aS'vbf0M_2018_hgg'
p169
aS'vbf0P_2018_hgg'
p170
aS'wh0Mf05ph0_2018_hgg'
p171
aS'wh0M_2018_hgg'
p172
aS'wh0P_2018_hgg'
p173
aS'zh0Mf05ph0_2018_hgg'
p174
aS'zh0M_2018_hgg'
p175
aS'zh0P_2018_hgg'
p176
ag123
ag124
aS'jjh0Mf05ph0'
p177
aS'jjh0M'
p178
aS'jjh0P'
p179
aS'tth0P'
p180
aS'vbf0Mf05ph0'
p181
aS'vbf0M'
p182
aS'vbf0P'
p183
aS'wh0Mf05ph0'
p184
aS'wh0M'
p185
aS'wh0P'
p186
aS'zh0Mf05ph0'
p187
aS'zh0M'
p188
aS'zh0P'
p189
ag177
ag178
ag179
ag180
ag181
ag182
ag183
ag184
ag185
ag186
ag187
ag188
ag189
ag177
ag178
ag179
ag180
ag181
ag182
ag183
ag184
ag185
ag186
ag187
ag188
ag189
ag177
ag178
ag179
ag180
ag181
ag182
ag183
ag184
ag185
ag186
ag187
ag188
ag189
aS'-'
p190
ag190
aS'AC_Bin19'
p191
ag191
ag191
ag191
ag191
ag191
ag191
ag191
ag191
ag191
ag191
ag191
ag191
ag191
ag191
ag191
ag191
ag191
ag191
ag191
ag191
ag191
ag191
ag191
ag191
ag191
ag191
ag191
ag191
ag191
ag191
ag191
ag191
ag191
ag191
ag191
ag191
ag191
ag191
ag191
ag191
ag191
ag191
ag191
ag191
ag191
ag191
ag191
ag191
ag191
ag191
ag191
ag191
ag191
aS'Trees/Opt_RunII/RunII/Trees2WS_RunII/WS_2016preVFP/output_GluGluHToGGPlusTwoJets_MM_M125_TuneCP5_13TeV-amcatnlopowheg-minlo-pythia8_GG2HMf05ph0.root'
p192
aS'Trees/Opt_RunII/RunII/Trees2WS_RunII/WS_2016preVFP/output_GluGluHToGGPlusTwoJets_CPodd_M125_TuneCP5_13TeV-amcatnlopowheg-minlo-pythia8_GG2HbsmM.root'
p193
aS'Trees/Opt_RunII/RunII/Trees2WS_RunII/WS_2016preVFP/output_GluGluHToGGPlusTwoJets_SM_M125_TuneCP5_13TeV-amcatnlopowheg-minlo-pythia8_GG2Hsm.root'
p194
aS'Trees/Opt_RunII/RunII/Trees2WS_RunII/WS_2016preVFP/output_ttHJetToGG_M125_TuneCP5_13TeV-amcatnloFXFX-madspin-pythia8_TTHsm.root'
p195
aS'Trees/Opt_RunII/RunII/Trees2WS_RunII/WS_2016preVFP/output_VBFHiggs0Mf05ph0ToGG_M125_TuneCP5_13TeV-JHUGenV7011-pythia8_VBFMf05ph0.root'
p196
aS'Trees/Opt_RunII/RunII/Trees2WS_RunII/WS_2016preVFP/output_VBFHiggs0MToGG_M125_TuneCP5_13TeV-JHUGenV7011-pythia8_VBFbsmM.root'
p197
aS'Trees/Opt_RunII/RunII/Trees2WS_RunII/WS_2016preVFP/output_VBFHToGG_M125_TuneCP5_13TeV-amcatnlo-pythia8_VBFsm.root'
p198
aS'Trees/Opt_RunII/RunII/Trees2WS_RunII/WS_2016preVFP/output_WHiggs0Mf05ph0ToGG_M125_TuneCP5_13TeV-JHUGenV7011-pythia8_WHMf05ph0.root'
p199
aS'Trees/Opt_RunII/RunII/Trees2WS_RunII/WS_2016preVFP/output_WHiggs0MToGG_M125_TuneCP5_13TeV-JHUGenV7011-pythia8_WHbsmM.root'
p200
aS'Trees/Opt_RunII/RunII/Trees2WS_RunII/WS_2016preVFP/output_WHiggs0PMToGG_M125_TuneCP5_13TeV-JHUGenV7011-pythia8_WHsm.root'
p201
aS'Trees/Opt_RunII/RunII/Trees2WS_RunII/WS_2016preVFP/output_ZHiggs0Mf05ph0ToGG_M125_TuneCP5_13TeV-JHUGenV7011-pythia8_ZHMf05ph0.root'
p202
aS'Trees/Opt_RunII/RunII/Trees2WS_RunII/WS_2016preVFP/output_ZHiggs0MToGG_M125_TuneCP5_13TeV-JHUGenV7011-pythia8_ZHbsmM.root'
p203
aS'Trees/Opt_RunII/RunII/Trees2WS_RunII/WS_2016preVFP/output_ZH_HToGG_ZToAll_M125_TuneCP5_13TeV-powheg-pythia8_ZHsm.root'
p204
aS'Trees/Opt_RunII/RunII/Trees2WS_RunII/WS_2016postVFP/output_GluGluHToGGPlusTwoJets_MM_M125_TuneCP5_13TeV-amcatnlopowheg-minlo-pythia8_GG2HMf05ph0.root'
p205
aS'Trees/Opt_RunII/RunII/Trees2WS_RunII/WS_2016postVFP/output_GluGluHToGGPlusTwoJets_CPodd_M125_TuneCP5_13TeV-amcatnlopowheg-minlo-pythia8_GG2HbsmM.root'
p206
aS'Trees/Opt_RunII/RunII/Trees2WS_RunII/WS_2016postVFP/output_GluGluHToGGPlusTwoJets_SM_M125_TuneCP5_13TeV-amcatnlopowheg-minlo-pythia8_GG2Hsm.root'
p207
aS'Trees/Opt_RunII/RunII/Trees2WS_RunII/WS_2016postVFP/output_ttHJetToGG_M125_TuneCP5_13TeV-amcatnloFXFX-madspin-pythia8_TTHsm.root'
p208
aS'Trees/Opt_RunII/RunII/Trees2WS_RunII/WS_2016postVFP/output_VBFHiggs0Mf05ph0ToGG_M125_TuneCP5_13TeV-JHUGenV7011-pythia8_VBFMf05ph0.root'
p209
aS'Trees/Opt_RunII/RunII/Trees2WS_RunII/WS_2016postVFP/output_VBFHiggs0MToGG_M125_TuneCP5_13TeV-JHUGenV7011-pythia8_VBFbsmM.root'
p210
aS'Trees/Opt_RunII/RunII/Trees2WS_RunII/WS_2016postVFP/output_VBFHToGG_M125_TuneCP5_13TeV-amcatnlo-pythia8_VBFsm.root'
p211
aS'Trees/Opt_RunII/RunII/Trees2WS_RunII/WS_2016postVFP/output_WHiggs0Mf05ph0ToGG_M125_TuneCP5_13TeV-JHUGenV7011-pythia8_WHMf05ph0.root'
p212
aS'Trees/Opt_RunII/RunII/Trees2WS_RunII/WS_2016postVFP/output_WHiggs0MToGG_M125_TuneCP5_13TeV-JHUGenV7011-pythia8_WHbsmM.root'
p213
aS'Trees/Opt_RunII/RunII/Trees2WS_RunII/WS_2016postVFP/output_WHiggs0PMToGG_M125_TuneCP5_13TeV-JHUGenV7011-pythia8_WHsm.root'
p214
aS'Trees/Opt_RunII/RunII/Trees2WS_RunII/WS_2016postVFP/output_ZHiggs0Mf05ph0ToGG_M125_TuneCP5_13TeV-JHUGenV7011-pythia8_ZHMf05ph0.root'
p215
aS'Trees/Opt_RunII/RunII/Trees2WS_RunII/WS_2016postVFP/output_ZHiggs0MToGG_M125_TuneCP5_13TeV-JHUGenV7011-pythia8_ZHbsmM.root'
p216
aS'Trees/Opt_RunII/RunII/Trees2WS_RunII/WS_2016postVFP/output_ZH_HToGG_ZToAll_M125_TuneCP5_13TeV-powheg-pythia8_ZHsm.root'
p217
aS'Trees/Opt_RunII/RunII/Trees2WS_RunII/WS_2017/output_GluGluHToGGPlusTwoJets_MM_M125_TuneCP5_13TeV-amcatnlopowheg-minlo-pythia8_GG2HMf05ph0.root'
p218
aS'Trees/Opt_RunII/RunII/Trees2WS_RunII/WS_2017/output_GluGluHToGGPlusTwoJets_CPodd_M125_TuneCP5_13TeV-amcatnlopowheg-minlo-pythia8_GG2HbsmM.root'
p219
aS'Trees/Opt_RunII/RunII/Trees2WS_RunII/WS_2017/output_GluGluHToGGPlusTwoJets_SM_M125_TuneCP5_13TeV-amcatnlopowheg-minlo-pythia8_GG2Hsm.root'
p220
aS'Trees/Opt_RunII/RunII/Trees2WS_RunII/WS_2017/output_ttHJetToGG_M125_TuneCP5_13TeV-amcatnloFXFX-madspin-pythia8_TTHsm.root'
p221
aS'Trees/Opt_RunII/RunII/Trees2WS_RunII/WS_2017/output_VBFHiggs0Mf05ph0ToGG_M125_TuneCP5_13TeV-JHUGenV7011-pythia8_VBFMf05ph0.root'
p222
aS'Trees/Opt_RunII/RunII/Trees2WS_RunII/WS_2017/output_VBFHiggs0MToGG_M125_TuneCP5_13TeV-JHUGenV7011-pythia8_VBFbsmM.root'
p223
aS'Trees/Opt_RunII/RunII/Trees2WS_RunII/WS_2017/output_VBFHToGG_M125_TuneCP5_13TeV-amcatnlo-pythia8_VBFsm.root'
p224
aS'Trees/Opt_RunII/RunII/Trees2WS_RunII/WS_2017/output_WHiggs0Mf05ph0ToGG_M125_TuneCP5_13TeV-JHUGenV7011-pythia8_WHMf05ph0.root'
p225
aS'Trees/Opt_RunII/RunII/Trees2WS_RunII/WS_2017/output_WHiggs0MToGG_M125_TuneCP5_13TeV-JHUGenV7011-pythia8_WHbsmM.root'
p226
aS'Trees/Opt_RunII/RunII/Trees2WS_RunII/WS_2017/output_WHiggs0PMToGG_M125_TuneCP5_13TeV-JHUGenV7011-pythia8_WHsm.root'
p227
aS'Trees/Opt_RunII/RunII/Trees2WS_RunII/WS_2017/output_ZHiggs0Mf05ph0ToGG_M125_TuneCP5_13TeV-JHUGenV7011-pythia8_ZHMf05ph0.root'
p228
aS'Trees/Opt_RunII/RunII/Trees2WS_RunII/WS_2017/output_ZHiggs0MToGG_M125_TuneCP5_13TeV-JHUGenV7011-pythia8_ZHbsmM.root'
p229
aS'Trees/Opt_RunII/RunII/Trees2WS_RunII/WS_2017/output_ZH_HToGG_ZToAll_M125_TuneCP5_13TeV-powheg-pythia8_ZHsm.root'
p230
aS'Trees/Opt_RunII/RunII/Trees2WS_RunII/WS_2018/output_GluGluHToGGPlusTwoJets_MM_M125_TuneCP5_13TeV-amcatnlopowheg-minlo-pythia8_GG2HMf05ph0.root'
p231
aS'Trees/Opt_RunII/RunII/Trees2WS_RunII/WS_2018/output_GluGluHToGGPlusTwoJets_CPodd_M125_TuneCP5_13TeV-amcatnlopowheg-minlo-pythia8_GG2HbsmM.root'
p232
aS'Trees/Opt_RunII/RunII/Trees2WS_RunII/WS_2018/output_GluGluHToGGPlusTwoJets_SM_M125_TuneCP5_13TeV-amcatnlopowheg-minlo-pythia8_GG2Hsm.root'
p233
aS'Trees/Opt_RunII/RunII/Trees2WS_RunII/WS_2018/output_ttHJetToGG_M125_TuneCP5_13TeV-amcatnloFXFX-madspin-pythia8_TTHsm.root'
p234
aS'Trees/Opt_RunII/RunII/Trees2WS_RunII/WS_2018/output_VBFHiggs0Mf05ph0ToGG_M125_TuneCP5_13TeV-JHUGenV7011-pythia8_VBFMf05ph0.root'
p235
aS'Trees/Opt_RunII/RunII/Trees2WS_RunII/WS_2018/output_VBFHiggs0MToGG_M125_TuneCP5_13TeV-JHUGenV7011-pythia8_VBFbsmM.root'
p236
aS'Trees/Opt_RunII/RunII/Trees2WS_RunII/WS_2018/output_VBFHToGG_M125_TuneCP5_13TeV-amcatnlo-pythia8_VBFsm.root'
p237
aS'Trees/Opt_RunII/RunII/Trees2WS_RunII/WS_2018/output_WHiggs0Mf05ph0ToGG_M125_TuneCP5_13TeV-JHUGenV7011-pythia8_WHMf05ph0.root'
p238
aS'Trees/Opt_RunII/RunII/Trees2WS_RunII/WS_2018/output_WHiggs0MToGG_M125_TuneCP5_13TeV-JHUGenV7011-pythia8_WHbsmM.root'
p239
aS'Trees/Opt_RunII/RunII/Trees2WS_RunII/WS_2018/output_WHiggs0PMToGG_M125_TuneCP5_13TeV-JHUGenV7011-pythia8_WHsm.root'
p240
aS'Trees/Opt_RunII/RunII/Trees2WS_RunII/WS_2018/output_ZHiggs0Mf05ph0ToGG_M125_TuneCP5_13TeV-JHUGenV7011-pythia8_ZHMf05ph0.root'
p241
aS'Trees/Opt_RunII/RunII/Trees2WS_RunII/WS_2018/output_ZHiggs0MToGG_M125_TuneCP5_13TeV-JHUGenV7011-pythia8_ZHbsmM.root'
p242
aS'Trees/Opt_RunII/RunII/Trees2WS_RunII/WS_2018/output_ZH_HToGG_ZToAll_M125_TuneCP5_13TeV-powheg-pythia8_ZHsm.root'
p243
ag190
ag190
aS'jjh0Mf05ph0_125_13TeV_AC_Bin19'
p244
aS'jjh0M_125_13TeV_AC_Bin19'
p245
aS'jjh0P_125_13TeV_AC_Bin19'
p246
aS'tth0P_125_13TeV_AC_Bin19'
p247
aS'vbf0Mf05ph0_125_13TeV_AC_Bin19'
p248
aS'vbf0M_125_13TeV_AC_Bin19'
p249
aS'vbf0P_125_13TeV_AC_Bin19'
p250
aS'wh0Mf05ph0_125_13TeV_AC_Bin19'
p251
aS'wh0M_125_13TeV_AC_Bin19'
p252
aS'wh0P_125_13TeV_AC_Bin19'
p253
aS'zh0Mf05ph0_125_13TeV_AC_Bin19'
p254
aS'zh0M_125_13TeV_AC_Bin19'
p255
aS'zh0P_125_13TeV_AC_Bin19'
p256
aS'jjh0Mf05ph0_125_13TeV_AC_Bin19'
p257
aS'jjh0M_125_13TeV_AC_Bin19'
p258
aS'jjh0P_125_13TeV_AC_Bin19'
p259
aS'tth0P_125_13TeV_AC_Bin19'
p260
aS'vbf0Mf05ph0_125_13TeV_AC_Bin19'
p261
aS'vbf0M_125_13TeV_AC_Bin19'
p262
aS'vbf0P_125_13TeV_AC_Bin19'
p263
aS'wh0Mf05ph0_125_13TeV_AC_Bin19'
p264
aS'wh0M_125_13TeV_AC_Bin19'
p265
aS'wh0P_125_13TeV_AC_Bin19'
p266
aS'zh0Mf05ph0_125_13TeV_AC_Bin19'
p267
aS'zh0M_125_13TeV_AC_Bin19'
p268
aS'zh0P_125_13TeV_AC_Bin19'
p269
aS'jjh0Mf05ph0_125_13TeV_AC_Bin19'
p270
aS'jjh0M_125_13TeV_AC_Bin19'
p271
aS'jjh0P_125_13TeV_AC_Bin19'
p272
aS'tth0P_125_13TeV_AC_Bin19'
p273
aS'vbf0Mf05ph0_125_13TeV_AC_Bin19'
p274
aS'vbf0M_125_13TeV_AC_Bin19'
p275
aS'vbf0P_125_13TeV_AC_Bin19'
p276
aS'wh0Mf05ph0_125_13TeV_AC_Bin19'
p277
aS'wh0M_125_13TeV_AC_Bin19'
p278
aS'wh0P_125_13TeV_AC_Bin19'
p279
aS'zh0Mf05ph0_125_13TeV_AC_Bin19'
p280
aS'zh0M_125_13TeV_AC_Bin19'
p281
aS'zh0P_125_13TeV_AC_Bin19'
p282
aS'jjh0Mf05ph0_125_13TeV_AC_Bin19'
p283
aS'jjh0M_125_13TeV_AC_Bin19'
p284
aS'jjh0P_125_13TeV_AC_Bin19'
p285
aS'tth0P_125_13TeV_AC_Bin19'
p286
aS'vbf0Mf05ph0_125_13TeV_AC_Bin19'
p287
aS'vbf0M_125_13TeV_AC_Bin19'
p288
aS'vbf0P_125_13TeV_AC_Bin19'
p289
aS'wh0Mf05ph0_125_13TeV_AC_Bin19'
p290
aS'wh0M_125_13TeV_AC_Bin19'
p291
aS'wh0P_125_13TeV_AC_Bin19'
p292
aS'zh0Mf05ph0_125_13TeV_AC_Bin19'
p293
aS'zh0M_125_13TeV_AC_Bin19'
p294
aS'zh0P_125_13TeV_AC_Bin19'
p295
ag190
ag190
aS'./Models/signal/CMS-HGG_sigfit_packaged_AC_Bin19.root'
p296
aS'./Models/signal/CMS-HGG_sigfit_packaged_AC_Bin19.root'
p297
aS'./Models/signal/CMS-HGG_sigfit_packaged_AC_Bin19.root'
p298
aS'./Models/signal/CMS-HGG_sigfit_packaged_AC_Bin19.root'
p299
aS'./Models/signal/CMS-HGG_sigfit_packaged_AC_Bin19.root'
p300
aS'./Models/signal/CMS-HGG_sigfit_packaged_AC_Bin19.root'
p301
aS'./Models/signal/CMS-HGG_sigfit_packaged_AC_Bin19.root'
p302
aS'./Models/signal/CMS-HGG_sigfit_packaged_AC_Bin19.root'
p303
aS'./Models/signal/CMS-HGG_sigfit_packaged_AC_Bin19.root'
p304
aS'./Models/signal/CMS-HGG_sigfit_packaged_AC_Bin19.root'
p305
aS'./Models/signal/CMS-HGG_sigfit_packaged_AC_Bin19.root'
p306
aS'./Models/signal/CMS-HGG_sigfit_packaged_AC_Bin19.root'
p307
aS'./Models/signal/CMS-HGG_sigfit_packaged_AC_Bin19.root'
p308
aS'./Models/signal/CMS-HGG_sigfit_packaged_AC_Bin19.root'
p309
aS'./Models/signal/CMS-HGG_sigfit_packaged_AC_Bin19.root'
p310
aS'./Models/signal/CMS-HGG_sigfit_packaged_AC_Bin19.root'
p311
aS'./Models/signal/CMS-HGG_sigfit_packaged_AC_Bin19.root'
p312
aS'./Models/signal/CMS-HGG_sigfit_packaged_AC_Bin19.root'
p313
aS'./Models/signal/CMS-HGG_sigfit_packaged_AC_Bin19.root'
p314
aS'./Models/signal/CMS-HGG_sigfit_packaged_AC_Bin19.root'
p315
aS'./Models/signal/CMS-HGG_sigfit_packaged_AC_Bin19.root'
p316
aS'./Models/signal/CMS-HGG_sigfit_packaged_AC_Bin19.root'
p317
aS'./Models/signal/CMS-HGG_sigfit_packaged_AC_Bin19.root'
p318
aS'./Models/signal/CMS-HGG_sigfit_packaged_AC_Bin19.root'
p319
aS'./Models/signal/CMS-HGG_sigfit_packaged_AC_Bin19.root'
p320
aS'./Models/signal/CMS-HGG_sigfit_packaged_AC_Bin19.root'
p321
aS'./Models/signal/CMS-HGG_sigfit_packaged_AC_Bin19.root'
p322
aS'./Models/signal/CMS-HGG_sigfit_packaged_AC_Bin19.root'
p323
aS'./Models/signal/CMS-HGG_sigfit_packaged_AC_Bin19.root'
p324
aS'./Models/signal/CMS-HGG_sigfit_packaged_AC_Bin19.root'
p325
aS'./Models/signal/CMS-HGG_sigfit_packaged_AC_Bin19.root'
p326
aS'./Models/signal/CMS-HGG_sigfit_packaged_AC_Bin19.root'
p327
aS'./Models/signal/CMS-HGG_sigfit_packaged_AC_Bin19.root'
p328
aS'./Models/signal/CMS-HGG_sigfit_packaged_AC_Bin19.root'
p329
aS'./Models/signal/CMS-HGG_sigfit_packaged_AC_Bin19.root'
p330
aS'./Models/signal/CMS-HGG_sigfit_packaged_AC_Bin19.root'
p331
aS'./Models/signal/CMS-HGG_sigfit_packaged_AC_Bin19.root'
p332
aS'./Models/signal/CMS-HGG_sigfit_packaged_AC_Bin19.root'
p333
aS'./Models/signal/CMS-HGG_sigfit_packaged_AC_Bin19.root'
p334
aS'./Models/signal/CMS-HGG_sigfit_packaged_AC_Bin19.root'
p335
aS'./Models/signal/CMS-HGG_sigfit_packaged_AC_Bin19.root'
p336
aS'./Models/signal/CMS-HGG_sigfit_packaged_AC_Bin19.root'
p337
aS'./Models/signal/CMS-HGG_sigfit_packaged_AC_Bin19.root'
p338
aS'./Models/signal/CMS-HGG_sigfit_packaged_AC_Bin19.root'
p339
aS'./Models/signal/CMS-HGG_sigfit_packaged_AC_Bin19.root'
p340
aS'./Models/signal/CMS-HGG_sigfit_packaged_AC_Bin19.root'
p341
aS'./Models/signal/CMS-HGG_sigfit_packaged_AC_Bin19.root'
p342
aS'./Models/signal/CMS-HGG_sigfit_packaged_AC_Bin19.root'
p343
aS'./Models/signal/CMS-HGG_sigfit_packaged_AC_Bin19.root'
p344
aS'./Models/signal/CMS-HGG_sigfit_packaged_AC_Bin19.root'
p345
aS'./Models/signal/CMS-HGG_sigfit_packaged_AC_Bin19.root'
p346
aS'./Models/signal/CMS-HGG_sigfit_packaged_AC_Bin19.root'
p347
aS'./Models/background/CMS-HGG_multipdf_AC_Bin19.root'
p348
ag348
aS'wsig_13TeV:hggpdfsmrel_GG2HMf05ph0_2016preVFP_AC_Bin19_13TeV'
p349
aS'wsig_13TeV:hggpdfsmrel_GG2HbsmM_2016preVFP_AC_Bin19_13TeV'
p350
aS'wsig_13TeV:hggpdfsmrel_GG2Hsm_2016preVFP_AC_Bin19_13TeV'
p351
aS'wsig_13TeV:hggpdfsmrel_TTHsm_2016preVFP_AC_Bin19_13TeV'
p352
aS'wsig_13TeV:hggpdfsmrel_VBFMf05ph0_2016preVFP_AC_Bin19_13TeV'
p353
aS'wsig_13TeV:hggpdfsmrel_VBFbsmM_2016preVFP_AC_Bin19_13TeV'
p354
aS'wsig_13TeV:hggpdfsmrel_VBFsm_2016preVFP_AC_Bin19_13TeV'
p355
aS'wsig_13TeV:hggpdfsmrel_WHMf05ph0_2016preVFP_AC_Bin19_13TeV'
p356
aS'wsig_13TeV:hggpdfsmrel_WHbsmM_2016preVFP_AC_Bin19_13TeV'
p357
aS'wsig_13TeV:hggpdfsmrel_WHsm_2016preVFP_AC_Bin19_13TeV'
p358
aS'wsig_13TeV:hggpdfsmrel_ZHMf05ph0_2016preVFP_AC_Bin19_13TeV'
p359
aS'wsig_13TeV:hggpdfsmrel_ZHbsmM_2016preVFP_AC_Bin19_13TeV'
p360
aS'wsig_13TeV:hggpdfsmrel_ZHsm_2016preVFP_AC_Bin19_13TeV'
p361
aS'wsig_13TeV:hggpdfsmrel_GG2HMf05ph0_2016postVFP_AC_Bin19_13TeV'
p362
aS'wsig_13TeV:hggpdfsmrel_GG2HbsmM_2016postVFP_AC_Bin19_13TeV'
p363
aS'wsig_13TeV:hggpdfsmrel_GG2Hsm_2016postVFP_AC_Bin19_13TeV'
p364
aS'wsig_13TeV:hggpdfsmrel_TTHsm_2016postVFP_AC_Bin19_13TeV'
p365
aS'wsig_13TeV:hggpdfsmrel_VBFMf05ph0_2016postVFP_AC_Bin19_13TeV'
p366
aS'wsig_13TeV:hggpdfsmrel_VBFbsmM_2016postVFP_AC_Bin19_13TeV'
p367
aS'wsig_13TeV:hggpdfsmrel_VBFsm_2016postVFP_AC_Bin19_13TeV'
p368
aS'wsig_13TeV:hggpdfsmrel_WHMf05ph0_2016postVFP_AC_Bin19_13TeV'
p369
aS'wsig_13TeV:hggpdfsmrel_WHbsmM_2016postVFP_AC_Bin19_13TeV'
p370
aS'wsig_13TeV:hggpdfsmrel_WHsm_2016postVFP_AC_Bin19_13TeV'
p371
aS'wsig_13TeV:hggpdfsmrel_ZHMf05ph0_2016postVFP_AC_Bin19_13TeV'
p372
aS'wsig_13TeV:hggpdfsmrel_ZHbsmM_2016postVFP_AC_Bin19_13TeV'
p373
aS'wsig_13TeV:hggpdfsmrel_ZHsm_2016postVFP_AC_Bin19_13TeV'
p374
aS'wsig_13TeV:hggpdfsmrel_GG2HMf05ph0_2017_AC_Bin19_13TeV'
p375
aS'wsig_13TeV:hggpdfsmrel_GG2HbsmM_2017_AC_Bin19_13TeV'
p376
aS'wsig_13TeV:hggpdfsmrel_GG2Hsm_2017_AC_Bin19_13TeV'
p377
aS'wsig_13TeV:hggpdfsmrel_TTHsm_2017_AC_Bin19_13TeV'
p378
aS'wsig_13TeV:hggpdfsmrel_VBFMf05ph0_2017_AC_Bin19_13TeV'
p379
aS'wsig_13TeV:hggpdfsmrel_VBFbsmM_2017_AC_Bin19_13TeV'
p380
aS'wsig_13TeV:hggpdfsmrel_VBFsm_2017_AC_Bin19_13TeV'
p381
aS'wsig_13TeV:hggpdfsmrel_WHMf05ph0_2017_AC_Bin19_13TeV'
p382
aS'wsig_13TeV:hggpdfsmrel_WHbsmM_2017_AC_Bin19_13TeV'
p383
aS'wsig_13TeV:hggpdfsmrel_WHsm_2017_AC_Bin19_13TeV'
p384
aS'wsig_13TeV:hggpdfsmrel_ZHMf05ph0_2017_AC_Bin19_13TeV'
p385
aS'wsig_13TeV:hggpdfsmrel_ZHbsmM_2017_AC_Bin19_13TeV'
p386
aS'wsig_13TeV:hggpdfsmrel_ZHsm_2017_AC_Bin19_13TeV'
p387
aS'wsig_13TeV:hggpdfsmrel_GG2HMf05ph0_2018_AC_Bin19_13TeV'
p388
aS'wsig_13TeV:hggpdfsmrel_GG2HbsmM_2018_AC_Bin19_13TeV'
p389
aS'wsig_13TeV:hggpdfsmrel_GG2Hsm_2018_AC_Bin19_13TeV'
p390
aS'wsig_13TeV:hggpdfsmrel_TTHsm_2018_AC_Bin19_13TeV'
p391
aS'wsig_13TeV:hggpdfsmrel_VBFMf05ph0_2018_AC_Bin19_13TeV'
p392
aS'wsig_13TeV:hggpdfsmrel_VBFbsmM_2018_AC_Bin19_13TeV'
p393
aS'wsig_13TeV:hggpdfsmrel_VBFsm_2018_AC_Bin19_13TeV'
p394
aS'wsig_13TeV:hggpdfsmrel_WHMf05ph0_2018_AC_Bin19_13TeV'
p395
aS'wsig_13TeV:hggpdfsmrel_WHbsmM_2018_AC_Bin19_13TeV'
p396
aS'wsig_13TeV:hggpdfsmrel_WHsm_2018_AC_Bin19_13TeV'
p397
aS'wsig_13TeV:hggpdfsmrel_ZHMf05ph0_2018_AC_Bin19_13TeV'
p398
aS'wsig_13TeV:hggpdfsmrel_ZHbsmM_2018_AC_Bin19_13TeV'
p399
aS'wsig_13TeV:hggpdfsmrel_ZHsm_2018_AC_Bin19_13TeV'
p400
aS'multipdf:CMS_hgg_AC_Bin19_13TeV_bkgshape'
p401
aS'multipdf:roohist_data_mass_AC_Bin19'
p402
aF0.012523816451903258
aF0.008059970383555992
aF0.014760916671093582
aF0.0002257328674204473
aF0.001850533006859223
aF0.0001382813667305527
aF0.007198936906661402
aF0.0001964592623835415
aF6.377989382144733e-05
aF9.193515359129378e-05
aI0
aI0
aF0.00013020746200709254
aF0.01563852468461846
aF0.010631907518927619
aF0.01673247993721816
aF0.00023464433252229355
aF0.002901643769291695
aF0.00030328894399644923
aF0.008835619806632167
aF4.4562013954418944e-05
aF6.250943215491134e-05
aF0.00025599057971703587
aF9.806300840864424e-05
aF8.57871743846772e-05
aF0.0002566932666923094
aF0.014990168475833343
aF0.010865130510865129
aF0.016661950175148377
aF0.00014090818626755208
aF0.0029747345552095794
aF0.0001779695176082896
aF0.008797931911885826
aF0.0001669936586949916
aF0.00014296751578513067
aF0.00016442563560303824
aF9.340836732008029e-05
aF9.474499961470428e-05
aF0.00020493073179750354
aF0.017662772540461447
aF0.012564044125156215
aF0.018605552262215497
aF0.00015775497058712062
aF0.003164375777487294
aF0.00015496892410737928
aF0.010033099866632256
aF0.00024042003610702523
aF0.0001365818075100833
aF0.00028640044411076815
aF0.00011095867489530065
aF0.00010036114417744102
aF0.00025829014703049324
ag190
ag190
aF1.7877219948316074e-06
aF4.750459459369592e-07
aF1.3205239201056285e-06
aF1.0693532554572829e-08
aF2.906207788966508e-08
aF1.7435849406177668e-09
aF1.6874197312912527e-06
aF6.244300512934519e-09
aF3.5187618839618015e-10
aF4.6184844217492076e-10
aI0
aI0
aF1.7946988495816533e-09
aF3.68488882608901e-07
aF2.714145334399675e-07
aF4.059977906261031e-07
aF3.6037487160664574e-08
aF4.3213369584381166e-08
aF3.6663945960924464e-09
aF4.425287284179689e-07
aF5.293540849596296e-10
aF5.794043211768161e-10
aF2.9386963668020945e-09
aF6.427053125755291e-10
aF5.754142069859473e-10
aF4.127475443504473e-09
aF1.6747893782842329e-07
aF1.1679148002411473e-07
aF1.7599728278197042e-07
aF1.8059650672071842e-09
aF1.8765338365489765e-08
aF8.187512532114878e-10
aF1.9674102380476664e-07
aF7.003800533834436e-10
aF6.073954679922739e-10
aF7.588761427221202e-10
aF2.498219994651144e-10
aF2.5788003366947786e-10
aF1.6935027229727832e-09
aF2.1900063229049101e-07
aF1.3551849708085299e-07
aF1.967232378616724e-07
aF1.8720766370353296e-09
aF2.0139988643594294e-08
aF7.097519906569353e-10
aF2.355034771862735e-07
aF1.0188971651348618e-09
aF5.842811711963491e-10
aF1.2124791630367144e-09
aF3.1801006790831104e-10
aF3.476247878919959e-10
aF2.0298878502011815e-09
ag190
ag190
aF0.013036983532412378
aF0.008287656007925234
aF0.015315777269773328
aF0.0002340496519303331
aF0.001901728895433533
aF0.00014360445729747205
aF0.007369205639189596
aF0.00020204460314430882
aF6.810189661791737e-05
aF9.453242879782628e-05
aI0
aI0
aF0.00013278253466339525
aF0.016156221414271685
aF0.010953291108417924
aF0.01734117658261693
aF0.00023889835369585651
aF0.0029886104163109944
aF0.00032039575187892263
aF0.009081652832736134
aF5.050848570109595e-05
aF6.382819016115996e-05
aF0.0002603539034721548
aF0.00010019612113600459
aF8.776397897723067e-05
aF0.00026145346956741596
aF0.01584643136992676
aF0.01141158467019005
aF0.017615939101208355
aF0.00014799975706806712
aF0.0031410250606527493
aF0.00018913904178823656
aF0.009303620658528924
aF0.00017563991472019258
aF0.00015144110572154804
aF0.00017466634821135664
aF9.84893156111586e-05
aF0.00010021497591503794
aF0.00021591156223275314
aF0.018536471708515058
aF0.013095570707574984
aF0.019535681816452922
aF0.0001642116330593946
aF0.0033172549288763707
aF0.00016418161417262707
aF0.010521919618960499
aF0.000252479888764225
aF0.00014239201320415655
aF0.00030112454907945866
aF0.00011624529824080043
aF0.00010435485415119323
aF0.00027085428297093586
ag190
ag190
aF0.012602051105865293
aF0.008111285846356318
aF0.014854539885790875
aF0.0002271470133877905
aF0.0018621754619091713
aF0.00013914726026899128
aF0.007244067406760005
aF0.00019769410904891264
aF6.419455782726203e-05
aF9.251015525893049e-05
aI0
aI0
aF0.00013106284923937502
aF0.015742666141439456
aF0.010703702825116087
aF0.016845553936921342
aF0.00023650106723125
aF0.0029203010760270828
aF0.0003052529455113128
aF0.008892321774183528
aF4.48644624750636e-05
aF6.293633976109896e-05
aF0.00025761461669822285
aF9.866963415060013e-05
aF8.635976912530898e-05
aF0.00025830002303972393
aF0.015084699161813389
aF0.010933419459702633
aF0.016767582104729787
aF0.00014180064403253602
aF0.002992826317488069
aF0.00017901788989806006
aF0.008849848013790953
aF0.00016798291994433943
aF0.00014388816011456096
aF0.00016548042610100598
aF9.394032745437981e-05
aF9.534821154906652e-05
aF0.00020618400835102394
aF0.017764705636069994
aF0.012637511168244525
aF0.01871271066030075
aF0.00015862915992219382
aF0.003182499887604799
aF0.00015588413452470928
aF0.010089633016365682
aF0.0002418330450544954
aF0.0001373612085392198
aF0.0002879861374751791
aF0.00011161865263802582
aF0.00010093829307082659
aF0.00025969461130750335
ag190
ag190
aF0.012445826280941562
aF0.008008817915036383
aF0.014667589916107992
aF0.0002243231166009003
aF0.0018389271070305105
aF0.0001374181836094023
aF0.007153947615413891
aF0.0001952282705086658
aF6.336657288838783e-05
aF9.136195047486115e-05
aI0
aI0
aF0.00012935487427709263
aF0.015534730424423477
aF0.010560355145087932
aF0.0166197872099761
aF0.00023279485809937718
aF0.002883046283379814
aF0.0003013312479947041
aF0.00877910020426183
aF4.426061170827576e-05
aF6.208400674846811e-05
aF0.0002543717717993932
aF9.745824336124306e-05
aF8.52164698395571e-05
aF0.0002550917711546199
aF0.014895937224560613
aF0.010797058228202422
aF0.016556654475762555
aF0.0001400184819594695
aF0.002956698333267508
aF0.0001769242588694393
aF0.008746169487738256
aF0.0001660073301745339
aF0.0001420497973641806
aF0.00016337414564944084
aF9.287791280008332e-05
aF9.41437049170791e-05
aF0.00020368142856804557
aF0.017561132873663458
aF0.012490791726832743
aF0.01849870136146757
aF0.00015688325957453648
aF0.0031463036055715534
aF0.00015405637553792204
aF0.009976725284726885
aF0.00023901119901633625
aF0.0001358046694351906
aF0.00028481919102011635
aF0.00011030065058626459
aF9.978564614905811e-05
aF0.00025688952697333384
ag190
ag190
aF0.012834913919163268
aF0.008215111614491344
aF0.015055880259797667
aF0.000232092016037191
aF0.0018853792263067905
aF0.00014088354271053833
aF0.007352182158030514
aF0.00020079180918946264
aF6.510418840827744e-05
aF9.394173806807164e-05
aI0
aI0
aF0.00013195273491599466
aF0.01586784354580672
aF0.010789691886261367
aF0.016984197765257794
aF0.0002337751226712162
aF0.002944349554343748
aF0.00030819543529518346
aF0.0089552841561592
aF4.506689832984804e-05
aF6.311519277229388e-05
aF0.00025970844467056284
aF9.973840559779798e-05
aF8.77970077084939e-05
aF0.0002607442517968869
aF0.015252998189841913
aF0.011053789250185589
aF0.016949389609219104
aF0.00014336640786135788
aF0.003027090097893
aF0.00018134786424524752
aF0.008964447316644154
aF0.00016998122999902822
aF0.0001453200874612787
aF0.0001671900904997479
aF9.522110580686434e-05
aF9.638765194805077e-05
aF0.00020735690125102627
aF0.017973268801802625
aF0.012777602573695994
aF0.01893673935477091
aF0.00016093308702933197
aF0.003217602565139517
aF0.00015763467081045788
aF0.010209083832371723
aF0.0002444802840420269
aF0.0001387316670041653
aF0.00029167428810964005
aF0.00011262531012776144
aF0.0001021708198592432
aF0.00026289360057194715
ag190
ag190
aF0.01221718235808249
aF0.007906283258046218
aF0.014469139600397501
aF0.00021944141381945005
aF0.0018159925070345897
aF0.00013570821145926994
aF0.007047181530601779
aF0.00019216537691544254
aF6.246644009447742e-05
aF8.99526017373869e-05
aI0
aI0
aF0.00012847360440485363
aF0.015410806778183597
aF0.01047517828823108
aF0.01648259994684604
aF0.0002354416853130713
aF0.002859249806125985
aF0.0002984227402757752
aF0.008716641893679216
aF4.4059735706472495e-05
aF6.19065274333985e-05
aF0.00025230027268871786
aF9.640627675436492e-05
aF8.37954103249483e-05
aF0.0002526778357968746
aF0.014729542590013942
aF0.010678131386386142
aF0.016376906204180603
aF0.00013846241136150525
aF0.0029228401777539248
aF0.00017462197288914532
aF0.008633045721223259
aF0.00016402504241176598
aF0.00014063229343879783
aF0.00016168207048554664
aF9.161160102048313e-05
aF9.311396532309185e-05
aF0.00020252617858370917
aF0.017354983897295197
aF0.012352296670449741
aF0.01827725011667707
aF0.00015461595080203398
aF0.003111611400333446
aF0.00015232503086336387
aF0.009858601754484561
aF0.00023639531827299103
aF0.00013445196549080049
aF0.0002811775537327932
aF0.00010930371402062888
aF9.856740830687764e-05
aF0.00025373193419814873
ag190
ag190
aF0.012552088024741555
aF0.008077608611152316
aF0.0147932450921734
aF0.0002261826454552844
aF0.0018549770787207498
aF0.0001385998027527636
aF0.007216007289482503
aF0.00019692645770532226
aF6.388026726935265e-05
aF9.217307428361154e-05
aI0
aI0
aF0.00013048279388451739
aF0.015673359609979603
aF0.010654998848095842
aF0.016768908866708752
aF0.00023469652462587627
aF0.002909071247158527
aF0.0003040968850657746
aF0.00885741372609078
aF4.469923352718365e-05
aF6.26121911842392e-05
aF0.0002565977954458892
aF9.833512309970288e-05
aF8.59969427471442e-05
aF0.00025729536183646834
aF0.015041945604557806
aF0.010903515826924887
aF0.016721418872222473
aF0.00014132273572248864
aF0.002987184782175986
aF0.00017881989050678605
aF0.008835609836503586
aF0.00016755192737220623
aF0.000143486504316673
aF0.00016494981913593433
aF9.37762769004019e-05
aF9.505061893606067e-05
aF0.00020562446042788384
aF0.017701578841171375
aF0.012589709100210681
aF0.01864679431992761
aF0.00015807606892626806
aF0.003172319573938694
aF0.0001553847359079427
aF0.010058242051025316
aF0.00024099787288075854
aF0.00013694020052542718
aF0.0002870637560985731
aF0.00011120538828145449
aF0.00010064455475079265
aF0.00025897216019388696
ag190
ag190
aF0.01249557721133553
aF0.008042353932511119
aF0.014728624115330024
aF0.0002252834606915918
aF0.001846093957595663
aF0.00013796334580133224
aF0.0071818889128248495
aF0.00019599266461975387
aF6.367959065693392e-05
aF9.169750946777815e-05
aI0
aI0
aF0.0001299323325950778
aF0.015603728039708656
aF0.010608842327145526
aF0.01669608837369862
aF0.0002345917423703269
aF0.002894226453737683
aF0.0003024818234116093
aF0.008813851755357878
aF4.442492422044766e-05
aF6.240676148101274e-05
aF0.0002553840193448902
aF9.779132451624855e-05
aF8.557763213899756e-05
aF0.0002560918944714935
aF0.014938488646433282
aF0.010826815479671854
aF0.016602588363144377
aF0.00014049442826635675
aF0.0029623123517901074
aF0.0001771207939158495
aF0.008760337769402493
aF0.0001664363202484683
aF0.0001424495067602185
aF0.00016390215061961588
aF9.304109884966602e-05
aF9.443983311570974e-05
aF0.00020423829369459033
aF0.0176240094484575
aF0.012538407268846922
aF0.01856436054127509
aF0.00015743417728719883
aF0.003156443558375849
aF0.00015455347172017755
aF0.01000799009536583
aF0.00023984286516766978
aF0.00013622396163802592
aF0.00028573795105979027
aF0.00011071230164973744
aF0.00010007813957113006
aF0.000257609013234957
ag190
ag190
aF0.012552662867378583
aF0.008080306797041643
aF0.0147945763102212
aF0.00022621391988797087
aF0.0018545175928264257
aF0.0001386019104879948
aF0.007213916932729765
aF0.00019694148595434565
aF6.39438854725819e-05
aF9.21555838515851e-05
aI0
aI0
aF0.00013051281646263654
aF0.015674699643059915
aF0.010656949714512075
aF0.016772101032376266
aF0.00023511528380489456
aF0.0029084265329270657
aF0.00030406042982843525
aF0.008856267907390107
aF4.48999730535266e-05
aF6.263636547012384e-05
aF0.00025654343670676637
aF9.826237336989272e-05
aF8.596250199996876e-05
aF0.00025723620517364743
aF0.015044858743670841
aF0.010903290876126083
aF0.016721034899962302
aF0.000141305630191415
aF0.002984713624950847
aF0.0001785712886718288
aF0.008827710259494397
aF0.00016747019976927395
aF0.00014341746037365712
aF0.00016502620875763317
aF9.3722449927506e-05
aF9.503601613228834e-05
aF0.00020564922713762666
aF0.01770660955164523
aF0.01259444063253846
aF0.018652022140334873
aF0.00015822627437696922
aF0.003172265846617932
aF0.00015538166404587274
aF0.010058905967767253
aF0.00024107838089137252
aF0.00013691201223846566
aF0.0002872504728931616
aF0.00011126813681311969
aF0.00010058975227439807
aF0.0002589292179473377
ag190
ag190
aF0.0124950030832303
aF0.008039658885863225
aF0.014727295669267126
aF0.00022525232772185365
aF0.0018465527543662893
aF0.0001379611867395701
aF0.0071839728712765364
aF0.00019597762241382476
aF6.36161039344258e-05
aF9.171498399859502e-05
aI0
aI0
aF0.0001299024629983714
aF0.015602391412064506
aF0.010606896439464986
aF0.016692905428820473
aF0.00023417386069608071
aF0.002894868834468845
aF0.00030251840222696175
aF0.008814995683110609
aF4.4224642253959626e-05
aF6.238263014253326e-05
aF0.00025543831876227865
aF9.786384538143221e-05
aF8.561202641679932e-05
aF0.0002561509044770404
aF0.014935566882871091
aF0.010827029907005698
aF0.01660295678827112
aF0.00014051134013798972
aF0.0029647711943661774
aF0.0001773687646182747
aF0.008768200307600999
aF0.00016651779880919523
aF0.00014251823087281024
aF0.00016382631403322968
aF9.309474200640783e-05
aF9.44543883808762e-05
aF0.00020421328074416497
aF0.017618988255544903
aF0.0125336833403005
aF0.0185591390150798
aF0.00015728429112454412
aF0.003156495467806452
aF0.00015455670153505146
aF0.010007325865409183
aF0.00023976288561002783
aF0.0001362519918912359
aF0.0002855515806583702
aF0.00011064964493087913
aF0.00010013279701619372
aF0.00025765184498275674
ag190
ag190
aF0.013239857821645273
aF0.008224169564755357
aF0.015112250178617614
aF0.0002378413953465497
aF0.002006171372272547
aF0.0001382813667305527
aF0.017179647803118314
aF0.00019518297426657227
aF6.377989382144733e-05
aF8.817398554583633e-05
aF0.0
aF0.0
aF0.00013740279723606363
aF0.016173433692529215
aF0.011015654654784157
aF0.017343727068464432
aF0.00023464433252229355
aF0.003080663725086197
aF0.0003216655181859096
aF0.0074195560533780736
aF0.00016072889184215455
aF0.0001877212794170191
aF0.0002611289460219268
aF9.806300840864424e-05
aF8.57871743846772e-05
aF0.00028629451799133676
aF0.015740903944333695
aF0.011407635714022035
aF0.017369416002111393
aF0.000149482878669005
aF0.0030567333815270104
aF0.0001779695176082896
aF0.007245183276609168
aF0.0001712707667138602
aF0.00013795360564472503
aF0.00016442563560303824
aF9.603177750250325e-05
aF9.474499961470428e-05
aF0.00022904895149622462
aF0.018051200624540797
aF0.012937518448325136
aF0.019076468277489766
aF0.00014581564323634666
aF0.0032780645533421193
aF0.0001641959529479209
aF0.007993099970462936
aF0.0002529202809000708
aF0.0001359877730919834
aF0.0002994869382746401
aF0.00011631502593445475
aF0.00010379407876826008
aF0.000243019901063235
ag190
ag190
aF0.01196111537797151
aF0.007876997922494411
aF0.014272942628394958
aF0.00024837564581048355
aF0.0018114607397592408
aF0.00012846007450662
aF0.004702007331388813
aF0.00015581098557504447
aF5.866982553470734e-05
aF9.667890890341369e-05
aF0.0
aF0.0
aF0.00013020746200709254
aF0.015054255301720332
aF0.010518000469801336
aF0.016127665157910087
aF0.00023464433252229355
aF0.002786825442854024
aF0.0003117820801890048
aF0.006982311565479904
aF0.00015426580011990154
aF0.00016625713260509656
aF0.00023218320257001324
aF9.25045360418153e-05
aF8.161516575455607e-05
aF0.00024756750144661055
aF0.01443354179718881
aF0.010452314538270002
aF0.016036552277455485
aF0.00012881579436907487
aF0.0028969474260520656
aF0.00017019274719132227
aF0.00660662323662109
aF0.0001669936586949916
aF0.00014296751578513067
aF0.00016392597558478883
aF9.075117054635484e-05
aF8.115458967949962e-05
aF0.0002034106723840523
aF0.01714882759279135
aF0.012199050724120752
aF0.018018119087173545
aF0.00015299100186894066
aF0.003112129485089099
aF0.00015496892410737928
aF0.007292335738384281
aF0.0002235792969713657
aF0.00012263717508176342
aF0.0002739666988418321
aF0.00010811988363457203
aF9.010299777401087e-05
aF0.00022847930949865258
ag190
ag190
aF0.012014423110940697
aF0.008360749704934278
aF0.014459098702218398
aF0.0002521944659292785
aF0.0018268098025373547
aF7.197876027476013e-05
aF0.0036871210439812785
aF0.00019972503082499315
aF8.260917036295723e-05
aF8.616726313448453e-05
aF0.0
aF0.0
aF0.00015367984019576397
aF0.01583730693164398
aF0.01048936349889118
aF0.016851408575348614
aF0.00034207432327093557
aF0.0028509449734883674
aF0.00027690347815223504
aF0.018951369177784727
aF0.0001483611881667457
aF0.00019044067539653042
aF0.0002865784999812604
aF0.0001207701934617944
aF6.797700530114525e-05
aF0.00024275671603390947
aF0.015572599944789545
aF0.011351557451689587
aF0.017055667693966825
aF0.00018824672588380054
aF0.002961431025141792
aF0.00016928214699873934
aF0.024186470173390262
aF0.00018469454562364263
aF0.00015130727570067393
aF0.00015924754893603676
aF9.080629070012947e-05
aF9.51600666212471e-05
aF0.00020590212852766854
aF0.01819900805821817
aF0.013072483865016693
aF0.019311466069211747
aF0.00012518929679572466
aF0.0032138230894815933
aF0.00014064985475670255
aF0.008876339355992968
aF0.0002369322705817467
aF0.0001568862844578689
aF0.0002858831837784237
aF0.00011418253598094452
aF0.0001078646669157024
aF0.0002627925209708337
ag190
ag190
aF0.01249032782516224
aF0.0077751795136009605
aF0.014927718573289894
aF0.00023707416039542295
aF0.002040698844552935
aF0.00013693471578335448
aF0.0051495462505499745
aF0.00033352966829625075
aF4.657980559841235e-05
aF7.918895357761357e-05
aF0.0
aF0.0
aF0.00013708353048969002
aF0.01543579221993241
aF0.010301801099558361
aF0.016988664893460736
aF0.0001551070308778435
aF0.0029064335185466916
aF0.0003329108958496363
aF0.0072980378877218754
aF0.00016072889184215455
aF0.00017760299988367478
aF0.00021739441672252724
aF8.933419258028152e-05
aF7.926215607767517e-05
aF0.000259024592651258
aF0.014700964608437062
aF0.010544589468281629
aF0.016203479047362634
aF0.00012515572780102957
aF0.002831285559295793
aF0.00020377433975227177
aF0.021466279175456293
aF0.00016361172038159566
aF0.00012486889750107366
aF0.00015639305206605059
aF8.841246585689078e-05
aF9.428774160369358e-05
aF0.00017030688240993186
aF0.017491538521426264
aF0.012200684143863327
aF0.018199636394911067
aF0.0001296373895911529
aF0.00321002393229719
aF0.0001559249819820252
aF0.0074049919358003535
aF0.00021445706238409912
aF0.0001416632985637989
aF0.00026958766329698847
aF0.00010476971942807722
aF0.00011015462473551452
aF0.0002336159900551138
ag190
ag190
aF0.013082014682368026
aF0.009305463129066993
aF0.014875560727432457
aF0.0002257328674204473
aF0.0018861058866832536
aF0.00013602357182662672
aF0.0050125133695928525
aF0.0001964592623835415
aF6.377989382144733e-05
aF0.00016317905590312876
aF0.0
aF0.0
aF0.00013020746200709254
aF0.016216198455367703
aF0.010966396044295834
aF0.017231667791293148
aF0.00023464433252229355
aF0.002957684728244203
aF0.00030328894399644923
aF0.011125858094032992
aF0.00016072889184215455
aF0.00017763644382284838
aF0.0002672859145604889
aF0.00010560579630691791
aF8.57871743846772e-05
aF0.00023339667268373887
aF0.015593920410992723
aF0.01123790940255276
aF0.017189628900268872
aF0.00014957355347178236
aF0.003064625275783328
aF0.00018191135222878074
aF0.007091224935265927
aF0.00017114406091423007
aF0.0001512513758825662
aF0.00016904934159356344
aF9.340836732008029e-05
aF9.474499961470428e-05
aF0.00020493073179750354
aF0.01822401387107675
aF0.013024158388816431
aF0.01916179472618751
aF0.00015775497058712062
aF0.0032288817405969894
aF0.00016439825549241505
aF0.008010632512650773
aF0.00024466157697133895
aF0.00014097841813054401
aF0.00029049482554910355
aF0.00011144370432702999
aF0.00010036114417744102
aF0.00025829014703049324
ag190
ag190
aF0.011939797859895407
aF0.007726506007657008
aF0.014044870429415823
aF0.0002257328674204473
aF0.0017669215391151738
aF0.0001382813667305527
aF0.004849939182349772
aF0.0001964592623835415
aF6.377688339398446e-05
aF8.694852647295193e-05
aF0.0
aF0.0
aF0.00013020746200709254
aF0.015146294536407368
aF0.01018203431613074
aF0.016398454108184524
aF0.00023464433252229355
aF0.0028455958745325916
aF0.00030328894399644923
aF0.007072775071947035
aF0.0001465419686610403
aF0.00017084534283640096
aF0.00025599057971703587
aF9.806300840864424e-05
aF8.57871743846772e-05
aF0.0002566932666923094
aF0.014651082370164659
aF0.010407608579498628
aF0.01637847648726165
aF0.00014090818626755208
aF0.0028991677272642846
aF0.0001779695176082896
aF0.006723771052293159
aF0.0001583569746799185
aF0.00014326130121844471
aF0.0001600587904704298
aF8.798471480986336e-05
aF9.005022025121434e-05
aF0.00020493073179750354
aF0.0171957397578808
aF0.012034776921154844
aF0.01809429747163449
aF0.00015775497058712062
aF0.0030803268982708687
aF0.00015496892410737928
aF0.008617056510047405
aF0.0002359439083647885
aF0.00013232445326138986
aF0.00028196751281939214
aF0.00011095867489530065
aF0.00010036114417744102
aF0.00025829014703049324
ag190
ag190
aF0.012920833885345928
aF0.00882206872279312
aF0.015826441847821116
aF0.00020084369066353247
aF0.001861414055269961
aF0.00015127542974369135
aF0.006715372736834979
aF0.00019523760852280247
aF8.801264380053908e-05
aF9.997551455853682e-05
aF0.0
aF0.0
aF0.00014620470778936578
aF0.017540028817165876
aF0.012049756212718421
aF0.018599238795331985
aF0.00023464433252229355
aF0.003040396995743322
aF0.00029039074297543266
aF0.007146142873125427
aF0.0002272244914820476
aF0.00018422843004373135
aF0.0002580015866442409
aF0.00012147152756369906
aF0.00012505055178735347
aF0.0002504924336790282
aF0.017962793596325355
aF0.012889154470940412
aF0.019676363051075896
aF0.00013451516406348674
aF0.002984095785905083
aF0.000197999954707484
aF0.007183878911291686
aF0.00021538310829782858
aF0.00016086420782812638
aF0.0001815841017105413
aF0.000121001367460849
aF0.00011795767954936309
aF0.0002529549738028436
aF0.01972719309560489
aF0.013942571953975857
aF0.020885458066913998
aF0.0001591508696492383
aF0.003245433753818361
aF0.0001741371381740464
aF0.015893390605469904
aF0.0002505091276816529
aF0.00013263982373246108
aF0.00031222970915223414
aF0.00012544166020234115
aF9.996489757213567e-05
aF0.00031168693749350496
ag190
ag190
aF0.011701765579346102
aF0.007832121219962573
aF0.013692999730892552
aF0.00022229725630040775
aF0.001766003297120733
aF0.00014890845488935156
aF0.004951248370844041
aF0.00019992839861515677
aF5.3928310990158934e-05
aF7.692728297570284e-05
aF0.0
aF0.0
aF0.000132061199792588
aF0.013964746859528532
aF0.009756172613833769
aF0.01537250406977364
aF0.00023464433252229355
aF0.0028184559032524703
aF0.00026547106926955166
aF0.015326388216749365
aF0.00014833109844403225
aF0.00017605243237994728
aF0.00021281428871589014
aF9.100470992962073e-05
aF6.577962335541088e-05
aF0.00016986891682790883
aF0.012947998800882488
aF0.009022292530517007
aF0.014362202716711181
aF0.00017559955949764117
aF0.0027919442172787967
aF0.00017845832962848363
aF0.009774338217766854
aF0.00016357313688786235
aF0.00011728732351912186
aF0.00010531190787332889
aF6.106827186158625e-05
aF8.94316883659485e-05
aF0.00018394664857623866
aF0.015816679149793345
aF0.0113506701723054
aF0.016418295236690028
aF0.0001593037911788997
aF0.003033012442756444
aF0.00016766881913099496
aF0.0072925309427773755
aF0.0002209034851148317
aF0.00013116226546117105
aF0.0002606242990168539
aF0.00011112557149317581
aF9.019762046591495e-05
aF0.0002492401554263779
ag190
ag190
aF0.011592701821427909
aF0.008155335448236656
aF0.014667774328927408
aF0.00023078314779922948
aF0.001879249666103533
aF0.0001382813667305527
aF0.0047614572142720135
aF0.0001964592623835415
aF6.74040190915548e-05
aF8.987223111489584e-05
aF0.0
aF0.0
aF0.00013292372773321404
aF0.01595656458243866
aF0.011063798351642617
aF0.01723271615082922
aF0.00023464433252229355
aF0.002863177804101724
aF0.00028058658108420786
aF0.007202342249343019
aF0.00017892254754769965
aF0.00017084534283640096
aF0.00027284249154035933
aF0.00011219980024179677
aF0.00010733041358435003
aF0.00022092434073783807
aF0.015624727618614997
aF0.011226730549878994
aF0.017118752613896504
aF0.0001410149277489836
aF0.002945432418528071
aF0.0001779978051672515
aF0.014370471353686298
aF0.0001950410542121972
aF0.00015651249668735545
aF0.00016041272215261415
aF9.65355991411343e-05
aF0.00011031661733795772
aF0.000238079730024765
aF0.01823385203806538
aF0.01298952371962514
aF0.019209155009320966
aF0.00016130598760355497
aF0.003111190178515244
aF0.00017416169089301548
aF0.011107483765499637
aF0.00024573959876761364
aF0.00014092603896642686
aF0.0003033491248061182
aF0.00010815896553140192
aF0.00010095091852235782
aF0.00027868277402376407
ag190
ag190
aF0.012545873073804614
aF0.00824584613155821
aF0.01471865548705864
aF0.0002205062410212122
aF0.0018679063742865765
aF0.00014640977371982444
aF0.005005331196798579
aF0.0001964592623835415
aF6.508409785510594e-05
aF9.193515359129378e-05
aF0.0
aF0.0
aF0.00013176479251342244
aF0.015518450224362823
aF0.010483278286301356
aF0.01648437304561412
aF0.00023464433252229355
aF0.0029237702992759296
aF0.0002789654049593082
aF0.0073113250487040204
aF0.000136711636059772
aF0.00014756657537873252
aF0.00023064253400661983
aF8.132889843182056e-05
aF8.804967887954263e-05
aF0.00023076492038853758
aF0.014948627816920634
aF0.01051552518219978
aF0.016232595188284904
aF0.000155742229480893
aF0.0029487260871974286
aF0.00016853850365805556
aF0.006854505507362774
aF0.00016721235215300112
aF0.000148455143062165
aF0.00014470989685833047
aF9.037465906658326e-05
aF9.426714314031415e-05
aF0.0001968253686754906
aF0.017069384954083944
aF0.012298349816774135
aF0.018128910091036232
aF0.00014534606293636898
aF0.003206821143066918
aF0.00015501390726058162
aF0.007634300302925112
aF0.00021593366318484186
aF0.00013595866585092153
aF0.0002823318413902598
aF0.000116463833137459
aF9.355147335554648e-05
aF0.00025823995065366034
ag190
ag190
aF0.012523816451903258
aF0.008059970383555992
aF0.014760916671093582
aF0.0002257328674204473
aF0.001850533006859223
aF0.0001382813667305527
aF0.007198936906661402
aF0.0001964592623835415
aF6.377989382144733e-05
aF9.193515359129378e-05
aF0.0
aF0.0
aF0.00013020746200709254
aF0.01563852468461846
aF0.010631907518927619
aF0.01673247993721816
aF0.00023464433252229355
aF0.002901643769291695
aF0.00030328894399644923
aF0.008835619806632167
aF4.4562013954418944e-05
aF6.250943215491134e-05
aF0.00025599057971703587
aF9.806300840864424e-05
aF8.57871743846772e-05
aF0.0002566932666923094
aF0.014990168475833343
aF0.010865130510865129
aF0.016661950175148377
aF0.00014090818626755208
aF0.0029747345552095794
aF0.0001779695176082896
aF0.008797931911885826
aF0.0001669936586949916
aF0.00014296751578513067
aF0.00016442563560303824
aF9.340836732008029e-05
aF9.474499961470428e-05
aF0.00020493073179750354
aF0.017836989694842487
aF0.012928805052524694
aF0.018983238106102363
aF0.0001617990383238066
aF0.0031651177605453995
aF0.00017421110896975733
aF0.00787943036402794
aF0.00026725066641120065
aF0.00014111449581832858
aF0.0002996310140588321
aF0.0001137769679644407
aF0.00010036114417744102
aF0.0002664382154762279
ag190
ag190
aF0.012523816451903258
aF0.008059970383555992
aF0.014760916671093582
aF0.0002257328674204473
aF0.001850533006859223
aF0.0001382813667305527
aF0.007198936906661402
aF0.0001964592623835415
aF6.377989382144733e-05
aF9.193515359129378e-05
aF0.0
aF0.0
aF0.00013020746200709254
aF0.01563852468461846
aF0.010631907518927619
aF0.01673247993721816
aF0.00023464433252229355
aF0.002901643769291695
aF0.00030328894399644923
aF0.008835619806632167
aF4.4562013954418944e-05
aF6.250943215491134e-05
aF0.00025599057971703587
aF9.806300840864424e-05
aF8.57871743846772e-05
aF0.0002566932666923094
aF0.014990168475833343
aF0.010865130510865129
aF0.016661950175148377
aF0.00014090818626755208
aF0.0029747345552095794
aF0.0001779695176082896
aF0.008797931911885826
aF0.0001669936586949916
aF0.00014296751578513067
aF0.00016442563560303824
aF9.340836732008029e-05
aF9.474499961470428e-05
aF0.00020493073179750354
aF0.017294197036790138
aF0.012278220805910678
aF0.01838008071990771
aF0.00015652748288630391
aF0.003134080548534257
aF0.00014970359870858374
aF0.007721324606791313
aF0.0002502043437289103
aF0.0001408095868100645
aF0.00026918174989987165
aF0.00010185065571022278
aF0.00010662422141649586
aF0.00025066560601771926
ag190
ag190
atp403
ba(lp404
g15
(g16
(dp405
g18
g19
(g20
(I0
tp406
g22
tp407
Rp408
(I1
(I1
tp409
g29
I00
(lp410
g43
atp411
bsg68
Nstp412
Rp413
ag15
(g16
(dp414
g18
g19
(g20
(I0
tp415
g22
tp416
Rp417
(I1
(I33
tp418
g29
I00
(lp419
g33
ag34
ag35
ag36
ag37
ag38
ag39
ag40
ag41
ag42
ag44
ag45
ag46
ag47
ag48
ag49
ag50
ag51
ag52
ag53
ag54
ag55
ag56
ag57
ag58
ag59
ag60
ag61
ag62
ag63
ag64
ag65
ag66
atp420
bsg68
Nstp421
Rp422
a(dp423
S'0.14.1'
p424
(dp425
S'axes'
p426
g14
sS'blocks'
p427
(lp428
(dp429
S'mgr_locs'
p430
c__builtin__
slice
p431
(I10
I11
I1
tp432
Rp433
sS'values'
p434
g89
sa(dp435
g430
g19
(g20
(I0
tp436
g22
tp437
Rp438
(I1
(I33
tp439
g79
I00
S'\x00\x00\x00\x00\x00\x00\x00\x00\x01\x00\x00\x00\x00\x00\x00\x00\x02\x00\x00\x00\x00\x00\x00\x00\x03\x00\x00\x00\x00\x00\x00\x00\x04\x00\x00\x00\x00\x00\x00\x00\x05\x00\x00\x00\x00\x00\x00\x00\x06\x00\x00\x00\x00\x00\x00\x00\x07\x00\x00\x00\x00\x00\x00\x00\x08\x00\x00\x00\x00\x00\x00\x00\t\x00\x00\x00\x00\x00\x00\x00\x0b\x00\x00\x00\x00\x00\x00\x00\x0c\x00\x00\x00\x00\x00\x00\x00\r\x00\x00\x00\x00\x00\x00\x00\x0e\x00\x00\x00\x00\x00\x00\x00\x0f\x00\x00\x00\x00\x00\x00\x00\x10\x00\x00\x00\x00\x00\x00\x00\x11\x00\x00\x00\x00\x00\x00\x00\x12\x00\x00\x00\x00\x00\x00\x00\x13\x00\x00\x00\x00\x00\x00\x00\x14\x00\x00\x00\x00\x00\x00\x00\x15\x00\x00\x00\x00\x00\x00\x00\x16\x00\x00\x00\x00\x00\x00\x00\x17\x00\x00\x00\x00\x00\x00\x00\x18\x00\x00\x00\x00\x00\x00\x00\x19\x00\x00\x00\x00\x00\x00\x00\x1a\x00\x00\x00\x00\x00\x00\x00\x1b\x00\x00\x00\x00\x00\x00\x00\x1c\x00\x00\x00\x00\x00\x00\x00\x1d\x00\x00\x00\x00\x00\x00\x00\x1e\x00\x00\x00\x00\x00\x00\x00\x1f\x00\x00\x00\x00\x00\x00\x00 \x00\x00\x00\x00\x00\x00\x00!\x00\x00\x00\x00\x00\x00\x00'
p440
tp441
bsg434
g100
sasstp442
bsb.