ccopy_reg
_reconstructor
p0
(cpandas.core.frame
DataFrame
p1
c__builtin__
object
p2
Ntp3
Rp4
(dp5
S'_metadata'
p6
(lp7
sS'_typ'
p8
S'dataframe'
p9
sS'_data'
p10
g0
(cpandas.core.internals
BlockManager
p11
g2
Ntp12
Rp13
((lp14
cpandas.core.indexes.base
_new_Index
p15
(cpandas.core.indexes.base
Index
p16
(dp17
S'data'
p18
cnumpy.core.multiarray
_reconstruct
p19
(cnumpy
ndarray
p20
(I0
tp21
S'b'
p22
tp23
Rp24
(I1
(I34
tp25
cnumpy
dtype
p26
(S'O8'
p27
I0
I1
tp28
Rp29
(I3
S'|'
p30
NNNI-1
I-1
I63
tp31
bI00
(lp32
S'year'
p33
aS'type'
p34
aS'procOriginal'
p35
aS'proc'
p36
aS'proc_s0'
p37
aS'cat'
p38
aS'inputWSFile'
p39
aS'nominalDataName'
p40
aS'modelWSFile'
p41
aS'model'
p42
aS'rate'
p43
aS'nominal_yield'
p44
aS'sumw2'
p45
aS'nominal_yield_COWCorr'
p46
aS'LooseMvaSF_up_yield'
p47
aS'LooseMvaSF_down_yield'
p48
aS'PreselSF_up_yield'
p49
aS'PreselSF_down_yield'
p50
aS'electronVetoSF_up_yield'
p51
aS'electronVetoSF_down_yield'
p52
aS'TriggerWeight_up_yield'
p53
aS'TriggerWeight_down_yield'
p54
aS'SigmaEOverEShift_up_yield'
p55
aS'SigmaEOverEShift_down_yield'
p56
aS'MvaShift_up_yield'
p57
aS'MvaShift_down_yield'
p58
aS'PUJIDShift_up_yield'
p59
aS'PUJIDShift_down_yield'
p60
aS'JEC_up_yield'
p61
aS'JEC_down_yield'
p62
aS'JER_up_yield'
p63
aS'JER_down_yield'
p64
aS'JetHEM_up_yield'
p65
aS'JetHEM_down_yield'
p66
atp67
bsS'name'
p68
Nstp69
Rp70
ag15
(cpandas.core.indexes.numeric
Int64Index
p71
(dp72
g18
g19
(g20
(I0
tp73
g22
tp74
Rp75
(I1
(I54
tp76
g26
(S'i8'
p77
I0
I1
tp78
Rp79
(I3
S'<'
p80
NNNI-1
I-1
I0
tp81
bI00
S'\x00\x00\x00\x00\x00\x00\x00\x00\x01\x00\x00\x00\x00\x00\x00\x00\x02\x00\x00\x00\x00\x00\x00\x00\x03\x00\x00\x00\x00\x00\x00\x00\x04\x00\x00\x00\x00\x00\x00\x00\x05\x00\x00\x00\x00\x00\x00\x00\x06\x00\x00\x00\x00\x00\x00\x00\x07\x00\x00\x00\x00\x00\x00\x00\x08\x00\x00\x00\x00\x00\x00\x00\t\x00\x00\x00\x00\x00\x00\x00\n\x00\x00\x00\x00\x00\x00\x00\x0b\x00\x00\x00\x00\x00\x00\x00\x0c\x00\x00\x00\x00\x00\x00\x00\r\x00\x00\x00\x00\x00\x00\x00\x0e\x00\x00\x00\x00\x00\x00\x00\x0f\x00\x00\x00\x00\x00\x00\x00\x10\x00\x00\x00\x00\x00\x00\x00\x11\x00\x00\x00\x00\x00\x00\x00\x12\x00\x00\x00\x00\x00\x00\x00\x13\x00\x00\x00\x00\x00\x00\x00\x14\x00\x00\x00\x00\x00\x00\x00\x15\x00\x00\x00\x00\x00\x00\x00\x16\x00\x00\x00\x00\x00\x00\x00\x17\x00\x00\x00\x00\x00\x00\x00\x18\x00\x00\x00\x00\x00\x00\x00\x19\x00\x00\x00\x00\x00\x00\x00\x1a\x00\x00\x00\x00\x00\x00\x00\x1b\x00\x00\x00\x00\x00\x00\x00\x1c\x00\x00\x00\x00\x00\x00\x00\x1d\x00\x00\x00\x00\x00\x00\x00\x1e\x00\x00\x00\x00\x00\x00\x00\x1f\x00\x00\x00\x00\x00\x00\x00 \x00\x00\x00\x00\x00\x00\x00!\x00\x00\x00\x00\x00\x00\x00"\x00\x00\x00\x00\x00\x00\x00#\x00\x00\x00\x00\x00\x00\x00$\x00\x00\x00\x00\x00\x00\x00%\x00\x00\x00\x00\x00\x00\x00&\x00\x00\x00\x00\x00\x00\x00\'\x00\x00\x00\x00\x00\x00\x00(\x00\x00\x00\x00\x00\x00\x00)\x00\x00\x00\x00\x00\x00\x00*\x00\x00\x00\x00\x00\x00\x00+\x00\x00\x00\x00\x00\x00\x00,\x00\x00\x00\x00\x00\x00\x00-\x00\x00\x00\x00\x00\x00\x00.\x00\x00\x00\x00\x00\x00\x00/\x00\x00\x00\x00\x00\x00\x000\x00\x00\x00\x00\x00\x00\x001\x00\x00\x00\x00\x00\x00\x002\x00\x00\x00\x00\x00\x00\x003\x00\x00\x00\x00\x00\x00\x004\x00\x00\x00\x00\x00\x00\x005\x00\x00\x00\x00\x00\x00\x00'
p82
tp83
bsg68
Nstp84
Rp85
a(lp86
g19
(g20
(I0
tp87
g22
tp88
Rp89
(I1
(I1
I54
tp90
g26
(S'f8'
p91
I0
I1
tp92
Rp93
(I3
S'<'
p94
NNNI-1
I-1
I0
tp95
bI00
S'\x00\x00\x00\x00\x00\x10\xd3@\x00\x00\x00\x00\x00\x10\xd3@\x00\x00\x00\x00\x00\x10\xd3@\x00\x00\x00\x00\x00\x10\xd3@\x00\x00\x00\x00\x00\x10\xd3@\x00\x00\x00\x00\x00\x10\xd3@\x00\x00\x00\x00\x00\x10\xd3@\x00\x00\x00\x00\x00\x10\xd3@\x00\x00\x00\x00\x00\x10\xd3@\x00\x00\x00\x00\x00\x10\xd3@\x00\x00\x00\x00\x00\x10\xd3@\x00\x00\x00\x00\x00\x10\xd3@\x00\x00\x00\x00\x00\x10\xd3@\x00\x00\x00\x00\x80j\xd0@\x00\x00\x00\x00\x80j\xd0@\x00\x00\x00\x00\x80j\xd0@\x00\x00\x00\x00\x80j\xd0@\x00\x00\x00\x00\x80j\xd0@\x00\x00\x00\x00\x80j\xd0@\x00\x00\x00\x00\x80j\xd0@\x00\x00\x00\x00\x80j\xd0@\x00\x00\x00\x00\x80j\xd0@\x00\x00\x00\x00\x80j\xd0@\x00\x00\x00\x00\x80j\xd0@\x00\x00\x00\x00\x80j\xd0@\x00\x00\x00\x00\x80j\xd0@\x00\x00\x00\x00\x00A\xe4@\x00\x00\x00\x00\x00A\xe4@\x00\x00\x00\x00\x00A\xe4@\x00\x00\x00\x00\x00A\xe4@\x00\x00\x00\x00\x00A\xe4@\x00\x00\x00\x00\x00A\xe4@\x00\x00\x00\x00\x00A\xe4@\x00\x00\x00\x00\x00A\xe4@\x00\x00\x00\x00\x00A\xe4@\x00\x00\x00\x00\x00A\xe4@\x00\x00\x00\x00\x00A\xe4@\x00\x00\x00\x00\x00A\xe4@\x00\x00\x00\x00\x00A\xe4@\x00\x00\x00\x00\xc0\xfa\xec@\x00\x00\x00\x00\xc0\xfa\xec@\x00\x00\x00\x00\xc0\xfa\xec@\x00\x00\x00\x00\xc0\xfa\xec@\x00\x00\x00\x00\xc0\xfa\xec@\x00\x00\x00\x00\xc0\xfa\xec@\x00\x00\x00\x00\xc0\xfa\xec@\x00\x00\x00\x00\xc0\xfa\xec@\x00\x00\x00\x00\xc0\xfa\xec@\x00\x00\x00\x00\xc0\xfa\xec@\x00\x00\x00\x00\xc0\xfa\xec@\x00\x00\x00\x00\xc0\xfa\xec@\x00\x00\x00\x00\xc0\xfa\xec@\x00\x00\x00\x00\x00\x00\xf0?\x00\x00\x00\x00\x00\x00\xf0\xbf'
p96
tp97
bag19
(g20
(I0
tp98
g22
tp99
Rp100
(I1
(I33
I54
tp101
g29
I00
(lp102
S'2016preVFP'
p103
ag103
ag103
ag103
ag103
ag103
ag103
ag103
ag103
ag103
ag103
ag103
ag103
aS'2016postVFP'
p104
ag104
ag104
ag104
ag104
ag104
ag104
ag104
ag104
ag104
ag104
ag104
ag104
aS'2017'
p105
ag105
ag105
ag105
ag105
ag105
ag105
ag105
ag105
ag105
ag105
ag105
ag105
aS'2018'
p106
ag106
ag106
ag106
ag106
ag106
ag106
ag106
ag106
ag106
ag106
ag106
ag106
aS'merged'
p107
ag107
aS'sig'
p108
ag108
ag108
ag108
ag108
ag108
ag108
ag108
ag108
ag108
ag108
ag108
ag108
ag108
ag108
ag108
ag108
ag108
ag108
ag108
ag108
ag108
ag108
ag108
ag108
ag108
ag108
ag108
ag108
ag108
ag108
ag108
ag108
ag108
ag108
ag108
ag108
ag108
ag108
ag108
ag108
ag108
ag108
ag108
ag108
ag108
ag108
ag108
ag108
ag108
ag108
ag108
aS'bkg'
p109
ag18
aS'GG2HMf05ph0'
p110
aS'GG2HbsmM'
p111
aS'GG2Hsm'
p112
aS'TTHsm'
p113
aS'VBFMf05ph0'
p114
aS'VBFbsmM'
p115
aS'VBFsm'
p116
aS'WHMf05ph0'
p117
aS'WHbsmM'
p118
aS'WHsm'
p119
aS'ZHMf05ph0'
p120
aS'ZHbsmM'
p121
aS'ZHsm'
p122
ag110
ag111
ag112
ag113
ag114
ag115
ag116
ag117
ag118
ag119
ag120
ag121
ag122
ag110
ag111
ag112
ag113
ag114
ag115
ag116
ag117
ag118
ag119
ag120
ag121
ag122
ag110
ag111
ag112
ag113
ag114
ag115
ag116
ag117
ag118
ag119
ag120
ag121
ag122
aS'bkg_mass'
p123
aS'data_obs'
p124
aS'GG2HMf05ph0_2016preVFP_hgg'
p125
aS'GG2HbsmM_2016preVFP_hgg'
p126
aS'GG2Hsm_2016preVFP_hgg'
p127
aS'tth0P_2016preVFP_hgg'
p128
aS'vbf0Mf05ph0_2016preVFP_hgg'
p129
aS'vbf0M_2016preVFP_hgg'
p130
aS'vbf0P_2016preVFP_hgg'
p131
aS'wh0Mf05ph0_2016preVFP_hgg'
p132
aS'wh0M_2016preVFP_hgg'
p133
aS'wh0P_2016preVFP_hgg'
p134
aS'zh0Mf05ph0_2016preVFP_hgg'
p135
aS'zh0M_2016preVFP_hgg'
p136
aS'zh0P_2016preVFP_hgg'
p137
aS'GG2HMf05ph0_2016postVFP_hgg'
p138
aS'GG2HbsmM_2016postVFP_hgg'
p139
aS'GG2Hsm_2016postVFP_hgg'
p140
aS'tth0P_2016postVFP_hgg'
p141
aS'vbf0Mf05ph0_2016postVFP_hgg'
p142
aS'vbf0M_2016postVFP_hgg'
p143
aS'vbf0P_2016postVFP_hgg'
p144
aS'wh0Mf05ph0_2016postVFP_hgg'
p145
aS'wh0M_2016postVFP_hgg'
p146
aS'wh0P_2016postVFP_hgg'
p147
aS'zh0Mf05ph0_2016postVFP_hgg'
p148
aS'zh0M_2016postVFP_hgg'
p149
aS'zh0P_2016postVFP_hgg'
p150
aS'GG2HMf05ph0_2017_hgg'
p151
aS'GG2HbsmM_2017_hgg'
p152
aS'GG2Hsm_2017_hgg'
p153
aS'tth0P_2017_hgg'
p154
aS'vbf0Mf05ph0_2017_hgg'
p155
aS'vbf0M_2017_hgg'
p156
aS'vbf0P_2017_hgg'
p157
aS'wh0Mf05ph0_2017_hgg'
p158
aS'wh0M_2017_hgg'
p159
aS'wh0P_2017_hgg'
p160
aS'zh0Mf05ph0_2017_hgg'
p161
aS'zh0M_2017_hgg'
p162
aS'zh0P_2017_hgg'
p163
aS'GG2HMf05ph0_2018_hgg'
p164
aS'GG2HbsmM_2018_hgg'
p165
aS'GG2Hsm_2018_hgg'
p166
aS'tth0P_2018_hgg'
p167
aS'vbf0Mf05ph0_2018_hgg'
p168
aS'vbf0M_2018_hgg'
p169
aS'vbf0P_2018_hgg'
p170
aS'wh0Mf05ph0_2018_hgg'
p171
aS'wh0M_2018_hgg'
p172
aS'wh0P_2018_hgg'
p173
aS'zh0Mf05ph0_2018_hgg'
p174
aS'zh0M_2018_hgg'
p175
aS'zh0P_2018_hgg'
p176
ag123
ag124
aS'jjh0Mf05ph0'
p177
aS'jjh0M'
p178
aS'jjh0P'
p179
aS'tth0P'
p180
aS'vbf0Mf05ph0'
p181
aS'vbf0M'
p182
aS'vbf0P'
p183
aS'wh0Mf05ph0'
p184
aS'wh0M'
p185
aS'wh0P'
p186
aS'zh0Mf05ph0'
p187
aS'zh0M'
p188
aS'zh0P'
p189
ag177
ag178
ag179
ag180
ag181
ag182
ag183
ag184
ag185
ag186
ag187
ag188
ag189
ag177
ag178
ag179
ag180
ag181
ag182
ag183
ag184
ag185
ag186
ag187
ag188
ag189
ag177
ag178
ag179
ag180
ag181
ag182
ag183
ag184
ag185
ag186
ag187
ag188
ag189
aS'-'
p190
ag190
aS'AC_Bin11'
p191
ag191
ag191
ag191
ag191
ag191
ag191
ag191
ag191
ag191
ag191
ag191
ag191
ag191
ag191
ag191
ag191
ag191
ag191
ag191
ag191
ag191
ag191
ag191
ag191
ag191
ag191
ag191
ag191
ag191
ag191
ag191
ag191
ag191
ag191
ag191
ag191
ag191
ag191
ag191
ag191
ag191
ag191
ag191
ag191
ag191
ag191
ag191
ag191
ag191
ag191
ag191
ag191
ag191
aS'Trees/Opt_RunII/RunII/Trees2WS_RunII/WS_2016preVFP/output_GluGluHToGGPlusTwoJets_MM_M125_TuneCP5_13TeV-amcatnlopowheg-minlo-pythia8_GG2HMf05ph0.root'
p192
aS'Trees/Opt_RunII/RunII/Trees2WS_RunII/WS_2016preVFP/output_GluGluHToGGPlusTwoJets_CPodd_M125_TuneCP5_13TeV-amcatnlopowheg-minlo-pythia8_GG2HbsmM.root'
p193
aS'Trees/Opt_RunII/RunII/Trees2WS_RunII/WS_2016preVFP/output_GluGluHToGGPlusTwoJets_SM_M125_TuneCP5_13TeV-amcatnlopowheg-minlo-pythia8_GG2Hsm.root'
p194
aS'Trees/Opt_RunII/RunII/Trees2WS_RunII/WS_2016preVFP/output_ttHJetToGG_M125_TuneCP5_13TeV-amcatnloFXFX-madspin-pythia8_TTHsm.root'
p195
aS'Trees/Opt_RunII/RunII/Trees2WS_RunII/WS_2016preVFP/output_VBFHiggs0Mf05ph0ToGG_M125_TuneCP5_13TeV-JHUGenV7011-pythia8_VBFMf05ph0.root'
p196
aS'Trees/Opt_RunII/RunII/Trees2WS_RunII/WS_2016preVFP/output_VBFHiggs0MToGG_M125_TuneCP5_13TeV-JHUGenV7011-pythia8_VBFbsmM.root'
p197
aS'Trees/Opt_RunII/RunII/Trees2WS_RunII/WS_2016preVFP/output_VBFHToGG_M125_TuneCP5_13TeV-amcatnlo-pythia8_VBFsm.root'
p198
aS'Trees/Opt_RunII/RunII/Trees2WS_RunII/WS_2016preVFP/output_WHiggs0Mf05ph0ToGG_M125_TuneCP5_13TeV-JHUGenV7011-pythia8_WHMf05ph0.root'
p199
aS'Trees/Opt_RunII/RunII/Trees2WS_RunII/WS_2016preVFP/output_WHiggs0MToGG_M125_TuneCP5_13TeV-JHUGenV7011-pythia8_WHbsmM.root'
p200
aS'Trees/Opt_RunII/RunII/Trees2WS_RunII/WS_2016preVFP/output_WHiggs0PMToGG_M125_TuneCP5_13TeV-JHUGenV7011-pythia8_WHsm.root'
p201
aS'Trees/Opt_RunII/RunII/Trees2WS_RunII/WS_2016preVFP/output_ZHiggs0Mf05ph0ToGG_M125_TuneCP5_13TeV-JHUGenV7011-pythia8_ZHMf05ph0.root'
p202
aS'Trees/Opt_RunII/RunII/Trees2WS_RunII/WS_2016preVFP/output_ZHiggs0MToGG_M125_TuneCP5_13TeV-JHUGenV7011-pythia8_ZHbsmM.root'
p203
aS'Trees/Opt_RunII/RunII/Trees2WS_RunII/WS_2016preVFP/output_ZH_HToGG_ZToAll_M125_TuneCP5_13TeV-powheg-pythia8_ZHsm.root'
p204
aS'Trees/Opt_RunII/RunII/Trees2WS_RunII/WS_2016postVFP/output_GluGluHToGGPlusTwoJets_MM_M125_TuneCP5_13TeV-amcatnlopowheg-minlo-pythia8_GG2HMf05ph0.root'
p205
aS'Trees/Opt_RunII/RunII/Trees2WS_RunII/WS_2016postVFP/output_GluGluHToGGPlusTwoJets_CPodd_M125_TuneCP5_13TeV-amcatnlopowheg-minlo-pythia8_GG2HbsmM.root'
p206
aS'Trees/Opt_RunII/RunII/Trees2WS_RunII/WS_2016postVFP/output_GluGluHToGGPlusTwoJets_SM_M125_TuneCP5_13TeV-amcatnlopowheg-minlo-pythia8_GG2Hsm.root'
p207
aS'Trees/Opt_RunII/RunII/Trees2WS_RunII/WS_2016postVFP/output_ttHJetToGG_M125_TuneCP5_13TeV-amcatnloFXFX-madspin-pythia8_TTHsm.root'
p208
aS'Trees/Opt_RunII/RunII/Trees2WS_RunII/WS_2016postVFP/output_VBFHiggs0Mf05ph0ToGG_M125_TuneCP5_13TeV-JHUGenV7011-pythia8_VBFMf05ph0.root'
p209
aS'Trees/Opt_RunII/RunII/Trees2WS_RunII/WS_2016postVFP/output_VBFHiggs0MToGG_M125_TuneCP5_13TeV-JHUGenV7011-pythia8_VBFbsmM.root'
p210
aS'Trees/Opt_RunII/RunII/Trees2WS_RunII/WS_2016postVFP/output_VBFHToGG_M125_TuneCP5_13TeV-amcatnlo-pythia8_VBFsm.root'
p211
aS'Trees/Opt_RunII/RunII/Trees2WS_RunII/WS_2016postVFP/output_WHiggs0Mf05ph0ToGG_M125_TuneCP5_13TeV-JHUGenV7011-pythia8_WHMf05ph0.root'
p212
aS'Trees/Opt_RunII/RunII/Trees2WS_RunII/WS_2016postVFP/output_WHiggs0MToGG_M125_TuneCP5_13TeV-JHUGenV7011-pythia8_WHbsmM.root'
p213
aS'Trees/Opt_RunII/RunII/Trees2WS_RunII/WS_2016postVFP/output_WHiggs0PMToGG_M125_TuneCP5_13TeV-JHUGenV7011-pythia8_WHsm.root'
p214
aS'Trees/Opt_RunII/RunII/Trees2WS_RunII/WS_2016postVFP/output_ZHiggs0Mf05ph0ToGG_M125_TuneCP5_13TeV-JHUGenV7011-pythia8_ZHMf05ph0.root'
p215
aS'Trees/Opt_RunII/RunII/Trees2WS_RunII/WS_2016postVFP/output_ZHiggs0MToGG_M125_TuneCP5_13TeV-JHUGenV7011-pythia8_ZHbsmM.root'
p216
aS'Trees/Opt_RunII/RunII/Trees2WS_RunII/WS_2016postVFP/output_ZH_HToGG_ZToAll_M125_TuneCP5_13TeV-powheg-pythia8_ZHsm.root'
p217
aS'Trees/Opt_RunII/RunII/Trees2WS_RunII/WS_2017/output_GluGluHToGGPlusTwoJets_MM_M125_TuneCP5_13TeV-amcatnlopowheg-minlo-pythia8_GG2HMf05ph0.root'
p218
aS'Trees/Opt_RunII/RunII/Trees2WS_RunII/WS_2017/output_GluGluHToGGPlusTwoJets_CPodd_M125_TuneCP5_13TeV-amcatnlopowheg-minlo-pythia8_GG2HbsmM.root'
p219
aS'Trees/Opt_RunII/RunII/Trees2WS_RunII/WS_2017/output_GluGluHToGGPlusTwoJets_SM_M125_TuneCP5_13TeV-amcatnlopowheg-minlo-pythia8_GG2Hsm.root'
p220
aS'Trees/Opt_RunII/RunII/Trees2WS_RunII/WS_2017/output_ttHJetToGG_M125_TuneCP5_13TeV-amcatnloFXFX-madspin-pythia8_TTHsm.root'
p221
aS'Trees/Opt_RunII/RunII/Trees2WS_RunII/WS_2017/output_VBFHiggs0Mf05ph0ToGG_M125_TuneCP5_13TeV-JHUGenV7011-pythia8_VBFMf05ph0.root'
p222
aS'Trees/Opt_RunII/RunII/Trees2WS_RunII/WS_2017/output_VBFHiggs0MToGG_M125_TuneCP5_13TeV-JHUGenV7011-pythia8_VBFbsmM.root'
p223
aS'Trees/Opt_RunII/RunII/Trees2WS_RunII/WS_2017/output_VBFHToGG_M125_TuneCP5_13TeV-amcatnlo-pythia8_VBFsm.root'
p224
aS'Trees/Opt_RunII/RunII/Trees2WS_RunII/WS_2017/output_WHiggs0Mf05ph0ToGG_M125_TuneCP5_13TeV-JHUGenV7011-pythia8_WHMf05ph0.root'
p225
aS'Trees/Opt_RunII/RunII/Trees2WS_RunII/WS_2017/output_WHiggs0MToGG_M125_TuneCP5_13TeV-JHUGenV7011-pythia8_WHbsmM.root'
p226
aS'Trees/Opt_RunII/RunII/Trees2WS_RunII/WS_2017/output_WHiggs0PMToGG_M125_TuneCP5_13TeV-JHUGenV7011-pythia8_WHsm.root'
p227
aS'Trees/Opt_RunII/RunII/Trees2WS_RunII/WS_2017/output_ZHiggs0Mf05ph0ToGG_M125_TuneCP5_13TeV-JHUGenV7011-pythia8_ZHMf05ph0.root'
p228
aS'Trees/Opt_RunII/RunII/Trees2WS_RunII/WS_2017/output_ZHiggs0MToGG_M125_TuneCP5_13TeV-JHUGenV7011-pythia8_ZHbsmM.root'
p229
aS'Trees/Opt_RunII/RunII/Trees2WS_RunII/WS_2017/output_ZH_HToGG_ZToAll_M125_TuneCP5_13TeV-powheg-pythia8_ZHsm.root'
p230
aS'Trees/Opt_RunII/RunII/Trees2WS_RunII/WS_2018/output_GluGluHToGGPlusTwoJets_MM_M125_TuneCP5_13TeV-amcatnlopowheg-minlo-pythia8_GG2HMf05ph0.root'
p231
aS'Trees/Opt_RunII/RunII/Trees2WS_RunII/WS_2018/output_GluGluHToGGPlusTwoJets_CPodd_M125_TuneCP5_13TeV-amcatnlopowheg-minlo-pythia8_GG2HbsmM.root'
p232
aS'Trees/Opt_RunII/RunII/Trees2WS_RunII/WS_2018/output_GluGluHToGGPlusTwoJets_SM_M125_TuneCP5_13TeV-amcatnlopowheg-minlo-pythia8_GG2Hsm.root'
p233
aS'Trees/Opt_RunII/RunII/Trees2WS_RunII/WS_2018/output_ttHJetToGG_M125_TuneCP5_13TeV-amcatnloFXFX-madspin-pythia8_TTHsm.root'
p234
aS'Trees/Opt_RunII/RunII/Trees2WS_RunII/WS_2018/output_VBFHiggs0Mf05ph0ToGG_M125_TuneCP5_13TeV-JHUGenV7011-pythia8_VBFMf05ph0.root'
p235
aS'Trees/Opt_RunII/RunII/Trees2WS_RunII/WS_2018/output_VBFHiggs0MToGG_M125_TuneCP5_13TeV-JHUGenV7011-pythia8_VBFbsmM.root'
p236
aS'Trees/Opt_RunII/RunII/Trees2WS_RunII/WS_2018/output_VBFHToGG_M125_TuneCP5_13TeV-amcatnlo-pythia8_VBFsm.root'
p237
aS'Trees/Opt_RunII/RunII/Trees2WS_RunII/WS_2018/output_WHiggs0Mf05ph0ToGG_M125_TuneCP5_13TeV-JHUGenV7011-pythia8_WHMf05ph0.root'
p238
aS'Trees/Opt_RunII/RunII/Trees2WS_RunII/WS_2018/output_WHiggs0MToGG_M125_TuneCP5_13TeV-JHUGenV7011-pythia8_WHbsmM.root'
p239
aS'Trees/Opt_RunII/RunII/Trees2WS_RunII/WS_2018/output_WHiggs0PMToGG_M125_TuneCP5_13TeV-JHUGenV7011-pythia8_WHsm.root'
p240
aS'Trees/Opt_RunII/RunII/Trees2WS_RunII/WS_2018/output_ZHiggs0Mf05ph0ToGG_M125_TuneCP5_13TeV-JHUGenV7011-pythia8_ZHMf05ph0.root'
p241
aS'Trees/Opt_RunII/RunII/Trees2WS_RunII/WS_2018/output_ZHiggs0MToGG_M125_TuneCP5_13TeV-JHUGenV7011-pythia8_ZHbsmM.root'
p242
aS'Trees/Opt_RunII/RunII/Trees2WS_RunII/WS_2018/output_ZH_HToGG_ZToAll_M125_TuneCP5_13TeV-powheg-pythia8_ZHsm.root'
p243
ag190
ag190
aS'jjh0Mf05ph0_125_13TeV_AC_Bin11'
p244
aS'jjh0M_125_13TeV_AC_Bin11'
p245
aS'jjh0P_125_13TeV_AC_Bin11'
p246
aS'tth0P_125_13TeV_AC_Bin11'
p247
aS'vbf0Mf05ph0_125_13TeV_AC_Bin11'
p248
aS'vbf0M_125_13TeV_AC_Bin11'
p249
aS'vbf0P_125_13TeV_AC_Bin11'
p250
aS'wh0Mf05ph0_125_13TeV_AC_Bin11'
p251
aS'wh0M_125_13TeV_AC_Bin11'
p252
aS'wh0P_125_13TeV_AC_Bin11'
p253
aS'zh0Mf05ph0_125_13TeV_AC_Bin11'
p254
aS'zh0M_125_13TeV_AC_Bin11'
p255
aS'zh0P_125_13TeV_AC_Bin11'
p256
aS'jjh0Mf05ph0_125_13TeV_AC_Bin11'
p257
aS'jjh0M_125_13TeV_AC_Bin11'
p258
aS'jjh0P_125_13TeV_AC_Bin11'
p259
aS'tth0P_125_13TeV_AC_Bin11'
p260
aS'vbf0Mf05ph0_125_13TeV_AC_Bin11'
p261
aS'vbf0M_125_13TeV_AC_Bin11'
p262
aS'vbf0P_125_13TeV_AC_Bin11'
p263
aS'wh0Mf05ph0_125_13TeV_AC_Bin11'
p264
aS'wh0M_125_13TeV_AC_Bin11'
p265
aS'wh0P_125_13TeV_AC_Bin11'
p266
aS'zh0Mf05ph0_125_13TeV_AC_Bin11'
p267
aS'zh0M_125_13TeV_AC_Bin11'
p268
aS'zh0P_125_13TeV_AC_Bin11'
p269
aS'jjh0Mf05ph0_125_13TeV_AC_Bin11'
p270
aS'jjh0M_125_13TeV_AC_Bin11'
p271
aS'jjh0P_125_13TeV_AC_Bin11'
p272
aS'tth0P_125_13TeV_AC_Bin11'
p273
aS'vbf0Mf05ph0_125_13TeV_AC_Bin11'
p274
aS'vbf0M_125_13TeV_AC_Bin11'
p275
aS'vbf0P_125_13TeV_AC_Bin11'
p276
aS'wh0Mf05ph0_125_13TeV_AC_Bin11'
p277
aS'wh0M_125_13TeV_AC_Bin11'
p278
aS'wh0P_125_13TeV_AC_Bin11'
p279
aS'zh0Mf05ph0_125_13TeV_AC_Bin11'
p280
aS'zh0M_125_13TeV_AC_Bin11'
p281
aS'zh0P_125_13TeV_AC_Bin11'
p282
aS'jjh0Mf05ph0_125_13TeV_AC_Bin11'
p283
aS'jjh0M_125_13TeV_AC_Bin11'
p284
aS'jjh0P_125_13TeV_AC_Bin11'
p285
aS'tth0P_125_13TeV_AC_Bin11'
p286
aS'vbf0Mf05ph0_125_13TeV_AC_Bin11'
p287
aS'vbf0M_125_13TeV_AC_Bin11'
p288
aS'vbf0P_125_13TeV_AC_Bin11'
p289
aS'wh0Mf05ph0_125_13TeV_AC_Bin11'
p290
aS'wh0M_125_13TeV_AC_Bin11'
p291
aS'wh0P_125_13TeV_AC_Bin11'
p292
aS'zh0Mf05ph0_125_13TeV_AC_Bin11'
p293
aS'zh0M_125_13TeV_AC_Bin11'
p294
aS'zh0P_125_13TeV_AC_Bin11'
p295
ag190
ag190
aS'./Models/signal/CMS-HGG_sigfit_packaged_AC_Bin11.root'
p296
aS'./Models/signal/CMS-HGG_sigfit_packaged_AC_Bin11.root'
p297
aS'./Models/signal/CMS-HGG_sigfit_packaged_AC_Bin11.root'
p298
aS'./Models/signal/CMS-HGG_sigfit_packaged_AC_Bin11.root'
p299
aS'./Models/signal/CMS-HGG_sigfit_packaged_AC_Bin11.root'
p300
aS'./Models/signal/CMS-HGG_sigfit_packaged_AC_Bin11.root'
p301
aS'./Models/signal/CMS-HGG_sigfit_packaged_AC_Bin11.root'
p302
aS'./Models/signal/CMS-HGG_sigfit_packaged_AC_Bin11.root'
p303
aS'./Models/signal/CMS-HGG_sigfit_packaged_AC_Bin11.root'
p304
aS'./Models/signal/CMS-HGG_sigfit_packaged_AC_Bin11.root'
p305
aS'./Models/signal/CMS-HGG_sigfit_packaged_AC_Bin11.root'
p306
aS'./Models/signal/CMS-HGG_sigfit_packaged_AC_Bin11.root'
p307
aS'./Models/signal/CMS-HGG_sigfit_packaged_AC_Bin11.root'
p308
aS'./Models/signal/CMS-HGG_sigfit_packaged_AC_Bin11.root'
p309
aS'./Models/signal/CMS-HGG_sigfit_packaged_AC_Bin11.root'
p310
aS'./Models/signal/CMS-HGG_sigfit_packaged_AC_Bin11.root'
p311
aS'./Models/signal/CMS-HGG_sigfit_packaged_AC_Bin11.root'
p312
aS'./Models/signal/CMS-HGG_sigfit_packaged_AC_Bin11.root'
p313
aS'./Models/signal/CMS-HGG_sigfit_packaged_AC_Bin11.root'
p314
aS'./Models/signal/CMS-HGG_sigfit_packaged_AC_Bin11.root'
p315
aS'./Models/signal/CMS-HGG_sigfit_packaged_AC_Bin11.root'
p316
aS'./Models/signal/CMS-HGG_sigfit_packaged_AC_Bin11.root'
p317
aS'./Models/signal/CMS-HGG_sigfit_packaged_AC_Bin11.root'
p318
aS'./Models/signal/CMS-HGG_sigfit_packaged_AC_Bin11.root'
p319
aS'./Models/signal/CMS-HGG_sigfit_packaged_AC_Bin11.root'
p320
aS'./Models/signal/CMS-HGG_sigfit_packaged_AC_Bin11.root'
p321
aS'./Models/signal/CMS-HGG_sigfit_packaged_AC_Bin11.root'
p322
aS'./Models/signal/CMS-HGG_sigfit_packaged_AC_Bin11.root'
p323
aS'./Models/signal/CMS-HGG_sigfit_packaged_AC_Bin11.root'
p324
aS'./Models/signal/CMS-HGG_sigfit_packaged_AC_Bin11.root'
p325
aS'./Models/signal/CMS-HGG_sigfit_packaged_AC_Bin11.root'
p326
aS'./Models/signal/CMS-HGG_sigfit_packaged_AC_Bin11.root'
p327
aS'./Models/signal/CMS-HGG_sigfit_packaged_AC_Bin11.root'
p328
aS'./Models/signal/CMS-HGG_sigfit_packaged_AC_Bin11.root'
p329
aS'./Models/signal/CMS-HGG_sigfit_packaged_AC_Bin11.root'
p330
aS'./Models/signal/CMS-HGG_sigfit_packaged_AC_Bin11.root'
p331
aS'./Models/signal/CMS-HGG_sigfit_packaged_AC_Bin11.root'
p332
aS'./Models/signal/CMS-HGG_sigfit_packaged_AC_Bin11.root'
p333
aS'./Models/signal/CMS-HGG_sigfit_packaged_AC_Bin11.root'
p334
aS'./Models/signal/CMS-HGG_sigfit_packaged_AC_Bin11.root'
p335
aS'./Models/signal/CMS-HGG_sigfit_packaged_AC_Bin11.root'
p336
aS'./Models/signal/CMS-HGG_sigfit_packaged_AC_Bin11.root'
p337
aS'./Models/signal/CMS-HGG_sigfit_packaged_AC_Bin11.root'
p338
aS'./Models/signal/CMS-HGG_sigfit_packaged_AC_Bin11.root'
p339
aS'./Models/signal/CMS-HGG_sigfit_packaged_AC_Bin11.root'
p340
aS'./Models/signal/CMS-HGG_sigfit_packaged_AC_Bin11.root'
p341
aS'./Models/signal/CMS-HGG_sigfit_packaged_AC_Bin11.root'
p342
aS'./Models/signal/CMS-HGG_sigfit_packaged_AC_Bin11.root'
p343
aS'./Models/signal/CMS-HGG_sigfit_packaged_AC_Bin11.root'
p344
aS'./Models/signal/CMS-HGG_sigfit_packaged_AC_Bin11.root'
p345
aS'./Models/signal/CMS-HGG_sigfit_packaged_AC_Bin11.root'
p346
aS'./Models/signal/CMS-HGG_sigfit_packaged_AC_Bin11.root'
p347
aS'./Models/background/CMS-HGG_multipdf_AC_Bin11.root'
p348
ag348
aS'wsig_13TeV:hggpdfsmrel_GG2HMf05ph0_2016preVFP_AC_Bin11_13TeV'
p349
aS'wsig_13TeV:hggpdfsmrel_GG2HbsmM_2016preVFP_AC_Bin11_13TeV'
p350
aS'wsig_13TeV:hggpdfsmrel_GG2Hsm_2016preVFP_AC_Bin11_13TeV'
p351
aS'wsig_13TeV:hggpdfsmrel_TTHsm_2016preVFP_AC_Bin11_13TeV'
p352
aS'wsig_13TeV:hggpdfsmrel_VBFMf05ph0_2016preVFP_AC_Bin11_13TeV'
p353
aS'wsig_13TeV:hggpdfsmrel_VBFbsmM_2016preVFP_AC_Bin11_13TeV'
p354
aS'wsig_13TeV:hggpdfsmrel_VBFsm_2016preVFP_AC_Bin11_13TeV'
p355
aS'wsig_13TeV:hggpdfsmrel_WHMf05ph0_2016preVFP_AC_Bin11_13TeV'
p356
aS'wsig_13TeV:hggpdfsmrel_WHbsmM_2016preVFP_AC_Bin11_13TeV'
p357
aS'wsig_13TeV:hggpdfsmrel_WHsm_2016preVFP_AC_Bin11_13TeV'
p358
aS'wsig_13TeV:hggpdfsmrel_ZHMf05ph0_2016preVFP_AC_Bin11_13TeV'
p359
aS'wsig_13TeV:hggpdfsmrel_ZHbsmM_2016preVFP_AC_Bin11_13TeV'
p360
aS'wsig_13TeV:hggpdfsmrel_ZHsm_2016preVFP_AC_Bin11_13TeV'
p361
aS'wsig_13TeV:hggpdfsmrel_GG2HMf05ph0_2016postVFP_AC_Bin11_13TeV'
p362
aS'wsig_13TeV:hggpdfsmrel_GG2HbsmM_2016postVFP_AC_Bin11_13TeV'
p363
aS'wsig_13TeV:hggpdfsmrel_GG2Hsm_2016postVFP_AC_Bin11_13TeV'
p364
aS'wsig_13TeV:hggpdfsmrel_TTHsm_2016postVFP_AC_Bin11_13TeV'
p365
aS'wsig_13TeV:hggpdfsmrel_VBFMf05ph0_2016postVFP_AC_Bin11_13TeV'
p366
aS'wsig_13TeV:hggpdfsmrel_VBFbsmM_2016postVFP_AC_Bin11_13TeV'
p367
aS'wsig_13TeV:hggpdfsmrel_VBFsm_2016postVFP_AC_Bin11_13TeV'
p368
aS'wsig_13TeV:hggpdfsmrel_WHMf05ph0_2016postVFP_AC_Bin11_13TeV'
p369
aS'wsig_13TeV:hggpdfsmrel_WHbsmM_2016postVFP_AC_Bin11_13TeV'
p370
aS'wsig_13TeV:hggpdfsmrel_WHsm_2016postVFP_AC_Bin11_13TeV'
p371
aS'wsig_13TeV:hggpdfsmrel_ZHMf05ph0_2016postVFP_AC_Bin11_13TeV'
p372
aS'wsig_13TeV:hggpdfsmrel_ZHbsmM_2016postVFP_AC_Bin11_13TeV'
p373
aS'wsig_13TeV:hggpdfsmrel_ZHsm_2016postVFP_AC_Bin11_13TeV'
p374
aS'wsig_13TeV:hggpdfsmrel_GG2HMf05ph0_2017_AC_Bin11_13TeV'
p375
aS'wsig_13TeV:hggpdfsmrel_GG2HbsmM_2017_AC_Bin11_13TeV'
p376
aS'wsig_13TeV:hggpdfsmrel_GG2Hsm_2017_AC_Bin11_13TeV'
p377
aS'wsig_13TeV:hggpdfsmrel_TTHsm_2017_AC_Bin11_13TeV'
p378
aS'wsig_13TeV:hggpdfsmrel_VBFMf05ph0_2017_AC_Bin11_13TeV'
p379
aS'wsig_13TeV:hggpdfsmrel_VBFbsmM_2017_AC_Bin11_13TeV'
p380
aS'wsig_13TeV:hggpdfsmrel_VBFsm_2017_AC_Bin11_13TeV'
p381
aS'wsig_13TeV:hggpdfsmrel_WHMf05ph0_2017_AC_Bin11_13TeV'
p382
aS'wsig_13TeV:hggpdfsmrel_WHbsmM_2017_AC_Bin11_13TeV'
p383
aS'wsig_13TeV:hggpdfsmrel_WHsm_2017_AC_Bin11_13TeV'
p384
aS'wsig_13TeV:hggpdfsmrel_ZHMf05ph0_2017_AC_Bin11_13TeV'
p385
aS'wsig_13TeV:hggpdfsmrel_ZHbsmM_2017_AC_Bin11_13TeV'
p386
aS'wsig_13TeV:hggpdfsmrel_ZHsm_2017_AC_Bin11_13TeV'
p387
aS'wsig_13TeV:hggpdfsmrel_GG2HMf05ph0_2018_AC_Bin11_13TeV'
p388
aS'wsig_13TeV:hggpdfsmrel_GG2HbsmM_2018_AC_Bin11_13TeV'
p389
aS'wsig_13TeV:hggpdfsmrel_GG2Hsm_2018_AC_Bin11_13TeV'
p390
aS'wsig_13TeV:hggpdfsmrel_TTHsm_2018_AC_Bin11_13TeV'
p391
aS'wsig_13TeV:hggpdfsmrel_VBFMf05ph0_2018_AC_Bin11_13TeV'
p392
aS'wsig_13TeV:hggpdfsmrel_VBFbsmM_2018_AC_Bin11_13TeV'
p393
aS'wsig_13TeV:hggpdfsmrel_VBFsm_2018_AC_Bin11_13TeV'
p394
aS'wsig_13TeV:hggpdfsmrel_WHMf05ph0_2018_AC_Bin11_13TeV'
p395
aS'wsig_13TeV:hggpdfsmrel_WHbsmM_2018_AC_Bin11_13TeV'
p396
aS'wsig_13TeV:hggpdfsmrel_WHsm_2018_AC_Bin11_13TeV'
p397
aS'wsig_13TeV:hggpdfsmrel_ZHMf05ph0_2018_AC_Bin11_13TeV'
p398
aS'wsig_13TeV:hggpdfsmrel_ZHbsmM_2018_AC_Bin11_13TeV'
p399
aS'wsig_13TeV:hggpdfsmrel_ZHsm_2018_AC_Bin11_13TeV'
p400
aS'multipdf:CMS_hgg_AC_Bin11_13TeV_bkgshape'
p401
aS'multipdf:roohist_data_mass_AC_Bin11'
p402
aF0.05900017150224812
aF0.07378466620139079
aF0.06348384252987671
aF0.007397812567205619
aF0.08683970948811748
aF0.08453538521894188
aF0.033799167457914336
aF0.0030576853333741383
aF0.0028232701062052
aF0.0008799643422889858
aF0.0018012470864050556
aF0.0007474749872926623
aF0.002236837888858645
aF0.06046936365601141
aF0.08483045500793196
aF0.05817620208824792
aF0.006543287337080983
aF0.09350933732980593
aF0.12085754258475845
aF0.03229787650820981
aF0.00028238164759386564
aF0.0016334367184072107
aF0.0009413215503855099
aF0.0013570753164913185
aF0.001694645420911911
aF0.0027483710830438213
aF0.05609949573681661
aF0.07664197562689878
aF0.056466280998392904
aF0.006523357343894531
aF0.08644920451502003
aF0.11083394862725982
aF0.032104914399269546
aF0.0022559559574801824
aF0.0034202209076283907
aF0.0009850222672866948
aF0.001179378856591029
aF0.002030264076211097
aF0.0022289969319899683
aF0.05771998010823154
aF0.07710757049198946
aF0.05681532943253842
aF0.006031572318306644
aF0.0894806682226772
aF0.11438828543714408
aF0.028897850480461784
aF0.002357474578275287
aF0.0029660299421720993
aF0.0011307948220746766
aF0.0012759108647060202
aF0.001957527580088936
aF0.0024155039454853977
ag190
ag190
aF7.630471165905206e-06
aF8.263797050217326e-06
aF8.040382016915291e-05
aF1.2648768642265615e-06
aF1.2221170729976267e-05
aF1.5774809416288204e-05
aF1.8856047763976195e-05
aF1.028453613380008e-06
aF5.7114756970026374e-08
aF1.902252650390431e-08
aF6.88951652012543e-07
aF1.235238824134572e-07
aF7.303848124793259e-08
aF1.39973815087428e-06
aF1.9928432240315857e-06
aF1.3396348999672292e-06
aF2.107521378886778e-06
aF1.5247619632109825e-06
aF1.4291799349931553e-06
aF1.683546316887095e-06
aF4.4925889495400915e-09
aF1.8785280764079986e-08
aF9.751211925810515e-09
aF9.767895175560792e-09
aF1.1835835674566855e-08
aF4.7718244001953935e-08
aF5.769920490000318e-07
aF7.700454050373699e-07
aF5.56232916854536e-07
aF9.21711689246262e-08
aF5.579161511254562e-07
aF5.206670671132217e-07
aF6.855852647579569e-07
aF9.589734042854125e-09
aF1.4527274056429232e-08
aF4.448940950940053e-09
aF3.234074453808064e-09
aF5.6086454943449056e-09
aF1.870858542368979e-08
aF6.808200749996613e-07
aF7.595177622259808e-07
aF5.726355345625727e-07
aF8.338225865278158e-08
aF5.806384721748895e-07
aF5.397581540589043e-07
aF7.909785352811624e-07
aF1.008550159535193e-08
aF1.2673317196871036e-08
aF4.842628591301261e-09
aF3.6643534718447364e-09
aF6.828834608066205e-09
aF1.9268453998205964e-08
ag190
ag190
aF0.06031520945503804
aF0.07550791698527982
aF0.06497432440154373
aF0.007578682003458663
aF0.08866143028914278
aF0.08632892397802155
aF0.03450100282607451
aF0.003128158652624603
aF0.0028801280226153085
aF0.0008977552410871273
aF0.0018412630071424998
aF0.0007648006741966928
aF0.0022820364343803896
aF0.06162101668360983
aF0.08647724187960237
aF0.05923555559524239
aF0.006662689292149083
aF0.09527381466159869
aF0.12308585337982336
aF0.0329466910576729
aF0.0002871605223951959
aF0.001665196540992531
aF0.0009575665026275804
aF0.0013838810278234478
aF0.0017290737081983375
aF0.0027972357072658344
aF0.05826123939251456
aF0.07956599347406429
aF0.05862161121388674
aF0.006764188191987462
aF0.08958295472107293
aF0.11483974972103736
aF0.033324443609943785
aF0.002339359261297427
aF0.0035472728453990205
aF0.0010223570482129974
aF0.0012233028032014048
aF0.0021050268450763287
aF0.0023114313544225656
aF0.059648731331816945
aF0.07967336893815767
aF0.058709786552234085
aF0.006221487922659589
aF0.09230555958805255
aF0.11800700315966735
aF0.02986593625293057
aF0.002434638190071162
aF0.0030622115830666397
aF0.0011702122860258817
aF0.0013170347717162286
aF0.002022063355959375
aF0.002493783148515751
ag190
ag190
aF0.059387628616083446
aF0.07427014284991608
aF0.06390408255129122
aF0.007447061423376366
aF0.08741187414201103
aF0.08509399102549448
aF0.034021029548190154
aF0.003078107815989682
aF0.0028418568427615192
aF0.0008857353189828768
aF0.0018133296200277098
aF0.0007523732693661586
aF0.0022514351735333613
aF0.06090209845568826
aF0.08543446945141792
aF0.058592008736187175
aF0.00659105199485752
aF0.09417514204180608
aF0.1217216188714207
aF0.03252618276939692
aF0.00028436878381565996
aF0.001644985369039777
aF0.0009479026893243072
aF0.0013667160467174624
aF0.0017067811232723933
aF0.0027678584205980622
aF0.05648904568194729
aF0.07717264268505007
aF0.05685721385568727
aF0.006569340567844799
aF0.08705452382758092
aF0.11161076344730655
aF0.032325859716657065
aF0.0022714642215356387
aF0.0034437497115114655
aF0.000991628362453793
aF0.0011875527162289348
aF0.002044354609418474
aF0.00224426176834417
aF0.058075819389814584
aF0.07758312798944332
aF0.05716659355267995
aF0.006069291097410909
aF0.09004104158385298
aF0.11510590969903185
aF0.02907495720359566
aF0.0023720547997155977
aF0.002984412986347119
aF0.001137646060307218
aF0.001283837220847786
aF0.0019696771308155407
aF0.0024303455999833273
ag190
ag190
aF0.058613984451524215
aF0.0733007841147983
aF0.06306499053585637
aF0.007348727134487119
aF0.08626942793613948
aF0.08397862121884497
aF0.03357803182512281
aF0.0030373309289169564
aF0.0028047444443406867
aF0.0008742122523736721
aF0.0017892049575979336
aF0.0007425927057432874
aF0.002222288109981909
aF0.060038183759653016
aF0.08422860462094793
aF0.05776188925689368
aF0.006495695861458923
aF0.09284592268160897
aF0.11999657722518756
aF0.0320703820805889
aF0.00028040154289403
aF0.001621929047339669
aF0.0009347636724011151
aF0.0013474691160060158
aF0.0016825534155614763
aF0.0027289533669056314
aF0.055711310550113885
aF0.07611316311988522
aF0.056076714508579525
aF0.0064775378359431
aF0.08584602887198382
aF0.1100598883408125
aF0.03188473831492754
aF0.00224050155462239
aF0.003396774269784532
aF0.0009784387170782946
aF0.0011712337328013678
aF0.0020162231681429377
aF0.0022137852101643475
aF0.05736523709665785
aF0.0766334774007621
aF0.056465149772339705
aF0.005993971426793313
aF0.08892205005056475
aF0.11367291278160611
aF0.02872128570633662
aF0.002342939479910681
aF0.0029477038802379995
aF0.0011239644123223474
aF0.0012680091220799465
aF0.0019454158123391905
aF0.0024007080216515695
ag190
ag190
aF0.05989696291484068
aF0.07490564520406728
aF0.0644128399835298
aF0.00749378632802524
aF0.08812298236579548
aF0.0857798649271993
aF0.034280407729277616
aF0.003099206178684709
aF0.002863760749896505
aF0.0008930671784049001
aF0.0018271256318603494
aF0.0007608198546187468
aF0.0022721947301612977
aF0.061123797354689084
aF0.0857526320097737
aF0.058809840063919816
aF0.00660668590391037
aF0.09443752329701333
aF0.1220438449526553
aF0.032664765629474395
aF0.0002851453584423197
aF0.001650450860940872
aF0.0009518107540454028
aF0.0013703228902400535
aF0.001713198424630981
aF0.002779563230643241
aF0.056900030851059075
aF0.07773033882813521
aF0.057275620487648865
aF0.006614700290394302
aF0.0875768483614617
aF0.11227100555639179
aF0.03255425119690374
aF0.0022857948944943317
aF0.003465950638019279
aF0.0009988843517377002
aF0.0011955634502426224
aF0.0020570035985237717
aF0.0022606416371704382
aF0.05859327354716407
aF0.07826780105960893
aF0.05767341970793359
aF0.006123796595566678
aF0.09076268497773396
aF0.11601699406205637
aF0.029328974120452732
aF0.0023925568718015672
aF0.0030094006337492017
aF0.0011474859295852494
aF0.0012944333418212215
aF0.0019859574372714075
aF0.0024517787592998747
ag190
ag190
aF0.0581101357240818
aF0.07267253933615585
aF0.06256145950313406
aF0.007302479172151576
aF0.08556538324242975
aF0.08329967329161186
aF0.033321260807418165
aF0.003016445727626704
aF0.002783059864914532
aF0.0008669523514247347
aF0.0017755469182588017
aF0.0007342341823368075
aF0.002201743734670499
aF0.05981825105585943
aF0.08391327455085179
aF0.05754596089445669
aF0.006480168932631484
aF0.09258568843965245
aF0.11967706004447604
aF0.03193291238216531
aF0.0002796299802402252
aF0.001616504242444165
aF0.0009308840660718844
aF0.0013438881866701595
aF0.0016761901958452891
aF0.0027173550406316715
aF0.05530464447381796
aF0.0755612678944601
aF0.05566271122773584
aF0.006432659006023128
aF0.08532885085955015
aF0.10940617080196378
aF0.03165877394139597
aF0.002226313699463561
aF0.003374799778032564
aF0.0009712617383512581
aF0.0011633179430513908
aF0.002003710261532482
aF0.0021975810901818387
aF0.056853276858269935
aF0.0759560515177108
aF0.05596373051285959
aF0.005940057954704172
aF0.0882078269708708
aF0.11277114694325166
aF0.02846991469049859
aF0.0023226583731171136
aF0.0029229728605122086
aF0.0011142274293694863
aF0.0012575210744909526
aF0.0019293106250525287
aF0.0023795132185750125
ag190
ag190
aF0.05909365433393037
aF0.07390389253628647
aF0.06358085134104734
aF0.00740769628656669
aF0.08697371215839994
aF0.08466375793912395
aF0.033862559368698475
aF0.0030616983223798124
aF0.0028277393240601317
aF0.0008813442677330069
aF0.0018034236335617787
aF0.0007485943426678473
aF0.0022407403781143356
aF0.06056464885835773
aF0.0849664028682287
aF0.05826654478666403
aF0.00655191624864333
aF0.09365295129566957
aF0.12103989784594248
aF0.03235058616247963
aF0.0002828067464676498
aF0.0016360294556865055
aF0.0009429984159205906
aF0.0013591795855644319
aF0.001697340242422215
aF0.0027528455449182666
aF0.05624723131225384
aF0.07684534651954451
aF0.05661540492851559
aF0.006538857177449859
aF0.08667293243555015
aF0.11112322639802479
aF0.032195298233006465
aF0.002262292011007242
aF0.0034296335859661424
aF0.0009879749987730332
aF0.0011824170308736555
aF0.0020358456906729187
aF0.0022349546762626027
aF0.057815508542778324
aF0.07723462995979703
aF0.05690748277657207
aF0.006040533190330112
aF0.08961998565465885
aF0.11456529650319112
aF0.02894800881120559
aF0.002361463050657027
aF0.002970878715883217
aF0.0011330026853844087
aF0.0012780166629620918
aF0.001960765063795499
aF0.0024194455492651847
ag190
ag190
aF0.05890676702975372
aF0.07366554520969876
aF0.06338691061686344
aF0.007387934544410269
aF0.08670582380197732
aF0.08440711029664648
aF0.03373583297621043
aF0.003053674820154408
aF0.0028188045366865115
aF0.0008785854929692279
aF0.0017990717413470547
aF0.000746356327919643
aF0.0022329388013616804
aF0.060374157668628484
aF0.08469462557285284
aF0.05808593201799898
aF0.006534663725974148
aF0.09336584541785248
aF0.12067533803529358
aF0.032245210018429504
aF0.0002819568955941095
aF0.0016308459458409036
aF0.0009396463858503581
aF0.0013549728676569227
aF0.0016919530087263525
aF0.0027439005503865975
aF0.05595197232193274
aF0.07643890927958648
aF0.056317375709063686
aF0.00650788053889287
aF0.08622579944263997
aF0.11054509315695363
aF0.03201467317664768
aF0.0022496298045404767
aF0.0034108228424713023
aF0.0009820743903967576
aF0.0011763450372952661
aF0.0020246928188174433
aF0.0022230482055561334
aF0.05762454472675549
aF0.0769806313960645
aF0.05672326215176154
aF0.006022618988488122
aF0.08934148352866075
aF0.11421144253292392
aF0.028847742267119676
aF0.0023534899400403458
aF0.0029611859232816272
aF0.0011285897091626149
aF0.0012738071901283365
aF0.001954293510870121
aF0.0024115661598978736
ag190
ag190
aF0.05913200211963102
aF0.07394470253742386
aF0.06361754082660172
aF0.0074148184101516
aF0.0870197266021609
aF0.08470992863963175
aF0.03386970430789945
aF0.0030644417522640785
aF0.0028290515257755307
aF0.000881739735474071
aF0.001804867346786461
aF0.0007489783673080685
aF0.0022413820242422897
aF0.060598635935315275
aF0.08501505114918081
aF0.058297665476890935
aF0.006556512541937524
aF0.09370942047716858
aF0.12111125098293882
aF0.032370917223998895
aF0.00028295190457697976
aF0.0016368665023055273
aF0.0009432299309902177
aF0.0013600329986857877
aF0.0016983344624871821
aF0.0027539399356784158
aF0.056242536036986916
aF0.0768371958365838
aF0.05661061449202136
aF0.006539752356426426
aF0.08667060247881835
aF0.11111787637666166
aF0.032188654531261816
aF0.0022619256133827753
aF0.003429373717839686
aF0.0009876279382693644
aF0.0011824841114227973
aF0.0020356545690006066
aF0.002234627152979547
aF0.05785130120299984
aF0.0772813189318899
aF0.05694303557124221
aF0.006045212844625693
aF0.08967739649356976
aF0.11464119079505229
aF0.02896518979399539
aF0.0023626924533384002
aF0.002972691290376569
aF0.0011334293867830034
aF0.001278738010162495
aF0.0019619409971534866
aF0.00242082129985766
ag190
ag190
aF0.05886848679724748
aF0.07362480322872214
aF0.06335028515530693
aF0.0073808261513118555
aF0.08665988178014836
aF0.08436102882544182
aF0.03372870466055206
aF0.0030509364350929102
aF0.0028174947124531688
aF0.0008781907661469586
aF0.001797630605713913
aF0.0007459731625383499
aF0.0022322983951110855
aF0.06034022896745043
aF0.08464605871534102
aF0.058054865340143987
aF0.006530075481389219
aF0.0933094668506553
aF0.1206040992635272
aF0.03222491635866662
aF0.0002818119627422414
aF0.0016300105352344775
aF0.0009394151028672594
aF0.001354120829952198
aF0.0016909603536771683
aF0.0027428078270154387
aF0.0559566402963573
aF0.07644700874252437
aF0.05632213347025434
aF0.006506983720960597
aF0.08622809352587753
aF0.11055038727925454
aF0.03202128497730646
aF0.002249994238885393
aF0.00341108082392265
aF0.0009824200349399955
aF0.0011762776274954654
aF0.0020248807872232234
aF0.0022233739738984036
aF0.05758880730939655
aF0.07693401731265585
aF0.05668776664510656
aF0.006017947172488685
aF0.08928415682969819
aF0.11413566128502546
aF0.02883058880385104
aF0.002352262427510239
aF0.002959376214904635
aF0.0011281632821173448
aF0.0012730868682167141
aF0.0019531191719654867
aF0.0024101923981959634
ag190
ag190
aF0.057906237159386365
aF0.07275880530437462
aF0.06297916678545334
aF0.007131666442887763
aF0.0862886324413239
aF0.08414942340652942
aF0.03275624936179611
aF0.0030456490586630025
aF0.0028057643577312774
aF0.0008859558568019565
aF0.0018012470864050556
aF0.0007474749872926623
aF0.0022524246276134363
aF0.059852676115042414
aF0.08343228913304301
aF0.05766790139330169
aF0.00665664703319635
aF0.0929439067833755
aF0.12023292661513096
aF0.03035123620372815
aF0.0022462204769908567
aF0.003465009495016602
aF0.0009413215503855099
aF0.0013310355604971846
aF0.0016844504546043026
aF0.0027483710830438213
aF0.05509245567782273
aF0.07504297305558794
aF0.055556561825142126
aF0.006418625395326671
aF0.08578075893387904
aF0.1100670756557065
aF0.029782016837316405
aF0.0022344060062096105
aF0.003377138419637049
aF0.0009641689284762833
aF0.0011767156671567136
aF0.0020140985600392014
aF0.002210486148214841
aF0.05718754328063369
aF0.07638040380743405
aF0.056170246436522575
aF0.006018122258410585
aF0.08908792063948567
aF0.11397144213924548
aF0.02752565315722677
aF0.0023406183427141514
aF0.0029448350385337108
aF0.0011139323673887702
aF0.001270004653633805
aF0.0019374453634100064
aF0.0023918637616588967
ag190
ag190
aF0.05948457197564494
aF0.07590223204215363
aF0.0641209348477787
aF0.007694193541738059
aF0.08733459918005337
aF0.08485579756461448
aF0.032356348624261955
aF0.003065495522719175
aF0.0028388526964135963
aF0.0009496033720779451
aF0.0018012470864050556
aF0.0007474749872926623
aF0.002260880165749768
aF0.06167850054794144
aF0.08647533404541718
aF0.05914394944682044
aF0.006890659325108572
aF0.09415559819080954
aF0.12158059406340271
aF0.031041594839507525
aF0.0023207579242807697
aF0.0035209469343726596
aF0.0009919859913907203
aF0.0013876551898874823
aF0.0017146802049410326
aF0.002780555621257008
aF0.05706752611877164
aF0.07751318882992564
aF0.05740053067302142
aF0.006605594383927382
aF0.0870888434931203
aF0.1114004375958757
aF0.030668044161529906
aF0.002259581970065483
aF0.0034661504300856905
aF0.0010031792967311048
aF0.0011980985233321917
aF0.002041439073764195
aF0.0022538222756338655
aF0.058187527323752875
aF0.07800459552163375
aF0.05725662998884218
aF0.006060213611362997
aF0.0899589382238446
aF0.11490735259280882
aF0.029242322853406222
aF0.0023829614592614234
aF0.002987902421182298
aF0.0011392119631636888
aF0.001287110839257366
aF0.002009650535910623
aF0.0024221147464231763
ag190
ag190
aF0.0597984533728777
aF0.07541611580336394
aF0.06451727165767807
aF0.007621473807716939
aF0.08773903616804546
aF0.08559295884060703
aF0.03208448406098796
aF0.003131498887455564
aF0.0028622554488038077
aF0.0009119774639430034
aF0.0018619511138240341
aF0.0007474749872926623
aF0.002281443601305
aF0.0613076686408931
aF0.08565242301142462
aF0.0591894455393458
aF0.006555355851560307
aF0.09474635453955216
aF0.12248372039050537
aF0.030802926738260794
aF0.0023661580535190296
aF0.003529172285311688
aF0.0009503295560762126
aF0.0013709313536764967
aF0.0017089010841573327
aF0.0028057208530753996
aF0.057842088778670586
aF0.07865951852045328
aF0.057830149010897
aF0.006786454191569646
aF0.0889645164754711
aF0.11394214161600758
aF0.031193512525305778
aF0.0022898355582583463
aF0.0035122267581755295
aF0.0009876991457531403
aF0.001212025635709324
aF0.0020677007992162544
aF0.002277893188420421
aF0.0591799828071089
aF0.0792286818455068
aF0.058139716292316734
aF0.006356373450671526
aF0.09162393562701254
aF0.11736333360295248
aF0.029290083131400024
aF0.002395619940443794
aF0.0030431091131504218
aF0.001185100286420493
aF0.0013202304212427407
aF0.0020060405979620555
aF0.0025096038052652148
ag190
ag190
aF0.058054392537314925
aF0.07284838291525375
aF0.06234320508497149
aF0.007416710926236192
aF0.08506870583289583
aF0.0823292981732493
aF0.029124291702146365
aF0.0030259520103754767
aF0.0027911742744208823
aF0.0008782119343777595
aF0.0018012470864050556
aF0.0007474749872926623
aF0.0022395160115138424
aF0.059534300018185604
aF0.08295938041646878
aF0.05696215153864159
aF0.006741746549778327
aF0.0918567019624561
aF0.11891270108424123
aF0.03151872515422838
aF0.0022869968715895084
aF0.0033943372901603652
aF0.0009281069320650204
aF0.001321935843634492
aF0.0016478748832469137
aF0.0027279025418920355
aF0.054435151488178235
aF0.07465639957308667
aF0.055168040835269494
aF0.006221191468966936
aF0.08429151662562617
aF0.1077079840413262
aF0.02978128636573274
aF0.0022154418902573525
aF0.003312456790581564
aF0.0009496913080511149
aF0.001156649397557885
aF0.0019642248125819606
aF0.0020957380011168425
aF0.056624794059644046
aF0.07513835023200954
aF0.055197862717250246
aF0.005780144814707455
aF0.08707345548236844
aF0.11133500199662194
aF0.026842100933208712
aF0.0023031497994452366
aF0.0028695973671801767
aF0.0010919933251898328
aF0.001222144386929358
aF0.0018923003126474214
aF0.002368701746036095
ag190
ag190
aF0.05927977583564825
aF0.07421265814991784
aF0.0636211563555662
aF0.007397812567205619
aF0.08696911034655841
aF0.08467020528917146
aF0.034303755772839395
aF0.0030718220035623744
aF0.0028863049675464936
aF0.0008832407476120352
aF0.0019359720645297784
aF0.0007474749872926623
aF0.00225986545797241
aF0.06080589204248099
aF0.08517692522923426
aF0.05837595916329974
aF0.006543287337080983
aF0.09361642690214467
aF0.12098095215185367
aF0.03240014377342959
aF0.0023579176149723935
aF0.0035742207702469386
aF0.0009883473913987473
aF0.0013648791775722202
aF0.0017299356893545337
aF0.0027483710830438213
aF0.056357744526394526
aF0.07694403349478307
aF0.0568129037574181
aF0.006523672598405028
aF0.0865655773434355
aF0.11097092236059325
aF0.03217748249585384
aF0.002288783020730989
aF0.003481048834601097
aF0.0009894362492559594
aF0.0012051721324723985
aF0.002050426479172529
aF0.0022373724532371853
aF0.05796443334656942
aF0.07738222289344776
aF0.057136624607665
aF0.006047952205335605
aF0.08967830176152347
aF0.11446779771313231
aF0.027481625038490165
aF0.0023652600250443356
aF0.003007735303754089
aF0.0011546478340278554
aF0.001293259265139568
aF0.0019827185190024466
aF0.0024315837890753755
ag190
ag190
aF0.058834829791749144
aF0.07318338937056978
aF0.0631552474376349
aF0.007397812567205619
aF0.0867256422355922
aF0.0844010798580257
aF0.032804807710704154
aF0.0030246415393548887
aF0.0027191267232637983
aF0.0008733752644047854
aF0.0018012470864050556
aF0.0007474749872926623
aF0.002236837888858645
aF0.06006469711974205
aF0.08439042095847071
aF0.057965842340195195
aF0.006543287337080983
aF0.09333233733718771
aF0.12076622784650226
aF0.030366406304210614
aF0.0022604621744903852
aF0.0034544666938245427
aF0.0009301119144993208
aF0.0013541369974063855
aF0.0016729229980683158
aF0.0027165945541582914
aF0.05588549683307065
aF0.07633682145797138
aF0.05618167230295512
aF0.006536215018741132
aF0.0863348225241225
aF0.11071459044205767
aF0.03203820795147294
aF0.002243898315100523
aF0.003344526787259383
aF0.0009637690764066065
aF0.001163056944847085
aF0.002011616622667134
aF0.0022289969319899683
aF0.05750512719987455
aF0.07668400195916547
aF0.0564571474924378
aF0.00602736582527541
aF0.08934142828093172
aF0.11427455570583334
aF0.02721710677815281
aF0.0023323388522840105
aF0.0029232072522518138
aF0.001126627461417229
aF0.001267249473130505
aF0.0019191979454262764
aF0.0024078792434920615
ag190
ag190
aF0.06061653821939217
aF0.07683353520383207
aF0.06485183041445453
aF0.007510452493079356
aF0.08758561973979795
aF0.0852268616974925
aF0.031185180235979715
aF0.003199401332267371
aF0.00293742066185132
aF0.006321097706745604
aF0.0018702494962781202
aF0.0007474749872926623
aF0.0022864574948471272
aF0.062328857799684556
aF0.08670863395741435
aF0.059935068323625273
aF0.006502746665319137
aF0.09313240199912798
aF0.12108150597180156
aF0.032195201229342274
aF0.0026613578625074297
aF0.003780768208343943
aF0.0009913182033187695
aF0.0014664340421859379
aF0.0017779580509795778
aF0.0029680979785098316
aF0.05865048990426658
aF0.07882878137843363
aF0.05912118070909855
aF0.006684795413320899
aF0.08655489205671074
aF0.11117632832565505
aF0.03095308260344609
aF0.002494118427648573
aF0.0038391163145661267
aF0.0010603931059449678
aF0.0013463378014648697
aF0.0022798751924710814
aF0.002392429938481655
aF0.05943811836277746
aF0.08006154405074994
aF0.05916733507092431
aF0.006053279529396605
aF0.08915412442547677
aF0.11456736673699197
aF0.027287299157706002
aF0.0026010754420440207
aF0.0032966638373181922
aF0.0012410382887537708
aF0.00141267138224066
aF0.0021195610547692922
aF0.002438977596739278
ag190
ag190
aF0.05632383395004581
aF0.07491391265807579
aF0.06327240822679414
aF0.007163457084288893
aF0.08652055948539328
aF0.08410268171314783
aF0.032028735047560986
aF0.0029978131792631757
aF0.0026272341291360135
aF0.0008037379145662271
aF0.0016664893373672385
aF0.0007474749872926623
aF0.0021531895874886686
aF0.05845818181728646
aF0.08288808170391349
aF0.05647079134894284
aF0.006363816398334166
aF0.09397614325473569
aF0.12065046898885612
aF0.029976200447890733
aF0.002081867238302948
aF0.0032511708260472005
aF0.000882561057892417
aF0.0012902600357165284
aF0.0015820461603652802
aF0.002750593833525272
aF0.05393881254349253
aF0.07298427586192702
aF0.053846656387122493
aF0.006620431873443522
aF0.08603920495056627
aF0.11018610246287608
aF0.030122455969149087
aF0.0020255539366189623
aF0.0030543135280822753
aF0.0008850673834785994
aF0.0010277934430860114
aF0.001799887607603523
aF0.0021949217630208295
aF0.05599856696517236
aF0.07463923533805428
aF0.05450208837555692
aF0.006035066795448074
aF0.08953194688638177
aF0.11404671868331206
aF0.028124003552875365
aF0.0022127517545413866
aF0.002662237634694975
aF0.001047483670163274
aF0.001172843464928519
aF0.0017855758480891382
aF0.0023834727489884244
ag190
ag190
aF0.0593326451332814
aF0.07405944487027227
aF0.06321277792403635
aF0.00751695285759979
aF0.08675144145070135
aF0.08450776133258842
aF0.031941471594223
aF0.0032688133095462035
aF0.002864816684905236
aF0.000841904871663246
aF0.0018702494962781202
aF0.0007474749872926623
aF0.00225311249596416
aF0.060490409675821866
aF0.08473123289854811
aF0.05801840588253526
aF0.006941108148566855
aF0.09374396175553557
aF0.12090406295283174
aF0.03010614485322094
aF0.002355349847675825
aF0.003563845451594716
aF0.0009403464838442233
aF0.0014137420751012542
aF0.0017225384137873334
aF0.0028168366518457333
aF0.056333029902361886
aF0.07705177492607618
aF0.056940388219118176
aF0.006520803809735298
aF0.08621701423112427
aF0.11077329235808975
aF0.03045326719507102
aF0.002304855675674844
aF0.0035079111228242255
aF0.0010196782545790484
aF0.0012176740452787271
aF0.0020566420828345144
aF0.002287883698954829
aF0.0577212423149831
aF0.07747815830452964
aF0.05717903850018047
aF0.006022634231612756
aF0.08935099161726612
aF0.11434936611726698
aF0.027291140303077555
aF0.0024924468498284114
aF0.0030164882953158667
aF0.0011386775418031903
aF0.001289808601995901
aF0.0020013940729768365
aF0.0024270221761071298
ag190
ag190
aF0.058877165868807424
aF0.07354104579053455
aF0.06312882473412174
aF0.0074682308368210215
aF0.08715132410100068
aF0.0845551225500003
aF0.033826067150243944
aF0.0031112736786553796
aF0.002750118967810522
aF0.0062841568337717035
aF0.0018012470864050556
aF0.0007474749872926623
aF0.0031802007431451784
aF0.06025637011748586
aF0.08472387479173449
aF0.05757470185051261
aF0.006465354635110998
aF0.09350387297160978
aF0.12080001822550912
aF0.03086177151180891
aF0.0022210868910406134
aF0.003459790620354397
aF0.0009250997974277197
aF0.0013569802349593374
aF0.001663674597921272
aF0.0027358254285445582
aF0.05587251337919952
aF0.07623737438098033
aF0.056222472245735844
aF0.00647614806484853
aF0.08639472287609351
aF0.11073893090156162
aF0.03040144051669813
aF0.002154555310426076
aF0.0033887272322772333
aF0.0009183938177557138
aF0.00116193151745847
aF0.0019528955431269424
aF0.0022646508004982024
aF0.0575135056333238
aF0.07697967790181792
aF0.05669829820544692
aF0.006036379797023983
aF0.0894769086917222
aF0.11442651787137947
aF0.027192752087557892
aF0.002312090997065752
aF0.0029385437489963806
aF0.0010928062645234604
aF0.0012637081870252587
aF0.0018885167598909902
aF0.0024254138206742937
ag190
ag190
aF0.05900017150224812
aF0.07378466620139079
aF0.06348384252987671
aF0.007397812567205619
aF0.08683970948811748
aF0.08453538521894188
aF0.033799167457914336
aF0.0030576853333741383
aF0.0028232701062052
aF0.0008799643422889858
aF0.0018012470864050556
aF0.0007474749872926623
aF0.002236837888858645
aF0.06046936365601141
aF0.08483045500793196
aF0.05817620208824792
aF0.006543287337080983
aF0.09350933732980593
aF0.12085754258475845
aF0.03229787650820981
aF0.00028238164759386564
aF0.0016334367184072107
aF0.0009413215503855099
aF0.0013570753164913185
aF0.001694645420911911
aF0.0027483710830438213
aF0.05609949573681661
aF0.07664197562689878
aF0.056466280998392904
aF0.006523357343894531
aF0.08644920451502003
aF0.11083394862725982
aF0.032104914399269546
aF0.0022559559574801824
aF0.0034202209076283907
aF0.0009850222672866948
aF0.001179378856591029
aF0.002030264076211097
aF0.0022289969319899683
aF0.05832084882695199
aF0.07760572898632745
aF0.05750699906366208
aF0.006092146265018528
aF0.08925538079301987
aF0.11433908735079967
aF0.029281631026606192
aF0.0023818627960281447
aF0.0030651053002657136
aF0.0011465899897302734
aF0.001287974843990014
aF0.002017863073888293
aF0.002431493588574085
ag190
ag190
aF0.05900017150224812
aF0.07378466620139079
aF0.06348384252987671
aF0.007397812567205619
aF0.08683970948811748
aF0.08453538521894188
aF0.033799167457914336
aF0.0030576853333741383
aF0.0028232701062052
aF0.0008799643422889858
aF0.0018012470864050556
aF0.0007474749872926623
aF0.002236837888858645
aF0.06046936365601141
aF0.08483045500793196
aF0.05817620208824792
aF0.006543287337080983
aF0.09350933732980593
aF0.12085754258475845
aF0.03229787650820981
aF0.00028238164759386564
aF0.0016334367184072107
aF0.0009413215503855099
aF0.0013570753164913185
aF0.001694645420911911
aF0.0027483710830438213
aF0.05609949573681661
aF0.07664197562689878
aF0.056466280998392904
aF0.006523357343894531
aF0.08644920451502003
aF0.11083394862725982
aF0.032104914399269546
aF0.0022559559574801824
aF0.0034202209076283907
aF0.0009850222672866948
aF0.001179378856591029
aF0.002030264076211097
aF0.0022289969319899683
aF0.057434973557974445
aF0.07678338898131187
aF0.05646368504767452
aF0.005953348294269745
aF0.08924860935030665
aF0.11391756627199356
aF0.02713991354448808
aF0.0023297420889321074
aF0.002914779519642252
aF0.0010897337590449752
aF0.001284749552496578
aF0.00196221137161956
aF0.002431766051813611
ag190
ag190
atp403
ba(lp404
g15
(g16
(dp405
g18
g19
(g20
(I0
tp406
g22
tp407
Rp408
(I1
(I1
tp409
g29
I00
(lp410
g43
atp411
bsg68
Nstp412
Rp413
ag15
(g16
(dp414
g18
g19
(g20
(I0
tp415
g22
tp416
Rp417
(I1
(I33
tp418
g29
I00
(lp419
g33
ag34
ag35
ag36
ag37
ag38
ag39
ag40
ag41
ag42
ag44
ag45
ag46
ag47
ag48
ag49
ag50
ag51
ag52
ag53
ag54
ag55
ag56
ag57
ag58
ag59
ag60
ag61
ag62
ag63
ag64
ag65
ag66
atp420
bsg68
Nstp421
Rp422
a(dp423
S'0.14.1'
p424
(dp425
S'axes'
p426
g14
sS'blocks'
p427
(lp428
(dp429
S'mgr_locs'
p430
c__builtin__
slice
p431
(I10
I11
I1
tp432
Rp433
sS'values'
p434
g89
sa(dp435
g430
g19
(g20
(I0
tp436
g22
tp437
Rp438
(I1
(I33
tp439
g79
I00
S'\x00\x00\x00\x00\x00\x00\x00\x00\x01\x00\x00\x00\x00\x00\x00\x00\x02\x00\x00\x00\x00\x00\x00\x00\x03\x00\x00\x00\x00\x00\x00\x00\x04\x00\x00\x00\x00\x00\x00\x00\x05\x00\x00\x00\x00\x00\x00\x00\x06\x00\x00\x00\x00\x00\x00\x00\x07\x00\x00\x00\x00\x00\x00\x00\x08\x00\x00\x00\x00\x00\x00\x00\t\x00\x00\x00\x00\x00\x00\x00\x0b\x00\x00\x00\x00\x00\x00\x00\x0c\x00\x00\x00\x00\x00\x00\x00\r\x00\x00\x00\x00\x00\x00\x00\x0e\x00\x00\x00\x00\x00\x00\x00\x0f\x00\x00\x00\x00\x00\x00\x00\x10\x00\x00\x00\x00\x00\x00\x00\x11\x00\x00\x00\x00\x00\x00\x00\x12\x00\x00\x00\x00\x00\x00\x00\x13\x00\x00\x00\x00\x00\x00\x00\x14\x00\x00\x00\x00\x00\x00\x00\x15\x00\x00\x00\x00\x00\x00\x00\x16\x00\x00\x00\x00\x00\x00\x00\x17\x00\x00\x00\x00\x00\x00\x00\x18\x00\x00\x00\x00\x00\x00\x00\x19\x00\x00\x00\x00\x00\x00\x00\x1a\x00\x00\x00\x00\x00\x00\x00\x1b\x00\x00\x00\x00\x00\x00\x00\x1c\x00\x00\x00\x00\x00\x00\x00\x1d\x00\x00\x00\x00\x00\x00\x00\x1e\x00\x00\x00\x00\x00\x00\x00\x1f\x00\x00\x00\x00\x00\x00\x00 \x00\x00\x00\x00\x00\x00\x00!\x00\x00\x00\x00\x00\x00\x00'
p440
tp441
bsg434
g100
sasstp442
bsb.