ccopy_reg
_reconstructor
p0
(cpandas.core.frame
DataFrame
p1
c__builtin__
object
p2
Ntp3
Rp4
(dp5
S'_metadata'
p6
(lp7
sS'_typ'
p8
S'dataframe'
p9
sS'_data'
p10
g0
(cpandas.core.internals
BlockManager
p11
g2
Ntp12
Rp13
((lp14
cpandas.core.indexes.base
_new_Index
p15
(cpandas.core.indexes.base
Index
p16
(dp17
S'data'
p18
cnumpy.core.multiarray
_reconstruct
p19
(cnumpy
ndarray
p20
(I0
tp21
S'b'
p22
tp23
Rp24
(I1
(I34
tp25
cnumpy
dtype
p26
(S'O8'
p27
I0
I1
tp28
Rp29
(I3
S'|'
p30
NNNI-1
I-1
I63
tp31
bI00
(lp32
S'year'
p33
aS'type'
p34
aS'procOriginal'
p35
aS'proc'
p36
aS'proc_s0'
p37
aS'cat'
p38
aS'inputWSFile'
p39
aS'nominalDataName'
p40
aS'modelWSFile'
p41
aS'model'
p42
aS'rate'
p43
aS'nominal_yield'
p44
aS'sumw2'
p45
aS'nominal_yield_COWCorr'
p46
aS'LooseMvaSF_up_yield'
p47
aS'LooseMvaSF_down_yield'
p48
aS'PreselSF_up_yield'
p49
aS'PreselSF_down_yield'
p50
aS'electronVetoSF_up_yield'
p51
aS'electronVetoSF_down_yield'
p52
aS'TriggerWeight_up_yield'
p53
aS'TriggerWeight_down_yield'
p54
aS'SigmaEOverEShift_up_yield'
p55
aS'SigmaEOverEShift_down_yield'
p56
aS'MvaShift_up_yield'
p57
aS'MvaShift_down_yield'
p58
aS'PUJIDShift_up_yield'
p59
aS'PUJIDShift_down_yield'
p60
aS'JEC_up_yield'
p61
aS'JEC_down_yield'
p62
aS'JER_up_yield'
p63
aS'JER_down_yield'
p64
aS'JetHEM_up_yield'
p65
aS'JetHEM_down_yield'
p66
atp67
bsS'name'
p68
Nstp69
Rp70
ag15
(cpandas.core.indexes.numeric
Int64Index
p71
(dp72
g18
g19
(g20
(I0
tp73
g22
tp74
Rp75
(I1
(I38
tp76
g26
(S'i8'
p77
I0
I1
tp78
Rp79
(I3
S'<'
p80
NNNI-1
I-1
I0
tp81
bI00
S'\x00\x00\x00\x00\x00\x00\x00\x00\x01\x00\x00\x00\x00\x00\x00\x00\x02\x00\x00\x00\x00\x00\x00\x00\x03\x00\x00\x00\x00\x00\x00\x00\x04\x00\x00\x00\x00\x00\x00\x00\x05\x00\x00\x00\x00\x00\x00\x00\x06\x00\x00\x00\x00\x00\x00\x00\x07\x00\x00\x00\x00\x00\x00\x00\x08\x00\x00\x00\x00\x00\x00\x00\t\x00\x00\x00\x00\x00\x00\x00\n\x00\x00\x00\x00\x00\x00\x00\x0b\x00\x00\x00\x00\x00\x00\x00\x0c\x00\x00\x00\x00\x00\x00\x00\r\x00\x00\x00\x00\x00\x00\x00\x0e\x00\x00\x00\x00\x00\x00\x00\x0f\x00\x00\x00\x00\x00\x00\x00\x10\x00\x00\x00\x00\x00\x00\x00\x11\x00\x00\x00\x00\x00\x00\x00\x12\x00\x00\x00\x00\x00\x00\x00\x13\x00\x00\x00\x00\x00\x00\x00\x14\x00\x00\x00\x00\x00\x00\x00\x15\x00\x00\x00\x00\x00\x00\x00\x16\x00\x00\x00\x00\x00\x00\x00\x17\x00\x00\x00\x00\x00\x00\x00\x18\x00\x00\x00\x00\x00\x00\x00\x19\x00\x00\x00\x00\x00\x00\x00\x1a\x00\x00\x00\x00\x00\x00\x00\x1b\x00\x00\x00\x00\x00\x00\x00\x1c\x00\x00\x00\x00\x00\x00\x00\x1d\x00\x00\x00\x00\x00\x00\x00\x1e\x00\x00\x00\x00\x00\x00\x00\x1f\x00\x00\x00\x00\x00\x00\x00 \x00\x00\x00\x00\x00\x00\x00!\x00\x00\x00\x00\x00\x00\x00"\x00\x00\x00\x00\x00\x00\x00#\x00\x00\x00\x00\x00\x00\x00$\x00\x00\x00\x00\x00\x00\x00%\x00\x00\x00\x00\x00\x00\x00'
p82
tp83
bsg68
Nstp84
Rp85
a(lp86
g19
(g20
(I0
tp87
g22
tp88
Rp89
(I1
(I1
I38
tp90
g26
(S'f8'
p91
I0
I1
tp92
Rp93
(I3
S'<'
p94
NNNI-1
I-1
I0
tp95
bI00
S'\x00\x00\x00\x00\x00\x10\xd3@\x00\x00\x00\x00\x00\x10\xd3@\x00\x00\x00\x00\x00\x10\xd3@\x00\x00\x00\x00\x00\x10\xd3@\x00\x00\x00\x00\x00\x10\xd3@\x00\x00\x00\x00\x00\x10\xd3@\x00\x00\x00\x00\x00\x10\xd3@\x00\x00\x00\x00\x00\x10\xd3@\x00\x00\x00\x00\x00\x10\xd3@\x00\x00\x00\x00\x80j\xd0@\x00\x00\x00\x00\x80j\xd0@\x00\x00\x00\x00\x80j\xd0@\x00\x00\x00\x00\x80j\xd0@\x00\x00\x00\x00\x80j\xd0@\x00\x00\x00\x00\x80j\xd0@\x00\x00\x00\x00\x80j\xd0@\x00\x00\x00\x00\x80j\xd0@\x00\x00\x00\x00\x80j\xd0@\x00\x00\x00\x00\x00A\xe4@\x00\x00\x00\x00\x00A\xe4@\x00\x00\x00\x00\x00A\xe4@\x00\x00\x00\x00\x00A\xe4@\x00\x00\x00\x00\x00A\xe4@\x00\x00\x00\x00\x00A\xe4@\x00\x00\x00\x00\x00A\xe4@\x00\x00\x00\x00\x00A\xe4@\x00\x00\x00\x00\x00A\xe4@\x00\x00\x00\x00\xc0\xfa\xec@\x00\x00\x00\x00\xc0\xfa\xec@\x00\x00\x00\x00\xc0\xfa\xec@\x00\x00\x00\x00\xc0\xfa\xec@\x00\x00\x00\x00\xc0\xfa\xec@\x00\x00\x00\x00\xc0\xfa\xec@\x00\x00\x00\x00\xc0\xfa\xec@\x00\x00\x00\x00\xc0\xfa\xec@\x00\x00\x00\x00\xc0\xfa\xec@\x00\x00\x00\x00\x00\x00\xf0?\x00\x00\x00\x00\x00\x00\xf0\xbf'
p96
tp97
bag19
(g20
(I0
tp98
g22
tp99
Rp100
(I1
(I33
I38
tp101
g29
I00
(lp102
S'2016preVFP'
p103
ag103
ag103
ag103
ag103
ag103
ag103
ag103
ag103
aS'2016postVFP'
p104
ag104
ag104
ag104
ag104
ag104
ag104
ag104
ag104
aS'2017'
p105
ag105
ag105
ag105
ag105
ag105
ag105
ag105
ag105
aS'2018'
p106
ag106
ag106
ag106
ag106
ag106
ag106
ag106
ag106
aS'merged'
p107
ag107
aS'sig'
p108
ag108
ag108
ag108
ag108
ag108
ag108
ag108
ag108
ag108
ag108
ag108
ag108
ag108
ag108
ag108
ag108
ag108
ag108
ag108
ag108
ag108
ag108
ag108
ag108
ag108
ag108
ag108
ag108
ag108
ag108
ag108
ag108
ag108
ag108
ag108
aS'bkg'
p109
ag18
aS'GG2HbsmM'
p110
aS'GG2Hsm'
p111
aS'TTHsm'
p112
aS'VBFbsmM'
p113
aS'VBFsm'
p114
aS'WHbsmM'
p115
aS'WHsm'
p116
aS'ZHbsmM'
p117
aS'ZHsm'
p118
ag110
ag111
ag112
ag113
ag114
ag115
ag116
ag117
ag118
ag110
ag111
ag112
ag113
ag114
ag115
ag116
ag117
ag118
ag110
ag111
ag112
ag113
ag114
ag115
ag116
ag117
ag118
aS'bkg_mass'
p119
aS'data_obs'
p120
aS'GG2HbsmM_2016preVFP_hgg'
p121
aS'GG2Hsm_2016preVFP_hgg'
p122
aS'tth0P_2016preVFP_hgg'
p123
aS'vbf0M_2016preVFP_hgg'
p124
aS'vbf0P_2016preVFP_hgg'
p125
aS'wh0M_2016preVFP_hgg'
p126
aS'wh0P_2016preVFP_hgg'
p127
aS'zh0M_2016preVFP_hgg'
p128
aS'zh0P_2016preVFP_hgg'
p129
aS'GG2HbsmM_2016postVFP_hgg'
p130
aS'GG2Hsm_2016postVFP_hgg'
p131
aS'tth0P_2016postVFP_hgg'
p132
aS'vbf0M_2016postVFP_hgg'
p133
aS'vbf0P_2016postVFP_hgg'
p134
aS'wh0M_2016postVFP_hgg'
p135
aS'wh0P_2016postVFP_hgg'
p136
aS'zh0M_2016postVFP_hgg'
p137
aS'zh0P_2016postVFP_hgg'
p138
aS'GG2HbsmM_2017_hgg'
p139
aS'GG2Hsm_2017_hgg'
p140
aS'tth0P_2017_hgg'
p141
aS'vbf0M_2017_hgg'
p142
aS'vbf0P_2017_hgg'
p143
aS'wh0M_2017_hgg'
p144
aS'wh0P_2017_hgg'
p145
aS'zh0M_2017_hgg'
p146
aS'zh0P_2017_hgg'
p147
aS'GG2HbsmM_2018_hgg'
p148
aS'GG2Hsm_2018_hgg'
p149
aS'tth0P_2018_hgg'
p150
aS'vbf0M_2018_hgg'
p151
aS'vbf0P_2018_hgg'
p152
aS'wh0M_2018_hgg'
p153
aS'wh0P_2018_hgg'
p154
aS'zh0M_2018_hgg'
p155
aS'zh0P_2018_hgg'
p156
ag119
ag120
aS'jjh0M'
p157
aS'jjh0P'
p158
aS'tth0P'
p159
aS'vbf0M'
p160
aS'vbf0P'
p161
aS'wh0M'
p162
aS'wh0P'
p163
aS'zh0M'
p164
aS'zh0P'
p165
ag157
ag158
ag159
ag160
ag161
ag162
ag163
ag164
ag165
ag157
ag158
ag159
ag160
ag161
ag162
ag163
ag164
ag165
ag157
ag158
ag159
ag160
ag161
ag162
ag163
ag164
ag165
aS'-'
p166
ag166
aS'AC_Bin28'
p167
ag167
ag167
ag167
ag167
ag167
ag167
ag167
ag167
ag167
ag167
ag167
ag167
ag167
ag167
ag167
ag167
ag167
ag167
ag167
ag167
ag167
ag167
ag167
ag167
ag167
ag167
ag167
ag167
ag167
ag167
ag167
ag167
ag167
ag167
ag167
ag167
ag167
aS'Trees/Opt_RunII/RunII/Trees2WS_RunII/WS_2016preVFP/output_GluGluHToGGPlusTwoJets_CPodd_M125_TuneCP5_13TeV-amcatnlopowheg-minlo-pythia8_GG2HbsmM.root'
p168
aS'Trees/Opt_RunII/RunII/Trees2WS_RunII/WS_2016preVFP/output_GluGluHToGGPlusTwoJets_SM_M125_TuneCP5_13TeV-amcatnlopowheg-minlo-pythia8_GG2Hsm.root'
p169
aS'Trees/Opt_RunII/RunII/Trees2WS_RunII/WS_2016preVFP/output_ttHJetToGG_M125_TuneCP5_13TeV-amcatnloFXFX-madspin-pythia8_TTHsm.root'
p170
aS'Trees/Opt_RunII/RunII/Trees2WS_RunII/WS_2016preVFP/output_VBFHiggs0MToGG_M125_TuneCP5_13TeV-JHUGenV7011-pythia8_VBFbsmM.root'
p171
aS'Trees/Opt_RunII/RunII/Trees2WS_RunII/WS_2016preVFP/output_VBFHToGG_M125_TuneCP5_13TeV-amcatnlo-pythia8_VBFsm.root'
p172
aS'Trees/Opt_RunII/RunII/Trees2WS_RunII/WS_2016preVFP/output_WHiggs0MToGG_M125_TuneCP5_13TeV-JHUGenV7011-pythia8_WHbsmM.root'
p173
aS'Trees/Opt_RunII/RunII/Trees2WS_RunII/WS_2016preVFP/output_WHiggs0PMToGG_M125_TuneCP5_13TeV-JHUGenV7011-pythia8_WHsm.root'
p174
aS'Trees/Opt_RunII/RunII/Trees2WS_RunII/WS_2016preVFP/output_ZHiggs0MToGG_M125_TuneCP5_13TeV-JHUGenV7011-pythia8_ZHbsmM.root'
p175
aS'Trees/Opt_RunII/RunII/Trees2WS_RunII/WS_2016preVFP/output_ZH_HToGG_ZToAll_M125_TuneCP5_13TeV-powheg-pythia8_ZHsm.root'
p176
aS'Trees/Opt_RunII/RunII/Trees2WS_RunII/WS_2016postVFP/output_GluGluHToGGPlusTwoJets_CPodd_M125_TuneCP5_13TeV-amcatnlopowheg-minlo-pythia8_GG2HbsmM.root'
p177
aS'Trees/Opt_RunII/RunII/Trees2WS_RunII/WS_2016postVFP/output_GluGluHToGGPlusTwoJets_SM_M125_TuneCP5_13TeV-amcatnlopowheg-minlo-pythia8_GG2Hsm.root'
p178
aS'Trees/Opt_RunII/RunII/Trees2WS_RunII/WS_2016postVFP/output_ttHJetToGG_M125_TuneCP5_13TeV-amcatnloFXFX-madspin-pythia8_TTHsm.root'
p179
aS'Trees/Opt_RunII/RunII/Trees2WS_RunII/WS_2016postVFP/output_VBFHiggs0MToGG_M125_TuneCP5_13TeV-JHUGenV7011-pythia8_VBFbsmM.root'
p180
aS'Trees/Opt_RunII/RunII/Trees2WS_RunII/WS_2016postVFP/output_VBFHToGG_M125_TuneCP5_13TeV-amcatnlo-pythia8_VBFsm.root'
p181
aS'Trees/Opt_RunII/RunII/Trees2WS_RunII/WS_2016postVFP/output_WHiggs0MToGG_M125_TuneCP5_13TeV-JHUGenV7011-pythia8_WHbsmM.root'
p182
aS'Trees/Opt_RunII/RunII/Trees2WS_RunII/WS_2016postVFP/output_WHiggs0PMToGG_M125_TuneCP5_13TeV-JHUGenV7011-pythia8_WHsm.root'
p183
aS'Trees/Opt_RunII/RunII/Trees2WS_RunII/WS_2016postVFP/output_ZHiggs0MToGG_M125_TuneCP5_13TeV-JHUGenV7011-pythia8_ZHbsmM.root'
p184
aS'Trees/Opt_RunII/RunII/Trees2WS_RunII/WS_2016postVFP/output_ZH_HToGG_ZToAll_M125_TuneCP5_13TeV-powheg-pythia8_ZHsm.root'
p185
aS'Trees/Opt_RunII/RunII/Trees2WS_RunII/WS_2017/output_GluGluHToGGPlusTwoJets_CPodd_M125_TuneCP5_13TeV-amcatnlopowheg-minlo-pythia8_GG2HbsmM.root'
p186
aS'Trees/Opt_RunII/RunII/Trees2WS_RunII/WS_2017/output_GluGluHToGGPlusTwoJets_SM_M125_TuneCP5_13TeV-amcatnlopowheg-minlo-pythia8_GG2Hsm.root'
p187
aS'Trees/Opt_RunII/RunII/Trees2WS_RunII/WS_2017/output_ttHJetToGG_M125_TuneCP5_13TeV-amcatnloFXFX-madspin-pythia8_TTHsm.root'
p188
aS'Trees/Opt_RunII/RunII/Trees2WS_RunII/WS_2017/output_VBFHiggs0MToGG_M125_TuneCP5_13TeV-JHUGenV7011-pythia8_VBFbsmM.root'
p189
aS'Trees/Opt_RunII/RunII/Trees2WS_RunII/WS_2017/output_VBFHToGG_M125_TuneCP5_13TeV-amcatnlo-pythia8_VBFsm.root'
p190
aS'Trees/Opt_RunII/RunII/Trees2WS_RunII/WS_2017/output_WHiggs0MToGG_M125_TuneCP5_13TeV-JHUGenV7011-pythia8_WHbsmM.root'
p191
aS'Trees/Opt_RunII/RunII/Trees2WS_RunII/WS_2017/output_WHiggs0PMToGG_M125_TuneCP5_13TeV-JHUGenV7011-pythia8_WHsm.root'
p192
aS'Trees/Opt_RunII/RunII/Trees2WS_RunII/WS_2017/output_ZHiggs0MToGG_M125_TuneCP5_13TeV-JHUGenV7011-pythia8_ZHbsmM.root'
p193
aS'Trees/Opt_RunII/RunII/Trees2WS_RunII/WS_2017/output_ZH_HToGG_ZToAll_M125_TuneCP5_13TeV-powheg-pythia8_ZHsm.root'
p194
aS'Trees/Opt_RunII/RunII/Trees2WS_RunII/WS_2018/output_GluGluHToGGPlusTwoJets_CPodd_M125_TuneCP5_13TeV-amcatnlopowheg-minlo-pythia8_GG2HbsmM.root'
p195
aS'Trees/Opt_RunII/RunII/Trees2WS_RunII/WS_2018/output_GluGluHToGGPlusTwoJets_SM_M125_TuneCP5_13TeV-amcatnlopowheg-minlo-pythia8_GG2Hsm.root'
p196
aS'Trees/Opt_RunII/RunII/Trees2WS_RunII/WS_2018/output_ttHJetToGG_M125_TuneCP5_13TeV-amcatnloFXFX-madspin-pythia8_TTHsm.root'
p197
aS'Trees/Opt_RunII/RunII/Trees2WS_RunII/WS_2018/output_VBFHiggs0MToGG_M125_TuneCP5_13TeV-JHUGenV7011-pythia8_VBFbsmM.root'
p198
aS'Trees/Opt_RunII/RunII/Trees2WS_RunII/WS_2018/output_VBFHToGG_M125_TuneCP5_13TeV-amcatnlo-pythia8_VBFsm.root'
p199
aS'Trees/Opt_RunII/RunII/Trees2WS_RunII/WS_2018/output_WHiggs0MToGG_M125_TuneCP5_13TeV-JHUGenV7011-pythia8_WHbsmM.root'
p200
aS'Trees/Opt_RunII/RunII/Trees2WS_RunII/WS_2018/output_WHiggs0PMToGG_M125_TuneCP5_13TeV-JHUGenV7011-pythia8_WHsm.root'
p201
aS'Trees/Opt_RunII/RunII/Trees2WS_RunII/WS_2018/output_ZHiggs0MToGG_M125_TuneCP5_13TeV-JHUGenV7011-pythia8_ZHbsmM.root'
p202
aS'Trees/Opt_RunII/RunII/Trees2WS_RunII/WS_2018/output_ZH_HToGG_ZToAll_M125_TuneCP5_13TeV-powheg-pythia8_ZHsm.root'
p203
ag166
ag166
aS'jjh0M_125_13TeV_AC_Bin28'
p204
aS'jjh0P_125_13TeV_AC_Bin28'
p205
aS'tth0P_125_13TeV_AC_Bin28'
p206
aS'vbf0M_125_13TeV_AC_Bin28'
p207
aS'vbf0P_125_13TeV_AC_Bin28'
p208
aS'wh0M_125_13TeV_AC_Bin28'
p209
aS'wh0P_125_13TeV_AC_Bin28'
p210
aS'zh0M_125_13TeV_AC_Bin28'
p211
aS'zh0P_125_13TeV_AC_Bin28'
p212
aS'jjh0M_125_13TeV_AC_Bin28'
p213
aS'jjh0P_125_13TeV_AC_Bin28'
p214
aS'tth0P_125_13TeV_AC_Bin28'
p215
aS'vbf0M_125_13TeV_AC_Bin28'
p216
aS'vbf0P_125_13TeV_AC_Bin28'
p217
aS'wh0M_125_13TeV_AC_Bin28'
p218
aS'wh0P_125_13TeV_AC_Bin28'
p219
aS'zh0M_125_13TeV_AC_Bin28'
p220
aS'zh0P_125_13TeV_AC_Bin28'
p221
aS'jjh0M_125_13TeV_AC_Bin28'
p222
aS'jjh0P_125_13TeV_AC_Bin28'
p223
aS'tth0P_125_13TeV_AC_Bin28'
p224
aS'vbf0M_125_13TeV_AC_Bin28'
p225
aS'vbf0P_125_13TeV_AC_Bin28'
p226
aS'wh0M_125_13TeV_AC_Bin28'
p227
aS'wh0P_125_13TeV_AC_Bin28'
p228
aS'zh0M_125_13TeV_AC_Bin28'
p229
aS'zh0P_125_13TeV_AC_Bin28'
p230
aS'jjh0M_125_13TeV_AC_Bin28'
p231
aS'jjh0P_125_13TeV_AC_Bin28'
p232
aS'tth0P_125_13TeV_AC_Bin28'
p233
aS'vbf0M_125_13TeV_AC_Bin28'
p234
aS'vbf0P_125_13TeV_AC_Bin28'
p235
aS'wh0M_125_13TeV_AC_Bin28'
p236
aS'wh0P_125_13TeV_AC_Bin28'
p237
aS'zh0M_125_13TeV_AC_Bin28'
p238
aS'zh0P_125_13TeV_AC_Bin28'
p239
ag166
ag166
aS'./Models/signal/CMS-HGG_sigfit_packaged_AC_Bin28.root'
p240
aS'./Models/signal/CMS-HGG_sigfit_packaged_AC_Bin28.root'
p241
aS'./Models/signal/CMS-HGG_sigfit_packaged_AC_Bin28.root'
p242
aS'./Models/signal/CMS-HGG_sigfit_packaged_AC_Bin28.root'
p243
aS'./Models/signal/CMS-HGG_sigfit_packaged_AC_Bin28.root'
p244
aS'./Models/signal/CMS-HGG_sigfit_packaged_AC_Bin28.root'
p245
aS'./Models/signal/CMS-HGG_sigfit_packaged_AC_Bin28.root'
p246
aS'./Models/signal/CMS-HGG_sigfit_packaged_AC_Bin28.root'
p247
aS'./Models/signal/CMS-HGG_sigfit_packaged_AC_Bin28.root'
p248
aS'./Models/signal/CMS-HGG_sigfit_packaged_AC_Bin28.root'
p249
aS'./Models/signal/CMS-HGG_sigfit_packaged_AC_Bin28.root'
p250
aS'./Models/signal/CMS-HGG_sigfit_packaged_AC_Bin28.root'
p251
aS'./Models/signal/CMS-HGG_sigfit_packaged_AC_Bin28.root'
p252
aS'./Models/signal/CMS-HGG_sigfit_packaged_AC_Bin28.root'
p253
aS'./Models/signal/CMS-HGG_sigfit_packaged_AC_Bin28.root'
p254
aS'./Models/signal/CMS-HGG_sigfit_packaged_AC_Bin28.root'
p255
aS'./Models/signal/CMS-HGG_sigfit_packaged_AC_Bin28.root'
p256
aS'./Models/signal/CMS-HGG_sigfit_packaged_AC_Bin28.root'
p257
aS'./Models/signal/CMS-HGG_sigfit_packaged_AC_Bin28.root'
p258
aS'./Models/signal/CMS-HGG_sigfit_packaged_AC_Bin28.root'
p259
aS'./Models/signal/CMS-HGG_sigfit_packaged_AC_Bin28.root'
p260
aS'./Models/signal/CMS-HGG_sigfit_packaged_AC_Bin28.root'
p261
aS'./Models/signal/CMS-HGG_sigfit_packaged_AC_Bin28.root'
p262
aS'./Models/signal/CMS-HGG_sigfit_packaged_AC_Bin28.root'
p263
aS'./Models/signal/CMS-HGG_sigfit_packaged_AC_Bin28.root'
p264
aS'./Models/signal/CMS-HGG_sigfit_packaged_AC_Bin28.root'
p265
aS'./Models/signal/CMS-HGG_sigfit_packaged_AC_Bin28.root'
p266
aS'./Models/signal/CMS-HGG_sigfit_packaged_AC_Bin28.root'
p267
aS'./Models/signal/CMS-HGG_sigfit_packaged_AC_Bin28.root'
p268
aS'./Models/signal/CMS-HGG_sigfit_packaged_AC_Bin28.root'
p269
aS'./Models/signal/CMS-HGG_sigfit_packaged_AC_Bin28.root'
p270
aS'./Models/signal/CMS-HGG_sigfit_packaged_AC_Bin28.root'
p271
aS'./Models/signal/CMS-HGG_sigfit_packaged_AC_Bin28.root'
p272
aS'./Models/signal/CMS-HGG_sigfit_packaged_AC_Bin28.root'
p273
aS'./Models/signal/CMS-HGG_sigfit_packaged_AC_Bin28.root'
p274
aS'./Models/signal/CMS-HGG_sigfit_packaged_AC_Bin28.root'
p275
aS'./Models/background/CMS-HGG_multipdf_AC_Bin28.root'
p276
ag276
aS'wsig_13TeV:hggpdfsmrel_GG2HbsmM_2016preVFP_AC_Bin28_13TeV'
p277
aS'wsig_13TeV:hggpdfsmrel_GG2Hsm_2016preVFP_AC_Bin28_13TeV'
p278
aS'wsig_13TeV:hggpdfsmrel_TTHsm_2016preVFP_AC_Bin28_13TeV'
p279
aS'wsig_13TeV:hggpdfsmrel_VBFbsmM_2016preVFP_AC_Bin28_13TeV'
p280
aS'wsig_13TeV:hggpdfsmrel_VBFsm_2016preVFP_AC_Bin28_13TeV'
p281
aS'wsig_13TeV:hggpdfsmrel_WHbsmM_2016preVFP_AC_Bin28_13TeV'
p282
aS'wsig_13TeV:hggpdfsmrel_WHsm_2016preVFP_AC_Bin28_13TeV'
p283
aS'wsig_13TeV:hggpdfsmrel_ZHbsmM_2016preVFP_AC_Bin28_13TeV'
p284
aS'wsig_13TeV:hggpdfsmrel_ZHsm_2016preVFP_AC_Bin28_13TeV'
p285
aS'wsig_13TeV:hggpdfsmrel_GG2HbsmM_2016postVFP_AC_Bin28_13TeV'
p286
aS'wsig_13TeV:hggpdfsmrel_GG2Hsm_2016postVFP_AC_Bin28_13TeV'
p287
aS'wsig_13TeV:hggpdfsmrel_TTHsm_2016postVFP_AC_Bin28_13TeV'
p288
aS'wsig_13TeV:hggpdfsmrel_VBFbsmM_2016postVFP_AC_Bin28_13TeV'
p289
aS'wsig_13TeV:hggpdfsmrel_VBFsm_2016postVFP_AC_Bin28_13TeV'
p290
aS'wsig_13TeV:hggpdfsmrel_WHbsmM_2016postVFP_AC_Bin28_13TeV'
p291
aS'wsig_13TeV:hggpdfsmrel_WHsm_2016postVFP_AC_Bin28_13TeV'
p292
aS'wsig_13TeV:hggpdfsmrel_ZHbsmM_2016postVFP_AC_Bin28_13TeV'
p293
aS'wsig_13TeV:hggpdfsmrel_ZHsm_2016postVFP_AC_Bin28_13TeV'
p294
aS'wsig_13TeV:hggpdfsmrel_GG2HbsmM_2017_AC_Bin28_13TeV'
p295
aS'wsig_13TeV:hggpdfsmrel_GG2Hsm_2017_AC_Bin28_13TeV'
p296
aS'wsig_13TeV:hggpdfsmrel_TTHsm_2017_AC_Bin28_13TeV'
p297
aS'wsig_13TeV:hggpdfsmrel_VBFbsmM_2017_AC_Bin28_13TeV'
p298
aS'wsig_13TeV:hggpdfsmrel_VBFsm_2017_AC_Bin28_13TeV'
p299
aS'wsig_13TeV:hggpdfsmrel_WHbsmM_2017_AC_Bin28_13TeV'
p300
aS'wsig_13TeV:hggpdfsmrel_WHsm_2017_AC_Bin28_13TeV'
p301
aS'wsig_13TeV:hggpdfsmrel_ZHbsmM_2017_AC_Bin28_13TeV'
p302
aS'wsig_13TeV:hggpdfsmrel_ZHsm_2017_AC_Bin28_13TeV'
p303
aS'wsig_13TeV:hggpdfsmrel_GG2HbsmM_2018_AC_Bin28_13TeV'
p304
aS'wsig_13TeV:hggpdfsmrel_GG2Hsm_2018_AC_Bin28_13TeV'
p305
aS'wsig_13TeV:hggpdfsmrel_TTHsm_2018_AC_Bin28_13TeV'
p306
aS'wsig_13TeV:hggpdfsmrel_VBFbsmM_2018_AC_Bin28_13TeV'
p307
aS'wsig_13TeV:hggpdfsmrel_VBFsm_2018_AC_Bin28_13TeV'
p308
aS'wsig_13TeV:hggpdfsmrel_WHbsmM_2018_AC_Bin28_13TeV'
p309
aS'wsig_13TeV:hggpdfsmrel_WHsm_2018_AC_Bin28_13TeV'
p310
aS'wsig_13TeV:hggpdfsmrel_ZHbsmM_2018_AC_Bin28_13TeV'
p311
aS'wsig_13TeV:hggpdfsmrel_ZHsm_2018_AC_Bin28_13TeV'
p312
aS'multipdf:CMS_hgg_AC_Bin28_13TeV_bkgshape'
p313
aS'multipdf:roohist_data_mass_AC_Bin28'
p314
aF0.04499854620326005
aF0.05622413127048276
aF0.006672196835779687
aF0.03517283803728333
aF0.029172364445116727
aF0.00370093579499553
aF0.0011559438844415126
aF0.0010158300283364952
aF0.002042725522414912
aF0.04499854620326005
aF0.05622413127048276
aF0.006672196835779687
aF0.03517283803728333
aF0.029172364445116727
aF0.00370093579499553
aF0.0011559438844415126
aF0.0010158300283364952
aF0.002042725522414912
aF0.04454723276285222
aF0.05962387043473427
aF0.007596271324246118
aF0.04131801601397456
aF0.025678210245587252
aF0.0035609818951343186
aF0.0008876958290784387
aF0.0020024139651013684
aF0.0018879648400798033
aF0.044920860422280384
aF0.06056452176426319
aF0.007741162719867134
aF0.044779042104437394
aF0.02536452967706282
aF0.0034119922504487477
aF0.001013094101608658
aF0.0020309128012740985
aF0.002302641925325588
ag166
ag166
aF1.2931930749795265e-05
aF6.0466447548604535e-06
aF1.6656006300243922e-06
aF1.0077675987514102e-05
aF7.210914598937667e-06
aF2.458152029974273e-07
aF7.976568589023113e-08
aF1.3120232473648064e-07
aF1.4604140536002782e-07
aF1.2931930749795265e-05
aF6.0466447548604535e-06
aF1.6656006300243922e-06
aF1.0077675987514102e-05
aF7.210914598937667e-06
aF2.458152029974273e-07
aF7.976568589023113e-08
aF1.3120232473648064e-07
aF1.4604140536002782e-07
aF4.5344164310880953e-07
aF5.850849620833124e-07
aF1.0249538502281295e-07
aF2.0859296347979172e-07
aF5.934116817903405e-07
aF1.5181979674738098e-08
aF4.037430275906553e-09
aF5.494314963100775e-09
aF1.5965000496277922e-08
aF4.4349245967044387e-07
aF6.054396612042804e-07
aF9.656162942196998e-08
aF2.272187131022017e-07
aF6.789596634030011e-07
aF1.4578676293835584e-08
aF4.329153143644502e-09
aF7.058348275505257e-09
aF1.8170401467726364e-08
ag166
ag166
aF0.04599949533427075
aF0.05751039597070322
aF0.006831903859504939
aF0.03588353256567891
aF0.02981639055444066
aF0.0037747624969253703
aF0.001180899800382788
aF0.0010316450414094738
aF0.002078998293902588
aF0.04599949533427075
aF0.05751039597070322
aF0.006831903859504939
aF0.03588353256567891
aF0.02981639055444066
aF0.0037747624969253703
aF0.001180899800382788
aF0.0010316450414094738
aF0.002078998293902588
aF0.04623597701859005
aF0.06191256951738126
aF0.007876842039867002
aF0.04281596257245468
aF0.026668004810158227
aF0.003691327072704699
aF0.000921711553010643
aF0.0020758910749066268
aF0.0019590907256120467
aF0.04640550794675287
aF0.06257838759877475
aF0.007981230772211618
aF0.04618385861964606
aF0.02619476877185829
aF0.003520131989688554
aF0.001047274634743883
aF0.0020963207101521012
aF0.002375844544921724
ag166
ag166
aF0.0452962460950304
aF0.0565954403419228
aF0.006716259481847536
aF0.03540482006266519
aF0.029362678504759494
aF0.003725393517448711
aF0.001163459870870364
aF0.001022456424324753
aF0.002055728717732416
aF0.0452962460950304
aF0.0565954403419228
aF0.006716259481847536
aF0.03540482006266519
aF0.029362678504759494
aF0.003725393517448711
aF0.001163459870870364
aF0.001022456424324753
aF0.002055728717732416
aF0.044857952805715334
aF0.060037661968525856
aF0.007649904369496958
aF0.041608227745211
aF0.025854955115076454
aF0.0035858641872415814
aF0.0008936929912189527
aF0.002016374931479807
aF0.001900705345082462
aF0.04519831908613584
aF0.060939378178111826
aF0.007789483909527577
aF0.04506062923371338
aF0.0255215725954373
aF0.003433349891795129
aF0.0010193018507841248
aF0.002043452283660483
aF0.002317029209475347
ag166
ag166
aF0.04470182906172915
aF0.05585404599824754
aF0.006628279095769323
aF0.034941619264594694
aF0.028982669706511997
aF0.003676558692852817
aF0.0011484523197799708
aF0.0010092252865366638
aF0.002029763769741176
aF0.04470182906172915
aF0.05585404599824754
aF0.006628279095769323
aF0.034941619264594694
aF0.028982669706511997
aF0.003676558692852817
aF0.0011484523197799708
aF0.0010092252865366638
aF0.002029763769741176
aF0.044237606598627945
aF0.059211528692915356
aF0.007542828548986835
aF0.041028834663209265
aF0.025502079636287082
aF0.003536187465576648
aF0.0008817191867336855
aF0.001988502317104101
aF0.0018752679185608573
aF0.04464425765590954
aF0.060190823798330934
aF0.007692991644859099
aF0.04449834056187121
aF0.025207972113222985
aF0.0033907014795902333
aF0.0010069053943197737
aF0.0020184120904983317
aF0.002288299793585685
ag166
ag166
aF0.0456599711907174
aF0.05704367080889462
aF0.006774289131990523
aF0.03566139336579846
aF0.02961993271431395
aF0.003750730379605427
aF0.0011706751366598294
aF0.001026413043011203
aF0.002076086651833034
aF0.0456599711907174
aF0.05704367080889462
aF0.006774289131990523
aF0.03566139336579846
aF0.02961993271431395
aF0.003750730379605427
aF0.0011706751366598294
aF0.001026413043011203
aF0.002076086651833034
aF0.04516869342892185
aF0.060480991994079025
aF0.00770195185307663
aF0.041862287800284954
aF0.02605519713904311
aF0.0036085923333782173
aF0.000900483405615875
aF0.002029392854593855
aF0.0019152341332366461
aF0.04560141038898297
aF0.06147504064484728
aF0.007860856954134559
aF0.04542163212042386
aF0.025739247527632472
aF0.003461717963546018
aF0.0010280775865365492
aF0.002060690959433202
aF0.002335202651231989
ag166
ag166
aF0.044341784135963236
aF0.05541057913122157
aF0.0065707552112298446
aF0.03468758064615176
aF0.028728392963078997
aF0.0036514698516283703
aF0.0011413056224913367
aF0.0010053035529099497
aF0.002009742238277335
aF0.044341784135963236
aF0.05541057913122157
aF0.0065707552112298446
aF0.03468758064615176
aF0.028728392963078997
aF0.0036514698516283703
aF0.0011413056224913367
aF0.0010053035529099497
aF0.002009742238277335
aF0.043930020680278035
aF0.058772800805206936
aF0.007491330967760252
aF0.04077729583051221
aF0.025303967926816044
aF0.0035136890722915586
aF0.0008750123449375901
aF0.0019756185845439585
aF0.0018608726575614915
aF0.044245448565012925
aF0.05966079303464117
aF0.007622364278453325
aF0.04414106492182897
aF0.024992511532736267
aF0.003362628074908162
aF0.0009982247827134388
aF0.0020013567069472665
aF0.002270328584555833
ag166
ag166
aF0.04506583648381711
aF0.05630914464225586
aF0.00668189522675913
aF0.03522624951866757
aF0.029221078040502176
aF0.0037064298989130237
aF0.0011579290142747828
aF0.0010175038896859659
aF0.002046755287283945
aF0.04506583648381711
aF0.05630914464225586
aF0.00668189522675913
aF0.03522624951866757
aF0.029221078040502176
aF0.0037064298989130237
aF0.0011579290142747828
aF0.0010175038896859659
aF0.002046755287283945
aF0.04466385393691893
aF0.059781114701640506
aF0.007615385891863159
aF0.0414242959072688
aF0.0257484976874931
aF0.0035701559700288756
aF0.0008902750691622631
aF0.00200748024042356
aF0.0018935233006038687
aF0.04499399387179243
aF0.06066214987729845
aF0.00775233193949429
aF0.04484771749775914
aF0.02540622113813851
aF0.003417359564208032
aF0.0010148330985606053
aF0.0020342255727401845
aF0.0023063878292480327
ag166
ag166
aF0.04493130731554745
aF0.056139184212836056
aF0.006662505110948583
aF0.03511946489877762
aF0.029123690308791955
aF0.003695445720335494
aF0.0011539606107082595
aF0.001014157931101769
aF0.0020387003880764725
aF0.04493130731554745
aF0.056139184212836056
aF0.006662505110948583
aF0.03511946489877762
aF0.029123690308791955
aF0.003695445720335494
aF0.0011539606107082595
aF0.001014157931101769
aF0.0020387003880764725
aF0.04443077770993535
aF0.059466862707891255
aF0.007577180937287694
aF0.04121188732930679
aF0.02560803337648456
aF0.0035518208937990025
aF0.0008851202268599694
aF0.0019973547061580684
aF0.0018824153898773896
aF0.04484779624075316
aF0.0604669846909572
aF0.007730002036062137
aF0.04471043264149633
aF0.025322878617580338
aF0.0034066300195892034
aF0.0010113568396438095
aF0.002027603336064388
aF0.002298899735009467
ag166
ag166
aF0.045096192059649966
aF0.056342011890229624
aF0.0066873714361695945
aF0.0352445509424656
aF0.029239319102139723
aF0.0037086136158424876
aF0.0011587293534828958
aF0.0010178699877887998
aF0.002046864428268815
aF0.045096192059649966
aF0.056342011890229624
aF0.0066873714361695945
aF0.0352445509424656
aF0.029239319102139723
aF0.0037086136158424876
aF0.0011587293534828958
aF0.0010178699877887998
aF0.002046864428268815
aF0.04465925914513694
aF0.05977433849558085
aF0.007615151238792416
aF0.041423242892689414
aF0.025745877726487246
aF0.0035702720908649993
aF0.0008900932548099475
aF0.0020076454151234605
aF0.0018928060424180005
aF0.0450221645481124
aF0.06070225451849305
aF0.007757860206623819
aF0.04487757647618802
aF0.025420772047481333
aF0.00341966027957862
aF0.0010154572606295897
aF0.002035434729734181
aF0.0023076655917199465
ag166
ag166
aF0.04490100609486676
aF0.05610637428145954
aF0.006657041605959858
aF0.035101199583657025
aF0.02910548825174653
aF0.0036932660265359086
aF0.0011531616712278933
aF0.0010137921514850772
aF0.0020385908607531795
aF0.04490100609486676
aF0.05610637428145954
aF0.006657041605959858
aF0.035101199583657025
aF0.02910548825174653
aF0.0036932660265359086
aF0.0011531616712278933
aF0.0010137921514850772
aF0.0020385908607531795
aF0.04443534622178874
aF0.0594735939660082
aF0.007577414606942867
aF0.0412129250489541
aF0.025610634921856994
aF0.003551703820010812
aF0.0008853015179555142
aF0.0019971892049500443
aF0.0018831297340869576
aF0.044819671055411583
aF0.060426944693480006
aF0.007724482918278923
aF0.044680616692159766
aF0.025308349245444648
aF0.0034043328854390653
aF0.0010107336588025984
aF0.002026395890397124
aF0.0022976236917291427
ag166
ag166
aF0.04400155200369227
aF0.05564568448812679
aF0.006533530318733938
aF0.03509919025577801
aF0.028606512289911734
aF0.003691840311375927
aF0.0009802998936265794
aF0.0010158300283364952
aF0.0020172941481177986
aF0.04400155200369227
aF0.05564568448812679
aF0.006533530318733938
aF0.03509919025577801
aF0.028606512289911734
aF0.003691840311375927
aF0.0009802998936265794
aF0.0010158300283364952
aF0.0020172941481177986
aF0.04391081957419374
aF0.05866677539597731
aF0.007482332853214757
aF0.04104178818852233
aF0.025019101261477772
aF0.0035229706074915157
aF0.0008693020029113541
aF0.0019914403326311003
aF0.0018650072302079934
aF0.04449314007297289
aF0.06010573153662335
aF0.007684965538146571
aF0.044666544726624124
aF0.03747327247356225
aF0.0034079597364780057
aF0.0010090845050854114
aF0.0020274994103601784
aF0.0022793188049945456
ag166
ag166
aF0.045598700213304255
aF0.056644306148882606
aF0.006794033557525836
aF0.03537408051829516
aF0.02956935125769178
aF0.0037046405564069573
aF0.001179460869821014
aF0.0010158300283364952
aF0.0020471285336043366
aF0.045598700213304255
aF0.056644306148882606
aF0.006794033557525836
aF0.03537408051829516
aF0.02956935125769178
aF0.0037046405564069573
aF0.001179460869821014
aF0.0010158300283364952
aF0.0020471285336043366
aF0.045126846557650424
aF0.060306886180114816
aF0.0076191871180526505
aF0.04155214386037187
aF0.025866632609904627
aF0.003607325786333604
aF0.000897002694728144
aF0.0020190209786505875
aF0.0019130854311697476
aF0.04534455815246474
aF0.06106909025538698
aF0.007786253946278521
aF0.04496421868179823
aF0.037729960462002055
aF0.003424465749276351
aF0.0010257421988626447
aF0.0020378242711558414
aF0.002334015820906643
ag166
ag166
aF0.045538927266079554
aF0.05703388271081167
aF0.006994344680379072
aF0.0355188211190125
aF0.028606996659277684
aF0.003775954419552363
aF0.0011752789455385937
aF0.0010158300283364952
aF0.002071050405220376
aF0.045538927266079554
aF0.05703388271081167
aF0.006994344680379072
aF0.0355188211190125
aF0.028606996659277684
aF0.003775954419552363
aF0.0011752789455385937
aF0.0010158300283364952
aF0.002071050405220376
aF0.046119895950141654
aF0.06133286514887004
aF0.007889132496757156
aF0.0427741415219316
aF0.02625308426331685
aF0.003669722955692123
aF0.0009147243763436563
aF0.0020627801704904414
aF0.00192059699429592
aF0.046104828246370744
aF0.06205820881814361
aF0.008191298411702519
aF0.046026808312490175
aF0.038647209973078134
aF0.0035153251769770577
aF0.0010258737386266148
aF0.002087004045051799
aF0.0023416513849952025
ag166
ag166
aF0.04410386255312915
aF0.05526284202187526
aF0.006498469669509177
aF0.034650756196924704
aF0.027681490203235626
aF0.003631953019521461
aF0.0011413450392865343
aF0.0010158300283364952
aF0.001972824158883668
aF0.04410386255312915
aF0.05526284202187526
aF0.006498469669509177
aF0.034650756196924704
aF0.027681490203235626
aF0.003631953019521461
aF0.0011413450392865343
aF0.0010158300283364952
aF0.001972824158883668
aF0.0432439755568339
aF0.05799665357744743
aF0.007154101064770657
aF0.04012260142053492
aF0.02500272435918305
aF0.0034727845327324758
aF0.0008568776897845964
aF0.001959035521167607
aF0.001827589827371412
aF0.043612080051843805
aF0.0588435059648873
aF0.007224123856303777
aF0.0434511220028071
aF0.03665223087364211
aF0.003308897910756059
aF0.000978856945721418
aF0.001976171946580507
aF0.00221947028512659
ag166
ag166
aF0.04543056705847448
aF0.056436304020053285
aF0.006659517897560363
aF0.03520151576810804
aF0.028440173602461982
aF0.003761978956617895
aF0.001161260312755985
aF0.0010158300283364952
aF0.002042725522414912
aF0.04543056705847448
aF0.056436304020053285
aF0.006659517897560363
aF0.03520151576810804
aF0.028440173602461982
aF0.003761978956617895
aF0.001161260312755985
aF0.0010158300283364952
aF0.002042725522414912
aF0.04482271834422136
aF0.060003521195994836
aF0.007600642435363625
aF0.041372360120476515
aF0.025891278502967907
aF0.0036177168753965816
aF0.0008967986232164549
aF0.002010521193369641
aF0.0018879648400798033
aF0.045221111026876315
aF0.06101391020683877
aF0.007736571654959334
aF0.04485037355698296
aF0.03773769549752615
aF0.003479602162315132
aF0.001013094101608658
aF0.0020592659652720613
aF0.0023104669121494226
ag166
ag166
aF0.04423776822159198
aF0.05581934986912529
aF0.006664631106445995
aF0.03523091108479548
aF0.029284528044968283
aF0.003729729001634041
aF0.001146278965052261
aF0.0010158300283364952
aF0.0020530930689801608
aF0.04423776822159198
aF0.05581934986912529
aF0.006664631106445995
aF0.03523091108479548
aF0.029284528044968283
aF0.003729729001634041
aF0.001146278965052261
aF0.0010158300283364952
aF0.0020530930689801608
aF0.044145747838229
aF0.059242812278171186
aF0.007596271324246118
aF0.04126514741756182
aF0.025466304518886318
aF0.003457200072489286
aF0.0008829136409076455
aF0.0019614601956163824
aF0.0018790668823385204
aF0.04462225017414312
aF0.060260303734594345
aF0.007745007351786626
aF0.04470647122570881
aF0.03731895854434697
aF0.0033597125959659024
aF0.0009870956093891436
aF0.0019969035993199213
aF0.002302641925325588
ag166
ag166
aF0.04610819957019885
aF0.06139618369229538
aF0.007145765887571542
aF0.03549726915480278
aF0.029682067999260653
aF0.0038258749989381613
aF0.0011690839173752465
aF0.0009328559062851127
aF0.002115964010499738
aF0.04610819957019885
aF0.06139618369229538
aF0.007145765887571542
aF0.03549726915480278
aF0.029682067999260653
aF0.0038258749989381613
aF0.0011690839173752465
aF0.0009328559062851127
aF0.002115964010499738
aF0.046975693877357116
aF0.06181061671941279
aF0.007676741826116995
aF0.04190187511858312
aF0.025991808494836732
aF0.0040015253698584274
aF0.0010452333031025773
aF0.002268232664164316
aF0.001964846370356099
aF0.046789342800366285
aF0.06249133387518668
aF0.007753737514576642
aF0.045258785331498075
aF0.03799556911599211
aF0.0037120230085747608
aF0.0010934215058568952
aF0.002227467050033738
aF0.0023696639177614998
ag166
ag166
aF0.04397729001516382
aF0.05419277470468842
aF0.006069028754723149
aF0.03503676347293094
aF0.028396876512829294
aF0.003178286379124984
aF0.0011221668071357271
aF0.001065282562194625
aF0.0020197016172005533
aF0.04397729001516382
aF0.05419277470468842
aF0.006069028754723149
aF0.03503676347293094
aF0.028396876512829294
aF0.003178286379124984
aF0.0011221668071357271
aF0.001065282562194625
aF0.0020197016172005533
aF0.04219606455444591
aF0.05722713639397625
aF0.00765982637972229
aF0.04086969597710777
aF0.025379053588039824
aF0.002959942518373282
aF0.0007565757182419475
aF0.001763182015338316
aF0.0017510247039353999
aF0.04280840338378766
aF0.05858896465133512
aF0.0076251758125636115
aF0.04426570651003203
aF0.036552430206029385
aF0.0029681722205623373
aF0.0009003207180739992
aF0.001839881301521018
aF0.0021782808644275065
ag166
ag166
aF0.04485736521360195
aF0.05632025730392343
aF0.006688588587508093
aF0.035161036738827534
aF0.028411296062699876
aF0.0034073323953407453
aF0.001164009186823023
aF0.0009668716193118598
aF0.00207768534232855
aF0.04485736521360195
aF0.05632025730392343
aF0.006688588587508093
aF0.035161036738827534
aF0.028411296062699876
aF0.0034073323953407453
aF0.001164009186823023
aF0.0009668716193118598
aF0.00207768534232855
aF0.044799285164117464
aF0.06024547615515985
aF0.007547372631506732
aF0.041419652427521214
aF0.026097134338670003
aF0.0036947755152141326
aF0.0009435624606339843
aF0.002088147089125414
aF0.0019306072058498103
aF0.045257344881065364
aF0.06117059460257224
aF0.007790933716250947
aF0.044845050972071476
aF0.03742719877891432
aF0.003451058940299845
aF0.001026935745130686
aF0.002102329732679209
aF0.002365241984534805
ag166
ag166
aF0.044818813720667094
aF0.055060897051589563
aF0.00655252979765919
aF0.0351354162971802
aF0.029060340300588905
aF0.0036441801815954022
aF0.001174758672959797
aF0.0010158300283364952
aF0.002031205792036417
aF0.044818813720667094
aF0.055060897051589563
aF0.00655252979765919
aF0.0351354162971802
aF0.029060340300588905
aF0.0036441801815954022
aF0.001174758672959797
aF0.0010158300283364952
aF0.002031205792036417
aF0.044228220119748585
aF0.059500648106677545
aF0.007668815437682497
aF0.04133954663620898
aF0.025658476590706414
aF0.0034101192509297107
aF0.0008433974785475584
aF0.0019680640002661676
aF0.0018046035970655794
aF0.044566369572748954
aF0.06028593620385436
aF0.0077551385586502875
aF0.044816765838277206
aF0.03815070251084762
aF0.003281847466269028
aF0.000972450582366946
aF0.0019638351989215153
aF0.0022625422984674515
ag166
ag166
aF0.04499854620326005
aF0.05622413127048276
aF0.006672196835779687
aF0.03517283803728333
aF0.029172364445116727
aF0.00370093579499553
aF0.0011559438844415126
aF0.0010158300283364952
aF0.002042725522414912
aF0.04499854620326005
aF0.05622413127048276
aF0.006672196835779687
aF0.03517283803728333
aF0.029172364445116727
aF0.00370093579499553
aF0.0011559438844415126
aF0.0010158300283364952
aF0.002042725522414912
aF0.04454723276285222
aF0.05962387043473427
aF0.007596271324246118
aF0.04131801601397456
aF0.025678210245587252
aF0.0035609818951343186
aF0.0008876958290784387
aF0.0020024139651013684
aF0.0018879648400798033
aF0.045245746136060916
aF0.0609897490635376
aF0.007714282561209984
aF0.044879134600705584
aF0.03776556177945167
aF0.0035277086988116935
aF0.0010474261141553143
aF0.002058885086171358
aF0.0023349125367531087
ag166
ag166
aF0.04499854620326005
aF0.05622413127048276
aF0.006672196835779687
aF0.03517283803728333
aF0.029172364445116727
aF0.00370093579499553
aF0.0011559438844415126
aF0.0010158300283364952
aF0.002042725522414912
aF0.04499854620326005
aF0.05622413127048276
aF0.006672196835779687
aF0.03517283803728333
aF0.029172364445116727
aF0.00370093579499553
aF0.0011559438844415126
aF0.0010158300283364952
aF0.002042725522414912
aF0.04454723276285222
aF0.05962387043473427
aF0.007596271324246118
aF0.04131801601397456
aF0.025678210245587252
aF0.0035609818951343186
aF0.0008876958290784387
aF0.0020024139651013684
aF0.0018879648400798033
aF0.04462553582106921
aF0.06039881455626528
aF0.0077080166990981525
aF0.04446732949008947
aF0.037529259616803756
aF0.003359209938253116
aF0.0009706049229407654
aF0.002002221393468062
aF0.002285361802478292
ag166
ag166
atp315
ba(lp316
g15
(g16
(dp317
g18
g19
(g20
(I0
tp318
g22
tp319
Rp320
(I1
(I1
tp321
g29
I00
(lp322
g43
atp323
bsg68
Nstp324
Rp325
ag15
(g16
(dp326
g18
g19
(g20
(I0
tp327
g22
tp328
Rp329
(I1
(I33
tp330
g29
I00
(lp331
g33
ag34
ag35
ag36
ag37
ag38
ag39
ag40
ag41
ag42
ag44
ag45
ag46
ag47
ag48
ag49
ag50
ag51
ag52
ag53
ag54
ag55
ag56
ag57
ag58
ag59
ag60
ag61
ag62
ag63
ag64
ag65
ag66
atp332
bsg68
Nstp333
Rp334
a(dp335
S'0.14.1'
p336
(dp337
S'axes'
p338
g14
sS'blocks'
p339
(lp340
(dp341
S'mgr_locs'
p342
c__builtin__
slice
p343
(I10
I11
I1
tp344
Rp345
sS'values'
p346
g89
sa(dp347
g342
g19
(g20
(I0
tp348
g22
tp349
Rp350
(I1
(I33
tp351
g79
I00
S'\x00\x00\x00\x00\x00\x00\x00\x00\x01\x00\x00\x00\x00\x00\x00\x00\x02\x00\x00\x00\x00\x00\x00\x00\x03\x00\x00\x00\x00\x00\x00\x00\x04\x00\x00\x00\x00\x00\x00\x00\x05\x00\x00\x00\x00\x00\x00\x00\x06\x00\x00\x00\x00\x00\x00\x00\x07\x00\x00\x00\x00\x00\x00\x00\x08\x00\x00\x00\x00\x00\x00\x00\t\x00\x00\x00\x00\x00\x00\x00\x0b\x00\x00\x00\x00\x00\x00\x00\x0c\x00\x00\x00\x00\x00\x00\x00\r\x00\x00\x00\x00\x00\x00\x00\x0e\x00\x00\x00\x00\x00\x00\x00\x0f\x00\x00\x00\x00\x00\x00\x00\x10\x00\x00\x00\x00\x00\x00\x00\x11\x00\x00\x00\x00\x00\x00\x00\x12\x00\x00\x00\x00\x00\x00\x00\x13\x00\x00\x00\x00\x00\x00\x00\x14\x00\x00\x00\x00\x00\x00\x00\x15\x00\x00\x00\x00\x00\x00\x00\x16\x00\x00\x00\x00\x00\x00\x00\x17\x00\x00\x00\x00\x00\x00\x00\x18\x00\x00\x00\x00\x00\x00\x00\x19\x00\x00\x00\x00\x00\x00\x00\x1a\x00\x00\x00\x00\x00\x00\x00\x1b\x00\x00\x00\x00\x00\x00\x00\x1c\x00\x00\x00\x00\x00\x00\x00\x1d\x00\x00\x00\x00\x00\x00\x00\x1e\x00\x00\x00\x00\x00\x00\x00\x1f\x00\x00\x00\x00\x00\x00\x00 \x00\x00\x00\x00\x00\x00\x00!\x00\x00\x00\x00\x00\x00\x00'
p352
tp353
bsg346
g100
sasstp354
bsb.