ccopy_reg
_reconstructor
p0
(cpandas.core.frame
DataFrame
p1
c__builtin__
object
p2
Ntp3
Rp4
(dp5
S'_metadata'
p6
(lp7
sS'_typ'
p8
S'dataframe'
p9
sS'_data'
p10
g0
(cpandas.core.internals
BlockManager
p11
g2
Ntp12
Rp13
((lp14
cpandas.core.indexes.base
_new_Index
p15
(cpandas.core.indexes.base
Index
p16
(dp17
S'data'
p18
cnumpy.core.multiarray
_reconstruct
p19
(cnumpy
ndarray
p20
(I0
tp21
S'b'
p22
tp23
Rp24
(I1
(I34
tp25
cnumpy
dtype
p26
(S'O8'
p27
I0
I1
tp28
Rp29
(I3
S'|'
p30
NNNI-1
I-1
I63
tp31
bI00
(lp32
S'year'
p33
aS'type'
p34
aS'procOriginal'
p35
aS'proc'
p36
aS'proc_s0'
p37
aS'cat'
p38
aS'inputWSFile'
p39
aS'nominalDataName'
p40
aS'modelWSFile'
p41
aS'model'
p42
aS'rate'
p43
aS'nominal_yield'
p44
aS'sumw2'
p45
aS'nominal_yield_COWCorr'
p46
aS'LooseMvaSF_up_yield'
p47
aS'LooseMvaSF_down_yield'
p48
aS'PreselSF_up_yield'
p49
aS'PreselSF_down_yield'
p50
aS'electronVetoSF_up_yield'
p51
aS'electronVetoSF_down_yield'
p52
aS'TriggerWeight_up_yield'
p53
aS'TriggerWeight_down_yield'
p54
aS'SigmaEOverEShift_up_yield'
p55
aS'SigmaEOverEShift_down_yield'
p56
aS'MvaShift_up_yield'
p57
aS'MvaShift_down_yield'
p58
aS'PUJIDShift_up_yield'
p59
aS'PUJIDShift_down_yield'
p60
aS'JEC_up_yield'
p61
aS'JEC_down_yield'
p62
aS'JER_up_yield'
p63
aS'JER_down_yield'
p64
aS'JetHEM_up_yield'
p65
aS'JetHEM_down_yield'
p66
atp67
bsS'name'
p68
Nstp69
Rp70
ag15
(cpandas.core.indexes.numeric
Int64Index
p71
(dp72
g18
g19
(g20
(I0
tp73
g22
tp74
Rp75
(I1
(I54
tp76
g26
(S'i8'
p77
I0
I1
tp78
Rp79
(I3
S'<'
p80
NNNI-1
I-1
I0
tp81
bI00
S'\x00\x00\x00\x00\x00\x00\x00\x00\x01\x00\x00\x00\x00\x00\x00\x00\x02\x00\x00\x00\x00\x00\x00\x00\x03\x00\x00\x00\x00\x00\x00\x00\x04\x00\x00\x00\x00\x00\x00\x00\x05\x00\x00\x00\x00\x00\x00\x00\x06\x00\x00\x00\x00\x00\x00\x00\x07\x00\x00\x00\x00\x00\x00\x00\x08\x00\x00\x00\x00\x00\x00\x00\t\x00\x00\x00\x00\x00\x00\x00\n\x00\x00\x00\x00\x00\x00\x00\x0b\x00\x00\x00\x00\x00\x00\x00\x0c\x00\x00\x00\x00\x00\x00\x00\r\x00\x00\x00\x00\x00\x00\x00\x0e\x00\x00\x00\x00\x00\x00\x00\x0f\x00\x00\x00\x00\x00\x00\x00\x10\x00\x00\x00\x00\x00\x00\x00\x11\x00\x00\x00\x00\x00\x00\x00\x12\x00\x00\x00\x00\x00\x00\x00\x13\x00\x00\x00\x00\x00\x00\x00\x14\x00\x00\x00\x00\x00\x00\x00\x15\x00\x00\x00\x00\x00\x00\x00\x16\x00\x00\x00\x00\x00\x00\x00\x17\x00\x00\x00\x00\x00\x00\x00\x18\x00\x00\x00\x00\x00\x00\x00\x19\x00\x00\x00\x00\x00\x00\x00\x1a\x00\x00\x00\x00\x00\x00\x00\x1b\x00\x00\x00\x00\x00\x00\x00\x1c\x00\x00\x00\x00\x00\x00\x00\x1d\x00\x00\x00\x00\x00\x00\x00\x1e\x00\x00\x00\x00\x00\x00\x00\x1f\x00\x00\x00\x00\x00\x00\x00 \x00\x00\x00\x00\x00\x00\x00!\x00\x00\x00\x00\x00\x00\x00"\x00\x00\x00\x00\x00\x00\x00#\x00\x00\x00\x00\x00\x00\x00$\x00\x00\x00\x00\x00\x00\x00%\x00\x00\x00\x00\x00\x00\x00&\x00\x00\x00\x00\x00\x00\x00\'\x00\x00\x00\x00\x00\x00\x00(\x00\x00\x00\x00\x00\x00\x00)\x00\x00\x00\x00\x00\x00\x00*\x00\x00\x00\x00\x00\x00\x00+\x00\x00\x00\x00\x00\x00\x00,\x00\x00\x00\x00\x00\x00\x00-\x00\x00\x00\x00\x00\x00\x00.\x00\x00\x00\x00\x00\x00\x00/\x00\x00\x00\x00\x00\x00\x000\x00\x00\x00\x00\x00\x00\x001\x00\x00\x00\x00\x00\x00\x002\x00\x00\x00\x00\x00\x00\x003\x00\x00\x00\x00\x00\x00\x004\x00\x00\x00\x00\x00\x00\x005\x00\x00\x00\x00\x00\x00\x00'
p82
tp83
bsg68
Nstp84
Rp85
a(lp86
g19
(g20
(I0
tp87
g22
tp88
Rp89
(I1
(I1
I54
tp90
g26
(S'f8'
p91
I0
I1
tp92
Rp93
(I3
S'<'
p94
NNNI-1
I-1
I0
tp95
bI00
S'\x00\x00\x00\x00\x00\x10\xd3@\x00\x00\x00\x00\x00\x10\xd3@\x00\x00\x00\x00\x00\x10\xd3@\x00\x00\x00\x00\x00\x10\xd3@\x00\x00\x00\x00\x00\x10\xd3@\x00\x00\x00\x00\x00\x10\xd3@\x00\x00\x00\x00\x00\x10\xd3@\x00\x00\x00\x00\x00\x10\xd3@\x00\x00\x00\x00\x00\x10\xd3@\x00\x00\x00\x00\x00\x10\xd3@\x00\x00\x00\x00\x00\x10\xd3@\x00\x00\x00\x00\x00\x10\xd3@\x00\x00\x00\x00\x00\x10\xd3@\x00\x00\x00\x00\x80j\xd0@\x00\x00\x00\x00\x80j\xd0@\x00\x00\x00\x00\x80j\xd0@\x00\x00\x00\x00\x80j\xd0@\x00\x00\x00\x00\x80j\xd0@\x00\x00\x00\x00\x80j\xd0@\x00\x00\x00\x00\x80j\xd0@\x00\x00\x00\x00\x80j\xd0@\x00\x00\x00\x00\x80j\xd0@\x00\x00\x00\x00\x80j\xd0@\x00\x00\x00\x00\x80j\xd0@\x00\x00\x00\x00\x80j\xd0@\x00\x00\x00\x00\x80j\xd0@\x00\x00\x00\x00\x00A\xe4@\x00\x00\x00\x00\x00A\xe4@\x00\x00\x00\x00\x00A\xe4@\x00\x00\x00\x00\x00A\xe4@\x00\x00\x00\x00\x00A\xe4@\x00\x00\x00\x00\x00A\xe4@\x00\x00\x00\x00\x00A\xe4@\x00\x00\x00\x00\x00A\xe4@\x00\x00\x00\x00\x00A\xe4@\x00\x00\x00\x00\x00A\xe4@\x00\x00\x00\x00\x00A\xe4@\x00\x00\x00\x00\x00A\xe4@\x00\x00\x00\x00\x00A\xe4@\x00\x00\x00\x00\xc0\xfa\xec@\x00\x00\x00\x00\xc0\xfa\xec@\x00\x00\x00\x00\xc0\xfa\xec@\x00\x00\x00\x00\xc0\xfa\xec@\x00\x00\x00\x00\xc0\xfa\xec@\x00\x00\x00\x00\xc0\xfa\xec@\x00\x00\x00\x00\xc0\xfa\xec@\x00\x00\x00\x00\xc0\xfa\xec@\x00\x00\x00\x00\xc0\xfa\xec@\x00\x00\x00\x00\xc0\xfa\xec@\x00\x00\x00\x00\xc0\xfa\xec@\x00\x00\x00\x00\xc0\xfa\xec@\x00\x00\x00\x00\xc0\xfa\xec@\x00\x00\x00\x00\x00\x00\xf0?\x00\x00\x00\x00\x00\x00\xf0\xbf'
p96
tp97
bag19
(g20
(I0
tp98
g22
tp99
Rp100
(I1
(I33
I54
tp101
g29
I00
(lp102
S'2016preVFP'
p103
ag103
ag103
ag103
ag103
ag103
ag103
ag103
ag103
ag103
ag103
ag103
ag103
aS'2016postVFP'
p104
ag104
ag104
ag104
ag104
ag104
ag104
ag104
ag104
ag104
ag104
ag104
ag104
aS'2017'
p105
ag105
ag105
ag105
ag105
ag105
ag105
ag105
ag105
ag105
ag105
ag105
ag105
aS'2018'
p106
ag106
ag106
ag106
ag106
ag106
ag106
ag106
ag106
ag106
ag106
ag106
ag106
aS'merged'
p107
ag107
aS'sig'
p108
ag108
ag108
ag108
ag108
ag108
ag108
ag108
ag108
ag108
ag108
ag108
ag108
ag108
ag108
ag108
ag108
ag108
ag108
ag108
ag108
ag108
ag108
ag108
ag108
ag108
ag108
ag108
ag108
ag108
ag108
ag108
ag108
ag108
ag108
ag108
ag108
ag108
ag108
ag108
ag108
ag108
ag108
ag108
ag108
ag108
ag108
ag108
ag108
ag108
ag108
ag108
aS'bkg'
p109
ag18
aS'GG2HMf05ph0'
p110
aS'GG2HbsmM'
p111
aS'GG2Hsm'
p112
aS'TTHsm'
p113
aS'VBFMf05ph0'
p114
aS'VBFbsmM'
p115
aS'VBFsm'
p116
aS'WHMf05ph0'
p117
aS'WHbsmM'
p118
aS'WHsm'
p119
aS'ZHMf05ph0'
p120
aS'ZHbsmM'
p121
aS'ZHsm'
p122
ag110
ag111
ag112
ag113
ag114
ag115
ag116
ag117
ag118
ag119
ag120
ag121
ag122
ag110
ag111
ag112
ag113
ag114
ag115
ag116
ag117
ag118
ag119
ag120
ag121
ag122
ag110
ag111
ag112
ag113
ag114
ag115
ag116
ag117
ag118
ag119
ag120
ag121
ag122
aS'bkg_mass'
p123
aS'data_obs'
p124
aS'GG2HMf05ph0_2016preVFP_hgg'
p125
aS'GG2HbsmM_2016preVFP_hgg'
p126
aS'GG2Hsm_2016preVFP_hgg'
p127
aS'tth0P_2016preVFP_hgg'
p128
aS'vbf0Mf05ph0_2016preVFP_hgg'
p129
aS'vbf0M_2016preVFP_hgg'
p130
aS'vbf0P_2016preVFP_hgg'
p131
aS'wh0Mf05ph0_2016preVFP_hgg'
p132
aS'wh0M_2016preVFP_hgg'
p133
aS'wh0P_2016preVFP_hgg'
p134
aS'zh0Mf05ph0_2016preVFP_hgg'
p135
aS'zh0M_2016preVFP_hgg'
p136
aS'zh0P_2016preVFP_hgg'
p137
aS'GG2HMf05ph0_2016postVFP_hgg'
p138
aS'GG2HbsmM_2016postVFP_hgg'
p139
aS'GG2Hsm_2016postVFP_hgg'
p140
aS'tth0P_2016postVFP_hgg'
p141
aS'vbf0Mf05ph0_2016postVFP_hgg'
p142
aS'vbf0M_2016postVFP_hgg'
p143
aS'vbf0P_2016postVFP_hgg'
p144
aS'wh0Mf05ph0_2016postVFP_hgg'
p145
aS'wh0M_2016postVFP_hgg'
p146
aS'wh0P_2016postVFP_hgg'
p147
aS'zh0Mf05ph0_2016postVFP_hgg'
p148
aS'zh0M_2016postVFP_hgg'
p149
aS'zh0P_2016postVFP_hgg'
p150
aS'GG2HMf05ph0_2017_hgg'
p151
aS'GG2HbsmM_2017_hgg'
p152
aS'GG2Hsm_2017_hgg'
p153
aS'tth0P_2017_hgg'
p154
aS'vbf0Mf05ph0_2017_hgg'
p155
aS'vbf0M_2017_hgg'
p156
aS'vbf0P_2017_hgg'
p157
aS'wh0Mf05ph0_2017_hgg'
p158
aS'wh0M_2017_hgg'
p159
aS'wh0P_2017_hgg'
p160
aS'zh0Mf05ph0_2017_hgg'
p161
aS'zh0M_2017_hgg'
p162
aS'zh0P_2017_hgg'
p163
aS'GG2HMf05ph0_2018_hgg'
p164
aS'GG2HbsmM_2018_hgg'
p165
aS'GG2Hsm_2018_hgg'
p166
aS'tth0P_2018_hgg'
p167
aS'vbf0Mf05ph0_2018_hgg'
p168
aS'vbf0M_2018_hgg'
p169
aS'vbf0P_2018_hgg'
p170
aS'wh0Mf05ph0_2018_hgg'
p171
aS'wh0M_2018_hgg'
p172
aS'wh0P_2018_hgg'
p173
aS'zh0Mf05ph0_2018_hgg'
p174
aS'zh0M_2018_hgg'
p175
aS'zh0P_2018_hgg'
p176
ag123
ag124
aS'jjh0Mf05ph0'
p177
aS'jjh0M'
p178
aS'jjh0P'
p179
aS'tth0P'
p180
aS'vbf0Mf05ph0'
p181
aS'vbf0M'
p182
aS'vbf0P'
p183
aS'wh0Mf05ph0'
p184
aS'wh0M'
p185
aS'wh0P'
p186
aS'zh0Mf05ph0'
p187
aS'zh0M'
p188
aS'zh0P'
p189
ag177
ag178
ag179
ag180
ag181
ag182
ag183
ag184
ag185
ag186
ag187
ag188
ag189
ag177
ag178
ag179
ag180
ag181
ag182
ag183
ag184
ag185
ag186
ag187
ag188
ag189
ag177
ag178
ag179
ag180
ag181
ag182
ag183
ag184
ag185
ag186
ag187
ag188
ag189
aS'-'
p190
ag190
aS'AC_Bin13'
p191
ag191
ag191
ag191
ag191
ag191
ag191
ag191
ag191
ag191
ag191
ag191
ag191
ag191
ag191
ag191
ag191
ag191
ag191
ag191
ag191
ag191
ag191
ag191
ag191
ag191
ag191
ag191
ag191
ag191
ag191
ag191
ag191
ag191
ag191
ag191
ag191
ag191
ag191
ag191
ag191
ag191
ag191
ag191
ag191
ag191
ag191
ag191
ag191
ag191
ag191
ag191
ag191
ag191
aS'Trees/Opt_RunII/RunII/Trees2WS_RunII/WS_2016preVFP/output_GluGluHToGGPlusTwoJets_MM_M125_TuneCP5_13TeV-amcatnlopowheg-minlo-pythia8_GG2HMf05ph0.root'
p192
aS'Trees/Opt_RunII/RunII/Trees2WS_RunII/WS_2016preVFP/output_GluGluHToGGPlusTwoJets_CPodd_M125_TuneCP5_13TeV-amcatnlopowheg-minlo-pythia8_GG2HbsmM.root'
p193
aS'Trees/Opt_RunII/RunII/Trees2WS_RunII/WS_2016preVFP/output_GluGluHToGGPlusTwoJets_SM_M125_TuneCP5_13TeV-amcatnlopowheg-minlo-pythia8_GG2Hsm.root'
p194
aS'Trees/Opt_RunII/RunII/Trees2WS_RunII/WS_2016preVFP/output_ttHJetToGG_M125_TuneCP5_13TeV-amcatnloFXFX-madspin-pythia8_TTHsm.root'
p195
aS'Trees/Opt_RunII/RunII/Trees2WS_RunII/WS_2016preVFP/output_VBFHiggs0Mf05ph0ToGG_M125_TuneCP5_13TeV-JHUGenV7011-pythia8_VBFMf05ph0.root'
p196
aS'Trees/Opt_RunII/RunII/Trees2WS_RunII/WS_2016preVFP/output_VBFHiggs0MToGG_M125_TuneCP5_13TeV-JHUGenV7011-pythia8_VBFbsmM.root'
p197
aS'Trees/Opt_RunII/RunII/Trees2WS_RunII/WS_2016preVFP/output_VBFHToGG_M125_TuneCP5_13TeV-amcatnlo-pythia8_VBFsm.root'
p198
aS'Trees/Opt_RunII/RunII/Trees2WS_RunII/WS_2016preVFP/output_WHiggs0Mf05ph0ToGG_M125_TuneCP5_13TeV-JHUGenV7011-pythia8_WHMf05ph0.root'
p199
aS'Trees/Opt_RunII/RunII/Trees2WS_RunII/WS_2016preVFP/output_WHiggs0MToGG_M125_TuneCP5_13TeV-JHUGenV7011-pythia8_WHbsmM.root'
p200
aS'Trees/Opt_RunII/RunII/Trees2WS_RunII/WS_2016preVFP/output_WHiggs0PMToGG_M125_TuneCP5_13TeV-JHUGenV7011-pythia8_WHsm.root'
p201
aS'Trees/Opt_RunII/RunII/Trees2WS_RunII/WS_2016preVFP/output_ZHiggs0Mf05ph0ToGG_M125_TuneCP5_13TeV-JHUGenV7011-pythia8_ZHMf05ph0.root'
p202
aS'Trees/Opt_RunII/RunII/Trees2WS_RunII/WS_2016preVFP/output_ZHiggs0MToGG_M125_TuneCP5_13TeV-JHUGenV7011-pythia8_ZHbsmM.root'
p203
aS'Trees/Opt_RunII/RunII/Trees2WS_RunII/WS_2016preVFP/output_ZH_HToGG_ZToAll_M125_TuneCP5_13TeV-powheg-pythia8_ZHsm.root'
p204
aS'Trees/Opt_RunII/RunII/Trees2WS_RunII/WS_2016postVFP/output_GluGluHToGGPlusTwoJets_MM_M125_TuneCP5_13TeV-amcatnlopowheg-minlo-pythia8_GG2HMf05ph0.root'
p205
aS'Trees/Opt_RunII/RunII/Trees2WS_RunII/WS_2016postVFP/output_GluGluHToGGPlusTwoJets_CPodd_M125_TuneCP5_13TeV-amcatnlopowheg-minlo-pythia8_GG2HbsmM.root'
p206
aS'Trees/Opt_RunII/RunII/Trees2WS_RunII/WS_2016postVFP/output_GluGluHToGGPlusTwoJets_SM_M125_TuneCP5_13TeV-amcatnlopowheg-minlo-pythia8_GG2Hsm.root'
p207
aS'Trees/Opt_RunII/RunII/Trees2WS_RunII/WS_2016postVFP/output_ttHJetToGG_M125_TuneCP5_13TeV-amcatnloFXFX-madspin-pythia8_TTHsm.root'
p208
aS'Trees/Opt_RunII/RunII/Trees2WS_RunII/WS_2016postVFP/output_VBFHiggs0Mf05ph0ToGG_M125_TuneCP5_13TeV-JHUGenV7011-pythia8_VBFMf05ph0.root'
p209
aS'Trees/Opt_RunII/RunII/Trees2WS_RunII/WS_2016postVFP/output_VBFHiggs0MToGG_M125_TuneCP5_13TeV-JHUGenV7011-pythia8_VBFbsmM.root'
p210
aS'Trees/Opt_RunII/RunII/Trees2WS_RunII/WS_2016postVFP/output_VBFHToGG_M125_TuneCP5_13TeV-amcatnlo-pythia8_VBFsm.root'
p211
aS'Trees/Opt_RunII/RunII/Trees2WS_RunII/WS_2016postVFP/output_WHiggs0Mf05ph0ToGG_M125_TuneCP5_13TeV-JHUGenV7011-pythia8_WHMf05ph0.root'
p212
aS'Trees/Opt_RunII/RunII/Trees2WS_RunII/WS_2016postVFP/output_WHiggs0MToGG_M125_TuneCP5_13TeV-JHUGenV7011-pythia8_WHbsmM.root'
p213
aS'Trees/Opt_RunII/RunII/Trees2WS_RunII/WS_2016postVFP/output_WHiggs0PMToGG_M125_TuneCP5_13TeV-JHUGenV7011-pythia8_WHsm.root'
p214
aS'Trees/Opt_RunII/RunII/Trees2WS_RunII/WS_2016postVFP/output_ZHiggs0Mf05ph0ToGG_M125_TuneCP5_13TeV-JHUGenV7011-pythia8_ZHMf05ph0.root'
p215
aS'Trees/Opt_RunII/RunII/Trees2WS_RunII/WS_2016postVFP/output_ZHiggs0MToGG_M125_TuneCP5_13TeV-JHUGenV7011-pythia8_ZHbsmM.root'
p216
aS'Trees/Opt_RunII/RunII/Trees2WS_RunII/WS_2016postVFP/output_ZH_HToGG_ZToAll_M125_TuneCP5_13TeV-powheg-pythia8_ZHsm.root'
p217
aS'Trees/Opt_RunII/RunII/Trees2WS_RunII/WS_2017/output_GluGluHToGGPlusTwoJets_MM_M125_TuneCP5_13TeV-amcatnlopowheg-minlo-pythia8_GG2HMf05ph0.root'
p218
aS'Trees/Opt_RunII/RunII/Trees2WS_RunII/WS_2017/output_GluGluHToGGPlusTwoJets_CPodd_M125_TuneCP5_13TeV-amcatnlopowheg-minlo-pythia8_GG2HbsmM.root'
p219
aS'Trees/Opt_RunII/RunII/Trees2WS_RunII/WS_2017/output_GluGluHToGGPlusTwoJets_SM_M125_TuneCP5_13TeV-amcatnlopowheg-minlo-pythia8_GG2Hsm.root'
p220
aS'Trees/Opt_RunII/RunII/Trees2WS_RunII/WS_2017/output_ttHJetToGG_M125_TuneCP5_13TeV-amcatnloFXFX-madspin-pythia8_TTHsm.root'
p221
aS'Trees/Opt_RunII/RunII/Trees2WS_RunII/WS_2017/output_VBFHiggs0Mf05ph0ToGG_M125_TuneCP5_13TeV-JHUGenV7011-pythia8_VBFMf05ph0.root'
p222
aS'Trees/Opt_RunII/RunII/Trees2WS_RunII/WS_2017/output_VBFHiggs0MToGG_M125_TuneCP5_13TeV-JHUGenV7011-pythia8_VBFbsmM.root'
p223
aS'Trees/Opt_RunII/RunII/Trees2WS_RunII/WS_2017/output_VBFHToGG_M125_TuneCP5_13TeV-amcatnlo-pythia8_VBFsm.root'
p224
aS'Trees/Opt_RunII/RunII/Trees2WS_RunII/WS_2017/output_WHiggs0Mf05ph0ToGG_M125_TuneCP5_13TeV-JHUGenV7011-pythia8_WHMf05ph0.root'
p225
aS'Trees/Opt_RunII/RunII/Trees2WS_RunII/WS_2017/output_WHiggs0MToGG_M125_TuneCP5_13TeV-JHUGenV7011-pythia8_WHbsmM.root'
p226
aS'Trees/Opt_RunII/RunII/Trees2WS_RunII/WS_2017/output_WHiggs0PMToGG_M125_TuneCP5_13TeV-JHUGenV7011-pythia8_WHsm.root'
p227
aS'Trees/Opt_RunII/RunII/Trees2WS_RunII/WS_2017/output_ZHiggs0Mf05ph0ToGG_M125_TuneCP5_13TeV-JHUGenV7011-pythia8_ZHMf05ph0.root'
p228
aS'Trees/Opt_RunII/RunII/Trees2WS_RunII/WS_2017/output_ZHiggs0MToGG_M125_TuneCP5_13TeV-JHUGenV7011-pythia8_ZHbsmM.root'
p229
aS'Trees/Opt_RunII/RunII/Trees2WS_RunII/WS_2017/output_ZH_HToGG_ZToAll_M125_TuneCP5_13TeV-powheg-pythia8_ZHsm.root'
p230
aS'Trees/Opt_RunII/RunII/Trees2WS_RunII/WS_2018/output_GluGluHToGGPlusTwoJets_MM_M125_TuneCP5_13TeV-amcatnlopowheg-minlo-pythia8_GG2HMf05ph0.root'
p231
aS'Trees/Opt_RunII/RunII/Trees2WS_RunII/WS_2018/output_GluGluHToGGPlusTwoJets_CPodd_M125_TuneCP5_13TeV-amcatnlopowheg-minlo-pythia8_GG2HbsmM.root'
p232
aS'Trees/Opt_RunII/RunII/Trees2WS_RunII/WS_2018/output_GluGluHToGGPlusTwoJets_SM_M125_TuneCP5_13TeV-amcatnlopowheg-minlo-pythia8_GG2Hsm.root'
p233
aS'Trees/Opt_RunII/RunII/Trees2WS_RunII/WS_2018/output_ttHJetToGG_M125_TuneCP5_13TeV-amcatnloFXFX-madspin-pythia8_TTHsm.root'
p234
aS'Trees/Opt_RunII/RunII/Trees2WS_RunII/WS_2018/output_VBFHiggs0Mf05ph0ToGG_M125_TuneCP5_13TeV-JHUGenV7011-pythia8_VBFMf05ph0.root'
p235
aS'Trees/Opt_RunII/RunII/Trees2WS_RunII/WS_2018/output_VBFHiggs0MToGG_M125_TuneCP5_13TeV-JHUGenV7011-pythia8_VBFbsmM.root'
p236
aS'Trees/Opt_RunII/RunII/Trees2WS_RunII/WS_2018/output_VBFHToGG_M125_TuneCP5_13TeV-amcatnlo-pythia8_VBFsm.root'
p237
aS'Trees/Opt_RunII/RunII/Trees2WS_RunII/WS_2018/output_WHiggs0Mf05ph0ToGG_M125_TuneCP5_13TeV-JHUGenV7011-pythia8_WHMf05ph0.root'
p238
aS'Trees/Opt_RunII/RunII/Trees2WS_RunII/WS_2018/output_WHiggs0MToGG_M125_TuneCP5_13TeV-JHUGenV7011-pythia8_WHbsmM.root'
p239
aS'Trees/Opt_RunII/RunII/Trees2WS_RunII/WS_2018/output_WHiggs0PMToGG_M125_TuneCP5_13TeV-JHUGenV7011-pythia8_WHsm.root'
p240
aS'Trees/Opt_RunII/RunII/Trees2WS_RunII/WS_2018/output_ZHiggs0Mf05ph0ToGG_M125_TuneCP5_13TeV-JHUGenV7011-pythia8_ZHMf05ph0.root'
p241
aS'Trees/Opt_RunII/RunII/Trees2WS_RunII/WS_2018/output_ZHiggs0MToGG_M125_TuneCP5_13TeV-JHUGenV7011-pythia8_ZHbsmM.root'
p242
aS'Trees/Opt_RunII/RunII/Trees2WS_RunII/WS_2018/output_ZH_HToGG_ZToAll_M125_TuneCP5_13TeV-powheg-pythia8_ZHsm.root'
p243
ag190
ag190
aS'jjh0Mf05ph0_125_13TeV_AC_Bin13'
p244
aS'jjh0M_125_13TeV_AC_Bin13'
p245
aS'jjh0P_125_13TeV_AC_Bin13'
p246
aS'tth0P_125_13TeV_AC_Bin13'
p247
aS'vbf0Mf05ph0_125_13TeV_AC_Bin13'
p248
aS'vbf0M_125_13TeV_AC_Bin13'
p249
aS'vbf0P_125_13TeV_AC_Bin13'
p250
aS'wh0Mf05ph0_125_13TeV_AC_Bin13'
p251
aS'wh0M_125_13TeV_AC_Bin13'
p252
aS'wh0P_125_13TeV_AC_Bin13'
p253
aS'zh0Mf05ph0_125_13TeV_AC_Bin13'
p254
aS'zh0M_125_13TeV_AC_Bin13'
p255
aS'zh0P_125_13TeV_AC_Bin13'
p256
aS'jjh0Mf05ph0_125_13TeV_AC_Bin13'
p257
aS'jjh0M_125_13TeV_AC_Bin13'
p258
aS'jjh0P_125_13TeV_AC_Bin13'
p259
aS'tth0P_125_13TeV_AC_Bin13'
p260
aS'vbf0Mf05ph0_125_13TeV_AC_Bin13'
p261
aS'vbf0M_125_13TeV_AC_Bin13'
p262
aS'vbf0P_125_13TeV_AC_Bin13'
p263
aS'wh0Mf05ph0_125_13TeV_AC_Bin13'
p264
aS'wh0M_125_13TeV_AC_Bin13'
p265
aS'wh0P_125_13TeV_AC_Bin13'
p266
aS'zh0Mf05ph0_125_13TeV_AC_Bin13'
p267
aS'zh0M_125_13TeV_AC_Bin13'
p268
aS'zh0P_125_13TeV_AC_Bin13'
p269
aS'jjh0Mf05ph0_125_13TeV_AC_Bin13'
p270
aS'jjh0M_125_13TeV_AC_Bin13'
p271
aS'jjh0P_125_13TeV_AC_Bin13'
p272
aS'tth0P_125_13TeV_AC_Bin13'
p273
aS'vbf0Mf05ph0_125_13TeV_AC_Bin13'
p274
aS'vbf0M_125_13TeV_AC_Bin13'
p275
aS'vbf0P_125_13TeV_AC_Bin13'
p276
aS'wh0Mf05ph0_125_13TeV_AC_Bin13'
p277
aS'wh0M_125_13TeV_AC_Bin13'
p278
aS'wh0P_125_13TeV_AC_Bin13'
p279
aS'zh0Mf05ph0_125_13TeV_AC_Bin13'
p280
aS'zh0M_125_13TeV_AC_Bin13'
p281
aS'zh0P_125_13TeV_AC_Bin13'
p282
aS'jjh0Mf05ph0_125_13TeV_AC_Bin13'
p283
aS'jjh0M_125_13TeV_AC_Bin13'
p284
aS'jjh0P_125_13TeV_AC_Bin13'
p285
aS'tth0P_125_13TeV_AC_Bin13'
p286
aS'vbf0Mf05ph0_125_13TeV_AC_Bin13'
p287
aS'vbf0M_125_13TeV_AC_Bin13'
p288
aS'vbf0P_125_13TeV_AC_Bin13'
p289
aS'wh0Mf05ph0_125_13TeV_AC_Bin13'
p290
aS'wh0M_125_13TeV_AC_Bin13'
p291
aS'wh0P_125_13TeV_AC_Bin13'
p292
aS'zh0Mf05ph0_125_13TeV_AC_Bin13'
p293
aS'zh0M_125_13TeV_AC_Bin13'
p294
aS'zh0P_125_13TeV_AC_Bin13'
p295
ag190
ag190
aS'./Models/signal/CMS-HGG_sigfit_packaged_AC_Bin13.root'
p296
aS'./Models/signal/CMS-HGG_sigfit_packaged_AC_Bin13.root'
p297
aS'./Models/signal/CMS-HGG_sigfit_packaged_AC_Bin13.root'
p298
aS'./Models/signal/CMS-HGG_sigfit_packaged_AC_Bin13.root'
p299
aS'./Models/signal/CMS-HGG_sigfit_packaged_AC_Bin13.root'
p300
aS'./Models/signal/CMS-HGG_sigfit_packaged_AC_Bin13.root'
p301
aS'./Models/signal/CMS-HGG_sigfit_packaged_AC_Bin13.root'
p302
aS'./Models/signal/CMS-HGG_sigfit_packaged_AC_Bin13.root'
p303
aS'./Models/signal/CMS-HGG_sigfit_packaged_AC_Bin13.root'
p304
aS'./Models/signal/CMS-HGG_sigfit_packaged_AC_Bin13.root'
p305
aS'./Models/signal/CMS-HGG_sigfit_packaged_AC_Bin13.root'
p306
aS'./Models/signal/CMS-HGG_sigfit_packaged_AC_Bin13.root'
p307
aS'./Models/signal/CMS-HGG_sigfit_packaged_AC_Bin13.root'
p308
aS'./Models/signal/CMS-HGG_sigfit_packaged_AC_Bin13.root'
p309
aS'./Models/signal/CMS-HGG_sigfit_packaged_AC_Bin13.root'
p310
aS'./Models/signal/CMS-HGG_sigfit_packaged_AC_Bin13.root'
p311
aS'./Models/signal/CMS-HGG_sigfit_packaged_AC_Bin13.root'
p312
aS'./Models/signal/CMS-HGG_sigfit_packaged_AC_Bin13.root'
p313
aS'./Models/signal/CMS-HGG_sigfit_packaged_AC_Bin13.root'
p314
aS'./Models/signal/CMS-HGG_sigfit_packaged_AC_Bin13.root'
p315
aS'./Models/signal/CMS-HGG_sigfit_packaged_AC_Bin13.root'
p316
aS'./Models/signal/CMS-HGG_sigfit_packaged_AC_Bin13.root'
p317
aS'./Models/signal/CMS-HGG_sigfit_packaged_AC_Bin13.root'
p318
aS'./Models/signal/CMS-HGG_sigfit_packaged_AC_Bin13.root'
p319
aS'./Models/signal/CMS-HGG_sigfit_packaged_AC_Bin13.root'
p320
aS'./Models/signal/CMS-HGG_sigfit_packaged_AC_Bin13.root'
p321
aS'./Models/signal/CMS-HGG_sigfit_packaged_AC_Bin13.root'
p322
aS'./Models/signal/CMS-HGG_sigfit_packaged_AC_Bin13.root'
p323
aS'./Models/signal/CMS-HGG_sigfit_packaged_AC_Bin13.root'
p324
aS'./Models/signal/CMS-HGG_sigfit_packaged_AC_Bin13.root'
p325
aS'./Models/signal/CMS-HGG_sigfit_packaged_AC_Bin13.root'
p326
aS'./Models/signal/CMS-HGG_sigfit_packaged_AC_Bin13.root'
p327
aS'./Models/signal/CMS-HGG_sigfit_packaged_AC_Bin13.root'
p328
aS'./Models/signal/CMS-HGG_sigfit_packaged_AC_Bin13.root'
p329
aS'./Models/signal/CMS-HGG_sigfit_packaged_AC_Bin13.root'
p330
aS'./Models/signal/CMS-HGG_sigfit_packaged_AC_Bin13.root'
p331
aS'./Models/signal/CMS-HGG_sigfit_packaged_AC_Bin13.root'
p332
aS'./Models/signal/CMS-HGG_sigfit_packaged_AC_Bin13.root'
p333
aS'./Models/signal/CMS-HGG_sigfit_packaged_AC_Bin13.root'
p334
aS'./Models/signal/CMS-HGG_sigfit_packaged_AC_Bin13.root'
p335
aS'./Models/signal/CMS-HGG_sigfit_packaged_AC_Bin13.root'
p336
aS'./Models/signal/CMS-HGG_sigfit_packaged_AC_Bin13.root'
p337
aS'./Models/signal/CMS-HGG_sigfit_packaged_AC_Bin13.root'
p338
aS'./Models/signal/CMS-HGG_sigfit_packaged_AC_Bin13.root'
p339
aS'./Models/signal/CMS-HGG_sigfit_packaged_AC_Bin13.root'
p340
aS'./Models/signal/CMS-HGG_sigfit_packaged_AC_Bin13.root'
p341
aS'./Models/signal/CMS-HGG_sigfit_packaged_AC_Bin13.root'
p342
aS'./Models/signal/CMS-HGG_sigfit_packaged_AC_Bin13.root'
p343
aS'./Models/signal/CMS-HGG_sigfit_packaged_AC_Bin13.root'
p344
aS'./Models/signal/CMS-HGG_sigfit_packaged_AC_Bin13.root'
p345
aS'./Models/signal/CMS-HGG_sigfit_packaged_AC_Bin13.root'
p346
aS'./Models/signal/CMS-HGG_sigfit_packaged_AC_Bin13.root'
p347
aS'./Models/background/CMS-HGG_multipdf_AC_Bin13.root'
p348
ag348
aS'wsig_13TeV:hggpdfsmrel_GG2HMf05ph0_2016preVFP_AC_Bin13_13TeV'
p349
aS'wsig_13TeV:hggpdfsmrel_GG2HbsmM_2016preVFP_AC_Bin13_13TeV'
p350
aS'wsig_13TeV:hggpdfsmrel_GG2Hsm_2016preVFP_AC_Bin13_13TeV'
p351
aS'wsig_13TeV:hggpdfsmrel_TTHsm_2016preVFP_AC_Bin13_13TeV'
p352
aS'wsig_13TeV:hggpdfsmrel_VBFMf05ph0_2016preVFP_AC_Bin13_13TeV'
p353
aS'wsig_13TeV:hggpdfsmrel_VBFbsmM_2016preVFP_AC_Bin13_13TeV'
p354
aS'wsig_13TeV:hggpdfsmrel_VBFsm_2016preVFP_AC_Bin13_13TeV'
p355
aS'wsig_13TeV:hggpdfsmrel_WHMf05ph0_2016preVFP_AC_Bin13_13TeV'
p356
aS'wsig_13TeV:hggpdfsmrel_WHbsmM_2016preVFP_AC_Bin13_13TeV'
p357
aS'wsig_13TeV:hggpdfsmrel_WHsm_2016preVFP_AC_Bin13_13TeV'
p358
aS'wsig_13TeV:hggpdfsmrel_ZHMf05ph0_2016preVFP_AC_Bin13_13TeV'
p359
aS'wsig_13TeV:hggpdfsmrel_ZHbsmM_2016preVFP_AC_Bin13_13TeV'
p360
aS'wsig_13TeV:hggpdfsmrel_ZHsm_2016preVFP_AC_Bin13_13TeV'
p361
aS'wsig_13TeV:hggpdfsmrel_GG2HMf05ph0_2016postVFP_AC_Bin13_13TeV'
p362
aS'wsig_13TeV:hggpdfsmrel_GG2HbsmM_2016postVFP_AC_Bin13_13TeV'
p363
aS'wsig_13TeV:hggpdfsmrel_GG2Hsm_2016postVFP_AC_Bin13_13TeV'
p364
aS'wsig_13TeV:hggpdfsmrel_TTHsm_2016postVFP_AC_Bin13_13TeV'
p365
aS'wsig_13TeV:hggpdfsmrel_VBFMf05ph0_2016postVFP_AC_Bin13_13TeV'
p366
aS'wsig_13TeV:hggpdfsmrel_VBFbsmM_2016postVFP_AC_Bin13_13TeV'
p367
aS'wsig_13TeV:hggpdfsmrel_VBFsm_2016postVFP_AC_Bin13_13TeV'
p368
aS'wsig_13TeV:hggpdfsmrel_WHMf05ph0_2016postVFP_AC_Bin13_13TeV'
p369
aS'wsig_13TeV:hggpdfsmrel_WHbsmM_2016postVFP_AC_Bin13_13TeV'
p370
aS'wsig_13TeV:hggpdfsmrel_WHsm_2016postVFP_AC_Bin13_13TeV'
p371
aS'wsig_13TeV:hggpdfsmrel_ZHMf05ph0_2016postVFP_AC_Bin13_13TeV'
p372
aS'wsig_13TeV:hggpdfsmrel_ZHbsmM_2016postVFP_AC_Bin13_13TeV'
p373
aS'wsig_13TeV:hggpdfsmrel_ZHsm_2016postVFP_AC_Bin13_13TeV'
p374
aS'wsig_13TeV:hggpdfsmrel_GG2HMf05ph0_2017_AC_Bin13_13TeV'
p375
aS'wsig_13TeV:hggpdfsmrel_GG2HbsmM_2017_AC_Bin13_13TeV'
p376
aS'wsig_13TeV:hggpdfsmrel_GG2Hsm_2017_AC_Bin13_13TeV'
p377
aS'wsig_13TeV:hggpdfsmrel_TTHsm_2017_AC_Bin13_13TeV'
p378
aS'wsig_13TeV:hggpdfsmrel_VBFMf05ph0_2017_AC_Bin13_13TeV'
p379
aS'wsig_13TeV:hggpdfsmrel_VBFbsmM_2017_AC_Bin13_13TeV'
p380
aS'wsig_13TeV:hggpdfsmrel_VBFsm_2017_AC_Bin13_13TeV'
p381
aS'wsig_13TeV:hggpdfsmrel_WHMf05ph0_2017_AC_Bin13_13TeV'
p382
aS'wsig_13TeV:hggpdfsmrel_WHbsmM_2017_AC_Bin13_13TeV'
p383
aS'wsig_13TeV:hggpdfsmrel_WHsm_2017_AC_Bin13_13TeV'
p384
aS'wsig_13TeV:hggpdfsmrel_ZHMf05ph0_2017_AC_Bin13_13TeV'
p385
aS'wsig_13TeV:hggpdfsmrel_ZHbsmM_2017_AC_Bin13_13TeV'
p386
aS'wsig_13TeV:hggpdfsmrel_ZHsm_2017_AC_Bin13_13TeV'
p387
aS'wsig_13TeV:hggpdfsmrel_GG2HMf05ph0_2018_AC_Bin13_13TeV'
p388
aS'wsig_13TeV:hggpdfsmrel_GG2HbsmM_2018_AC_Bin13_13TeV'
p389
aS'wsig_13TeV:hggpdfsmrel_GG2Hsm_2018_AC_Bin13_13TeV'
p390
aS'wsig_13TeV:hggpdfsmrel_TTHsm_2018_AC_Bin13_13TeV'
p391
aS'wsig_13TeV:hggpdfsmrel_VBFMf05ph0_2018_AC_Bin13_13TeV'
p392
aS'wsig_13TeV:hggpdfsmrel_VBFbsmM_2018_AC_Bin13_13TeV'
p393
aS'wsig_13TeV:hggpdfsmrel_VBFsm_2018_AC_Bin13_13TeV'
p394
aS'wsig_13TeV:hggpdfsmrel_WHMf05ph0_2018_AC_Bin13_13TeV'
p395
aS'wsig_13TeV:hggpdfsmrel_WHbsmM_2018_AC_Bin13_13TeV'
p396
aS'wsig_13TeV:hggpdfsmrel_WHsm_2018_AC_Bin13_13TeV'
p397
aS'wsig_13TeV:hggpdfsmrel_ZHMf05ph0_2018_AC_Bin13_13TeV'
p398
aS'wsig_13TeV:hggpdfsmrel_ZHbsmM_2018_AC_Bin13_13TeV'
p399
aS'wsig_13TeV:hggpdfsmrel_ZHsm_2018_AC_Bin13_13TeV'
p400
aS'multipdf:CMS_hgg_AC_Bin13_13TeV_bkgshape'
p401
aS'multipdf:roohist_data_mass_AC_Bin13'
p402
aF0.041045897500453066
aF0.043783061179510696
aF0.05393179473458076
aF0.006022584440984247
aF0.039945638081803736
aF0.028650024492549164
aF0.015044758589056073
aF0.0022765188942912573
aF0.00270839236094389
aF0.0009476121928173598
aF0.0012203210699226474
aF0.0014349206103361212
aF0.0029113676578162995
aF0.04552082639747823
aF0.04590038674018615
aF0.06138257210250231
aF0.006952314199224929
aF0.04019947075607888
aF0.03947582502382829
aF0.027411316697680377
aF0.0003653136245702626
aF0.001946115428381745
aF0.0008559529962894885
aF0.0012359865080497912
aF0.0017800192059098663
aF0.0018829024213573575
aF0.042112874232316244
aF0.043594178145667684
aF0.056591024226236186
aF0.006710604300678824
aF0.0363753262067803
aF0.036574779756620046
aF0.02469546032193648
aF0.0023291320551379613
aF0.003532532570488911
aF0.0007897583152498555
aF0.0011034301533072721
aF0.0017874196248612861
aF0.0019127924670101493
aF0.04343910517945915
aF0.04329965485067078
aF0.05733605842669931
aF0.0051593100015452364
aF0.037577418456294254
aF0.03992305893621051
aF0.02578794118744554
aF0.0025775685494409117
aF0.0032791152464142215
aF0.0009577953692314622
aF0.0012819748751553561
aF0.0018455024091963423
aF0.0017592172280274099
ag190
ag190
aF1.3962881470649821e-05
aF1.6300795602184956e-05
aF8.982267279487149e-06
aF1.4152462210650698e-06
aF1.840115505029026e-05
aF3.7091444244205226e-06
aF4.790339351196533e-05
aF1.3919057635890617e-07
aF4.310014735595843e-08
aF3.1141033138103046e-08
aF1.8108682814072195e-07
aF2.9730973891831676e-07
aF9.417306000246136e-07
aF1.0422741447516877e-06
aF1.0972590151009097e-06
aF1.4132182160763843e-06
aF2.351516699202363e-06
aF6.459891939717435e-07
aF4.639516239496951e-07
aF1.3992486590418223e-06
aF7.194308145294753e-09
aF2.0311899578125766e-08
aF8.32533426648353e-09
aF8.435078449323937e-09
aF1.2294747746466898e-08
aF3.232814879530575e-08
aF4.3578796572721266e-07
aF4.4313489977379515e-07
aF5.555241726660158e-07
aF8.40203510813931e-08
aF2.3470615238321664e-07
aF1.718778998972641e-07
aF5.672611952638947e-07
aF9.962383118017875e-09
aF1.5061637639187946e-08
aF3.5626048103371495e-09
aF3.025185825348175e-09
aF4.905808807396768e-09
aF1.5833067972523104e-08
aF5.144509809009748e-07
aF4.2936875695993516e-07
aF5.782340162744686e-07
aF7.492806659644121e-08
aF2.4388461231638934e-07
aF1.88507972942748e-07
aF6.766797961134684e-07
aF1.1046259365234651e-08
aF1.400208780609311e-08
aF4.131370440088382e-09
aF3.6825919716197632e-09
aF6.384331430315609e-09
aF1.3874748527672384e-08
ag190
ag190
aF0.04194539610556861
aF0.0447155255738794
aF0.05512676807461972
aF0.006173416293896519
aF0.04078344577331608
aF0.02925591921564893
aF0.01544171475807094
aF0.002324281725528754
aF0.002774352865556276
aF0.0009688837940102549
aF0.0012432324061813344
aF0.0014638927794116887
aF0.0029735224569411487
aF0.04638389016629311
aF0.046795943165631335
aF0.06252872174779947
aF0.007102267618925408
aF0.04097780648328238
aF0.04024346675983196
aF0.02793041386761896
aF0.0003748291028049961
aF0.001982316083640396
aF0.0008767391506328515
aF0.0012598571581262888
aF0.001811093323549226
aF0.0019187174949331807
aF0.043727668561034584
aF0.045267840695554645
aF0.05873882136180494
aF0.006956792544611332
aF0.037700457737594464
aF0.03789113218078326
aF0.02561607962099731
aF0.002414415372200836
aF0.0036590621611443165
aF0.0008216502815587528
aF0.0011444615216277536
aF0.0018523370990658396
aF0.0019858557256040984
aF0.04486047449029205
aF0.04472756580263427
aF0.059223405204747025
aF0.005315558011078793
aF0.03876692169179933
aF0.041161343401355695
aF0.026636997562570385
aF0.0026601735620228857
aF0.0033829556043679515
aF0.000988852377346874
aF0.0013233466815305468
aF0.0019056435283727015
aF0.0018182404132999189
ag190
ag190
aF0.041315824445028224
aF0.04407032596696722
aF0.054287835145432346
aF0.006063110022334687
aF0.04021111827336214
aF0.02884025519007325
aF0.015141107920694575
aF0.002291407405842463
aF0.002726109873015012
aF0.0009537830233965002
aF0.001228455947302769
aF0.0014445983104047304
aF0.002930667318751243
aF0.045846611997126974
aF0.04623069805321478
aF0.06182294531055953
aF0.007001875936663942
aF0.0404873539258999
aF0.03976087690311134
aF0.027604771467558405
aF0.0003676257069496065
aF0.0019598908947658544
aF0.0008619777559935497
aF0.0012448244689601533
aF0.0017927167102958384
aF0.0018961052520309145
aF0.04240657016305572
aF0.043898216032406144
aF0.056985397291945
aF0.006758538561337858
aF0.03662972253890209
aF0.036833483383813224
aF0.024865525168909913
aF0.002345387579956753
aF0.0035575318669400363
aF0.00079497569848251
aF0.0011110567076639186
aF0.0017998451206083788
aF0.0019257720592677236
aF0.043708583331490775
aF0.04356731454579523
aF0.05769062045326397
aF0.005191518433941195
aF0.03781275093258925
aF0.04017451298718343
aF0.025946360226033843
aF0.0025937440838196325
aF0.003299513087911057
aF0.0009636848786779487
aF0.0012899534273535405
aF0.0018570265471013203
aF0.0017698589603387066
ag190
ag190
aF0.04077685631040807
aF0.04349673662721144
aF0.05357692770129502
aF0.00598219473481357
aF0.03968103856018819
aF0.028460424085851945
aF0.014948717100196594
aF0.002261678943753686
aF0.0026907327141588947
aF0.0009414614029243328
aF0.0012122132448036931
aF0.001425275475164134
aF0.002892131745846927
aF0.04519621309564414
aF0.0455712688485162
aF0.06094378363019309
aF0.006902928950532469
aF0.03991262637880879
aF0.03919180822087104
aF0.027218549759174246
aF0.0003630091501655831
aF0.0019323891267803066
aF0.0008499496207091874
aF0.0012271802504501379
aF0.001767367264606502
aF0.001869746186074582
aF0.041820211749364816
aF0.04329120907370448
aF0.056198037844715325
aF0.0066628421061126365
aF0.03612182947798301
aF0.03631700044576412
aF0.024525987589429088
aF0.0023129338687191796
aF0.0035076226525488
aF0.0007845584785060423
aF0.0010958302987637907
aF0.0017750377946608928
aF0.0018998577068373174
aF0.0431704619615204
aF0.04303282102620813
aF0.0569825914226398
aF0.0051272022306220666
aF0.037342823282636696
aF0.0396723969025912
aF0.02563000878840735
aF0.002561443809321208
aF0.0032587807737510396
aF0.000951923923591701
aF0.0012740211459897292
aF0.0018340142807495184
aF0.0017486077054524676
ag190
ag190
aF0.0416401207947152
aF0.04444220738885146
aF0.054725785025285766
aF0.006117013992657704
aF0.040499096072224794
aF0.029067328917084623
aF0.015296754296176973
aF0.002314703077878221
aF0.002749581077639744
aF0.0009634597803829791
aF0.0012343144713324269
aF0.0014512133324610563
aF0.002955669195378565
aF0.0460056425433138
aF0.0464003396080562
aF0.06204606327681681
aF0.007033883544634807
aF0.040599168334777766
aF0.03986205425571849
aF0.027710706644395094
aF0.00036933241118425027
aF0.0019652688092128014
aF0.0008653889491702132
aF0.0012484022407439046
aF0.0017977838808147914
aF0.001902640008439277
aF0.042708511445932365
aF0.044210372218373595
aF0.05738991345543566
aF0.006805454429515228
aF0.03686659452646957
aF0.037054968114916764
aF0.025050412778018526
aF0.002360730859509932
aF0.0035777976564510426
aF0.000802007301939936
aF0.001118328257503451
aF0.0018113803473893714
aF0.0019411687543726293
aF0.04409645977889332
aF0.043955007860589985
aF0.058202114115678036
aF0.0052385428427511125
aF0.03812379673131129
aF0.04049611765389556
aF0.02617818265225537
aF0.002613926300948832
aF0.0033269400252977366
aF0.0009727614341496821
aF0.0013009282725691413
aF0.001872602271899661
aF0.001785594702629016
ag190
ag190
aF0.040455860073212876
aF0.04312868632625398
aF0.05314371992824965
aF0.005928883254660662
aF0.03939606492659235
aF0.028235604316997006
aF0.014794854333335527
aF0.0022386258237913786
aF0.002667492315376859
aF0.0009318904176167638
aF0.001206408100577102
aF0.0014187196710497708
aF0.0028673806614323795
aF0.04503850652348286
aF0.04540316274745148
aF0.06072259065993489
aF0.006871456956816542
aF0.03980168729800784
aF0.03909141722545613
aF0.027113506585528337
aF0.00036131385919441683
aF0.0019270511540456965
aF0.0008465796435628388
aF0.0012236276801842296
aF0.0017623424922022708
aF0.0018632598647210638
aF0.0415214088259497
aF0.04298222487360583
aF0.05579781102448836
aF0.006616397516324265
aF0.035887389278193654
aF0.03609772911434613
aF0.02434300891915981
aF0.0022977459040260883
aF0.0034875549367028476
aF0.0007776163710819029
aF0.0010886394599245687
aF0.0017636165588933
aF0.0018846468310668731
aF0.0427867401923904
aF0.04264922553606809
aF0.05647653075272288
aF0.0050807007578633785
aF0.03703498913956131
aF0.03935411257803481
aF0.025400622030802334
aF0.0025414681988426262
aF0.0032316341761843112
aF0.0009429443207889721
aF0.001263161789904912
aF0.0018185989104096253
aF0.0017330413366370562
ag190
ag190
aF0.04111033930433747
aF0.043857136839213176
aF0.054016562956280594
aF0.006030254004495229
aF0.040002088146747036
aF0.028690716752870563
aF0.015078846513581231
aF0.0022803120334832882
aF0.002712795363621924
aF0.0009491338325578018
aF0.001222403157043456
aF0.0014365928733207428
aF0.0029153741164514653
aF0.04559029638978623
aF0.045970635497709744
aF0.06147702446851118
aF0.006963837212014767
aF0.04026061834231386
aF0.039532971698095894
aF0.027455623891919006
aF0.00036611865945686327
aF0.0019493906731459917
aF0.0008575303422351699
aF0.0012378689466997048
aF0.0017827135858021965
aF0.0018860714132551291
aF0.04222130144948229
aF0.04370938013264229
aF0.05673883482441534
aF0.0067263467230818715
aF0.036469104085058344
aF0.03666824263958346
aF0.024762206626766918
aF0.002335092863717397
aF0.003541631587998351
aF0.0007921650251256806
aF0.001106598452943951
aF0.001792106255628877
aF0.0019183047922281102
aF0.04350835868775307
aF0.04336936520787849
aF0.05742878300484567
aF0.005166820876137737
aF0.037635280987649934
aF0.03998230076957077
aF0.025831608893590464
aF0.002581576051234463
aF0.0032842938752977776
aF0.0009593669544295906
aF0.001284008995831586
aF0.0018485223389024365
aF0.0017623854018649745
ag190
ag190
aF0.04098150709493102
aF0.043709053107088745
aF0.05384709272280945
aF0.006014920233818626
aF0.03988922891002519
aF0.028609361748064
aF0.015010704793285852
aF0.0022727289109136213
aF0.0027039931495054944
aF0.0009460917547513025
aF0.0012182405333821468
aF0.001433249130642776
aF0.0029073637978817304
aF0.04545141314672585
aF0.045830194368153235
aF0.061288195718986374
aF0.006940800869872806
aF0.04013837468879758
aF0.03941872205960481
aF0.02736704810484821
aF0.00036450963709928614
aF0.0019428431334260483
aF0.0008543773094930441
aF0.0012341056664864345
aF0.0017773268943977957
aF0.0018797359664433546
aF0.04200460884530101
aF0.04347914807410122
aF0.05644342117873781
aF0.006694881451872771
aF0.03628168294294362
aF0.03648145083380642
aF0.024628817705816812
aF0.0023231796956427677
aF0.0035234462767922275
aF0.0007873556766127903
aF0.0011002669565425374
aF0.0017827397071558324
aF0.0019072894406644118
aF0.04336991537266502
aF0.043230008216903176
aF0.05724342275641987
aF0.005151805369093225
aF0.037519611391151696
aF0.03986387091257107
aF0.025744317624557082
aF0.002573564904313919
aF0.003273941447948228
aF0.000956225273612391
aF0.0012799428157176137
aF0.0018424857356623744
aF0.0017560524774805795
ag190
ag190
aF0.041133642743981444
aF0.04387666335725638
aF0.054046235964479036
aF0.006035412542683877
aF0.04002818956490154
aF0.0287083373599083
aF0.015085594355959166
aF0.0022813296566602265
aF0.0027153232360836
aF0.000949654369520386
aF0.001222860275602203
aF0.0014378032457077225
aF0.002917248288950822
aF0.045617217662389624
aF0.04599933150811334
aF0.06151095700410514
aF0.006968061837024765
aF0.04028544475281193
aF0.03955985517720361
aF0.02747216411544621
aF0.0003662739230815823
aF0.0019504339697815902
aF0.0008580171931332427
aF0.0012385835189703904
aF0.0017836219633034407
aF0.0018869816394674697
aF0.04222000052078418
aF0.04370587611624414
aF0.05673360387185792
aF0.006726446705569685
aF0.03646778128288846
aF0.036666221462016396
aF0.024757878418592897
aF0.0023350400816596634
aF0.0035414724178378433
aF0.0007920039821064262
aF0.0011063163870419258
aF0.0017919904091007045
aF0.001917886212642889
aF0.04353599604159791
aF0.04339621346859017
aF0.057463860710521765
aF0.005170285581787023
aF0.037660750266975455
aF0.04000957515865353
aF0.025846979214735635
aF0.002583494079409107
aF0.003286286737801923
aF0.0009599222020694241
aF0.0012849105500851014
aF0.0018496194283329757
aF0.0017631903794859374
ag190
ag190
aF0.04095824671785536
aF0.04368955925387166
aF0.053817474904383385
aF0.006009770172362663
aF0.03986317322751352
aF0.028591772094519526
aF0.015003975060419552
aF0.0022717132794265265
aF0.002701470003309028
aF0.0009455722215293731
aF0.0012177844663541816
aF0.0014320409436664075
aF0.002905493157792639
aF0.04542453691153492
aF0.045801548191900014
aF0.06125432248644496
aF0.00693658433029295
aF0.04011358840867307
aF0.039391883643555795
aF0.027350535658244243
aF0.0003643545216484589
aF0.0019418016218052793
aF0.0008538912146838773
aF0.0012333922137808615
aF0.0017764200850674944
aF0.0018788275829985013
aF0.04200588446766173
aF0.043482623602743825
aF0.05644862666105421
aF0.00669478113387097
aF0.036282988512872094
aF0.03648345570457066
aF0.02463311986477426
aF0.0023232314923874123
aF0.0035236038523076456
aF0.0007875158156304968
aF0.0011005477984473138
aF0.001782854660315967
aF0.0019077058700940517
aF0.04334232260570527
aF0.043203204035881966
aF0.057208399137585866
aF0.005148345949492366
aF0.037494179622363115
aF0.039836636817119755
aF0.025728970516765946
aF0.002571649881355083
aF0.0032719515715226577
aF0.0009556709208844218
aF0.0012790425180011548
aF0.0018413899692818552
aF0.0017552485138094735
ag190
ag190
aF0.04071758718578167
aF0.04306234007162857
aF0.05319558869359753
aF0.005808436322013222
aF0.03984084229784912
aF0.028544698119731038
aF0.014965321574209156
aF0.0022765188942912573
aF0.00269322456330201
aF0.0009447793407844074
aF0.0012203210699226474
aF0.0014349206103361212
aF0.002904973526028698
aF0.04494600839962004
aF0.04536219946385245
aF0.060730304533080925
aF0.0071270052849286
aF0.040089598626991574
aF0.03939306170082091
aF0.026302033465412933
aF0.0026615658966875344
aF0.0038868094121653485
aF0.0008559529962894885
aF0.0012084206585996071
aF0.0017761329714289786
aF0.0018402595153474977
aF0.041623720854204294
aF0.042939006647884526
aF0.05573127048364768
aF0.006649725534089157
aF0.03606952652489781
aF0.03632618672759236
aF0.024060811083245426
aF0.002311387053623548
aF0.0035053409760621435
aF0.0007546497756720782
aF0.001092199409413297
aF0.0017703201881431596
aF0.001897121640467958
aF0.04306546373572928
aF0.04299423724114604
aF0.05681191004532593
aF0.005105718648565016
aF0.037419866205709695
aF0.03981919290276892
aF0.024975643214474985
aF0.0025523382130359096
aF0.0032624007974391134
aF0.0009449730964661285
aF0.0012727480968806049
aF0.0018354915914642334
aF0.0017592172280274099
ag190
ag190
aF0.041673906802770944
aF0.044280105838197414
aF0.05470063642405876
aF0.006457606480012146
aF0.0400914125240206
aF0.028851191744820426
aF0.015206331150011465
aF0.0022826181408390767
aF0.002742906915216281
aF0.000958658018589631
aF0.0012203210699226474
aF0.0014349206103361212
aF0.002917317435503719
aF0.04606496954033901
aF0.04658552291016349
aF0.06208968019882377
aF0.006952314199224929
aF0.04059484978211003
aF0.039639506597723084
aF0.026522945782858187
aF0.0027187261398466944
aF0.003909390448484373
aF0.0008705819157057704
aF0.001250581599265388
aF0.0017800192059098663
aF0.001900585182966097
aF0.04257059269139063
aF0.04397857823960294
aF0.05733666156538675
aF0.006761079479701948
aF0.036562040510943916
aF0.036724358192032014
aF0.024747243680621978
aF0.002354652588337558
aF0.003553823337369977
aF0.000816954820720639
aF0.0011122328849069163
aF0.0018007825713084458
aF0.0019128815320073045
aF0.043811218579321576
aF0.0437531354591556
aF0.057911652972507
aF0.005182963256629591
aF0.03774337072536582
aF0.040003210527856936
aF0.025588585102013894
aF0.0025898437161231413
aF0.003282275265746648
aF0.0009577953692314622
aF0.001290522493491153
aF0.0018524592035191745
aF0.001790892297776736
ag190
ag190
aF0.04151320076334741
aF0.044244647386221914
aF0.05488515223532886
aF0.00632629416668351
aF0.042149023320689594
aF0.029067178557966145
aF0.014650813192815804
aF0.00232151502166289
aF0.002716575003262278
aF0.0009537310222640372
aF0.001273031220989651
aF0.0014349206103361212
aF0.0029269519054651028
aF0.04621142875430451
aF0.04677795148404584
aF0.06253466191219559
aF0.006942927540876553
aF0.04070226237558927
aF0.040072329782788074
aF0.027015474954168894
aF0.002794934604480659
aF0.003929297102899909
aF0.000874132552098672
aF0.0012792547673825538
aF0.0018050865870122834
aF0.0019496061470363202
aF0.043343761858977814
aF0.04493954057488736
aF0.05817767456665024
aF0.00701697988961314
aF0.0377060475707367
aF0.03775503406654934
aF0.02598945380373152
aF0.0023981503252343828
aF0.0036094245792810398
aF0.0007942341060243052
aF0.0011334270861880213
aF0.001865344390125756
aF0.001975248232611193
aF0.04443496595376928
aF0.04438490980919596
aF0.05902374984816561
aF0.005408460163152995
aF0.03858243157264951
aF0.041029142959132514
aF0.027606610995462688
aF0.002631845902214991
aF0.003356827620336844
aF0.0010084682912747667
aF0.0013074677142412838
aF0.0018902591011737968
aF0.001820363027491112
ag190
ag190
aF0.04045575979057503
aF0.04266210036530538
aF0.05319590259728102
aF0.005497902868341953
aF0.03897813002674866
aF0.028159909561509266
aF0.013965664614602247
aF0.0022693463519090074
aF0.0026623314153653155
aF0.0009443518912348736
aF0.00119318977885996
aF0.0014349206103361212
aF0.002894541376917914
aF0.044452509118400485
aF0.044716012489288914
aF0.06005684309479875
aF0.0067116515110683395
aF0.039329615583937994
aF0.0389459522400557
aF0.026006878159023472
aF0.0026421085608490102
aF0.0038111388872721363
aF0.0008331164206083486
aF0.0012177762386045288
aF0.0017490558648773913
aF0.0018372737706613407
aF0.04088592901416632
aF0.04251055583836205
aF0.05510091318001287
aF0.006365332073528407
aF0.03524963465588371
aF0.035443353232722075
aF0.024043905865482884
aF0.002273321355914959
aF0.0034510263303673128
aF0.0007722546740751568
aF0.0010668707079730666
aF0.0017223276565800916
aF0.0018556285822342033
aF0.04220743278892769
aF0.04201707435413482
aF0.056027644445293845
aF0.004850240289670182
aF0.03647118441222119
aF0.038740836317629146
aF0.024850611100646347
aF0.002510241081836284
aF0.003194385045389936
aF0.0009408919022462214
aF0.0012418405426615209
aF0.0017832361036198563
aF0.0017278815130339353
ag190
ag190
aF0.041126356346239845
aF0.04391869447795216
aF0.05427735201146788
aF0.0060357676849207564
aF0.039977619211072124
aF0.028715237896904
aF0.015458359848935288
aF0.0024092545132816667
aF0.0027741532654204093
aF0.0009721044494881426
aF0.0012452259798010346
aF0.0014349206103361212
aF0.002953068535134662
aF0.04567340736321057
aF0.04614938952386183
aF0.061599231394666276
aF0.006952314199224929
aF0.04031729251323668
aF0.03950071034046232
aF0.026526046847720863
aF0.002718959624417039
aF0.003963713299640403
aF0.0008644309557439556
aF0.0012494798544366859
aF0.001791274851768776
aF0.0018829024213573575
aF0.042538803839761385
aF0.04381920698551767
aF0.056870607478686
aF0.006715058977533772
aF0.03647728476244083
aF0.036670779279802446
aF0.025853635738485536
aF0.0023597663910095434
aF0.003617794861611401
aF0.000802993182105638
aF0.0011201175277619768
aF0.0018257231222378323
aF0.0019208224048270495
aF0.04370623891645664
aF0.043581053912930656
aF0.05780074652557232
aF0.005163013482842871
aF0.03770228554094501
aF0.03998935719096153
aF0.02526153981398238
aF0.002634487128489127
aF0.003342666316711984
aF0.000966629964295862
aF0.0013027822842559544
aF0.0018813002905062604
aF0.001759331264111097
ag190
ag190
aF0.04050650822159696
aF0.043495428705909944
aF0.053455287436236176
aF0.006035264155002551
aF0.03991150274021038
aF0.028574215375670065
aF0.01404578805068013
aF0.0022633249626551333
aF0.0026278812570694754
aF0.0009296170575225915
aF0.0012203210699226474
aF0.0014349206103361212
aF0.0029113676578162995
aF0.04501510989393864
aF0.045448617611555164
aF0.061092424924936495
aF0.006952314199224929
aF0.040097824171198226
aF0.039450704594628405
aF0.02645480470300754
aF0.0026297122544747253
aF0.0038071408959012842
aF0.0008400002664075146
aF0.0012406230583792421
aF0.0017410414534992924
aF0.0018829024213573575
aF0.0418241839320217
aF0.043196753067149984
aF0.056165147655065084
aF0.006697151771732024
aF0.036273822201565054
aF0.03654203597193373
aF0.02421534719610463
aF0.0022904879056113714
aF0.003467346735533283
aF0.0007753142010642478
aF0.0010886283675972663
aF0.0017541493266435282
aF0.0019127924670101493
aF0.04301109033713146
aF0.04293355746813177
aF0.05710628694123443
aF0.005155364103302418
aF0.03747682550147147
aF0.03987535814826515
aF0.02507124101612135
aF0.0025299963995166763
aF0.0032110116605963412
aF0.0009623639944038587
aF0.0012597289064615325
aF0.0018147778832826589
aF0.0017592172280274099
ag190
ag190
aF0.04237987497776885
aF0.045416567344773284
aF0.055995828056893515
aF0.0059583615155816005
aF0.04025511925703995
aF0.029162691782744332
aF0.014281802776054064
aF0.00245110586820374
aF0.003005529858285172
aF0.0009827399100004186
aF0.0018635154538060306
aF0.0016603475778538268
aF0.0028932455311405647
aF0.04670596431424201
aF0.04692403494436803
aF0.06216579717829518
aF0.0071062493243516656
aF0.040329527866902026
aF0.03992124259650609
aF0.026579178964880157
aF0.0028517317757632554
aF0.004218114468244494
aF0.0009752762641710433
aF0.0013311295003859414
aF0.0018627771378305624
aF0.0018979958269937924
aF0.04469391341945084
aF0.045958354167396465
aF0.058811435381358024
aF0.006906162656832748
aF0.036430347218356474
aF0.03699398806816134
aF0.023775747154786586
aF0.0026670512472719565
aF0.003930764569304301
aF0.0009019065732900344
aF0.0012467919557366258
aF0.0020246449007572664
aF0.0019221627289880416
aF0.044834498441559845
aF0.045080824630531424
aF0.059122559708157496
aF0.0052140735554075945
aF0.0374611760339576
aF0.04044023633832694
aF0.02512265925815882
aF0.0028068583969798055
aF0.003574128237687546
aF0.0010735541741269117
aF0.0013570241478646494
aF0.0019727172079910815
aF0.001854908221957885
ag190
ag190
aF0.03978504559290741
aF0.04307420511190685
aF0.05278951313971447
aF0.0059317178207720644
aF0.03954107455422218
aF0.02804672598324487
aF0.013913020812424293
aF0.002137509204658272
aF0.002639407675644634
aF0.0009979296321489528
aF0.00119318977885996
aF0.0010178312913922127
aF0.0028717163413602975
aF0.04371520953054642
aF0.044842325671879735
aF0.05946202585801075
aF0.006989387771682232
aF0.04044218390436072
aF0.038844709027216595
aF0.028549483489882732
aF0.0024266285886369587
aF0.0036388254414987387
aF0.0008151009799348685
aF0.0011299045336272684
aF0.0016048069711018798
aF0.0018145660644677264
aF0.03998316565321147
aF0.041170120595779736
aF0.05419389634880645
aF0.006576674450570863
aF0.03632111733077181
aF0.03599304253407354
aF0.02417949907135153
aF0.002035855623716998
aF0.0030324432825636904
aF0.0006760743897302746
aF0.0009812288221837662
aF0.0016116952526772366
aF0.0017871061468213156
aF0.04137778331642039
aF0.04137634063954465
aF0.055418402234863606
aF0.005068148530426697
aF0.03755616210264634
aF0.03942619397707858
aF0.02580171752924798
aF0.0022669408745059627
aF0.0029625829552060168
aF0.0008645054012959008
aF0.0011395102624192077
aF0.0017179136953018315
aF0.001667364487730083
ag190
ag190
aF0.041106571513182644
aF0.044046749984545386
aF0.054518944577466755
aF0.00602938094266392
aF0.040426477453024745
aF0.02819842590645294
aF0.014253579569640351
aF0.002352267122205376
aF0.002744458983841014
aF0.0009753321677408167
aF0.0012203210699226474
aF0.0014349206103361212
aF0.0028914244353472895
aF0.0455618641590263
aF0.04606045713171625
aF0.06117713925004864
aF0.006996367106694379
aF0.04034800387978521
aF0.039568793115222434
aF0.02669328276726901
aF0.0026861114824896504
aF0.003997772554953372
aF0.000901616275541528
aF0.001241811654722369
aF0.001799652429838261
aF0.0019098448503882537
aF0.042700674478965084
aF0.04390074666798682
aF0.0567932594708509
aF0.006768838795323973
aF0.03631091373972595
aF0.03665717656099332
aF0.024269423978466875
aF0.002405878411309459
aF0.0036223523502485477
aF0.0007857645809963287
aF0.0011157521298628126
aF0.0018209957142971689
aF0.0018636183299349796
aF0.04362222873078281
aF0.04363035335154564
aF0.05773692715320067
aF0.005206258570069622
aF0.037560894529633515
aF0.03998012863871736
aF0.025199136288847512
aF0.002640931514179101
aF0.003403756334364516
aF0.0009745038125856809
aF0.0013079208297313016
aF0.0018755844087081641
aF0.0017676208490229328
ag190
ag190
aF0.040700844454704566
aF0.04371624341160896
aF0.05377432840759866
aF0.005926445917793899
aF0.03983819621942075
aF0.028518597349830088
aF0.014528415553286322
aF0.0022764859277231153
aF0.0028779668073752873
aF0.0009427284484218035
aF0.001270498596568359
aF0.0010514520909055136
aF0.001997069444087174
aF0.045416219120852475
aF0.045756761708389604
aF0.0610753256373755
aF0.006876720084619592
aF0.040054010238577575
aF0.03936206204093651
aF0.026655578989107198
aF0.002629649486607377
aF0.0038631255830523514
aF0.0008294622605262703
aF0.0012304670206049195
aF0.001687363116900542
aF0.0018031686788617662
aF0.04174420396157075
aF0.04296443920520687
aF0.05606753046367885
aF0.00660944054425272
aF0.036392764533502486
aF0.03657990884744322
aF0.024578462177260008
aF0.0022119860675502423
aF0.0033854617827273614
aF0.000754075567556356
aF0.0010973684813961881
aF0.001738173587455094
aF0.0018540134442446288
aF0.0428890316397883
aF0.042944201451064146
aF0.05724712196388282
aF0.005203390742508418
aF0.03741638823203175
aF0.03983770033732981
aF0.02531567359710607
aF0.002501762883639458
aF0.0032228985712663416
aF0.0009386654364789138
aF0.0012479348156375636
aF0.001830293014563722
aF0.0017523731075925753
ag190
ag190
aF0.041045897500453066
aF0.043783061179510696
aF0.05393179473458076
aF0.006022584440984247
aF0.039945638081803736
aF0.028650024492549164
aF0.015044758589056073
aF0.0022765188942912573
aF0.00270839236094389
aF0.0009476121928173598
aF0.0012203210699226474
aF0.0014349206103361212
aF0.0029113676578162995
aF0.04552082639747823
aF0.04590038674018615
aF0.06138257210250231
aF0.006952314199224929
aF0.04019947075607888
aF0.03947582502382829
aF0.027411316697680377
aF0.0003653136245702626
aF0.001946115428381745
aF0.0008559529962894885
aF0.0012359865080497912
aF0.0017800192059098663
aF0.0018829024213573575
aF0.042112874232316244
aF0.043594178145667684
aF0.056591024226236186
aF0.006710604300678824
aF0.0363753262067803
aF0.036574779756620046
aF0.02469546032193648
aF0.0023291320551379613
aF0.003532532570488911
aF0.0007897583152498555
aF0.0011034301533072721
aF0.0017874196248612861
aF0.0019127924670101493
aF0.043796113053758745
aF0.043736321579217474
aF0.05752834109216565
aF0.0051988576340136206
aF0.03758547515872124
aF0.03998195184726683
aF0.027003270487057307
aF0.002674436845609307
aF0.0033577059043636837
aF0.0010020705599345092
aF0.0013166855369490804
aF0.0019045613707930897
aF0.0017599025695744785
ag190
ag190
aF0.041045897500453066
aF0.043783061179510696
aF0.05393179473458076
aF0.006022584440984247
aF0.039945638081803736
aF0.028650024492549164
aF0.015044758589056073
aF0.0022765188942912573
aF0.00270839236094389
aF0.0009476121928173598
aF0.0012203210699226474
aF0.0014349206103361212
aF0.0029113676578162995
aF0.04552082639747823
aF0.04590038674018615
aF0.06138257210250231
aF0.006952314199224929
aF0.04019947075607888
aF0.03947582502382829
aF0.027411316697680377
aF0.0003653136245702626
aF0.001946115428381745
aF0.0008559529962894885
aF0.0012359865080497912
aF0.0017800192059098663
aF0.0018829024213573575
aF0.042112874232316244
aF0.043594178145667684
aF0.056591024226236186
aF0.006710604300678824
aF0.0363753262067803
aF0.036574779756620046
aF0.02469546032193648
aF0.0023291320551379613
aF0.003532532570488911
aF0.0007897583152498555
aF0.0011034301533072721
aF0.0017874196248612861
aF0.0019127924670101493
aF0.043150190305823344
aF0.04314453591450729
aF0.057062213988047006
aF0.005142243571754079
aF0.0376329498958512
aF0.0397247239011449
aF0.024949706303232233
aF0.002547974027265809
aF0.003238240997916364
aF0.000945437085647427
aF0.0012627172170596168
aF0.0018147459898045781
aF0.0017359925591335923
ag190
ag190
atp403
ba(lp404
g15
(g16
(dp405
g18
g19
(g20
(I0
tp406
g22
tp407
Rp408
(I1
(I1
tp409
g29
I00
(lp410
g43
atp411
bsg68
Nstp412
Rp413
ag15
(g16
(dp414
g18
g19
(g20
(I0
tp415
g22
tp416
Rp417
(I1
(I33
tp418
g29
I00
(lp419
g33
ag34
ag35
ag36
ag37
ag38
ag39
ag40
ag41
ag42
ag44
ag45
ag46
ag47
ag48
ag49
ag50
ag51
ag52
ag53
ag54
ag55
ag56
ag57
ag58
ag59
ag60
ag61
ag62
ag63
ag64
ag65
ag66
atp420
bsg68
Nstp421
Rp422
a(dp423
S'0.14.1'
p424
(dp425
S'axes'
p426
g14
sS'blocks'
p427
(lp428
(dp429
S'mgr_locs'
p430
c__builtin__
slice
p431
(I10
I11
I1
tp432
Rp433
sS'values'
p434
g89
sa(dp435
g430
g19
(g20
(I0
tp436
g22
tp437
Rp438
(I1
(I33
tp439
g79
I00
S'\x00\x00\x00\x00\x00\x00\x00\x00\x01\x00\x00\x00\x00\x00\x00\x00\x02\x00\x00\x00\x00\x00\x00\x00\x03\x00\x00\x00\x00\x00\x00\x00\x04\x00\x00\x00\x00\x00\x00\x00\x05\x00\x00\x00\x00\x00\x00\x00\x06\x00\x00\x00\x00\x00\x00\x00\x07\x00\x00\x00\x00\x00\x00\x00\x08\x00\x00\x00\x00\x00\x00\x00\t\x00\x00\x00\x00\x00\x00\x00\x0b\x00\x00\x00\x00\x00\x00\x00\x0c\x00\x00\x00\x00\x00\x00\x00\r\x00\x00\x00\x00\x00\x00\x00\x0e\x00\x00\x00\x00\x00\x00\x00\x0f\x00\x00\x00\x00\x00\x00\x00\x10\x00\x00\x00\x00\x00\x00\x00\x11\x00\x00\x00\x00\x00\x00\x00\x12\x00\x00\x00\x00\x00\x00\x00\x13\x00\x00\x00\x00\x00\x00\x00\x14\x00\x00\x00\x00\x00\x00\x00\x15\x00\x00\x00\x00\x00\x00\x00\x16\x00\x00\x00\x00\x00\x00\x00\x17\x00\x00\x00\x00\x00\x00\x00\x18\x00\x00\x00\x00\x00\x00\x00\x19\x00\x00\x00\x00\x00\x00\x00\x1a\x00\x00\x00\x00\x00\x00\x00\x1b\x00\x00\x00\x00\x00\x00\x00\x1c\x00\x00\x00\x00\x00\x00\x00\x1d\x00\x00\x00\x00\x00\x00\x00\x1e\x00\x00\x00\x00\x00\x00\x00\x1f\x00\x00\x00\x00\x00\x00\x00 \x00\x00\x00\x00\x00\x00\x00!\x00\x00\x00\x00\x00\x00\x00'
p440
tp441
bsg434
g100
sasstp442
bsb.