ccopy_reg
_reconstructor
p0
(cpandas.core.frame
DataFrame
p1
c__builtin__
object
p2
Ntp3
Rp4
(dp5
S'_metadata'
p6
(lp7
sS'_typ'
p8
S'dataframe'
p9
sS'_data'
p10
g0
(cpandas.core.internals
BlockManager
p11
g2
Ntp12
Rp13
((lp14
cpandas.core.indexes.base
_new_Index
p15
(cpandas.core.indexes.base
Index
p16
(dp17
S'data'
p18
cnumpy.core.multiarray
_reconstruct
p19
(cnumpy
ndarray
p20
(I0
tp21
S'b'
p22
tp23
Rp24
(I1
(I34
tp25
cnumpy
dtype
p26
(S'O8'
p27
I0
I1
tp28
Rp29
(I3
S'|'
p30
NNNI-1
I-1
I63
tp31
bI00
(lp32
S'year'
p33
aS'type'
p34
aS'procOriginal'
p35
aS'proc'
p36
aS'proc_s0'
p37
aS'cat'
p38
aS'inputWSFile'
p39
aS'nominalDataName'
p40
aS'modelWSFile'
p41
aS'model'
p42
aS'rate'
p43
aS'nominal_yield'
p44
aS'sumw2'
p45
aS'nominal_yield_COWCorr'
p46
aS'LooseMvaSF_up_yield'
p47
aS'LooseMvaSF_down_yield'
p48
aS'PreselSF_up_yield'
p49
aS'PreselSF_down_yield'
p50
aS'electronVetoSF_up_yield'
p51
aS'electronVetoSF_down_yield'
p52
aS'TriggerWeight_up_yield'
p53
aS'TriggerWeight_down_yield'
p54
aS'SigmaEOverEShift_up_yield'
p55
aS'SigmaEOverEShift_down_yield'
p56
aS'MvaShift_up_yield'
p57
aS'MvaShift_down_yield'
p58
aS'PUJIDShift_up_yield'
p59
aS'PUJIDShift_down_yield'
p60
aS'JEC_up_yield'
p61
aS'JEC_down_yield'
p62
aS'JER_up_yield'
p63
aS'JER_down_yield'
p64
aS'JetHEM_up_yield'
p65
aS'JetHEM_down_yield'
p66
atp67
bsS'name'
p68
Nstp69
Rp70
ag15
(cpandas.core.indexes.numeric
Int64Index
p71
(dp72
g18
g19
(g20
(I0
tp73
g22
tp74
Rp75
(I1
(I15
tp76
g26
(S'i8'
p77
I0
I1
tp78
Rp79
(I3
S'<'
p80
NNNI-1
I-1
I0
tp81
bI00
S'\x00\x00\x00\x00\x00\x00\x00\x00\x01\x00\x00\x00\x00\x00\x00\x00\x02\x00\x00\x00\x00\x00\x00\x00\x03\x00\x00\x00\x00\x00\x00\x00\x04\x00\x00\x00\x00\x00\x00\x00\x05\x00\x00\x00\x00\x00\x00\x00\x06\x00\x00\x00\x00\x00\x00\x00\x07\x00\x00\x00\x00\x00\x00\x00\x08\x00\x00\x00\x00\x00\x00\x00\t\x00\x00\x00\x00\x00\x00\x00\n\x00\x00\x00\x00\x00\x00\x00\x0b\x00\x00\x00\x00\x00\x00\x00\x0c\x00\x00\x00\x00\x00\x00\x00\r\x00\x00\x00\x00\x00\x00\x00\x0e\x00\x00\x00\x00\x00\x00\x00'
p82
tp83
bsg68
Nstp84
Rp85
a(lp86
g19
(g20
(I0
tp87
g22
tp88
Rp89
(I1
(I1
I15
tp90
g26
(S'f8'
p91
I0
I1
tp92
Rp93
(I3
S'<'
p94
NNNI-1
I-1
I0
tp95
bI00
S'\x00\x00\x00\x00\x80j\xd0@\x00\x00\x00\x00\x80j\xd0@\x00\x00\x00\x00\x80j\xd0@\x00\x00\x00\x00\x80j\xd0@\x00\x00\x00\x00\x80j\xd0@\x00\x00\x00\x00\x80j\xd0@\x00\x00\x00\x00\x80j\xd0@\x00\x00\x00\x00\x80j\xd0@\x00\x00\x00\x00\x80j\xd0@\x00\x00\x00\x00\x80j\xd0@\x00\x00\x00\x00\x80j\xd0@\x00\x00\x00\x00\x80j\xd0@\x00\x00\x00\x00\x80j\xd0@\x00\x00\x00\x00\x00\x00\xf0?\x00\x00\x00\x00\x00\x00\xf0\xbf'
p96
tp97
bag19
(g20
(I0
tp98
g22
tp99
Rp100
(I1
(I33
I15
tp101
g29
I00
(lp102
S'2016postVFP'
p103
ag103
ag103
ag103
ag103
ag103
ag103
ag103
ag103
ag103
ag103
ag103
ag103
ag33
ag33
aS'sig'
p104
ag104
ag104
ag104
ag104
ag104
ag104
ag104
ag104
ag104
ag104
ag104
ag104
aS'bkg'
p105
ag18
aS'GG2HMf05ph0'
p106
aS'GG2HbsmM'
p107
aS'GG2Hsm'
p108
aS'TTHsm'
p109
aS'VBFMf05ph0'
p110
aS'VBFbsmM'
p111
aS'VBFsm'
p112
aS'WHMf05ph0'
p113
aS'WHbsmM'
p114
aS'WHsm'
p115
aS'ZHMf05ph0'
p116
aS'ZHbsmM'
p117
aS'ZHsm'
p118
aS'bkg_mass'
p119
aS'data_obs'
p120
aS'GG2HMf05ph0_2016postVFP_hgg'
p121
aS'GG2HbsmM_2016postVFP_hgg'
p122
aS'GG2Hsm_2016postVFP_hgg'
p123
aS'tth0P_2016postVFP_hgg'
p124
aS'vbf0Mf05ph0_2016postVFP_hgg'
p125
aS'vbf0M_2016postVFP_hgg'
p126
aS'vbf0P_2016postVFP_hgg'
p127
aS'wh0Mf05ph0_2016postVFP_hgg'
p128
aS'wh0M_2016postVFP_hgg'
p129
aS'wh0P_2016postVFP_hgg'
p130
aS'zh0Mf05ph0_2016postVFP_hgg'
p131
aS'zh0M_2016postVFP_hgg'
p132
aS'zh0P_2016postVFP_hgg'
p133
ag119
ag120
aS'jjh0Mf05ph0'
p134
aS'jjh0M'
p135
aS'jjh0P'
p136
aS'tth0P'
p137
aS'vbf0Mf05ph0'
p138
aS'vbf0M'
p139
aS'vbf0P'
p140
aS'wh0Mf05ph0'
p141
aS'wh0M'
p142
aS'wh0P'
p143
aS'zh0Mf05ph0'
p144
aS'zh0M'
p145
aS'zh0P'
p146
aS'-'
p147
ag147
aS'AC_Bin0_2016postVFP'
p148
aS'AC_Bin0_2016postVFP'
p149
aS'AC_Bin0_2016postVFP'
p150
aS'AC_Bin0_2016postVFP'
p151
aS'AC_Bin0_2016postVFP'
p152
aS'AC_Bin0_2016postVFP'
p153
aS'AC_Bin0_2016postVFP'
p154
aS'AC_Bin0_2016postVFP'
p155
aS'AC_Bin0_2016postVFP'
p156
aS'AC_Bin0_2016postVFP'
p157
aS'AC_Bin0_2016postVFP'
p158
aS'AC_Bin0_2016postVFP'
p159
aS'AC_Bin0_2016postVFP'
p160
aS'AC_Bin0_2016postVFP'
p161
ag161
aS'Trees/Opt_2016postVFP/2016PostVFP/Trees2WS_2016postVFP/WS/output_GluGluHToGGPlusTwoJets_MM_M125_TuneCP5_13TeV-amcatnlopowheg-minlo-pythia8_GG2HMf05ph0.root'
p162
aS'Trees/Opt_2016postVFP/2016PostVFP/Trees2WS_2016postVFP/WS/output_GluGluHToGGPlusTwoJets_CPodd_M125_TuneCP5_13TeV-amcatnlopowheg-minlo-pythia8_GG2HbsmM.root'
p163
aS'Trees/Opt_2016postVFP/2016PostVFP/Trees2WS_2016postVFP/WS/output_GluGluHToGGPlusTwoJets_SM_M125_TuneCP5_13TeV-amcatnlopowheg-minlo-pythia8_GG2Hsm.root'
p164
aS'Trees/Opt_2016postVFP/2016PostVFP/Trees2WS_2016postVFP/WS/output_ttHJetToGG_M125_TuneCP5_13TeV-amcatnloFXFX-madspin-pythia8_TTHsm.root'
p165
aS'Trees/Opt_2016postVFP/2016PostVFP/Trees2WS_2016postVFP/WS/output_VBFHiggs0Mf05ph0ToGG_M125_TuneCP5_13TeV-JHUGenV7011-pythia8_VBFMf05ph0.root'
p166
aS'Trees/Opt_2016postVFP/2016PostVFP/Trees2WS_2016postVFP/WS/output_VBFHiggs0MToGG_M125_TuneCP5_13TeV-JHUGenV7011-pythia8_VBFbsmM.root'
p167
aS'Trees/Opt_2016postVFP/2016PostVFP/Trees2WS_2016postVFP/WS/output_VBFHToGG_M125_TuneCP5_13TeV-amcatnlo-pythia8_VBFsm.root'
p168
aS'Trees/Opt_2016postVFP/2016PostVFP/Trees2WS_2016postVFP/WS/output_WHiggs0Mf05ph0ToGG_M125_TuneCP5_13TeV-JHUGenV7011-pythia8_WHMf05ph0.root'
p169
aS'Trees/Opt_2016postVFP/2016PostVFP/Trees2WS_2016postVFP/WS/output_WHiggs0MToGG_M125_TuneCP5_13TeV-JHUGenV7011-pythia8_WHbsmM.root'
p170
aS'Trees/Opt_2016postVFP/2016PostVFP/Trees2WS_2016postVFP/WS/output_WHiggs0PMToGG_M125_TuneCP5_13TeV-JHUGenV7011-pythia8_WHsm.root'
p171
aS'Trees/Opt_2016postVFP/2016PostVFP/Trees2WS_2016postVFP/WS/output_ZHiggs0Mf05ph0ToGG_M125_TuneCP5_13TeV-JHUGenV7011-pythia8_ZHMf05ph0.root'
p172
aS'Trees/Opt_2016postVFP/2016PostVFP/Trees2WS_2016postVFP/WS/output_ZHiggs0MToGG_M125_TuneCP5_13TeV-JHUGenV7011-pythia8_ZHbsmM.root'
p173
aS'Trees/Opt_2016postVFP/2016PostVFP/Trees2WS_2016postVFP/WS/output_ZH_HToGG_ZToAll_M125_TuneCP5_13TeV-powheg-pythia8_ZHsm.root'
p174
ag147
ag147
aS'jjh0Mf05ph0_125_13TeV_AC_Bin0'
p175
aS'jjh0M_125_13TeV_AC_Bin0'
p176
aS'jjh0P_125_13TeV_AC_Bin0'
p177
aS'tth0P_125_13TeV_AC_Bin0'
p178
aS'vbf0Mf05ph0_125_13TeV_AC_Bin0'
p179
aS'vbf0M_125_13TeV_AC_Bin0'
p180
aS'vbf0P_125_13TeV_AC_Bin0'
p181
aS'wh0Mf05ph0_125_13TeV_AC_Bin0'
p182
aS'wh0M_125_13TeV_AC_Bin0'
p183
aS'wh0P_125_13TeV_AC_Bin0'
p184
aS'zh0Mf05ph0_125_13TeV_AC_Bin0'
p185
aS'zh0M_125_13TeV_AC_Bin0'
p186
aS'zh0P_125_13TeV_AC_Bin0'
p187
ag147
ag147
aS'./Models/signal/CMS-HGG_sigfit_packaged_AC_Bin0_2016postVFP.root'
p188
aS'./Models/signal/CMS-HGG_sigfit_packaged_AC_Bin0_2016postVFP.root'
p189
aS'./Models/signal/CMS-HGG_sigfit_packaged_AC_Bin0_2016postVFP.root'
p190
aS'./Models/signal/CMS-HGG_sigfit_packaged_AC_Bin0_2016postVFP.root'
p191
aS'./Models/signal/CMS-HGG_sigfit_packaged_AC_Bin0_2016postVFP.root'
p192
aS'./Models/signal/CMS-HGG_sigfit_packaged_AC_Bin0_2016postVFP.root'
p193
aS'./Models/signal/CMS-HGG_sigfit_packaged_AC_Bin0_2016postVFP.root'
p194
aS'./Models/signal/CMS-HGG_sigfit_packaged_AC_Bin0_2016postVFP.root'
p195
aS'./Models/signal/CMS-HGG_sigfit_packaged_AC_Bin0_2016postVFP.root'
p196
aS'./Models/signal/CMS-HGG_sigfit_packaged_AC_Bin0_2016postVFP.root'
p197
aS'./Models/signal/CMS-HGG_sigfit_packaged_AC_Bin0_2016postVFP.root'
p198
aS'./Models/signal/CMS-HGG_sigfit_packaged_AC_Bin0_2016postVFP.root'
p199
aS'./Models/signal/CMS-HGG_sigfit_packaged_AC_Bin0_2016postVFP.root'
p200
aS'./Models/background/CMS-HGG_multipdf_AC_Bin0_2016postVFP.root'
p201
ag201
aS'wsig_13TeV:hggpdfsmrel_GG2HMf05ph0_2016postVFP_AC_Bin0_13TeV'
p202
aS'wsig_13TeV:hggpdfsmrel_GG2HbsmM_2016postVFP_AC_Bin0_13TeV'
p203
aS'wsig_13TeV:hggpdfsmrel_GG2Hsm_2016postVFP_AC_Bin0_13TeV'
p204
aS'wsig_13TeV:hggpdfsmrel_TTHsm_2016postVFP_AC_Bin0_13TeV'
p205
aS'wsig_13TeV:hggpdfsmrel_VBFMf05ph0_2016postVFP_AC_Bin0_13TeV'
p206
aS'wsig_13TeV:hggpdfsmrel_VBFbsmM_2016postVFP_AC_Bin0_13TeV'
p207
aS'wsig_13TeV:hggpdfsmrel_VBFsm_2016postVFP_AC_Bin0_13TeV'
p208
aS'wsig_13TeV:hggpdfsmrel_WHMf05ph0_2016postVFP_AC_Bin0_13TeV'
p209
aS'wsig_13TeV:hggpdfsmrel_WHbsmM_2016postVFP_AC_Bin0_13TeV'
p210
aS'wsig_13TeV:hggpdfsmrel_WHsm_2016postVFP_AC_Bin0_13TeV'
p211
aS'wsig_13TeV:hggpdfsmrel_ZHMf05ph0_2016postVFP_AC_Bin0_13TeV'
p212
aS'wsig_13TeV:hggpdfsmrel_ZHbsmM_2016postVFP_AC_Bin0_13TeV'
p213
aS'wsig_13TeV:hggpdfsmrel_ZHsm_2016postVFP_AC_Bin0_13TeV'
p214
aS'multipdf:CMS_hgg_AC_Bin0_2016postVFP_13TeV_bkgshape'
p215
aS'multipdf:roohist_data_mass_AC_Bin0'
p216
aF0.019385616406452755
aF0.02915262318697387
aF0.014504416010822752
aF-0.00013578400466940366
aF0.007610684722180849
aF0.0030653026198024236
aF0.023770816301180275
aF6.3445627347391564e-06
aF0.0001575829689954844
aF0.00034903965774901735
aF0.00010515077542549989
aF9.23274926662998e-05
aF0.00021442568140628282
ag147
ag147
aF4.4056893355423237e-07
aF6.675479976246373e-07
aF3.334588129513498e-07
aF6.756203939223751e-08
aF1.228880205703475e-07
aF3.424225914077881e-08
aF1.225089705445975e-06
aF4.0253476295040804e-11
aF1.7511725995435025e-09
aF3.491690537638696e-09
aF6.197381539422473e-10
aF6.602492328841194e-10
aF2.794572250310356e-09
ag147
ag147
aF0.019918675918999394
aF0.030080569233694242
aF0.0149267104922187
aF-0.00014075063393814558
aF0.007835916337138708
aF0.0031951355008457633
aF0.024393245653608182
aF6.476826972686144e-06
aF0.00017063983519565866
aF0.00035846466886545024
aF0.00010694664667906441
aF9.381130344455682e-05
aF0.00022282883737017656
ag147
ag147
aF0.019515568686943343
aF0.029349002826089852
aF0.014602416216814006
aF-0.00013705376096915725
aF0.0076608033711963895
aF0.0030855083704340795
aF0.02392729825842646
aF6.392916526501143e-06
aF0.00015864695673647574
aF0.00035131050763454683
aF0.00010583351157673829
aF9.289223423629733e-05
aF0.00021586077528135814
ag147
ag147
aF0.019256098580491127
aF0.028956904173064853
aF0.014406746907799533
aF-0.0001345199673877669
aF0.007560730921442046
aF0.003045162940148012
aF0.023614847708230125
aF6.296392702287356e-06
aF0.0001565225495551841
aF0.00034677630569217787
aF0.00010447025724791086
aF9.176451799744916e-05
aF0.00021299536347357747
ag147
ag147
aF0.01964601556714554
aF0.029568628416325012
aF0.0147044504683256
aF-0.0001383052299031861
aF0.007717834243665396
aF0.0031105925581151857
aF0.024105660905033296
aF6.3942565024794095e-06
aF0.0001592193934513054
aF0.00035376835751257577
aF0.00010645323791912229
aF9.341087309096903e-05
aF0.00021734610372741366
ag147
ag147
aF0.019126956668331464
aF0.02873948417659154
aF0.01430562092628711
aF-0.00013327829144755917
aF0.007504237198820589
aF0.0030203073881106927
aF0.02343798204351442
aF6.295063149631306e-06
aF0.0001559545321569623
aF0.00034433790060541284
aF0.00010386138463526708
aF9.124947521642907e-05
aF0.00021151917983899696
ag147
ag147
aF0.019427101739601143
aF0.02921530156041303
aF0.014534951768578655
aF-0.00013583180131482872
aF0.007628641166701964
aF0.0030726128351710983
aF0.023826125862935248
aF6.350924049682942e-06
aF0.00015799521198978848
aF0.00034995074159633943
aF0.00010536229082682253
aF9.257389239848948e-05
aF0.00021486866329051458
ag147
ag147
aF0.01934417281038964
aF0.02909001087013362
aF0.014473913859887659
aF-0.0001357361738216266
aF0.007592748468687282
aF0.0030579996878956277
aF0.023715565150794003
aF6.3382037360891965e-06
aF0.0001571710724768154
aF0.00034813037457792677
aF0.00010493949053165198
aF9.208145428769496e-05
aF0.00021398314242700636
ag147
ag147
aF0.019429215303655767
aF0.029221298883646694
aF0.014537103717197459
aF-0.00013606496800240109
aF0.007629109686711038
aF0.0030728419137589984
aF0.02382585246497522
aF6.357318950887202e-06
aF0.00015826249638452902
aF0.00034977260182084314
aF0.00010536599793521089
aF9.251415795076938e-05
aF0.00021491827503933292
ag147
ag147
aF0.019342066261884765
aF0.0290840270203561
aF0.014471765547640124
aF-0.00013550333181021953
aF0.007592281489810784
aF0.0030577736622878805
aF0.023715842757589468
aF6.331818872158181e-06
aF0.00015690448531360804
aF0.00034830748437092966
aF0.0001049357746584046
aF9.214101636026642e-05
aF0.00021393364391989025
ag147
ag147
aF0.01977114539909053
aF0.030390455424821994
aF0.015075636420533556
aF-0.00013578400466940366
aF0.008067757742878712
aF0.003170559259729089
aF0.024445292081622938
aF0.00024560720476074493
aF0.0003750522794234712
aF0.0003877249330344057
aF0.00011690502356032084
aF9.23274926662998e-05
aF0.000236305391354108
ag147
ag147
aF0.019026773709128975
aF0.028183214893715558
aF0.01399207560962168
aF-0.00013578400466940366
aF0.007224483522463743
aF0.0027907534332598516
aF0.011229828550426646
aF0.00026446393258083845
aF0.0003128892069526046
aF0.0003406198723041598
aF0.00010060584759230551
aF9.795894334274635e-05
aF0.00020273935297154821
ag147
ag147
aF0.019919079799365136
aF0.029336367380437878
aF0.01491212701830591
aF-0.00011339138654875569
aF0.007442423841666823
aF0.002970822285533359
aF0.012564150704633903
aF0.0002708084953155776
aF0.0003147999875636742
aF0.0003573965470877738
aF0.0001145396570336743
aF9.720539787849702e-05
aF0.00023857953920014552
ag147
ag147
aF0.019052469279358775
aF0.028361593825593445
aF0.01403301630648457
aF-0.00010182929327129386
aF0.007388046344317445
aF0.0032107977646091967
aF0.022919569004670848
aF0.0003087129648520204
aF0.0002824735149715707
aF0.0003354300126829912
aF0.0001083319091321755
aF9.87108840035944e-05
aF0.00023428321946994402
ag147
ag147
aF0.019714866389222152
aF0.03013141209908099
aF0.015051808136377076
aF-0.00013578400466940366
aF0.007736486240332852
aF0.0030756895640706716
aF0.012487128740190201
aF0.00028464699289543205
aF0.00032183814823838475
aF0.00035683043211065524
aF0.00010515077542549989
aF0.00010202077169196855
aF0.000245167824687087
ag147
ag147
aF0.01882678562833462
aF0.02861331301505743
aF0.014111465101450449
aF-0.00013578400466940366
aF0.00756702804244469
aF0.003016365195094295
aF0.012080354544082184
aF0.0002708084953155776
aF0.0003128892069526046
aF0.00034903965774901735
aF0.00010515077542549989
aF9.23274926662998e-05
aF0.00021442568140628282
ag147
ag147
aF0.021192657835854334
aF0.03148536277512903
aF0.01608615135683067
aF-0.00013578400466940366
aF0.007970390015884732
aF0.003071444688544034
aF0.012521075226459288
aF0.00033009002754624817
aF0.0003008394248809054
aF0.00041121407844002533
aF0.00014930253064449062
aF0.00011050636317122553
aF0.00020821945781790419
ag147
ag147
aF0.017491993299245223
aF0.026382477602055587
aF0.012924348615115377
aF-0.00013578400466940366
aF0.007615122998799961
aF0.003016787943693089
aF0.023330977925525076
aF0.0002449876487844449
aF0.00028170009295536147
aF0.00029137961519154487
aF8.558647800782637e-05
aF6.828596497143735e-05
aF0.00018572146370843257
ag147
ag147
aF0.019471202402201016
aF0.029331870980513486
aF0.01495080709537433
aF-0.00013578400466940366
aF0.007723439480173511
aF0.0030250586752345043
aF0.011865677345099357
aF0.0002998467612087552
aF0.00029089366603329836
aF0.0003430141380249552
aF0.00011481338788144058
aF9.71927927366778e-05
aF0.00021442568140628282
ag147
ag147
aF0.019163182976853932
aF0.02890575717401589
aF0.01408584151931791
aF-0.00013578400466940366
aF0.007637739115011755
aF0.003081758312077909
aF0.01207149911090255
aF0.00023802297118891147
aF0.00026202040021416906
aF0.00032039141865425336
aF0.0001077047288617905
aF8.301252933051728e-05
aF0.0002445812715450302
ag147
ag147
aF0.019385616406452755
aF0.02915262318697387
aF0.014504416010822752
aF-0.00013578400466940366
aF0.007610684722180849
aF0.0030653026198024236
aF0.023770816301180275
aF6.3445627347391564e-06
aF0.0001575829689954844
aF0.00034903965774901735
aF0.00010515077542549989
aF9.23274926662998e-05
aF0.00021442568140628282
ag147
ag147
aF0.019385616406452755
aF0.02915262318697387
aF0.014504416010822752
aF-0.00013578400466940366
aF0.007610684722180849
aF0.0030653026198024236
aF0.023770816301180275
aF6.3445627347391564e-06
aF0.0001575829689954844
aF0.00034903965774901735
aF0.00010515077542549989
aF9.23274926662998e-05
aF0.00021442568140628282
ag147
ag147
atp217
ba(lp218
g15
(g16
(dp219
g18
g19
(g20
(I0
tp220
g22
tp221
Rp222
(I1
(I1
tp223
g29
I00
(lp224
g43
atp225
bsg68
Nstp226
Rp227
ag15
(g16
(dp228
g18
g19
(g20
(I0
tp229
g22
tp230
Rp231
(I1
(I33
tp232
g29
I00
(lp233
g33
ag34
ag35
ag36
ag37
ag38
ag39
ag40
ag41
ag42
ag44
ag45
ag46
ag47
ag48
ag49
ag50
ag51
ag52
ag53
ag54
ag55
ag56
ag57
ag58
ag59
ag60
ag61
ag62
ag63
ag64
ag65
ag66
atp234
bsg68
Nstp235
Rp236
a(dp237
S'0.14.1'
p238
(dp239
S'axes'
p240
g14
sS'blocks'
p241
(lp242
(dp243
S'mgr_locs'
p244
c__builtin__
slice
p245
(I10
I11
I1
tp246
Rp247
sS'values'
p248
g89
sa(dp249
g244
g19
(g20
(I0
tp250
g22
tp251
Rp252
(I1
(I33
tp253
g79
I00
S'\x00\x00\x00\x00\x00\x00\x00\x00\x01\x00\x00\x00\x00\x00\x00\x00\x02\x00\x00\x00\x00\x00\x00\x00\x03\x00\x00\x00\x00\x00\x00\x00\x04\x00\x00\x00\x00\x00\x00\x00\x05\x00\x00\x00\x00\x00\x00\x00\x06\x00\x00\x00\x00\x00\x00\x00\x07\x00\x00\x00\x00\x00\x00\x00\x08\x00\x00\x00\x00\x00\x00\x00\t\x00\x00\x00\x00\x00\x00\x00\x0b\x00\x00\x00\x00\x00\x00\x00\x0c\x00\x00\x00\x00\x00\x00\x00\r\x00\x00\x00\x00\x00\x00\x00\x0e\x00\x00\x00\x00\x00\x00\x00\x0f\x00\x00\x00\x00\x00\x00\x00\x10\x00\x00\x00\x00\x00\x00\x00\x11\x00\x00\x00\x00\x00\x00\x00\x12\x00\x00\x00\x00\x00\x00\x00\x13\x00\x00\x00\x00\x00\x00\x00\x14\x00\x00\x00\x00\x00\x00\x00\x15\x00\x00\x00\x00\x00\x00\x00\x16\x00\x00\x00\x00\x00\x00\x00\x17\x00\x00\x00\x00\x00\x00\x00\x18\x00\x00\x00\x00\x00\x00\x00\x19\x00\x00\x00\x00\x00\x00\x00\x1a\x00\x00\x00\x00\x00\x00\x00\x1b\x00\x00\x00\x00\x00\x00\x00\x1c\x00\x00\x00\x00\x00\x00\x00\x1d\x00\x00\x00\x00\x00\x00\x00\x1e\x00\x00\x00\x00\x00\x00\x00\x1f\x00\x00\x00\x00\x00\x00\x00 \x00\x00\x00\x00\x00\x00\x00!\x00\x00\x00\x00\x00\x00\x00'
p254
tp255
bsg248
g100
sasstp256
bsb.