ccopy_reg
_reconstructor
p0
(cpandas.core.frame
DataFrame
p1
c__builtin__
object
p2
Ntp3
Rp4
(dp5
S'_metadata'
p6
(lp7
sS'_typ'
p8
S'dataframe'
p9
sS'_data'
p10
g0
(cpandas.core.internals
BlockManager
p11
g2
Ntp12
Rp13
((lp14
cpandas.core.indexes.base
_new_Index
p15
(cpandas.core.indexes.base
Index
p16
(dp17
S'data'
p18
cnumpy.core.multiarray
_reconstruct
p19
(cnumpy
ndarray
p20
(I0
tp21
S'b'
p22
tp23
Rp24
(I1
(I34
tp25
cnumpy
dtype
p26
(S'O8'
p27
I0
I1
tp28
Rp29
(I3
S'|'
p30
NNNI-1
I-1
I63
tp31
bI00
(lp32
S'year'
p33
aS'type'
p34
aS'procOriginal'
p35
aS'proc'
p36
aS'proc_s0'
p37
aS'cat'
p38
aS'inputWSFile'
p39
aS'nominalDataName'
p40
aS'modelWSFile'
p41
aS'model'
p42
aS'rate'
p43
aS'nominal_yield'
p44
aS'sumw2'
p45
aS'nominal_yield_COWCorr'
p46
aS'LooseMvaSF_up_yield'
p47
aS'LooseMvaSF_down_yield'
p48
aS'PreselSF_up_yield'
p49
aS'PreselSF_down_yield'
p50
aS'electronVetoSF_up_yield'
p51
aS'electronVetoSF_down_yield'
p52
aS'TriggerWeight_up_yield'
p53
aS'TriggerWeight_down_yield'
p54
aS'SigmaEOverEShift_up_yield'
p55
aS'SigmaEOverEShift_down_yield'
p56
aS'MvaShift_up_yield'
p57
aS'MvaShift_down_yield'
p58
aS'PUJIDShift_up_yield'
p59
aS'PUJIDShift_down_yield'
p60
aS'JEC_up_yield'
p61
aS'JEC_down_yield'
p62
aS'JER_up_yield'
p63
aS'JER_down_yield'
p64
aS'JetHEM_up_yield'
p65
aS'JetHEM_down_yield'
p66
atp67
bsS'name'
p68
Nstp69
Rp70
ag15
(cpandas.core.indexes.numeric
Int64Index
p71
(dp72
g18
g19
(g20
(I0
tp73
g22
tp74
Rp75
(I1
(I15
tp76
g26
(S'i8'
p77
I0
I1
tp78
Rp79
(I3
S'<'
p80
NNNI-1
I-1
I0
tp81
bI00
S'\x00\x00\x00\x00\x00\x00\x00\x00\x01\x00\x00\x00\x00\x00\x00\x00\x02\x00\x00\x00\x00\x00\x00\x00\x03\x00\x00\x00\x00\x00\x00\x00\x04\x00\x00\x00\x00\x00\x00\x00\x05\x00\x00\x00\x00\x00\x00\x00\x06\x00\x00\x00\x00\x00\x00\x00\x07\x00\x00\x00\x00\x00\x00\x00\x08\x00\x00\x00\x00\x00\x00\x00\t\x00\x00\x00\x00\x00\x00\x00\n\x00\x00\x00\x00\x00\x00\x00\x0b\x00\x00\x00\x00\x00\x00\x00\x0c\x00\x00\x00\x00\x00\x00\x00\r\x00\x00\x00\x00\x00\x00\x00\x0e\x00\x00\x00\x00\x00\x00\x00'
p82
tp83
bsg68
Nstp84
Rp85
a(lp86
g19
(g20
(I0
tp87
g22
tp88
Rp89
(I1
(I1
I15
tp90
g26
(S'f8'
p91
I0
I1
tp92
Rp93
(I3
S'<'
p94
NNNI-1
I-1
I0
tp95
bI00
S'\x00\x00\x00\x00\x80j\xd0@\x00\x00\x00\x00\x80j\xd0@\x00\x00\x00\x00\x80j\xd0@\x00\x00\x00\x00\x80j\xd0@\x00\x00\x00\x00\x80j\xd0@\x00\x00\x00\x00\x80j\xd0@\x00\x00\x00\x00\x80j\xd0@\x00\x00\x00\x00\x80j\xd0@\x00\x00\x00\x00\x80j\xd0@\x00\x00\x00\x00\x80j\xd0@\x00\x00\x00\x00\x80j\xd0@\x00\x00\x00\x00\x80j\xd0@\x00\x00\x00\x00\x80j\xd0@\x00\x00\x00\x00\x00\x00\xf0?\x00\x00\x00\x00\x00\x00\xf0\xbf'
p96
tp97
bag19
(g20
(I0
tp98
g22
tp99
Rp100
(I1
(I33
I15
tp101
g29
I00
(lp102
S'2016postVFP'
p103
ag103
ag103
ag103
ag103
ag103
ag103
ag103
ag103
ag103
ag103
ag103
ag103
ag33
ag33
aS'sig'
p104
ag104
ag104
ag104
ag104
ag104
ag104
ag104
ag104
ag104
ag104
ag104
ag104
aS'bkg'
p105
ag18
aS'GG2HMf05ph0'
p106
aS'GG2HbsmM'
p107
aS'GG2Hsm'
p108
aS'TTHsm'
p109
aS'VBFMf05ph0'
p110
aS'VBFbsmM'
p111
aS'VBFsm'
p112
aS'WHMf05ph0'
p113
aS'WHbsmM'
p114
aS'WHsm'
p115
aS'ZHMf05ph0'
p116
aS'ZHbsmM'
p117
aS'ZHsm'
p118
aS'bkg_mass'
p119
aS'data_obs'
p120
aS'GG2HMf05ph0_2016postVFP_hgg'
p121
aS'GG2HbsmM_2016postVFP_hgg'
p122
aS'GG2Hsm_2016postVFP_hgg'
p123
aS'tth0P_2016postVFP_hgg'
p124
aS'vbf0Mf05ph0_2016postVFP_hgg'
p125
aS'vbf0M_2016postVFP_hgg'
p126
aS'vbf0P_2016postVFP_hgg'
p127
aS'wh0Mf05ph0_2016postVFP_hgg'
p128
aS'wh0M_2016postVFP_hgg'
p129
aS'wh0P_2016postVFP_hgg'
p130
aS'zh0Mf05ph0_2016postVFP_hgg'
p131
aS'zh0M_2016postVFP_hgg'
p132
aS'zh0P_2016postVFP_hgg'
p133
ag119
ag120
aS'jjh0Mf05ph0'
p134
aS'jjh0M'
p135
aS'jjh0P'
p136
aS'tth0P'
p137
aS'vbf0Mf05ph0'
p138
aS'vbf0M'
p139
aS'vbf0P'
p140
aS'wh0Mf05ph0'
p141
aS'wh0M'
p142
aS'wh0P'
p143
aS'zh0Mf05ph0'
p144
aS'zh0M'
p145
aS'zh0P'
p146
aS'-'
p147
ag147
aS'AC_Bin15_2016postVFP'
p148
aS'AC_Bin15_2016postVFP'
p149
aS'AC_Bin15_2016postVFP'
p150
aS'AC_Bin15_2016postVFP'
p151
aS'AC_Bin15_2016postVFP'
p152
aS'AC_Bin15_2016postVFP'
p153
aS'AC_Bin15_2016postVFP'
p154
aS'AC_Bin15_2016postVFP'
p155
aS'AC_Bin15_2016postVFP'
p156
aS'AC_Bin15_2016postVFP'
p157
aS'AC_Bin15_2016postVFP'
p158
aS'AC_Bin15_2016postVFP'
p159
aS'AC_Bin15_2016postVFP'
p160
aS'AC_Bin15_2016postVFP'
p161
ag161
aS'Trees/Opt_2016postVFP/2016PostVFP/Trees2WS_2016postVFP/WS/output_GluGluHToGGPlusTwoJets_MM_M125_TuneCP5_13TeV-amcatnlopowheg-minlo-pythia8_GG2HMf05ph0.root'
p162
aS'Trees/Opt_2016postVFP/2016PostVFP/Trees2WS_2016postVFP/WS/output_GluGluHToGGPlusTwoJets_CPodd_M125_TuneCP5_13TeV-amcatnlopowheg-minlo-pythia8_GG2HbsmM.root'
p163
aS'Trees/Opt_2016postVFP/2016PostVFP/Trees2WS_2016postVFP/WS/output_GluGluHToGGPlusTwoJets_SM_M125_TuneCP5_13TeV-amcatnlopowheg-minlo-pythia8_GG2Hsm.root'
p164
aS'Trees/Opt_2016postVFP/2016PostVFP/Trees2WS_2016postVFP/WS/output_ttHJetToGG_M125_TuneCP5_13TeV-amcatnloFXFX-madspin-pythia8_TTHsm.root'
p165
aS'Trees/Opt_2016postVFP/2016PostVFP/Trees2WS_2016postVFP/WS/output_VBFHiggs0Mf05ph0ToGG_M125_TuneCP5_13TeV-JHUGenV7011-pythia8_VBFMf05ph0.root'
p166
aS'Trees/Opt_2016postVFP/2016PostVFP/Trees2WS_2016postVFP/WS/output_VBFHiggs0MToGG_M125_TuneCP5_13TeV-JHUGenV7011-pythia8_VBFbsmM.root'
p167
aS'Trees/Opt_2016postVFP/2016PostVFP/Trees2WS_2016postVFP/WS/output_VBFHToGG_M125_TuneCP5_13TeV-amcatnlo-pythia8_VBFsm.root'
p168
aS'Trees/Opt_2016postVFP/2016PostVFP/Trees2WS_2016postVFP/WS/output_WHiggs0Mf05ph0ToGG_M125_TuneCP5_13TeV-JHUGenV7011-pythia8_WHMf05ph0.root'
p169
aS'Trees/Opt_2016postVFP/2016PostVFP/Trees2WS_2016postVFP/WS/output_WHiggs0MToGG_M125_TuneCP5_13TeV-JHUGenV7011-pythia8_WHbsmM.root'
p170
aS'Trees/Opt_2016postVFP/2016PostVFP/Trees2WS_2016postVFP/WS/output_WHiggs0PMToGG_M125_TuneCP5_13TeV-JHUGenV7011-pythia8_WHsm.root'
p171
aS'Trees/Opt_2016postVFP/2016PostVFP/Trees2WS_2016postVFP/WS/output_ZHiggs0Mf05ph0ToGG_M125_TuneCP5_13TeV-JHUGenV7011-pythia8_ZHMf05ph0.root'
p172
aS'Trees/Opt_2016postVFP/2016PostVFP/Trees2WS_2016postVFP/WS/output_ZHiggs0MToGG_M125_TuneCP5_13TeV-JHUGenV7011-pythia8_ZHbsmM.root'
p173
aS'Trees/Opt_2016postVFP/2016PostVFP/Trees2WS_2016postVFP/WS/output_ZH_HToGG_ZToAll_M125_TuneCP5_13TeV-powheg-pythia8_ZHsm.root'
p174
ag147
ag147
aS'jjh0Mf05ph0_125_13TeV_AC_Bin15'
p175
aS'jjh0M_125_13TeV_AC_Bin15'
p176
aS'jjh0P_125_13TeV_AC_Bin15'
p177
aS'tth0P_125_13TeV_AC_Bin15'
p178
aS'vbf0Mf05ph0_125_13TeV_AC_Bin15'
p179
aS'vbf0M_125_13TeV_AC_Bin15'
p180
aS'vbf0P_125_13TeV_AC_Bin15'
p181
aS'wh0Mf05ph0_125_13TeV_AC_Bin15'
p182
aS'wh0M_125_13TeV_AC_Bin15'
p183
aS'wh0P_125_13TeV_AC_Bin15'
p184
aS'zh0Mf05ph0_125_13TeV_AC_Bin15'
p185
aS'zh0M_125_13TeV_AC_Bin15'
p186
aS'zh0P_125_13TeV_AC_Bin15'
p187
ag147
ag147
aS'./Models/signal/CMS-HGG_sigfit_packaged_AC_Bin15_2016postVFP.root'
p188
aS'./Models/signal/CMS-HGG_sigfit_packaged_AC_Bin15_2016postVFP.root'
p189
aS'./Models/signal/CMS-HGG_sigfit_packaged_AC_Bin15_2016postVFP.root'
p190
aS'./Models/signal/CMS-HGG_sigfit_packaged_AC_Bin15_2016postVFP.root'
p191
aS'./Models/signal/CMS-HGG_sigfit_packaged_AC_Bin15_2016postVFP.root'
p192
aS'./Models/signal/CMS-HGG_sigfit_packaged_AC_Bin15_2016postVFP.root'
p193
aS'./Models/signal/CMS-HGG_sigfit_packaged_AC_Bin15_2016postVFP.root'
p194
aS'./Models/signal/CMS-HGG_sigfit_packaged_AC_Bin15_2016postVFP.root'
p195
aS'./Models/signal/CMS-HGG_sigfit_packaged_AC_Bin15_2016postVFP.root'
p196
aS'./Models/signal/CMS-HGG_sigfit_packaged_AC_Bin15_2016postVFP.root'
p197
aS'./Models/signal/CMS-HGG_sigfit_packaged_AC_Bin15_2016postVFP.root'
p198
aS'./Models/signal/CMS-HGG_sigfit_packaged_AC_Bin15_2016postVFP.root'
p199
aS'./Models/signal/CMS-HGG_sigfit_packaged_AC_Bin15_2016postVFP.root'
p200
aS'./Models/background/CMS-HGG_multipdf_AC_Bin15_2016postVFP.root'
p201
ag201
aS'wsig_13TeV:hggpdfsmrel_GG2HMf05ph0_2016postVFP_AC_Bin15_13TeV'
p202
aS'wsig_13TeV:hggpdfsmrel_GG2HbsmM_2016postVFP_AC_Bin15_13TeV'
p203
aS'wsig_13TeV:hggpdfsmrel_GG2Hsm_2016postVFP_AC_Bin15_13TeV'
p204
aS'wsig_13TeV:hggpdfsmrel_TTHsm_2016postVFP_AC_Bin15_13TeV'
p205
aS'wsig_13TeV:hggpdfsmrel_VBFMf05ph0_2016postVFP_AC_Bin15_13TeV'
p206
aS'wsig_13TeV:hggpdfsmrel_VBFbsmM_2016postVFP_AC_Bin15_13TeV'
p207
aS'wsig_13TeV:hggpdfsmrel_VBFsm_2016postVFP_AC_Bin15_13TeV'
p208
aS'wsig_13TeV:hggpdfsmrel_WHMf05ph0_2016postVFP_AC_Bin15_13TeV'
p209
aS'wsig_13TeV:hggpdfsmrel_WHbsmM_2016postVFP_AC_Bin15_13TeV'
p210
aS'wsig_13TeV:hggpdfsmrel_WHsm_2016postVFP_AC_Bin15_13TeV'
p211
aS'wsig_13TeV:hggpdfsmrel_ZHMf05ph0_2016postVFP_AC_Bin15_13TeV'
p212
aS'wsig_13TeV:hggpdfsmrel_ZHbsmM_2016postVFP_AC_Bin15_13TeV'
p213
aS'wsig_13TeV:hggpdfsmrel_ZHsm_2016postVFP_AC_Bin15_13TeV'
p214
aS'multipdf:CMS_hgg_AC_Bin15_2016postVFP_13TeV_bkgshape'
p215
aS'multipdf:roohist_data_mass_AC_Bin15'
p216
aF0.025098521101881488
aF0.028930380506153597
aF0.01458651827056201
aF5.526670065592043e-05
aF0.010748199585236762
aF0.00345454946625523
aF0.024824274584148043
aF5.979199158900883e-05
aF5.7482461215840885e-05
aF0.0002530921107108952
aF0.00015046070461721683
aF8.212685770558892e-05
aF0.0003388081524349218
ag147
ag147
aF5.670999651087816e-07
aF6.587237949675637e-07
aF3.2662293582223055e-07
aF7.583614795391229e-08
aF1.6557522837842783e-07
aF4.0646377174371245e-08
aF1.2153049994580028e-06
aF9.55139544026386e-10
aF5.87384284581973e-10
aF2.6533682468597095e-09
aF1.0546875137706103e-09
aF6.389728462542983e-10
aF5.14145553695878e-09
ag147
ag147
aF0.02579711029317223
aF0.029896430133363194
aF0.014998113245336127
aF5.6975287515406776e-05
aF0.011091923387244374
aF0.003562979548698188
aF0.02546266033305479
aF6.129020673369836e-05
aF5.8479872463258134e-05
aF0.00026563068903356565
aF0.00015283475616621053
aF8.380255995760541e-05
aF0.0003458899207623736
ag147
ag147
aF0.025267920938299895
aF0.029125271627103006
aF0.01468588325371334
aF5.532266321285804e-05
aF0.01081936498002583
aF0.0034772802066347216
aF0.024990509251487537
aF6.023011900645499e-05
aF5.785156684126141e-05
aF0.0002547213847263878
aF0.00015137607107501571
aF8.268050298032899e-05
aF0.0003410832611191298
ag147
ag147
aF0.02492969352969031
aF0.02873614359395332
aF0.01448749066373548
aF5.520967150806017e-05
aF0.010677268857350047
aF0.0034318932652811153
aF0.02465859668555203
aF5.9355457967040535e-05
aF5.711452235239617e-05
aF0.0002514680828090929
aF0.0001495481177751435
aF8.157505006549716e-05
aF0.0003365406276719441
ag147
ag147
aF0.025430027858597545
aF0.029356881316679188
aF0.014795734776131693
aF6.075618135944073e-05
aF0.010903657129346957
aF0.0035038456217853613
aF0.025154250365726466
aF6.081259826971578e-05
aF5.8293576323490375e-05
aF0.0002565906898970538
aF0.0001523115294405544
aF8.353435404064416e-05
aF0.0003427870131211059
ag147
ag147
aF0.024769086849112932
aF0.028506906231992018
aF0.014378784296555739
aF4.981476861317928e-05
aF0.010593710139328447
aF0.0034055815569053157
aF0.024496306450692982
aF5.8777516175841744e-05
aF5.667516415902587e-05
aF0.00024961262775490103
aF0.00014861866070050043
aF8.073892773464004e-05
aF0.0003348500650532174
ag147
ag147
aF0.025150477590927704
aF0.028993643913770795
aF0.014617195484323997
aF5.583064230280605e-05
aF0.010773650558572266
aF0.003462467408020023
aF0.024876828392928554
aF5.98920443805168e-05
aF5.76060540053915e-05
aF0.0002537401758642796
aF0.00015083344288498087
aF8.229756011738234e-05
aF0.00033943189725965114
ag147
ag147
aF0.025046615322841824
aF0.028867180539555785
aF0.014555871607912762
aF5.4703496857826144e-05
aF0.010722775819822143
aF0.0034466395956982516
aF0.024771770937015488
aF5.969200660742386e-05
aF5.735900040684406e-05
aF0.0002524448020191325
aF0.00015008843998812088
aF8.195634013422516e-05
aF0.00033818489014196995
ag147
ag147
aF0.02515438083285057
aF0.029000199054694167
aF0.014619241723408194
aF5.538492049246271e-05
aF0.010774862472913375
aF0.0034627118690780255
aF0.024879738589691863
aF5.991249773864247e-05
aF5.759946175763815e-05
aF0.0002540910339763239
aF0.00015076679175224567
aF8.229356020858957e-05
aF0.00033949336612270524
ag147
ag147
aF0.02504272328665539
aF0.02886064446042029
aF0.014553831352425713
aF5.514859879988329e-05
aF0.010721568617645885
aF0.003446396493466555
aF0.024768872901991323
aF5.967160749588296e-05
aF5.736558119165572e-05
aF0.0002520946815139488
aF0.00015015492917851275
aF8.196032515726099e-05
aF0.0003381236290470834
ag147
ag147
aF0.025920248339389218
aF0.029796544984264983
aF0.015314345588876677
aF5.526670065592043e-05
aF0.011371707045441326
aF0.0036456451210824525
aF0.02094780159552556
aF0.00038588208462897455
aF0.00016744301160542818
aF0.00026891782238180895
aF0.00016064981650742993
aF9.348559706268134e-05
aF0.00039153540927827635
ag147
ag147
aF0.024314303967457818
aF0.02781085214110135
aF0.014179841976556418
aF5.526670065592043e-05
aF0.010083751499905702
aF0.0033103250838166787
aF0.023268729852361503
aF0.0003532209439072176
aF0.00014828983148618136
aF0.0002530921107108952
aF0.00015008708510322322
aF8.212685770558892e-05
aF0.0003388081524349218
ag147
ag147
aF0.0253314765398045
aF0.029402228586604906
aF0.015086952658521113
aF0.0001251367175427731
aF0.010761747629658203
aF0.003406738662533826
aF0.01182125783441279
aF0.00038522931208717637
aF0.00015248202248585585
aF0.00024737052274304006
aF0.00012530954791145632
aF0.00011011937885996304
aF0.0003156722943344903
ag147
ag147
aF0.024688417231459425
aF0.028452521745748527
aF0.014142994353278482
aF0.00014120562627795152
aF0.010586621055949763
aF0.0033852768700626257
aF0.013314989619061635
aF0.00038522931208717637
aF0.00013905386754231586
aF0.0002670226573400214
aF0.00015166610273809056
aF9.400460839970037e-05
aF0.0003464233515728665
ag147
ag147
aF0.025572723716777546
aF0.029450862902649533
aF0.015009048694309968
aF5.526670065592043e-05
aF0.01090846021327252
aF0.0034429834603315612
aF0.013452038986088155
aF0.00038522931208717637
aF0.00015176515603343432
aF0.0002530921107108952
aF0.0001572912804022053
aF8.212685770558892e-05
aF0.000357184385563869
ag147
ag147
aF0.024550316077238676
aF0.028175580682272994
aF0.014073303005716298
aF5.526670065592043e-05
aF0.01065416140193065
aF0.0034351488515085293
aF0.013030703617459949
aF0.0003636234268924454
aF0.0001561701603804977
aF0.00023837138189719553
aF0.00015046070461721683
aF8.212685770558892e-05
aF0.0003388081524349218
ag147
ag147
aF0.026939944805235427
aF0.031178550230833935
aF0.015694933541681166
aF-3.962032133131288e-05
aF0.010992220190587432
aF0.0034226071114744627
aF0.012751007234101053
aF0.0004591088400047738
aF0.00019721545618267555
aF0.00029432642986648716
aF0.00017311527926722192
aF8.949586253947928e-05
aF0.0003802398513812477
ag147
ag147
aF0.023194447045625566
aF0.027373130980095084
aF0.013284771988764987
aF0.00019660707403090782
aF0.010366721554305514
aF0.0034646510511038286
aF0.01325335321610055
aF0.00033960247674258426
aF0.00015609933120686037
aF0.00023603880993050552
aF0.0001613459551208507
aF9.056819567376806e-05
aF0.00030075102785076524
ag147
ag147
aF0.025377491533845387
aF0.029393977270956384
aF0.014668933231860137
aF0.00018718622959568165
aF0.010748998472195126
aF0.0034065150879314388
aF0.01294295902630438
aF0.00042906005364784505
aF0.00018850934361580585
aF0.00029140320145870646
aF0.00015991718214536377
aF8.707743108971044e-05
aF0.000345155997990787
ag147
ag147
aF0.024790247068722238
aF0.029117850830061798
aF0.014403059163896614
aF6.46875450911466e-05
aF0.010696249854618145
aF0.0034575919006556433
aF0.01323153253088094
aF0.0003947153472836362
aF0.0001776909268755844
aF0.00026078703342591325
aF0.00014094453717916622
aF7.48210190977261e-05
aF0.00032814232594091663
ag147
ag147
aF0.025098521101881488
aF0.028930380506153597
aF0.01458651827056201
aF5.526670065592043e-05
aF0.010748199585236762
aF0.00345454946625523
aF0.024824274584148043
aF5.979199158900883e-05
aF5.7482461215840885e-05
aF0.0002530921107108952
aF0.00015046070461721683
aF8.212685770558892e-05
aF0.0003388081524349218
ag147
ag147
aF0.025098521101881488
aF0.028930380506153597
aF0.01458651827056201
aF5.526670065592043e-05
aF0.010748199585236762
aF0.00345454946625523
aF0.024824274584148043
aF5.979199158900883e-05
aF5.7482461215840885e-05
aF0.0002530921107108952
aF0.00015046070461721683
aF8.212685770558892e-05
aF0.0003388081524349218
ag147
ag147
atp217
ba(lp218
g15
(g16
(dp219
g18
g19
(g20
(I0
tp220
g22
tp221
Rp222
(I1
(I1
tp223
g29
I00
(lp224
g43
atp225
bsg68
Nstp226
Rp227
ag15
(g16
(dp228
g18
g19
(g20
(I0
tp229
g22
tp230
Rp231
(I1
(I33
tp232
g29
I00
(lp233
g33
ag34
ag35
ag36
ag37
ag38
ag39
ag40
ag41
ag42
ag44
ag45
ag46
ag47
ag48
ag49
ag50
ag51
ag52
ag53
ag54
ag55
ag56
ag57
ag58
ag59
ag60
ag61
ag62
ag63
ag64
ag65
ag66
atp234
bsg68
Nstp235
Rp236
a(dp237
S'0.14.1'
p238
(dp239
S'axes'
p240
g14
sS'blocks'
p241
(lp242
(dp243
S'mgr_locs'
p244
c__builtin__
slice
p245
(I10
I11
I1
tp246
Rp247
sS'values'
p248
g89
sa(dp249
g244
g19
(g20
(I0
tp250
g22
tp251
Rp252
(I1
(I33
tp253
g79
I00
S'\x00\x00\x00\x00\x00\x00\x00\x00\x01\x00\x00\x00\x00\x00\x00\x00\x02\x00\x00\x00\x00\x00\x00\x00\x03\x00\x00\x00\x00\x00\x00\x00\x04\x00\x00\x00\x00\x00\x00\x00\x05\x00\x00\x00\x00\x00\x00\x00\x06\x00\x00\x00\x00\x00\x00\x00\x07\x00\x00\x00\x00\x00\x00\x00\x08\x00\x00\x00\x00\x00\x00\x00\t\x00\x00\x00\x00\x00\x00\x00\x0b\x00\x00\x00\x00\x00\x00\x00\x0c\x00\x00\x00\x00\x00\x00\x00\r\x00\x00\x00\x00\x00\x00\x00\x0e\x00\x00\x00\x00\x00\x00\x00\x0f\x00\x00\x00\x00\x00\x00\x00\x10\x00\x00\x00\x00\x00\x00\x00\x11\x00\x00\x00\x00\x00\x00\x00\x12\x00\x00\x00\x00\x00\x00\x00\x13\x00\x00\x00\x00\x00\x00\x00\x14\x00\x00\x00\x00\x00\x00\x00\x15\x00\x00\x00\x00\x00\x00\x00\x16\x00\x00\x00\x00\x00\x00\x00\x17\x00\x00\x00\x00\x00\x00\x00\x18\x00\x00\x00\x00\x00\x00\x00\x19\x00\x00\x00\x00\x00\x00\x00\x1a\x00\x00\x00\x00\x00\x00\x00\x1b\x00\x00\x00\x00\x00\x00\x00\x1c\x00\x00\x00\x00\x00\x00\x00\x1d\x00\x00\x00\x00\x00\x00\x00\x1e\x00\x00\x00\x00\x00\x00\x00\x1f\x00\x00\x00\x00\x00\x00\x00 \x00\x00\x00\x00\x00\x00\x00!\x00\x00\x00\x00\x00\x00\x00'
p254
tp255
bsg248
g100
sasstp256
bsb.