ccopy_reg
_reconstructor
p0
(cpandas.core.frame
DataFrame
p1
c__builtin__
object
p2
Ntp3
Rp4
(dp5
S'_metadata'
p6
(lp7
sS'_typ'
p8
S'dataframe'
p9
sS'_data'
p10
g0
(cpandas.core.internals
BlockManager
p11
g2
Ntp12
Rp13
((lp14
cpandas.core.indexes.base
_new_Index
p15
(cpandas.core.indexes.base
Index
p16
(dp17
S'data'
p18
cnumpy.core.multiarray
_reconstruct
p19
(cnumpy
ndarray
p20
(I0
tp21
S'b'
p22
tp23
Rp24
(I1
(I32
tp25
cnumpy
dtype
p26
(S'O8'
p27
I0
I1
tp28
Rp29
(I3
S'|'
p30
NNNI-1
I-1
I63
tp31
bI00
(lp32
S'year'
p33
aS'type'
p34
aS'procOriginal'
p35
aS'proc'
p36
aS'proc_s0'
p37
aS'cat'
p38
aS'inputWSFile'
p39
aS'nominalDataName'
p40
aS'modelWSFile'
p41
aS'model'
p42
aS'rate'
p43
aS'nominal_yield'
p44
aS'sumw2'
p45
aS'nominal_yield_COWCorr'
p46
aS'LooseMvaSF_up_yield'
p47
aS'LooseMvaSF_down_yield'
p48
aS'PreselSF_up_yield'
p49
aS'PreselSF_down_yield'
p50
aS'electronVetoSF_up_yield'
p51
aS'electronVetoSF_down_yield'
p52
aS'TriggerWeight_up_yield'
p53
aS'TriggerWeight_down_yield'
p54
aS'SigmaEOverEShift_up_yield'
p55
aS'SigmaEOverEShift_down_yield'
p56
aS'MvaShift_up_yield'
p57
aS'MvaShift_down_yield'
p58
aS'PUJIDShift_up_yield'
p59
aS'PUJIDShift_down_yield'
p60
aS'JEC_up_yield'
p61
aS'JEC_down_yield'
p62
aS'JER_up_yield'
p63
aS'JER_down_yield'
p64
atp65
bsS'name'
p66
Nstp67
Rp68
ag15
(cpandas.core.indexes.numeric
Int64Index
p69
(dp70
g18
g19
(g20
(I0
tp71
g22
tp72
Rp73
(I1
(I15
tp74
g26
(S'i8'
p75
I0
I1
tp76
Rp77
(I3
S'<'
p78
NNNI-1
I-1
I0
tp79
bI00
S'\x00\x00\x00\x00\x00\x00\x00\x00\x01\x00\x00\x00\x00\x00\x00\x00\x02\x00\x00\x00\x00\x00\x00\x00\x03\x00\x00\x00\x00\x00\x00\x00\x04\x00\x00\x00\x00\x00\x00\x00\x05\x00\x00\x00\x00\x00\x00\x00\x06\x00\x00\x00\x00\x00\x00\x00\x07\x00\x00\x00\x00\x00\x00\x00\x08\x00\x00\x00\x00\x00\x00\x00\t\x00\x00\x00\x00\x00\x00\x00\n\x00\x00\x00\x00\x00\x00\x00\x0b\x00\x00\x00\x00\x00\x00\x00\x0c\x00\x00\x00\x00\x00\x00\x00\r\x00\x00\x00\x00\x00\x00\x00\x0e\x00\x00\x00\x00\x00\x00\x00'
p80
tp81
bsg66
Nstp82
Rp83
a(lp84
g19
(g20
(I0
tp85
g22
tp86
Rp87
(I1
(I1
I15
tp88
g26
(S'f8'
p89
I0
I1
tp90
Rp91
(I3
S'<'
p92
NNNI-1
I-1
I0
tp93
bI00
S'\x00\x00\x00\x00\x80j\xd0@\x00\x00\x00\x00\x80j\xd0@\x00\x00\x00\x00\x80j\xd0@\x00\x00\x00\x00\x80j\xd0@\x00\x00\x00\x00\x80j\xd0@\x00\x00\x00\x00\x80j\xd0@\x00\x00\x00\x00\x80j\xd0@\x00\x00\x00\x00\x80j\xd0@\x00\x00\x00\x00\x80j\xd0@\x00\x00\x00\x00\x80j\xd0@\x00\x00\x00\x00\x80j\xd0@\x00\x00\x00\x00\x80j\xd0@\x00\x00\x00\x00\x80j\xd0@\x00\x00\x00\x00\x00\x00\xf0?\x00\x00\x00\x00\x00\x00\xf0\xbf'
p94
tp95
bag19
(g20
(I0
tp96
g22
tp97
Rp98
(I1
(I31
I15
tp99
g29
I00
(lp100
S'2016postVFP'
p101
ag101
ag101
ag101
ag101
ag101
ag101
ag101
ag101
ag101
ag101
ag101
ag101
ag33
ag33
aS'sig'
p102
ag102
ag102
ag102
ag102
ag102
ag102
ag102
ag102
ag102
ag102
ag102
ag102
aS'bkg'
p103
ag18
aS'GG2HMf05ph0'
p104
aS'GG2HbsmM'
p105
aS'GG2Hsm'
p106
aS'TTHsm'
p107
aS'VBFMf05ph0'
p108
aS'VBFbsmM'
p109
aS'VBFsm'
p110
aS'WHMf05ph0'
p111
aS'WHbsmM'
p112
aS'WHsm'
p113
aS'ZHMf05ph0'
p114
aS'ZHbsmM'
p115
aS'ZHsm'
p116
aS'bkg_mass'
p117
aS'data_obs'
p118
aS'GG2HMf05ph0_2016postVFP_hgg'
p119
aS'GG2HbsmM_2016postVFP_hgg'
p120
aS'GG2Hsm_2016postVFP_hgg'
p121
aS'tth0P_2016postVFP_hgg'
p122
aS'vbf0Mf05ph0_2016postVFP_hgg'
p123
aS'vbf0M_2016postVFP_hgg'
p124
aS'vbf0P_2016postVFP_hgg'
p125
aS'wh0Mf05ph0_2016postVFP_hgg'
p126
aS'wh0M_2016postVFP_hgg'
p127
aS'wh0P_2016postVFP_hgg'
p128
aS'zh0Mf05ph0_2016postVFP_hgg'
p129
aS'zh0M_2016postVFP_hgg'
p130
aS'zh0P_2016postVFP_hgg'
p131
ag117
ag118
aS'jjh0Mf05ph0'
p132
aS'jjh0M'
p133
aS'jjh0P'
p134
aS'tth0P'
p135
aS'vbf0Mf05ph0'
p136
aS'vbf0M'
p137
aS'vbf0P'
p138
aS'wh0Mf05ph0'
p139
aS'wh0M'
p140
aS'wh0P'
p141
aS'zh0Mf05ph0'
p142
aS'zh0M'
p143
aS'zh0P'
p144
aS'-'
p145
ag145
aS'AC_Bin8_2016postVFP'
p146
aS'AC_Bin8_2016postVFP'
p147
aS'AC_Bin8_2016postVFP'
p148
aS'AC_Bin8_2016postVFP'
p149
aS'AC_Bin8_2016postVFP'
p150
aS'AC_Bin8_2016postVFP'
p151
aS'AC_Bin8_2016postVFP'
p152
aS'AC_Bin8_2016postVFP'
p153
aS'AC_Bin8_2016postVFP'
p154
aS'AC_Bin8_2016postVFP'
p155
aS'AC_Bin8_2016postVFP'
p156
aS'AC_Bin8_2016postVFP'
p157
aS'AC_Bin8_2016postVFP'
p158
aS'AC_Bin8_2016postVFP'
p159
ag159
aS'Trees/Opt_2016postVFP/2016PostVFP/Trees2WS_2016postVFP/WS/output_GluGluHToGGPlusTwoJets_MM_M125_TuneCP5_13TeV-amcatnlopowheg-minlo-pythia8_GG2HMf05ph0.root'
p160
aS'Trees/Opt_2016postVFP/2016PostVFP/Trees2WS_2016postVFP/WS/output_GluGluHToGGPlusTwoJets_CPodd_M125_TuneCP5_13TeV-amcatnlopowheg-minlo-pythia8_GG2HbsmM.root'
p161
aS'Trees/Opt_2016postVFP/2016PostVFP/Trees2WS_2016postVFP/WS/output_GluGluHToGGPlusTwoJets_SM_M125_TuneCP5_13TeV-amcatnlopowheg-minlo-pythia8_GG2Hsm.root'
p162
aS'Trees/Opt_2016postVFP/2016PostVFP/Trees2WS_2016postVFP/WS/output_ttHJetToGG_M125_TuneCP5_13TeV-amcatnloFXFX-madspin-pythia8_TTHsm.root'
p163
aS'Trees/Opt_2016postVFP/2016PostVFP/Trees2WS_2016postVFP/WS/output_VBFHiggs0Mf05ph0ToGG_M125_TuneCP5_13TeV-JHUGenV7011-pythia8_VBFMf05ph0.root'
p164
aS'Trees/Opt_2016postVFP/2016PostVFP/Trees2WS_2016postVFP/WS/output_VBFHiggs0MToGG_M125_TuneCP5_13TeV-JHUGenV7011-pythia8_VBFbsmM.root'
p165
aS'Trees/Opt_2016postVFP/2016PostVFP/Trees2WS_2016postVFP/WS/output_VBFHToGG_M125_TuneCP5_13TeV-amcatnlo-pythia8_VBFsm.root'
p166
aS'Trees/Opt_2016postVFP/2016PostVFP/Trees2WS_2016postVFP/WS/output_WHiggs0Mf05ph0ToGG_M125_TuneCP5_13TeV-JHUGenV7011-pythia8_WHMf05ph0.root'
p167
aS'Trees/Opt_2016postVFP/2016PostVFP/Trees2WS_2016postVFP/WS/output_WHiggs0MToGG_M125_TuneCP5_13TeV-JHUGenV7011-pythia8_WHbsmM.root'
p168
aS'Trees/Opt_2016postVFP/2016PostVFP/Trees2WS_2016postVFP/WS/output_WHiggs0PMToGG_M125_TuneCP5_13TeV-JHUGenV7011-pythia8_WHsm.root'
p169
aS'Trees/Opt_2016postVFP/2016PostVFP/Trees2WS_2016postVFP/WS/output_ZHiggs0Mf05ph0ToGG_M125_TuneCP5_13TeV-JHUGenV7011-pythia8_ZHMf05ph0.root'
p170
aS'Trees/Opt_2016postVFP/2016PostVFP/Trees2WS_2016postVFP/WS/output_ZHiggs0MToGG_M125_TuneCP5_13TeV-JHUGenV7011-pythia8_ZHbsmM.root'
p171
aS'Trees/Opt_2016postVFP/2016PostVFP/Trees2WS_2016postVFP/WS/output_ZH_HToGG_ZToAll_M125_TuneCP5_13TeV-powheg-pythia8_ZHsm.root'
p172
ag145
ag145
aS'jjh0Mf05ph0_125_13TeV_AC_Bin8'
p173
aS'jjh0M_125_13TeV_AC_Bin8'
p174
aS'jjh0P_125_13TeV_AC_Bin8'
p175
aS'tth0P_125_13TeV_AC_Bin8'
p176
aS'vbf0Mf05ph0_125_13TeV_AC_Bin8'
p177
aS'vbf0M_125_13TeV_AC_Bin8'
p178
aS'vbf0P_125_13TeV_AC_Bin8'
p179
aS'wh0Mf05ph0_125_13TeV_AC_Bin8'
p180
aS'wh0M_125_13TeV_AC_Bin8'
p181
aS'wh0P_125_13TeV_AC_Bin8'
p182
aS'zh0Mf05ph0_125_13TeV_AC_Bin8'
p183
aS'zh0M_125_13TeV_AC_Bin8'
p184
aS'zh0P_125_13TeV_AC_Bin8'
p185
ag145
ag145
aS'./Models/signal/CMS-HGG_sigfit_packaged_AC_Bin8_2016postVFP.root'
p186
aS'./Models/signal/CMS-HGG_sigfit_packaged_AC_Bin8_2016postVFP.root'
p187
aS'./Models/signal/CMS-HGG_sigfit_packaged_AC_Bin8_2016postVFP.root'
p188
aS'./Models/signal/CMS-HGG_sigfit_packaged_AC_Bin8_2016postVFP.root'
p189
aS'./Models/signal/CMS-HGG_sigfit_packaged_AC_Bin8_2016postVFP.root'
p190
aS'./Models/signal/CMS-HGG_sigfit_packaged_AC_Bin8_2016postVFP.root'
p191
aS'./Models/signal/CMS-HGG_sigfit_packaged_AC_Bin8_2016postVFP.root'
p192
aS'./Models/signal/CMS-HGG_sigfit_packaged_AC_Bin8_2016postVFP.root'
p193
aS'./Models/signal/CMS-HGG_sigfit_packaged_AC_Bin8_2016postVFP.root'
p194
aS'./Models/signal/CMS-HGG_sigfit_packaged_AC_Bin8_2016postVFP.root'
p195
aS'./Models/signal/CMS-HGG_sigfit_packaged_AC_Bin8_2016postVFP.root'
p196
aS'./Models/signal/CMS-HGG_sigfit_packaged_AC_Bin8_2016postVFP.root'
p197
aS'./Models/signal/CMS-HGG_sigfit_packaged_AC_Bin8_2016postVFP.root'
p198
aS'./Models/background/CMS-HGG_multipdf_AC_Bin8_2016postVFP.root'
p199
ag199
aS'wsig_13TeV:hggpdfsmrel_GG2HMf05ph0_2016postVFP_AC_Bin8_13TeV'
p200
aS'wsig_13TeV:hggpdfsmrel_GG2HbsmM_2016postVFP_AC_Bin8_13TeV'
p201
aS'wsig_13TeV:hggpdfsmrel_GG2Hsm_2016postVFP_AC_Bin8_13TeV'
p202
aS'wsig_13TeV:hggpdfsmrel_TTHsm_2016postVFP_AC_Bin8_13TeV'
p203
aS'wsig_13TeV:hggpdfsmrel_VBFMf05ph0_2016postVFP_AC_Bin8_13TeV'
p204
aS'wsig_13TeV:hggpdfsmrel_VBFbsmM_2016postVFP_AC_Bin8_13TeV'
p205
aS'wsig_13TeV:hggpdfsmrel_VBFsm_2016postVFP_AC_Bin8_13TeV'
p206
aS'wsig_13TeV:hggpdfsmrel_WHMf05ph0_2016postVFP_AC_Bin8_13TeV'
p207
aS'wsig_13TeV:hggpdfsmrel_WHbsmM_2016postVFP_AC_Bin8_13TeV'
p208
aS'wsig_13TeV:hggpdfsmrel_WHsm_2016postVFP_AC_Bin8_13TeV'
p209
aS'wsig_13TeV:hggpdfsmrel_ZHMf05ph0_2016postVFP_AC_Bin8_13TeV'
p210
aS'wsig_13TeV:hggpdfsmrel_ZHbsmM_2016postVFP_AC_Bin8_13TeV'
p211
aS'wsig_13TeV:hggpdfsmrel_ZHsm_2016postVFP_AC_Bin8_13TeV'
p212
aS'multipdf:CMS_hgg_AC_Bin8_2016postVFP_13TeV_bkgshape'
p213
aS'multipdf:roohist_data_mass_AC_Bin8'
p214
aF0.08865983942314415
aF0.08825901656223323
aF0.1141300185252021
aF0.00787350357768446
aF0.012969877728380652
aF0.00958919412130399
aF0.03942188473263286
aF0.00021511640079552308
aF0.0007841540738127151
aF0.0035793929965848292
aF0.0024375016931230675
aF0.0012138925836211456
aF0.005263922910671681
ag145
ag145
aF2.079711292338537e-06
aF2.1596136134127043e-06
aF2.6484440183716058e-06
aF1.4688817821103887e-06
aF1.620284787643648e-07
aF1.1937474253829427e-07
aF1.9855466741531923e-06
aF3.856869329338249e-09
aF8.257991838802368e-09
aF3.735048406275748e-08
aF1.6663104801939344e-08
aF8.595487774955706e-09
aF8.882378979803391e-08
ag145
ag145
aF0.09078805087870791
aF0.09044507215116936
aF0.11715698267328457
aF0.008075659008673814
aF0.013273229373137812
aF0.009818920999184608
aF0.04036059076845518
aF0.00022013306284239588
aF0.0008072795985856519
aF0.003659812507763479
aF0.00249462395759255
aF0.0012427395989841013
aF0.005394728062974146
ag145
ag145
aF0.08928391216756124
aF0.08887816806353506
aF0.11493319897156362
aF0.007928111104635201
aF0.013058645589106585
aF0.009654709745197363
aF0.03968993533171914
aF0.0002166930335551975
aF0.0007893903621202206
aF0.003603711261831891
aF0.0024541455433095033
aF0.0012223190484787212
aF0.005299748688990944
ag145
ag145
aF0.08803797500866682
aF0.08764204950306174
aF0.11332967704733556
aF0.007819086528495214
aF0.012881414664135636
aF0.009523902863311501
aF0.03915475219180559
aF0.00021354552941550735
aF0.000778935402544672
aF0.0035551586730358264
aF0.002420915232996992
aF0.0012054956498512173
aF0.0052282206944815595
ag145
ag145
aF0.08973277863335562
aF0.08937284791009864
aF0.11557150006021373
aF0.007981300865417875
aF0.013134114780816619
aF0.009722672977984747
aF0.03992680338198874
aF0.00021842974807429163
aF0.0007922884388702402
aF0.003624452659008238
aF0.002467623621166307
aF0.0012299041995767624
aF0.005336699165958771
ag145
ag145
aF0.08759332231642836
aF0.08715211378617478
aF0.11269783095873705
aF0.007766466612876694
aF0.012806595234548166
aF0.009456638643820061
aF0.03892000029161756
aF0.00021183533643578305
aF0.0007760591859201696
aF0.003534602681032609
aF0.0024075489885589914
aF0.001197996653524033
aF0.005191633270288956
ag145
ag145
aF0.08881163216687825
aF0.08841366853564259
aF0.11432806458514326
aF0.007887711193520277
aF0.012994575039560292
aF0.009608527412136435
aF0.03949883565186675
aF0.00021545766351931543
aF0.0007857378762624379
aF0.0035862239200997433
aF0.002442070101525185
aF0.001216178690454689
aF0.005274093519377334
ag145
ag145
aF0.08850818076024075
aF0.08810450769402749
aF0.1139321512449896
aF0.007859308240086819
aF0.01294520340562128
aF0.009569880442112893
aF0.03934501247964235
aF0.00021477542882244156
aF0.0007825717601767067
aF0.00357256913060793
aF0.002432937763681633
aF0.0012116089053523383
aF0.005253762802933163
ag145
ag145
aF0.08885396151751891
aF0.08845474108957402
aF0.11437873444475344
aF0.007895614269657462
aF0.012999435285711198
aF0.009610575803137462
aF0.03951278575701893
aF0.00021555243476712753
aF0.0007860935515952577
aF0.0035872230813798305
aF0.0024427362913946185
aF0.0012165242728593216
aF0.005275647700163502
ag145
ag145
aF0.08846593170565928
aF0.08806350974445928
aF0.11388157563500273
aF0.007851421557652958
aF0.012940353662650745
aF0.00956783617033198
aF0.03933108760408067
aF0.0002146808141228678
aF0.000782216932282914
aF0.003571571522440538
aF0.0024322727578836214
aF0.0012112638575801373
aF0.00525221119763026
ag145
ag145
aF0.08791581424202377
aF0.08758263609206551
aF0.11342150014297658
aF0.0073065013048108085
aF0.012899727001411065
aF0.00963181618044473
aF0.03952144458548901
aF0.0029878228231154935
aF0.0017532009831029427
aF0.0035258430308431343
aF0.002430535523274102
aF0.001217581972980497
aF0.005238205071464108
ag145
ag145
aF0.0893229568116567
aF0.08857186285399621
aF0.11486338701229215
aF0.007975579776939412
aF0.012814281335693067
aF0.009442160655112275
aF0.040236748421875745
aF0.0030804819532477268
aF0.0017759556710643665
aF0.0036096847126145803
aF0.002435363806227997
aF0.0012197008109637864
aF0.0053354141737145255
ag145
ag145
aF0.09118007392203253
aF0.09097912275387898
aF0.11701826233343127
aF0.007626433372024621
aF0.013189523386188284
aF0.009773533750262686
aF0.03457742874672931
aF0.0031273914844405226
aF0.0017909874695760664
aF0.003657223996583525
aF0.0024805084581771553
aF0.0012358469662672178
aF0.005451661970255373
ag145
ag145
aF0.08615628279585508
aF0.08523552641759125
aF0.1108118423576343
aF0.007600420302878774
aF0.012782246898211724
aF0.009473335654206494
aF0.0329067288225815
aF0.002995219532522242
aF0.0017148708650438493
aF0.003509150075501566
aF0.0023332820416612776
aF0.0011587810279820587
aF0.005132557011052086
ag145
ag145
aF0.09020303903980675
aF0.08976309760350887
aF0.11557695406258972
aF0.00787350357768446
aF0.013044052087195723
aF0.00960203638112489
aF0.04156720764831334
aF0.0031171563775842515
aF0.0018000706802467903
aF0.003660000073637093
aF0.0024736021871945013
aF0.001235724527361981
aF0.0052986219143349444
ag145
ag145
aF0.08730544212858149
aF0.08697547069255052
aF0.11272499736583086
aF0.00787350357768446
aF0.012862449442934576
aF0.009542264859533134
aF0.03358500965236999
aF0.003048123974394912
aF0.0017581943109234999
aF0.0035109008900917615
aF0.002405848414866796
aF0.001193209366249448
aF0.005172021163616591
ag145
ag145
aF0.09487433243634769
aF0.09442634715151144
aF0.12200370356958956
aF0.007492323685255542
aF0.013326559889321743
aF0.009904167045647227
aF0.03507706465143201
aF0.0033560561512331333
aF0.0019202354399112664
aF0.00387874200623628
aF0.002590161692126003
aF0.0012587954493596953
aF0.0054984112866804935
ag145
ag145
aF0.08318717012184607
aF0.08262647309970816
aF0.10836969606521052
aF0.007503152554818371
aF0.012676520975162475
aF0.009690831499483465
aF0.03294711109799664
aF0.002763669867590579
aF0.0015655238878480304
aF0.003296472865827127
aF0.002252496360938494
aF0.0010904825099373738
aF0.0052384734975703395
ag145
ag145
aF0.0893424864455028
aF0.08927200966877535
aF0.11520273038104278
aF0.0077513105379694025
aF0.012978234548143064
aF0.009575363556564298
aF0.043453313948703
aF0.0031383950529288995
aF0.0018075024452173238
aF0.0036778300088826654
aF0.0024869891486218876
aF0.0011807041908582505
aF0.005313527263751894
ag145
ag145
aF0.08767239879466615
aF0.08824246905760447
aF0.11382586073591483
aF0.007855161236875574
aF0.012984139256957405
aF0.009691031694615049
aF0.033984166826940054
aF0.0029076657453970256
aF0.0017295921877575893
aF0.003530846833768919
aF0.00237106403000098
aF0.0011768903446522927
aF0.005297588132179953
ag145
ag145
atp215
ba(lp216
g15
(g16
(dp217
g18
g19
(g20
(I0
tp218
g22
tp219
Rp220
(I1
(I1
tp221
g29
I00
(lp222
g43
atp223
bsg66
Nstp224
Rp225
ag15
(g16
(dp226
g18
g19
(g20
(I0
tp227
g22
tp228
Rp229
(I1
(I31
tp230
g29
I00
(lp231
g33
ag34
ag35
ag36
ag37
ag38
ag39
ag40
ag41
ag42
ag44
ag45
ag46
ag47
ag48
ag49
ag50
ag51
ag52
ag53
ag54
ag55
ag56
ag57
ag58
ag59
ag60
ag61
ag62
ag63
ag64
atp232
bsg66
Nstp233
Rp234
a(dp235
S'0.14.1'
p236
(dp237
S'axes'
p238
g14
sS'blocks'
p239
(lp240
(dp241
S'mgr_locs'
p242
c__builtin__
slice
p243
(I10
I11
I1
tp244
Rp245
sS'values'
p246
g87
sa(dp247
g242
g19
(g20
(I0
tp248
g22
tp249
Rp250
(I1
(I31
tp251
g77
I00
S'\x00\x00\x00\x00\x00\x00\x00\x00\x01\x00\x00\x00\x00\x00\x00\x00\x02\x00\x00\x00\x00\x00\x00\x00\x03\x00\x00\x00\x00\x00\x00\x00\x04\x00\x00\x00\x00\x00\x00\x00\x05\x00\x00\x00\x00\x00\x00\x00\x06\x00\x00\x00\x00\x00\x00\x00\x07\x00\x00\x00\x00\x00\x00\x00\x08\x00\x00\x00\x00\x00\x00\x00\t\x00\x00\x00\x00\x00\x00\x00\x0b\x00\x00\x00\x00\x00\x00\x00\x0c\x00\x00\x00\x00\x00\x00\x00\r\x00\x00\x00\x00\x00\x00\x00\x0e\x00\x00\x00\x00\x00\x00\x00\x0f\x00\x00\x00\x00\x00\x00\x00\x10\x00\x00\x00\x00\x00\x00\x00\x11\x00\x00\x00\x00\x00\x00\x00\x12\x00\x00\x00\x00\x00\x00\x00\x13\x00\x00\x00\x00\x00\x00\x00\x14\x00\x00\x00\x00\x00\x00\x00\x15\x00\x00\x00\x00\x00\x00\x00\x16\x00\x00\x00\x00\x00\x00\x00\x17\x00\x00\x00\x00\x00\x00\x00\x18\x00\x00\x00\x00\x00\x00\x00\x19\x00\x00\x00\x00\x00\x00\x00\x1a\x00\x00\x00\x00\x00\x00\x00\x1b\x00\x00\x00\x00\x00\x00\x00\x1c\x00\x00\x00\x00\x00\x00\x00\x1d\x00\x00\x00\x00\x00\x00\x00\x1e\x00\x00\x00\x00\x00\x00\x00\x1f\x00\x00\x00\x00\x00\x00\x00'
p252
tp253
bsg246
g98
sasstp254
bsb.