ccopy_reg
_reconstructor
p0
(cpandas.core.frame
DataFrame
p1
c__builtin__
object
p2
Ntp3
Rp4
(dp5
S'_metadata'
p6
(lp7
sS'_typ'
p8
S'dataframe'
p9
sS'_data'
p10
g0
(cpandas.core.internals
BlockManager
p11
g2
Ntp12
Rp13
((lp14
cpandas.core.indexes.base
_new_Index
p15
(cpandas.core.indexes.base
Index
p16
(dp17
S'data'
p18
cnumpy.core.multiarray
_reconstruct
p19
(cnumpy
ndarray
p20
(I0
tp21
S'b'
p22
tp23
Rp24
(I1
(I34
tp25
cnumpy
dtype
p26
(S'O8'
p27
I0
I1
tp28
Rp29
(I3
S'|'
p30
NNNI-1
I-1
I63
tp31
bI00
(lp32
S'year'
p33
aS'type'
p34
aS'procOriginal'
p35
aS'proc'
p36
aS'proc_s0'
p37
aS'cat'
p38
aS'inputWSFile'
p39
aS'nominalDataName'
p40
aS'modelWSFile'
p41
aS'model'
p42
aS'rate'
p43
aS'nominal_yield'
p44
aS'sumw2'
p45
aS'nominal_yield_COWCorr'
p46
aS'LooseMvaSF_up_yield'
p47
aS'LooseMvaSF_down_yield'
p48
aS'PreselSF_up_yield'
p49
aS'PreselSF_down_yield'
p50
aS'electronVetoSF_up_yield'
p51
aS'electronVetoSF_down_yield'
p52
aS'TriggerWeight_up_yield'
p53
aS'TriggerWeight_down_yield'
p54
aS'SigmaEOverEShift_up_yield'
p55
aS'SigmaEOverEShift_down_yield'
p56
aS'MvaShift_up_yield'
p57
aS'MvaShift_down_yield'
p58
aS'PUJIDShift_up_yield'
p59
aS'PUJIDShift_down_yield'
p60
aS'JEC_up_yield'
p61
aS'JEC_down_yield'
p62
aS'JER_up_yield'
p63
aS'JER_down_yield'
p64
aS'JetHEM_up_yield'
p65
aS'JetHEM_down_yield'
p66
atp67
bsS'name'
p68
Nstp69
Rp70
ag15
(cpandas.core.indexes.numeric
Int64Index
p71
(dp72
g18
g19
(g20
(I0
tp73
g22
tp74
Rp75
(I1
(I15
tp76
g26
(S'i8'
p77
I0
I1
tp78
Rp79
(I3
S'<'
p80
NNNI-1
I-1
I0
tp81
bI00
S'\x00\x00\x00\x00\x00\x00\x00\x00\x01\x00\x00\x00\x00\x00\x00\x00\x02\x00\x00\x00\x00\x00\x00\x00\x03\x00\x00\x00\x00\x00\x00\x00\x04\x00\x00\x00\x00\x00\x00\x00\x05\x00\x00\x00\x00\x00\x00\x00\x06\x00\x00\x00\x00\x00\x00\x00\x07\x00\x00\x00\x00\x00\x00\x00\x08\x00\x00\x00\x00\x00\x00\x00\t\x00\x00\x00\x00\x00\x00\x00\n\x00\x00\x00\x00\x00\x00\x00\x0b\x00\x00\x00\x00\x00\x00\x00\x0c\x00\x00\x00\x00\x00\x00\x00\r\x00\x00\x00\x00\x00\x00\x00\x0e\x00\x00\x00\x00\x00\x00\x00'
p82
tp83
bsg68
Nstp84
Rp85
a(lp86
g19
(g20
(I0
tp87
g22
tp88
Rp89
(I1
(I1
I15
tp90
g26
(S'f8'
p91
I0
I1
tp92
Rp93
(I3
S'<'
p94
NNNI-1
I-1
I0
tp95
bI00
S'\x00\x00\x00\x00\x80j\xd0@\x00\x00\x00\x00\x80j\xd0@\x00\x00\x00\x00\x80j\xd0@\x00\x00\x00\x00\x80j\xd0@\x00\x00\x00\x00\x80j\xd0@\x00\x00\x00\x00\x80j\xd0@\x00\x00\x00\x00\x80j\xd0@\x00\x00\x00\x00\x80j\xd0@\x00\x00\x00\x00\x80j\xd0@\x00\x00\x00\x00\x80j\xd0@\x00\x00\x00\x00\x80j\xd0@\x00\x00\x00\x00\x80j\xd0@\x00\x00\x00\x00\x80j\xd0@\x00\x00\x00\x00\x00\x00\xf0?\x00\x00\x00\x00\x00\x00\xf0\xbf'
p96
tp97
bag19
(g20
(I0
tp98
g22
tp99
Rp100
(I1
(I33
I15
tp101
g29
I00
(lp102
S'2016postVFP'
p103
ag103
ag103
ag103
ag103
ag103
ag103
ag103
ag103
ag103
ag103
ag103
ag103
ag33
ag33
aS'sig'
p104
ag104
ag104
ag104
ag104
ag104
ag104
ag104
ag104
ag104
ag104
ag104
ag104
aS'bkg'
p105
ag18
aS'GG2HMf05ph0'
p106
aS'GG2HbsmM'
p107
aS'GG2Hsm'
p108
aS'TTHsm'
p109
aS'VBFMf05ph0'
p110
aS'VBFbsmM'
p111
aS'VBFsm'
p112
aS'WHMf05ph0'
p113
aS'WHbsmM'
p114
aS'WHsm'
p115
aS'ZHMf05ph0'
p116
aS'ZHbsmM'
p117
aS'ZHsm'
p118
aS'bkg_mass'
p119
aS'data_obs'
p120
aS'GG2HMf05ph0_2016postVFP_hgg'
p121
aS'GG2HbsmM_2016postVFP_hgg'
p122
aS'GG2Hsm_2016postVFP_hgg'
p123
aS'tth0P_2016postVFP_hgg'
p124
aS'vbf0Mf05ph0_2016postVFP_hgg'
p125
aS'vbf0M_2016postVFP_hgg'
p126
aS'vbf0P_2016postVFP_hgg'
p127
aS'wh0Mf05ph0_2016postVFP_hgg'
p128
aS'wh0M_2016postVFP_hgg'
p129
aS'wh0P_2016postVFP_hgg'
p130
aS'zh0Mf05ph0_2016postVFP_hgg'
p131
aS'zh0M_2016postVFP_hgg'
p132
aS'zh0P_2016postVFP_hgg'
p133
ag119
ag120
aS'jjh0Mf05ph0'
p134
aS'jjh0M'
p135
aS'jjh0P'
p136
aS'tth0P'
p137
aS'vbf0Mf05ph0'
p138
aS'vbf0M'
p139
aS'vbf0P'
p140
aS'wh0Mf05ph0'
p141
aS'wh0M'
p142
aS'wh0P'
p143
aS'zh0Mf05ph0'
p144
aS'zh0M'
p145
aS'zh0P'
p146
aS'-'
p147
ag147
aS'AC_Bin21_2016postVFP'
p148
aS'AC_Bin21_2016postVFP'
p149
aS'AC_Bin21_2016postVFP'
p150
aS'AC_Bin21_2016postVFP'
p151
aS'AC_Bin21_2016postVFP'
p152
aS'AC_Bin21_2016postVFP'
p153
aS'AC_Bin21_2016postVFP'
p154
aS'AC_Bin21_2016postVFP'
p155
aS'AC_Bin21_2016postVFP'
p156
aS'AC_Bin21_2016postVFP'
p157
aS'AC_Bin21_2016postVFP'
p158
aS'AC_Bin21_2016postVFP'
p159
aS'AC_Bin21_2016postVFP'
p160
aS'AC_Bin21_2016postVFP'
p161
ag161
aS'Trees/Opt_2016postVFP/2016PostVFP/Trees2WS_2016postVFP/WS/output_GluGluHToGGPlusTwoJets_MM_M125_TuneCP5_13TeV-amcatnlopowheg-minlo-pythia8_GG2HMf05ph0.root'
p162
aS'Trees/Opt_2016postVFP/2016PostVFP/Trees2WS_2016postVFP/WS/output_GluGluHToGGPlusTwoJets_CPodd_M125_TuneCP5_13TeV-amcatnlopowheg-minlo-pythia8_GG2HbsmM.root'
p163
aS'Trees/Opt_2016postVFP/2016PostVFP/Trees2WS_2016postVFP/WS/output_GluGluHToGGPlusTwoJets_SM_M125_TuneCP5_13TeV-amcatnlopowheg-minlo-pythia8_GG2Hsm.root'
p164
aS'Trees/Opt_2016postVFP/2016PostVFP/Trees2WS_2016postVFP/WS/output_ttHJetToGG_M125_TuneCP5_13TeV-amcatnloFXFX-madspin-pythia8_TTHsm.root'
p165
aS'Trees/Opt_2016postVFP/2016PostVFP/Trees2WS_2016postVFP/WS/output_VBFHiggs0Mf05ph0ToGG_M125_TuneCP5_13TeV-JHUGenV7011-pythia8_VBFMf05ph0.root'
p166
aS'Trees/Opt_2016postVFP/2016PostVFP/Trees2WS_2016postVFP/WS/output_VBFHiggs0MToGG_M125_TuneCP5_13TeV-JHUGenV7011-pythia8_VBFbsmM.root'
p167
aS'Trees/Opt_2016postVFP/2016PostVFP/Trees2WS_2016postVFP/WS/output_VBFHToGG_M125_TuneCP5_13TeV-amcatnlo-pythia8_VBFsm.root'
p168
aS'Trees/Opt_2016postVFP/2016PostVFP/Trees2WS_2016postVFP/WS/output_WHiggs0Mf05ph0ToGG_M125_TuneCP5_13TeV-JHUGenV7011-pythia8_WHMf05ph0.root'
p169
aS'Trees/Opt_2016postVFP/2016PostVFP/Trees2WS_2016postVFP/WS/output_WHiggs0MToGG_M125_TuneCP5_13TeV-JHUGenV7011-pythia8_WHbsmM.root'
p170
aS'Trees/Opt_2016postVFP/2016PostVFP/Trees2WS_2016postVFP/WS/output_WHiggs0PMToGG_M125_TuneCP5_13TeV-JHUGenV7011-pythia8_WHsm.root'
p171
aS'Trees/Opt_2016postVFP/2016PostVFP/Trees2WS_2016postVFP/WS/output_ZHiggs0Mf05ph0ToGG_M125_TuneCP5_13TeV-JHUGenV7011-pythia8_ZHMf05ph0.root'
p172
aS'Trees/Opt_2016postVFP/2016PostVFP/Trees2WS_2016postVFP/WS/output_ZHiggs0MToGG_M125_TuneCP5_13TeV-JHUGenV7011-pythia8_ZHbsmM.root'
p173
aS'Trees/Opt_2016postVFP/2016PostVFP/Trees2WS_2016postVFP/WS/output_ZH_HToGG_ZToAll_M125_TuneCP5_13TeV-powheg-pythia8_ZHsm.root'
p174
ag147
ag147
aS'jjh0Mf05ph0_125_13TeV_AC_Bin21'
p175
aS'jjh0M_125_13TeV_AC_Bin21'
p176
aS'jjh0P_125_13TeV_AC_Bin21'
p177
aS'tth0P_125_13TeV_AC_Bin21'
p178
aS'vbf0Mf05ph0_125_13TeV_AC_Bin21'
p179
aS'vbf0M_125_13TeV_AC_Bin21'
p180
aS'vbf0P_125_13TeV_AC_Bin21'
p181
aS'wh0Mf05ph0_125_13TeV_AC_Bin21'
p182
aS'wh0M_125_13TeV_AC_Bin21'
p183
aS'wh0P_125_13TeV_AC_Bin21'
p184
aS'zh0Mf05ph0_125_13TeV_AC_Bin21'
p185
aS'zh0M_125_13TeV_AC_Bin21'
p186
aS'zh0P_125_13TeV_AC_Bin21'
p187
ag147
ag147
aS'./Models/signal/CMS-HGG_sigfit_packaged_AC_Bin21_2016postVFP.root'
p188
aS'./Models/signal/CMS-HGG_sigfit_packaged_AC_Bin21_2016postVFP.root'
p189
aS'./Models/signal/CMS-HGG_sigfit_packaged_AC_Bin21_2016postVFP.root'
p190
aS'./Models/signal/CMS-HGG_sigfit_packaged_AC_Bin21_2016postVFP.root'
p191
aS'./Models/signal/CMS-HGG_sigfit_packaged_AC_Bin21_2016postVFP.root'
p192
aS'./Models/signal/CMS-HGG_sigfit_packaged_AC_Bin21_2016postVFP.root'
p193
aS'./Models/signal/CMS-HGG_sigfit_packaged_AC_Bin21_2016postVFP.root'
p194
aS'./Models/signal/CMS-HGG_sigfit_packaged_AC_Bin21_2016postVFP.root'
p195
aS'./Models/signal/CMS-HGG_sigfit_packaged_AC_Bin21_2016postVFP.root'
p196
aS'./Models/signal/CMS-HGG_sigfit_packaged_AC_Bin21_2016postVFP.root'
p197
aS'./Models/signal/CMS-HGG_sigfit_packaged_AC_Bin21_2016postVFP.root'
p198
aS'./Models/signal/CMS-HGG_sigfit_packaged_AC_Bin21_2016postVFP.root'
p199
aS'./Models/signal/CMS-HGG_sigfit_packaged_AC_Bin21_2016postVFP.root'
p200
aS'./Models/background/CMS-HGG_multipdf_AC_Bin21_2016postVFP.root'
p201
ag201
aS'wsig_13TeV:hggpdfsmrel_GG2HMf05ph0_2016postVFP_AC_Bin21_13TeV'
p202
aS'wsig_13TeV:hggpdfsmrel_GG2HbsmM_2016postVFP_AC_Bin21_13TeV'
p203
aS'wsig_13TeV:hggpdfsmrel_GG2Hsm_2016postVFP_AC_Bin21_13TeV'
p204
aS'wsig_13TeV:hggpdfsmrel_TTHsm_2016postVFP_AC_Bin21_13TeV'
p205
aS'wsig_13TeV:hggpdfsmrel_VBFMf05ph0_2016postVFP_AC_Bin21_13TeV'
p206
aS'wsig_13TeV:hggpdfsmrel_VBFbsmM_2016postVFP_AC_Bin21_13TeV'
p207
aS'wsig_13TeV:hggpdfsmrel_VBFsm_2016postVFP_AC_Bin21_13TeV'
p208
aS'wsig_13TeV:hggpdfsmrel_WHMf05ph0_2016postVFP_AC_Bin21_13TeV'
p209
aS'wsig_13TeV:hggpdfsmrel_WHbsmM_2016postVFP_AC_Bin21_13TeV'
p210
aS'wsig_13TeV:hggpdfsmrel_WHsm_2016postVFP_AC_Bin21_13TeV'
p211
aS'wsig_13TeV:hggpdfsmrel_ZHMf05ph0_2016postVFP_AC_Bin21_13TeV'
p212
aS'wsig_13TeV:hggpdfsmrel_ZHbsmM_2016postVFP_AC_Bin21_13TeV'
p213
aS'wsig_13TeV:hggpdfsmrel_ZHsm_2016postVFP_AC_Bin21_13TeV'
p214
aS'multipdf:CMS_hgg_AC_Bin21_2016postVFP_13TeV_bkgshape'
p215
aS'multipdf:roohist_data_mass_AC_Bin21'
p216
aF0.1086909911841758
aF0.10640438106668171
aF0.07897565440021026
aF0.003038723090867279
aF0.037405272695423264
aF0.026035320968389897
aF0.04395551131199227
aF0.00024539948026358616
aF0.001070288174560119
aF0.0023987050775531316
aF0.001711513508439566
aF0.0011389458245503192
aF0.004044879308480631
ag147
ag147
aF2.4957798486877565e-06
aF2.407565836919797e-06
aF1.7795759464053572e-06
aF9.76797046656184e-07
aF5.857419252266746e-07
aF3.006188905826547e-07
aF2.349217064689907e-06
aF4.513725359095735e-09
aF1.1529208476436472e-08
aF2.5645037116661792e-08
aF1.1451773765923689e-08
aF7.670065847335112e-09
aF6.867740049370113e-08
ag147
ag147
aF0.11156775778958547
aF0.10917037853859776
aF0.0810320659607298
aF0.003098011976617032
aF0.03829843011426793
aF0.02666755971905492
aF0.045016706831516214
aF0.0002503901232409943
aF0.001093701413641142
aF0.0024464569918128997
aF0.001748002262839448
aF0.0011636621330310115
aF0.004131963212255993
ag147
ag147
aF0.10944416550508765
aF0.10713740194334387
aF0.07952175999073845
aF0.0030617768982564427
aF0.03766023313849029
aF0.02621177545960458
aF0.04425743889678002
aF0.0002470402056819241
aF0.0010776249268065702
aF0.002414595530832614
aF0.0017231548680515176
aF0.0011466652395782425
aF0.004072675794154001
ag147
ag147
aF0.10794043378990438
aF0.10567389341925303
aF0.07843144390061468
aF0.003015755894981823
aF0.037151184040618075
aF0.025859465375071247
aF0.0436546252056706
aF0.00024376428226036
aF0.001062976586172303
aF0.0023828680501820332
aF0.0016999121066486745
aF0.0011312527831162107
aF0.00401717915937116
ag147
ag147
aF0.11005386639513202
aF0.10776116817159939
aF0.08000342424314734
aF0.0030739331740086565
aF0.03787483690601624
aF0.026352688510931383
aF0.04449860755461804
aF0.00024955237477419394
aF0.001081691753217384
aF0.0024272250708421528
aF0.0017342541503910488
aF0.001151765189685679
aF0.004095741332001805
ag147
ag147
aF0.10733644963069681
aF0.10505605222484231
aF0.07795418493305578
aF0.003003794873363438
aF0.036938501901761296
aF0.0257198006968812
aF0.043415541727242865
aF0.00024126898592942084
aF0.001058937936614417
aF0.0023703652899815524
aF0.0016889254292491698
aF0.0011261931468769962
aF0.003994290685711573
ag147
ag147
aF0.10889172102687876
aF0.10660699421421292
aF0.07912608085984917
aF0.003042562732721936
aF0.03747804054294345
aF0.026086220141559518
aF0.04404002038957876
aF0.0002459668002550002
aF0.0010724176461730578
aF0.0024034778703042625
aF0.0017149474348901945
aF0.0011412405650612072
aF0.004052465288305667
ag147
ag147
aF0.10849044664084316
aF0.10620196680020132
aF0.07882537213982586
aF0.0030348846460819512
aF0.03733257567147377
aF0.025984470144323996
aF0.0438710901705082
aF0.00024483275762361906
aF0.0010681607675662695
aF0.0023939372596634453
aF0.0017080833511760412
aF0.0011366540457711544
aF0.004037301165052652
ag147
ag147
aF0.10893316680682207
aF0.10664715271446257
aF0.07915375167277568
aF0.0030453968074047625
aF0.037490415292311015
aF0.026092333871300617
aF0.044054789352078245
aF0.0002459088092594766
aF0.001072567934426686
aF0.0024037863475331947
aF0.001715207727835762
aF0.0011414246328749103
aF0.004053362427373094
ag147
ag147
aF0.10844908564060914
aF0.10616188728725463
aF0.07879775745632651
aF0.003032056696317655
aF0.037320226227625
aF0.02597837033853907
aF0.043856342837806
aF0.00024489068091914355
aF0.0010680108590147889
aF0.0023936291982605603
aF0.001707823272473537
aF0.0011364697387122478
aF0.004036405131115927
ag147
ag147
aF0.10790126701454028
aF0.10594186360651747
aF0.07831098623478283
aF0.0032722109062888194
aF0.03756354674294471
aF0.02635101830185249
aF0.0319996444335402
aF0.002276504627388931
aF0.001927280199879533
aF0.002365200070357787
aF0.001705123637179895
aF0.0010978482482641994
aF0.0040208845990719055
ag147
ag147
aF0.10911203916884915
aF0.10682042415953674
aF0.07958639651997146
aF0.0027836944173031952
aF0.0372004975370146
aF0.025720160791365743
aF0.04214271564637784
aF0.002296696593930392
aF0.0018738011619916506
aF0.002444251501742656
aF0.0017109791723441958
aF0.0011246208940747238
aF0.003929450239297694
ag147
ag147
aF0.11115526613275506
aF0.10943584957283292
aF0.08046470507792947
aF0.002820491630700417
aF0.03785796278577891
aF0.026323061582957052
aF0.03246799167800418
aF0.0022968569705881237
aF0.001948858302739609
aF0.0024541244299598475
aF0.001723828580566078
aF0.001149030366605075
aF0.0041470330094171
ag147
ag147
aF0.10630299521562847
aF0.10407234353090189
aF0.07739756371324802
aF0.0029464806502801366
aF0.03677184386151566
aF0.025725083263068882
aF0.04307018821464226
aF0.0022878594422763854
aF0.001854866229905383
aF0.002271503791575924
aF0.001668967158252599
aF0.001106485014588543
aF0.0039005511722507435
ag147
ag147
aF0.10988264965590133
aF0.10769960781874488
aF0.07999181786112786
aF0.003038723090867279
aF0.03768551529333308
aF0.026065943802336733
aF0.03179824229505357
aF0.0023433839319295657
aF0.0019167875259427092
aF0.0024435168210175107
aF0.0017665366914343394
aF0.0011491748100525
aF0.00408065717658701
ag147
ag147
aF0.10752774703405521
aF0.10524160070337985
aF0.07805123699858996
aF0.003038723090867279
aF0.03718996724160206
aF0.026017148472533336
aF0.03143434546177559
aF0.002229641878784605
aF0.0018383849962901877
aF0.002342039735481194
aF0.0016809258664807203
aF0.0011389458245503192
aF0.0040298761097119495
ag147
ag147
aF0.11610432943439264
aF0.11249674244788821
aF0.08475914103701143
aF0.002606792902952293
aF0.03812132844507232
aF0.02601385326261152
aF0.03315186106783585
aF0.0024362267854485253
aF0.0020064978009486367
aF0.0026428679288983403
aF0.0018104980966882067
aF0.0011565184402115847
aF0.004135558504685832
ag147
ag147
aF0.10305231566144357
aF0.1006826322135339
aF0.0745438272501815
aF0.0028507299539342057
aF0.03658135077273528
aF0.02593085424905439
aF0.03132446734787209
aF0.0021253477791560726
aF0.001691497568572231
aF0.002127472393340213
aF0.001623146288920907
aF0.001017906530705659
aF0.003821570221703041
ag147
ag147
aF0.11002420157637971
aF0.10658428839576572
aF0.08013874516223041
aF0.0029247660386317875
aF0.037355644447416125
aF0.02580863595289884
aF0.03165684791849799
aF0.0023241439644152706
aF0.00191394485955243
aF0.0024282846605956365
aF0.0017685001076870321
aF0.0011278998424586462
aF0.004105659579749954
ag147
ag147
aF0.107858076371258
aF0.10585992679887113
aF0.07847504116807613
aF0.003112431088084122
aF0.03759512672093024
aF0.026126623971435947
aF0.043647747527870706
aF0.0021749507436652493
aF0.001777218311190154
aF0.0023106956185756644
aF0.0016696655119403658
aF0.0011091191877312667
aF0.003951199595235266
ag147
ag147
aF0.1086909911841758
aF0.10640438106668171
aF0.07897565440021026
aF0.003038723090867279
aF0.037405272695423264
aF0.026035320968389897
aF0.04395551131199227
aF0.00024539948026358616
aF0.001070288174560119
aF0.0023987050775531316
aF0.001711513508439566
aF0.0011389458245503192
aF0.004044879308480631
ag147
ag147
aF0.1086909911841758
aF0.10640438106668171
aF0.07897565440021026
aF0.003038723090867279
aF0.037405272695423264
aF0.026035320968389897
aF0.04395551131199227
aF0.00024539948026358616
aF0.001070288174560119
aF0.0023987050775531316
aF0.001711513508439566
aF0.0011389458245503192
aF0.004044879308480631
ag147
ag147
atp217
ba(lp218
g15
(g16
(dp219
g18
g19
(g20
(I0
tp220
g22
tp221
Rp222
(I1
(I1
tp223
g29
I00
(lp224
g43
atp225
bsg68
Nstp226
Rp227
ag15
(g16
(dp228
g18
g19
(g20
(I0
tp229
g22
tp230
Rp231
(I1
(I33
tp232
g29
I00
(lp233
g33
ag34
ag35
ag36
ag37
ag38
ag39
ag40
ag41
ag42
ag44
ag45
ag46
ag47
ag48
ag49
ag50
ag51
ag52
ag53
ag54
ag55
ag56
ag57
ag58
ag59
ag60
ag61
ag62
ag63
ag64
ag65
ag66
atp234
bsg68
Nstp235
Rp236
a(dp237
S'0.14.1'
p238
(dp239
S'axes'
p240
g14
sS'blocks'
p241
(lp242
(dp243
S'mgr_locs'
p244
c__builtin__
slice
p245
(I10
I11
I1
tp246
Rp247
sS'values'
p248
g89
sa(dp249
g244
g19
(g20
(I0
tp250
g22
tp251
Rp252
(I1
(I33
tp253
g79
I00
S'\x00\x00\x00\x00\x00\x00\x00\x00\x01\x00\x00\x00\x00\x00\x00\x00\x02\x00\x00\x00\x00\x00\x00\x00\x03\x00\x00\x00\x00\x00\x00\x00\x04\x00\x00\x00\x00\x00\x00\x00\x05\x00\x00\x00\x00\x00\x00\x00\x06\x00\x00\x00\x00\x00\x00\x00\x07\x00\x00\x00\x00\x00\x00\x00\x08\x00\x00\x00\x00\x00\x00\x00\t\x00\x00\x00\x00\x00\x00\x00\x0b\x00\x00\x00\x00\x00\x00\x00\x0c\x00\x00\x00\x00\x00\x00\x00\r\x00\x00\x00\x00\x00\x00\x00\x0e\x00\x00\x00\x00\x00\x00\x00\x0f\x00\x00\x00\x00\x00\x00\x00\x10\x00\x00\x00\x00\x00\x00\x00\x11\x00\x00\x00\x00\x00\x00\x00\x12\x00\x00\x00\x00\x00\x00\x00\x13\x00\x00\x00\x00\x00\x00\x00\x14\x00\x00\x00\x00\x00\x00\x00\x15\x00\x00\x00\x00\x00\x00\x00\x16\x00\x00\x00\x00\x00\x00\x00\x17\x00\x00\x00\x00\x00\x00\x00\x18\x00\x00\x00\x00\x00\x00\x00\x19\x00\x00\x00\x00\x00\x00\x00\x1a\x00\x00\x00\x00\x00\x00\x00\x1b\x00\x00\x00\x00\x00\x00\x00\x1c\x00\x00\x00\x00\x00\x00\x00\x1d\x00\x00\x00\x00\x00\x00\x00\x1e\x00\x00\x00\x00\x00\x00\x00\x1f\x00\x00\x00\x00\x00\x00\x00 \x00\x00\x00\x00\x00\x00\x00!\x00\x00\x00\x00\x00\x00\x00'
p254
tp255
bsg248
g100
sasstp256
bsb.