ccopy_reg
_reconstructor
p0
(cpandas.core.frame
DataFrame
p1
c__builtin__
object
p2
Ntp3
Rp4
(dp5
S'_metadata'
p6
(lp7
sS'_typ'
p8
S'dataframe'
p9
sS'_data'
p10
g0
(cpandas.core.internals
BlockManager
p11
g2
Ntp12
Rp13
((lp14
cpandas.core.indexes.base
_new_Index
p15
(cpandas.core.indexes.base
Index
p16
(dp17
S'data'
p18
cnumpy.core.multiarray
_reconstruct
p19
(cnumpy
ndarray
p20
(I0
tp21
S'b'
p22
tp23
Rp24
(I1
(I34
tp25
cnumpy
dtype
p26
(S'O8'
p27
I0
I1
tp28
Rp29
(I3
S'|'
p30
NNNI-1
I-1
I63
tp31
bI00
(lp32
S'year'
p33
aS'type'
p34
aS'procOriginal'
p35
aS'proc'
p36
aS'proc_s0'
p37
aS'cat'
p38
aS'inputWSFile'
p39
aS'nominalDataName'
p40
aS'modelWSFile'
p41
aS'model'
p42
aS'rate'
p43
aS'nominal_yield'
p44
aS'sumw2'
p45
aS'nominal_yield_COWCorr'
p46
aS'LooseMvaSF_up_yield'
p47
aS'LooseMvaSF_down_yield'
p48
aS'PreselSF_up_yield'
p49
aS'PreselSF_down_yield'
p50
aS'electronVetoSF_up_yield'
p51
aS'electronVetoSF_down_yield'
p52
aS'TriggerWeight_up_yield'
p53
aS'TriggerWeight_down_yield'
p54
aS'SigmaEOverEShift_up_yield'
p55
aS'SigmaEOverEShift_down_yield'
p56
aS'MvaShift_up_yield'
p57
aS'MvaShift_down_yield'
p58
aS'PUJIDShift_up_yield'
p59
aS'PUJIDShift_down_yield'
p60
aS'JEC_up_yield'
p61
aS'JEC_down_yield'
p62
aS'JER_up_yield'
p63
aS'JER_down_yield'
p64
aS'JetHEM_up_yield'
p65
aS'JetHEM_down_yield'
p66
atp67
bsS'name'
p68
Nstp69
Rp70
ag15
(cpandas.core.indexes.numeric
Int64Index
p71
(dp72
g18
g19
(g20
(I0
tp73
g22
tp74
Rp75
(I1
(I15
tp76
g26
(S'i8'
p77
I0
I1
tp78
Rp79
(I3
S'<'
p80
NNNI-1
I-1
I0
tp81
bI00
S'\x00\x00\x00\x00\x00\x00\x00\x00\x01\x00\x00\x00\x00\x00\x00\x00\x02\x00\x00\x00\x00\x00\x00\x00\x03\x00\x00\x00\x00\x00\x00\x00\x04\x00\x00\x00\x00\x00\x00\x00\x05\x00\x00\x00\x00\x00\x00\x00\x06\x00\x00\x00\x00\x00\x00\x00\x07\x00\x00\x00\x00\x00\x00\x00\x08\x00\x00\x00\x00\x00\x00\x00\t\x00\x00\x00\x00\x00\x00\x00\n\x00\x00\x00\x00\x00\x00\x00\x0b\x00\x00\x00\x00\x00\x00\x00\x0c\x00\x00\x00\x00\x00\x00\x00\r\x00\x00\x00\x00\x00\x00\x00\x0e\x00\x00\x00\x00\x00\x00\x00'
p82
tp83
bsg68
Nstp84
Rp85
a(lp86
g19
(g20
(I0
tp87
g22
tp88
Rp89
(I1
(I1
I15
tp90
g26
(S'f8'
p91
I0
I1
tp92
Rp93
(I3
S'<'
p94
NNNI-1
I-1
I0
tp95
bI00
S'\x00\x00\x00\x00\x80j\xd0@\x00\x00\x00\x00\x80j\xd0@\x00\x00\x00\x00\x80j\xd0@\x00\x00\x00\x00\x80j\xd0@\x00\x00\x00\x00\x80j\xd0@\x00\x00\x00\x00\x80j\xd0@\x00\x00\x00\x00\x80j\xd0@\x00\x00\x00\x00\x80j\xd0@\x00\x00\x00\x00\x80j\xd0@\x00\x00\x00\x00\x80j\xd0@\x00\x00\x00\x00\x80j\xd0@\x00\x00\x00\x00\x80j\xd0@\x00\x00\x00\x00\x80j\xd0@\x00\x00\x00\x00\x00\x00\xf0?\x00\x00\x00\x00\x00\x00\xf0\xbf'
p96
tp97
bag19
(g20
(I0
tp98
g22
tp99
Rp100
(I1
(I33
I15
tp101
g29
I00
(lp102
S'2016postVFP'
p103
ag103
ag103
ag103
ag103
ag103
ag103
ag103
ag103
ag103
ag103
ag103
ag103
ag33
ag33
aS'sig'
p104
ag104
ag104
ag104
ag104
ag104
ag104
ag104
ag104
ag104
ag104
ag104
ag104
aS'bkg'
p105
ag18
aS'GG2HMf05ph0'
p106
aS'GG2HbsmM'
p107
aS'GG2Hsm'
p108
aS'TTHsm'
p109
aS'VBFMf05ph0'
p110
aS'VBFbsmM'
p111
aS'VBFsm'
p112
aS'WHMf05ph0'
p113
aS'WHbsmM'
p114
aS'WHsm'
p115
aS'ZHMf05ph0'
p116
aS'ZHbsmM'
p117
aS'ZHsm'
p118
aS'bkg_mass'
p119
aS'data_obs'
p120
aS'GG2HMf05ph0_2016postVFP_hgg'
p121
aS'GG2HbsmM_2016postVFP_hgg'
p122
aS'GG2Hsm_2016postVFP_hgg'
p123
aS'tth0P_2016postVFP_hgg'
p124
aS'vbf0Mf05ph0_2016postVFP_hgg'
p125
aS'vbf0M_2016postVFP_hgg'
p126
aS'vbf0P_2016postVFP_hgg'
p127
aS'wh0Mf05ph0_2016postVFP_hgg'
p128
aS'wh0M_2016postVFP_hgg'
p129
aS'wh0P_2016postVFP_hgg'
p130
aS'zh0Mf05ph0_2016postVFP_hgg'
p131
aS'zh0M_2016postVFP_hgg'
p132
aS'zh0P_2016postVFP_hgg'
p133
ag119
ag120
aS'jjh0Mf05ph0'
p134
aS'jjh0M'
p135
aS'jjh0P'
p136
aS'tth0P'
p137
aS'vbf0Mf05ph0'
p138
aS'vbf0M'
p139
aS'vbf0P'
p140
aS'wh0Mf05ph0'
p141
aS'wh0M'
p142
aS'wh0P'
p143
aS'zh0Mf05ph0'
p144
aS'zh0M'
p145
aS'zh0P'
p146
aS'-'
p147
ag147
aS'AC_Bin3_2016postVFP'
p148
aS'AC_Bin3_2016postVFP'
p149
aS'AC_Bin3_2016postVFP'
p150
aS'AC_Bin3_2016postVFP'
p151
aS'AC_Bin3_2016postVFP'
p152
aS'AC_Bin3_2016postVFP'
p153
aS'AC_Bin3_2016postVFP'
p154
aS'AC_Bin3_2016postVFP'
p155
aS'AC_Bin3_2016postVFP'
p156
aS'AC_Bin3_2016postVFP'
p157
aS'AC_Bin3_2016postVFP'
p158
aS'AC_Bin3_2016postVFP'
p159
aS'AC_Bin3_2016postVFP'
p160
aS'AC_Bin3_2016postVFP'
p161
ag161
aS'Trees/Opt_2016postVFP/2016PostVFP/Trees2WS_2016postVFP/WS/output_GluGluHToGGPlusTwoJets_MM_M125_TuneCP5_13TeV-amcatnlopowheg-minlo-pythia8_GG2HMf05ph0.root'
p162
aS'Trees/Opt_2016postVFP/2016PostVFP/Trees2WS_2016postVFP/WS/output_GluGluHToGGPlusTwoJets_CPodd_M125_TuneCP5_13TeV-amcatnlopowheg-minlo-pythia8_GG2HbsmM.root'
p163
aS'Trees/Opt_2016postVFP/2016PostVFP/Trees2WS_2016postVFP/WS/output_GluGluHToGGPlusTwoJets_SM_M125_TuneCP5_13TeV-amcatnlopowheg-minlo-pythia8_GG2Hsm.root'
p164
aS'Trees/Opt_2016postVFP/2016PostVFP/Trees2WS_2016postVFP/WS/output_ttHJetToGG_M125_TuneCP5_13TeV-amcatnloFXFX-madspin-pythia8_TTHsm.root'
p165
aS'Trees/Opt_2016postVFP/2016PostVFP/Trees2WS_2016postVFP/WS/output_VBFHiggs0Mf05ph0ToGG_M125_TuneCP5_13TeV-JHUGenV7011-pythia8_VBFMf05ph0.root'
p166
aS'Trees/Opt_2016postVFP/2016PostVFP/Trees2WS_2016postVFP/WS/output_VBFHiggs0MToGG_M125_TuneCP5_13TeV-JHUGenV7011-pythia8_VBFbsmM.root'
p167
aS'Trees/Opt_2016postVFP/2016PostVFP/Trees2WS_2016postVFP/WS/output_VBFHToGG_M125_TuneCP5_13TeV-amcatnlo-pythia8_VBFsm.root'
p168
aS'Trees/Opt_2016postVFP/2016PostVFP/Trees2WS_2016postVFP/WS/output_WHiggs0Mf05ph0ToGG_M125_TuneCP5_13TeV-JHUGenV7011-pythia8_WHMf05ph0.root'
p169
aS'Trees/Opt_2016postVFP/2016PostVFP/Trees2WS_2016postVFP/WS/output_WHiggs0MToGG_M125_TuneCP5_13TeV-JHUGenV7011-pythia8_WHbsmM.root'
p170
aS'Trees/Opt_2016postVFP/2016PostVFP/Trees2WS_2016postVFP/WS/output_WHiggs0PMToGG_M125_TuneCP5_13TeV-JHUGenV7011-pythia8_WHsm.root'
p171
aS'Trees/Opt_2016postVFP/2016PostVFP/Trees2WS_2016postVFP/WS/output_ZHiggs0Mf05ph0ToGG_M125_TuneCP5_13TeV-JHUGenV7011-pythia8_ZHMf05ph0.root'
p172
aS'Trees/Opt_2016postVFP/2016PostVFP/Trees2WS_2016postVFP/WS/output_ZHiggs0MToGG_M125_TuneCP5_13TeV-JHUGenV7011-pythia8_ZHbsmM.root'
p173
aS'Trees/Opt_2016postVFP/2016PostVFP/Trees2WS_2016postVFP/WS/output_ZH_HToGG_ZToAll_M125_TuneCP5_13TeV-powheg-pythia8_ZHsm.root'
p174
ag147
ag147
aS'jjh0Mf05ph0_125_13TeV_AC_Bin3'
p175
aS'jjh0M_125_13TeV_AC_Bin3'
p176
aS'jjh0P_125_13TeV_AC_Bin3'
p177
aS'tth0P_125_13TeV_AC_Bin3'
p178
aS'vbf0Mf05ph0_125_13TeV_AC_Bin3'
p179
aS'vbf0M_125_13TeV_AC_Bin3'
p180
aS'vbf0P_125_13TeV_AC_Bin3'
p181
aS'wh0Mf05ph0_125_13TeV_AC_Bin3'
p182
aS'wh0M_125_13TeV_AC_Bin3'
p183
aS'wh0P_125_13TeV_AC_Bin3'
p184
aS'zh0Mf05ph0_125_13TeV_AC_Bin3'
p185
aS'zh0M_125_13TeV_AC_Bin3'
p186
aS'zh0P_125_13TeV_AC_Bin3'
p187
ag147
ag147
aS'./Models/signal/CMS-HGG_sigfit_packaged_AC_Bin3_2016postVFP.root'
p188
aS'./Models/signal/CMS-HGG_sigfit_packaged_AC_Bin3_2016postVFP.root'
p189
aS'./Models/signal/CMS-HGG_sigfit_packaged_AC_Bin3_2016postVFP.root'
p190
aS'./Models/signal/CMS-HGG_sigfit_packaged_AC_Bin3_2016postVFP.root'
p191
aS'./Models/signal/CMS-HGG_sigfit_packaged_AC_Bin3_2016postVFP.root'
p192
aS'./Models/signal/CMS-HGG_sigfit_packaged_AC_Bin3_2016postVFP.root'
p193
aS'./Models/signal/CMS-HGG_sigfit_packaged_AC_Bin3_2016postVFP.root'
p194
aS'./Models/signal/CMS-HGG_sigfit_packaged_AC_Bin3_2016postVFP.root'
p195
aS'./Models/signal/CMS-HGG_sigfit_packaged_AC_Bin3_2016postVFP.root'
p196
aS'./Models/signal/CMS-HGG_sigfit_packaged_AC_Bin3_2016postVFP.root'
p197
aS'./Models/signal/CMS-HGG_sigfit_packaged_AC_Bin3_2016postVFP.root'
p198
aS'./Models/signal/CMS-HGG_sigfit_packaged_AC_Bin3_2016postVFP.root'
p199
aS'./Models/signal/CMS-HGG_sigfit_packaged_AC_Bin3_2016postVFP.root'
p200
aS'./Models/background/CMS-HGG_multipdf_AC_Bin3_2016postVFP.root'
p201
ag201
aS'wsig_13TeV:hggpdfsmrel_GG2HMf05ph0_2016postVFP_AC_Bin3_13TeV'
p202
aS'wsig_13TeV:hggpdfsmrel_GG2HbsmM_2016postVFP_AC_Bin3_13TeV'
p203
aS'wsig_13TeV:hggpdfsmrel_GG2Hsm_2016postVFP_AC_Bin3_13TeV'
p204
aS'wsig_13TeV:hggpdfsmrel_TTHsm_2016postVFP_AC_Bin3_13TeV'
p205
aS'wsig_13TeV:hggpdfsmrel_VBFMf05ph0_2016postVFP_AC_Bin3_13TeV'
p206
aS'wsig_13TeV:hggpdfsmrel_VBFbsmM_2016postVFP_AC_Bin3_13TeV'
p207
aS'wsig_13TeV:hggpdfsmrel_VBFsm_2016postVFP_AC_Bin3_13TeV'
p208
aS'wsig_13TeV:hggpdfsmrel_WHMf05ph0_2016postVFP_AC_Bin3_13TeV'
p209
aS'wsig_13TeV:hggpdfsmrel_WHbsmM_2016postVFP_AC_Bin3_13TeV'
p210
aS'wsig_13TeV:hggpdfsmrel_WHsm_2016postVFP_AC_Bin3_13TeV'
p211
aS'wsig_13TeV:hggpdfsmrel_ZHMf05ph0_2016postVFP_AC_Bin3_13TeV'
p212
aS'wsig_13TeV:hggpdfsmrel_ZHbsmM_2016postVFP_AC_Bin3_13TeV'
p213
aS'wsig_13TeV:hggpdfsmrel_ZHsm_2016postVFP_AC_Bin3_13TeV'
p214
aS'multipdf:CMS_hgg_AC_Bin3_2016postVFP_13TeV_bkgshape'
p215
aS'multipdf:roohist_data_mass_AC_Bin3'
p216
aF0.021559772043246994
aF0.02122624376602289
aF0.02404136863219719
aF0.0005767751827079337
aF0.0026576400819067203
aF0.0007515856573263591
aF0.0068147090378261055
aF4.400685429573059e-05
aF0.00013945869500275876
aF0.0006317472885939424
aF0.0004668199249522331
aF0.00015720425631116086
aF0.0008581907068219152
ag147
ag147
aF5.276570779989139e-07
aF5.287749057624198e-07
aF5.643308298544543e-07
aF1.3803258351686408e-07
aF3.961284656012504e-08
aF1.007657246132967e-08
aF3.846601115170124e-07
aF6.569273162074945e-10
aF1.505303971359188e-09
aF6.4886831611230995e-09
aF3.015628804131578e-09
aF1.0910661718023262e-09
aF1.4821634583753489e-08
ag147
ag147
aF0.02210287879631922
aF0.021885649429553893
aF0.024899527177679986
aF0.000587903157643177
aF0.0027548777355479175
aF0.0007778184440934634
aF0.007021569260467263
aF4.498846764527332e-05
aF0.0001423167121614457
aF0.0006551113221837205
aF0.00047666068078639086
aF0.0001604229941468772
aF0.0008891019629887416
ag147
ag147
aF0.021705646005789243
aF0.02136889023353401
aF0.024203646697922587
aF0.0005798286101770611
aF0.0026752963606797037
aF0.0007562946592618151
aF0.006859190705380508
aF4.4277141144247084e-05
aF0.00014031490385495163
aF0.0006358437482091453
aF0.0004698306196193496
aF0.000158234871840064
aF0.0008637582033840486
ag147
ag147
aF0.021414392790794774
aF0.021084078542982367
aF0.023879638941950554
aF0.0005737293980193943
aF0.0026400419692103774
aF0.0007468915755324916
aF0.006770372468258448
aF4.373741925207119e-05
aF0.0001386050499408803
aF0.0006276641440351713
aF0.0004638189893906255
aF0.00015617705257600382
aF0.0008526412095508437
ag147
ag147
aF0.021864957943952254
aF0.02153895398227348
aF0.024402548145536395
aF0.0005966726270365419
aF0.0027000180693025253
aF0.00076321777935305
aF0.006920525752251382
aF4.500433860963044e-05
aF0.00014206319116703302
aF0.000640854445767742
aF0.00047386040078751433
aF0.00016011088624586815
aF0.0008708014269577532
ag147
ag147
aF0.02125665847757181
aF0.020915745202671858
aF0.023682654921949795
aF0.0005572150347320115
aF0.002615537842930655
aF0.0007400242691591737
aF0.0067097506568533655
aF4.3015857532531916e-05
aF0.00013688320018039423
aF0.0006226901541205783
aF0.0004598336160889904
aF0.0001543223645269404
aF0.0008456399491432733
ag147
ag147
aF0.02160457475060226
aF0.02127206227083298
aF0.024094067773655817
aF0.0005790555909352782
aF0.002664103927978707
aF0.0007534405515316069
aF0.006831459575480916
aF4.4129033259002564e-05
aF0.00013986288704245542
aF0.0006333360556434864
aF0.00046801863139267746
aF0.00015760682045045057
aF0.0008601251573633617
ag147
ag147
aF0.021515015630918812
aF0.021180475108721654
aF0.02398872555465172
aF0.0005744986087734517
aF0.002651182971769661
aF0.0007497331281647323
aF0.006797979903333344
aF4.3884804809428236e-05
aF0.00013905498044076254
aF0.0006301603893354617
aF0.0004656227151387719
aF0.00015680216880174485
aF0.0008562579852881082
ag147
ag147
aF0.021609137256804127
aF0.02127483675344559
aF0.024097478410541363
aF0.0005779610404449542
aF0.0026642781426914268
aF0.0007535030888768996
aF0.006831177018374963
aF4.4097830976019015e-05
aF0.00013975928761383438
aF0.0006333440220466186
aF0.00046780526584003034
aF0.00015753452484145936
aF0.000860707956099841
ag147
ag147
aF0.021510463595978947
aF0.021177706228319243
aF0.023985326566509733
aF0.0005755905251662522
aF0.002651010065979967
aF0.0007496705587949935
aF0.006798260562639301
aF4.3915972529154514e-05
aF0.00013915842671146918
aF0.0006301525047992175
aF0.00046583563607459567
aF0.000156874337975719
aF0.0008556768072073325
ag147
ag147
aF0.022283213867467566
aF0.02203955441450489
aF0.024837255070906394
aF0.0007224645923997741
aF0.002824052599407878
aF0.0007707929139542102
aF0.005414777096916623
aF0.0008141911755501496
aF0.00032872389488147746
aF0.0006698710691352971
aF0.0004786267073200179
aF0.0001623010605271702
aF0.0008953544131600211
ag147
ag147
aF0.020840502714008835
aF0.02049263783032984
aF0.022861714186774407
aF0.0005033993693359662
aF0.002521484816497832
aF0.0007077112500155636
aF0.004561443534157661
aF0.0006867515401154378
aF0.00029413933202704357
aF0.0005939705935134043
aF0.00045761758980233935
aF0.00015281831861102546
aF0.0008308376527565997
ag147
ag147
aF0.02145073661972674
aF0.021157880650889638
aF0.02399602550713098
aF0.000977632327703759
aF0.0027161484845237283
aF0.0006775187773655489
aF0.004886020542357983
aF0.0006535148938837665
aF0.0003103996264144371
aF0.0006659841498048991
aF0.0004769759023588449
aF0.0001372764802454185
aF0.000811512177278928
ag147
ag147
aF0.0209990161577025
aF0.02160854755879882
aF0.02414539542996863
aF0.0004064613640366588
aF0.0026118774198948813
aF0.0007690334014114342
aF0.00527831551755753
aF0.0006828194034369517
aF0.0002758835428267048
aF0.0006309964197726003
aF0.0004457736736753759
aF0.00016312621960423712
aF0.0008006772004591767
ag147
ag147
aF0.02215658923137198
aF0.0217036764504428
aF0.02462222061308239
aF0.0005767751827079337
aF0.0027616753754955425
aF0.0007515856573263591
aF0.010852277857793524
aF0.0007050248320865649
aF0.00030662677704640373
aF0.0006443019752850887
aF0.0004668199249522331
aF0.00015720425631116086
aF0.000895896712791
ag147
ag147
aF0.021195514899545742
aF0.020774541504351873
aF0.02356763509465054
aF0.0005767751827079337
aF0.0026576400819067203
aF0.0007295716072803771
aF0.004942307322039596
aF0.0006818750678121432
aF0.000296586881404437
aF0.0006161982852290748
aF0.0004521509168284865
aF0.00015888131042629539
aF0.0008061322832872975
ag147
ag147
aF0.02274281463724037
aF0.02336095103714797
aF0.025538677874237692
aF0.0007419816938636359
aF0.0025960402366536073
aF0.0007403380632240442
aF0.004870106761586612
aF0.0006944481126538449
aF0.0003535253988502518
aF0.0007616199569611126
aF0.0004714555342957283
aF0.00016648323321533098
aF0.0009091555452869216
ag147
ag147
aF0.01992965653153078
aF0.019963726294008666
aF0.0230795143584146
aF0.0007457838182745036
aF0.00259547661698889
aF0.0006577324002137175
aF0.005093446832916015
aF0.0006864570229936362
aF0.0002507719184450252
aF0.000537408282184515
aF0.0004112504951763185
aF0.00014736014531990804
aF0.0007771292184770573
ag147
ag147
aF0.021816496466044555
aF0.021868518567544015
aF0.024311989373245524
aF0.0006465300357376691
aF0.0026499808004700753
aF0.0007603788376400189
aF0.006604665925010522
aF0.0006737442888606893
aF0.00031943345152285474
aF0.0006629913046936053
aF0.0004493112467685023
aF0.00016448640394628455
aF0.0008542556524844258
ag147
ag147
aF0.021194682492023276
aF0.02157974445231048
aF0.023994787338779133
aF0.0005767751827079337
aF0.0026607238091855834
aF0.000713634970907151
aF0.007630325166473995
aF0.0007240541215196572
aF0.0002963708482184302
aF0.0006442281124918736
aF0.0004393030227447525
aF0.00016675890469741717
aF0.0008453131604255759
ag147
ag147
aF0.021559772043246994
aF0.02122624376602289
aF0.02404136863219719
aF0.0005767751827079337
aF0.0026576400819067203
aF0.0007515856573263591
aF0.0068147090378261055
aF4.400685429573059e-05
aF0.00013945869500275876
aF0.0006317472885939424
aF0.0004668199249522331
aF0.00015720425631116086
aF0.0008581907068219152
ag147
ag147
aF0.021559772043246994
aF0.02122624376602289
aF0.02404136863219719
aF0.0005767751827079337
aF0.0026576400819067203
aF0.0007515856573263591
aF0.0068147090378261055
aF4.400685429573059e-05
aF0.00013945869500275876
aF0.0006317472885939424
aF0.0004668199249522331
aF0.00015720425631116086
aF0.0008581907068219152
ag147
ag147
atp217
ba(lp218
g15
(g16
(dp219
g18
g19
(g20
(I0
tp220
g22
tp221
Rp222
(I1
(I1
tp223
g29
I00
(lp224
g43
atp225
bsg68
Nstp226
Rp227
ag15
(g16
(dp228
g18
g19
(g20
(I0
tp229
g22
tp230
Rp231
(I1
(I33
tp232
g29
I00
(lp233
g33
ag34
ag35
ag36
ag37
ag38
ag39
ag40
ag41
ag42
ag44
ag45
ag46
ag47
ag48
ag49
ag50
ag51
ag52
ag53
ag54
ag55
ag56
ag57
ag58
ag59
ag60
ag61
ag62
ag63
ag64
ag65
ag66
atp234
bsg68
Nstp235
Rp236
a(dp237
S'0.14.1'
p238
(dp239
S'axes'
p240
g14
sS'blocks'
p241
(lp242
(dp243
S'mgr_locs'
p244
c__builtin__
slice
p245
(I10
I11
I1
tp246
Rp247
sS'values'
p248
g89
sa(dp249
g244
g19
(g20
(I0
tp250
g22
tp251
Rp252
(I1
(I33
tp253
g79
I00
S'\x00\x00\x00\x00\x00\x00\x00\x00\x01\x00\x00\x00\x00\x00\x00\x00\x02\x00\x00\x00\x00\x00\x00\x00\x03\x00\x00\x00\x00\x00\x00\x00\x04\x00\x00\x00\x00\x00\x00\x00\x05\x00\x00\x00\x00\x00\x00\x00\x06\x00\x00\x00\x00\x00\x00\x00\x07\x00\x00\x00\x00\x00\x00\x00\x08\x00\x00\x00\x00\x00\x00\x00\t\x00\x00\x00\x00\x00\x00\x00\x0b\x00\x00\x00\x00\x00\x00\x00\x0c\x00\x00\x00\x00\x00\x00\x00\r\x00\x00\x00\x00\x00\x00\x00\x0e\x00\x00\x00\x00\x00\x00\x00\x0f\x00\x00\x00\x00\x00\x00\x00\x10\x00\x00\x00\x00\x00\x00\x00\x11\x00\x00\x00\x00\x00\x00\x00\x12\x00\x00\x00\x00\x00\x00\x00\x13\x00\x00\x00\x00\x00\x00\x00\x14\x00\x00\x00\x00\x00\x00\x00\x15\x00\x00\x00\x00\x00\x00\x00\x16\x00\x00\x00\x00\x00\x00\x00\x17\x00\x00\x00\x00\x00\x00\x00\x18\x00\x00\x00\x00\x00\x00\x00\x19\x00\x00\x00\x00\x00\x00\x00\x1a\x00\x00\x00\x00\x00\x00\x00\x1b\x00\x00\x00\x00\x00\x00\x00\x1c\x00\x00\x00\x00\x00\x00\x00\x1d\x00\x00\x00\x00\x00\x00\x00\x1e\x00\x00\x00\x00\x00\x00\x00\x1f\x00\x00\x00\x00\x00\x00\x00 \x00\x00\x00\x00\x00\x00\x00!\x00\x00\x00\x00\x00\x00\x00'
p254
tp255
bsg248
g100
sasstp256
bsb.