ccopy_reg
_reconstructor
p0
(cpandas.core.frame
DataFrame
p1
c__builtin__
object
p2
Ntp3
Rp4
(dp5
S'_metadata'
p6
(lp7
sS'_typ'
p8
S'dataframe'
p9
sS'_data'
p10
g0
(cpandas.core.internals
BlockManager
p11
g2
Ntp12
Rp13
((lp14
cpandas.core.indexes.base
_new_Index
p15
(cpandas.core.indexes.base
Index
p16
(dp17
S'data'
p18
cnumpy.core.multiarray
_reconstruct
p19
(cnumpy
ndarray
p20
(I0
tp21
S'b'
p22
tp23
Rp24
(I1
(I32
tp25
cnumpy
dtype
p26
(S'O8'
p27
I0
I1
tp28
Rp29
(I3
S'|'
p30
NNNI-1
I-1
I63
tp31
bI00
(lp32
S'year'
p33
aS'type'
p34
aS'procOriginal'
p35
aS'proc'
p36
aS'proc_s0'
p37
aS'cat'
p38
aS'inputWSFile'
p39
aS'nominalDataName'
p40
aS'modelWSFile'
p41
aS'model'
p42
aS'rate'
p43
aS'nominal_yield'
p44
aS'sumw2'
p45
aS'nominal_yield_COWCorr'
p46
aS'LooseMvaSF_up_yield'
p47
aS'LooseMvaSF_down_yield'
p48
aS'PreselSF_up_yield'
p49
aS'PreselSF_down_yield'
p50
aS'electronVetoSF_up_yield'
p51
aS'electronVetoSF_down_yield'
p52
aS'TriggerWeight_up_yield'
p53
aS'TriggerWeight_down_yield'
p54
aS'SigmaEOverEShift_up_yield'
p55
aS'SigmaEOverEShift_down_yield'
p56
aS'MvaShift_up_yield'
p57
aS'MvaShift_down_yield'
p58
aS'PUJIDShift_up_yield'
p59
aS'PUJIDShift_down_yield'
p60
aS'JEC_up_yield'
p61
aS'JEC_down_yield'
p62
aS'JER_up_yield'
p63
aS'JER_down_yield'
p64
atp65
bsS'name'
p66
Nstp67
Rp68
ag15
(cpandas.core.indexes.numeric
Int64Index
p69
(dp70
g18
g19
(g20
(I0
tp71
g22
tp72
Rp73
(I1
(I15
tp74
g26
(S'i8'
p75
I0
I1
tp76
Rp77
(I3
S'<'
p78
NNNI-1
I-1
I0
tp79
bI00
S'\x00\x00\x00\x00\x00\x00\x00\x00\x01\x00\x00\x00\x00\x00\x00\x00\x02\x00\x00\x00\x00\x00\x00\x00\x03\x00\x00\x00\x00\x00\x00\x00\x04\x00\x00\x00\x00\x00\x00\x00\x05\x00\x00\x00\x00\x00\x00\x00\x06\x00\x00\x00\x00\x00\x00\x00\x07\x00\x00\x00\x00\x00\x00\x00\x08\x00\x00\x00\x00\x00\x00\x00\t\x00\x00\x00\x00\x00\x00\x00\n\x00\x00\x00\x00\x00\x00\x00\x0b\x00\x00\x00\x00\x00\x00\x00\x0c\x00\x00\x00\x00\x00\x00\x00\r\x00\x00\x00\x00\x00\x00\x00\x0e\x00\x00\x00\x00\x00\x00\x00'
p80
tp81
bsg66
Nstp82
Rp83
a(lp84
g19
(g20
(I0
tp85
g22
tp86
Rp87
(I1
(I1
I15
tp88
g26
(S'f8'
p89
I0
I1
tp90
Rp91
(I3
S'<'
p92
NNNI-1
I-1
I0
tp93
bI00
S'\x00\x00\x00\x00\x80j\xd0@\x00\x00\x00\x00\x80j\xd0@\x00\x00\x00\x00\x80j\xd0@\x00\x00\x00\x00\x80j\xd0@\x00\x00\x00\x00\x80j\xd0@\x00\x00\x00\x00\x80j\xd0@\x00\x00\x00\x00\x80j\xd0@\x00\x00\x00\x00\x80j\xd0@\x00\x00\x00\x00\x80j\xd0@\x00\x00\x00\x00\x80j\xd0@\x00\x00\x00\x00\x80j\xd0@\x00\x00\x00\x00\x80j\xd0@\x00\x00\x00\x00\x80j\xd0@\x00\x00\x00\x00\x00\x00\xf0?\x00\x00\x00\x00\x00\x00\xf0\xbf'
p94
tp95
bag19
(g20
(I0
tp96
g22
tp97
Rp98
(I1
(I31
I15
tp99
g29
I00
(lp100
S'2016postVFP'
p101
ag101
ag101
ag101
ag101
ag101
ag101
ag101
ag101
ag101
ag101
ag101
ag101
ag33
ag33
aS'sig'
p102
ag102
ag102
ag102
ag102
ag102
ag102
ag102
ag102
ag102
ag102
ag102
ag102
aS'bkg'
p103
ag18
aS'GG2HMf05ph0'
p104
aS'GG2HbsmM'
p105
aS'GG2Hsm'
p106
aS'TTHsm'
p107
aS'VBFMf05ph0'
p108
aS'VBFbsmM'
p109
aS'VBFsm'
p110
aS'WHMf05ph0'
p111
aS'WHbsmM'
p112
aS'WHsm'
p113
aS'ZHMf05ph0'
p114
aS'ZHbsmM'
p115
aS'ZHsm'
p116
aS'bkg_mass'
p117
aS'data_obs'
p118
aS'GG2HMf05ph0_2016postVFP_hgg'
p119
aS'GG2HbsmM_2016postVFP_hgg'
p120
aS'GG2Hsm_2016postVFP_hgg'
p121
aS'tth0P_2016postVFP_hgg'
p122
aS'vbf0Mf05ph0_2016postVFP_hgg'
p123
aS'vbf0M_2016postVFP_hgg'
p124
aS'vbf0P_2016postVFP_hgg'
p125
aS'wh0Mf05ph0_2016postVFP_hgg'
p126
aS'wh0M_2016postVFP_hgg'
p127
aS'wh0P_2016postVFP_hgg'
p128
aS'zh0Mf05ph0_2016postVFP_hgg'
p129
aS'zh0M_2016postVFP_hgg'
p130
aS'zh0P_2016postVFP_hgg'
p131
ag117
ag118
aS'jjh0Mf05ph0'
p132
aS'jjh0M'
p133
aS'jjh0P'
p134
aS'tth0P'
p135
aS'vbf0Mf05ph0'
p136
aS'vbf0M'
p137
aS'vbf0P'
p138
aS'wh0Mf05ph0'
p139
aS'wh0M'
p140
aS'wh0P'
p141
aS'zh0Mf05ph0'
p142
aS'zh0M'
p143
aS'zh0P'
p144
aS'-'
p145
ag145
aS'AC_Bin15_2016postVFP'
p146
aS'AC_Bin15_2016postVFP'
p147
aS'AC_Bin15_2016postVFP'
p148
aS'AC_Bin15_2016postVFP'
p149
aS'AC_Bin15_2016postVFP'
p150
aS'AC_Bin15_2016postVFP'
p151
aS'AC_Bin15_2016postVFP'
p152
aS'AC_Bin15_2016postVFP'
p153
aS'AC_Bin15_2016postVFP'
p154
aS'AC_Bin15_2016postVFP'
p155
aS'AC_Bin15_2016postVFP'
p156
aS'AC_Bin15_2016postVFP'
p157
aS'AC_Bin15_2016postVFP'
p158
aS'AC_Bin15_2016postVFP'
p159
ag159
aS'Trees/Opt_2016postVFP/2016PostVFP/Trees2WS_2016postVFP/WS/output_GluGluHToGGPlusTwoJets_MM_M125_TuneCP5_13TeV-amcatnlopowheg-minlo-pythia8_GG2HMf05ph0.root'
p160
aS'Trees/Opt_2016postVFP/2016PostVFP/Trees2WS_2016postVFP/WS/output_GluGluHToGGPlusTwoJets_CPodd_M125_TuneCP5_13TeV-amcatnlopowheg-minlo-pythia8_GG2HbsmM.root'
p161
aS'Trees/Opt_2016postVFP/2016PostVFP/Trees2WS_2016postVFP/WS/output_GluGluHToGGPlusTwoJets_SM_M125_TuneCP5_13TeV-amcatnlopowheg-minlo-pythia8_GG2Hsm.root'
p162
aS'Trees/Opt_2016postVFP/2016PostVFP/Trees2WS_2016postVFP/WS/output_ttHJetToGG_M125_TuneCP5_13TeV-amcatnloFXFX-madspin-pythia8_TTHsm.root'
p163
aS'Trees/Opt_2016postVFP/2016PostVFP/Trees2WS_2016postVFP/WS/output_VBFHiggs0Mf05ph0ToGG_M125_TuneCP5_13TeV-JHUGenV7011-pythia8_VBFMf05ph0.root'
p164
aS'Trees/Opt_2016postVFP/2016PostVFP/Trees2WS_2016postVFP/WS/output_VBFHiggs0MToGG_M125_TuneCP5_13TeV-JHUGenV7011-pythia8_VBFbsmM.root'
p165
aS'Trees/Opt_2016postVFP/2016PostVFP/Trees2WS_2016postVFP/WS/output_VBFHToGG_M125_TuneCP5_13TeV-amcatnlo-pythia8_VBFsm.root'
p166
aS'Trees/Opt_2016postVFP/2016PostVFP/Trees2WS_2016postVFP/WS/output_WHiggs0Mf05ph0ToGG_M125_TuneCP5_13TeV-JHUGenV7011-pythia8_WHMf05ph0.root'
p167
aS'Trees/Opt_2016postVFP/2016PostVFP/Trees2WS_2016postVFP/WS/output_WHiggs0MToGG_M125_TuneCP5_13TeV-JHUGenV7011-pythia8_WHbsmM.root'
p168
aS'Trees/Opt_2016postVFP/2016PostVFP/Trees2WS_2016postVFP/WS/output_WHiggs0PMToGG_M125_TuneCP5_13TeV-JHUGenV7011-pythia8_WHsm.root'
p169
aS'Trees/Opt_2016postVFP/2016PostVFP/Trees2WS_2016postVFP/WS/output_ZHiggs0Mf05ph0ToGG_M125_TuneCP5_13TeV-JHUGenV7011-pythia8_ZHMf05ph0.root'
p170
aS'Trees/Opt_2016postVFP/2016PostVFP/Trees2WS_2016postVFP/WS/output_ZHiggs0MToGG_M125_TuneCP5_13TeV-JHUGenV7011-pythia8_ZHbsmM.root'
p171
aS'Trees/Opt_2016postVFP/2016PostVFP/Trees2WS_2016postVFP/WS/output_ZH_HToGG_ZToAll_M125_TuneCP5_13TeV-powheg-pythia8_ZHsm.root'
p172
ag145
ag145
aS'jjh0Mf05ph0_125_13TeV_AC_Bin15'
p173
aS'jjh0M_125_13TeV_AC_Bin15'
p174
aS'jjh0P_125_13TeV_AC_Bin15'
p175
aS'tth0P_125_13TeV_AC_Bin15'
p176
aS'vbf0Mf05ph0_125_13TeV_AC_Bin15'
p177
aS'vbf0M_125_13TeV_AC_Bin15'
p178
aS'vbf0P_125_13TeV_AC_Bin15'
p179
aS'wh0Mf05ph0_125_13TeV_AC_Bin15'
p180
aS'wh0M_125_13TeV_AC_Bin15'
p181
aS'wh0P_125_13TeV_AC_Bin15'
p182
aS'zh0Mf05ph0_125_13TeV_AC_Bin15'
p183
aS'zh0M_125_13TeV_AC_Bin15'
p184
aS'zh0P_125_13TeV_AC_Bin15'
p185
ag145
ag145
aS'./Models/signal/CMS-HGG_sigfit_packaged_AC_Bin15_2016postVFP.root'
p186
aS'./Models/signal/CMS-HGG_sigfit_packaged_AC_Bin15_2016postVFP.root'
p187
aS'./Models/signal/CMS-HGG_sigfit_packaged_AC_Bin15_2016postVFP.root'
p188
aS'./Models/signal/CMS-HGG_sigfit_packaged_AC_Bin15_2016postVFP.root'
p189
aS'./Models/signal/CMS-HGG_sigfit_packaged_AC_Bin15_2016postVFP.root'
p190
aS'./Models/signal/CMS-HGG_sigfit_packaged_AC_Bin15_2016postVFP.root'
p191
aS'./Models/signal/CMS-HGG_sigfit_packaged_AC_Bin15_2016postVFP.root'
p192
aS'./Models/signal/CMS-HGG_sigfit_packaged_AC_Bin15_2016postVFP.root'
p193
aS'./Models/signal/CMS-HGG_sigfit_packaged_AC_Bin15_2016postVFP.root'
p194
aS'./Models/signal/CMS-HGG_sigfit_packaged_AC_Bin15_2016postVFP.root'
p195
aS'./Models/signal/CMS-HGG_sigfit_packaged_AC_Bin15_2016postVFP.root'
p196
aS'./Models/signal/CMS-HGG_sigfit_packaged_AC_Bin15_2016postVFP.root'
p197
aS'./Models/signal/CMS-HGG_sigfit_packaged_AC_Bin15_2016postVFP.root'
p198
aS'./Models/background/CMS-HGG_multipdf_AC_Bin15_2016postVFP.root'
p199
ag199
aS'wsig_13TeV:hggpdfsmrel_GG2HMf05ph0_2016postVFP_AC_Bin15_13TeV'
p200
aS'wsig_13TeV:hggpdfsmrel_GG2HbsmM_2016postVFP_AC_Bin15_13TeV'
p201
aS'wsig_13TeV:hggpdfsmrel_GG2Hsm_2016postVFP_AC_Bin15_13TeV'
p202
aS'wsig_13TeV:hggpdfsmrel_TTHsm_2016postVFP_AC_Bin15_13TeV'
p203
aS'wsig_13TeV:hggpdfsmrel_VBFMf05ph0_2016postVFP_AC_Bin15_13TeV'
p204
aS'wsig_13TeV:hggpdfsmrel_VBFbsmM_2016postVFP_AC_Bin15_13TeV'
p205
aS'wsig_13TeV:hggpdfsmrel_VBFsm_2016postVFP_AC_Bin15_13TeV'
p206
aS'wsig_13TeV:hggpdfsmrel_WHMf05ph0_2016postVFP_AC_Bin15_13TeV'
p207
aS'wsig_13TeV:hggpdfsmrel_WHbsmM_2016postVFP_AC_Bin15_13TeV'
p208
aS'wsig_13TeV:hggpdfsmrel_WHsm_2016postVFP_AC_Bin15_13TeV'
p209
aS'wsig_13TeV:hggpdfsmrel_ZHMf05ph0_2016postVFP_AC_Bin15_13TeV'
p210
aS'wsig_13TeV:hggpdfsmrel_ZHbsmM_2016postVFP_AC_Bin15_13TeV'
p211
aS'wsig_13TeV:hggpdfsmrel_ZHsm_2016postVFP_AC_Bin15_13TeV'
p212
aS'multipdf:CMS_hgg_AC_Bin15_2016postVFP_13TeV_bkgshape'
p213
aS'multipdf:roohist_data_mass_AC_Bin15'
p214
aF0.027059011806613853
aF0.030847542335095568
aF0.01578745453502961
aF0.00031740970371174626
aF0.008991919606387455
aF0.0038684832237549927
aF0.025723372091192687
aF5.979199158900883e-05
aF6.656356390521978e-05
aF0.00029342757250105933
aF0.0001611340310319065
aF8.746732919462374e-05
aF0.0004116116098771272
ag145
ag145
aF6.147018677866048e-07
aF7.04062576111054e-07
aF3.5112583315379473e-07
aF1.1672116169776863e-07
aF1.0836578031426151e-07
aF4.9033818190087934e-08
aF1.2718346682100858e-06
aF9.55139544026386e-10
aF6.698507106370176e-10
aF3.041349841513577e-09
aF1.1128744995467481e-09
aF6.674934819794921e-10
aF6.166869939125472e-09
ag145
ag145
aF0.027814887563763522
aF0.03184698077840514
aF0.016261210840798925
aF0.00032412752283336347
aF0.009281806754111213
aF0.003990656377122615
aF0.02639327478419876
aF6.129020673369836e-05
aF6.765796119712505e-05
aF0.0003065624760734275
aF0.000163708399530666
aF8.922529092468e-05
aF0.0004200498565291119
ag145
ag145
aF0.02724154400794967
aF0.03105509658312493
aF0.01589485312758258
aF0.0003188834680468207
aF0.009051291469321104
aF0.0038938812923874316
aF0.0258953834733556
aF6.023011900645499e-05
aF6.698634126531187e-05
aF0.00029529319411563694
aF0.0001621170823866686
aF8.805253819065458e-05
aF0.0004143471516665031
ag145
ag145
aF0.026877095700774987
aF0.030640684195924868
aF0.015680419926769006
aF0.000315938498933897
aF0.00893274299921773
aF0.003843168130497225
aF0.02555193554684716
aF5.9355457967040535e-05
aF6.614209773007722e-05
aF0.0002915678512686124
aF0.00016015396395226475
aF8.688404284008889e-05
aF0.00040888503873673436
ag145
ag145
aF0.027417973415405684
aF0.03129768611531132
aF0.01601494406749437
aF0.0003286897640400045
aF0.009121704039663248
aF0.003923172368443619
aF0.026065543180580644
aF6.081259826971578e-05
aF6.743194709840957e-05
aF0.00029717869135508466
aF0.00016315937259722333
aF8.890850407912224e-05
aF0.0004163266762107517
ag145
ag145
aF0.02670231054899236
aF0.03040055037856258
aF0.015561575006183328
aF0.00030619181902812194
aF0.008862943899514591
aF0.0038141552188494738
aF0.025383279467481493
aF5.8777516175841744e-05
aF6.569916835044727e-05
aF0.0002896963098215253
aF0.0001591185042361812
aF8.604582022597712e-05
aF0.00040692083448978225
ag145
ag145
aF0.027115501600929223
aF0.030914913401273197
aF0.015820974977677225
aF0.0003188270987019394
aF0.009013520860867565
aF0.003877349129191993
aF0.02577843701501121
aF5.98920443805168e-05
aF6.670628781528001e-05
aF0.0002941619470232592
aF0.00016153150695227687
aF8.764928224654138e-05
aF0.0004123819498309863
ag145
ag145
aF0.02700257784157441
aF0.03078024004170707
aF0.015753967317184807
aF0.00031599441909829556
aF0.008970341515247055
aF0.0038596263350670905
aF0.02566835981019252
aF5.969200660742386e-05
aF6.642098619918802e-05
aF0.0002926940297506735
aF0.0001607370474559218
aF8.728556938685458e-05
aF0.0004108418579977247
ag145
ag145
aF0.027119073158875132
aF0.03092131124452885
aF0.015823617474739697
aF0.00031807516051995027
aF0.009014657701466809
aF0.003877584581171466
aF0.025781025513133122
aF5.991249773864247e-05
aF6.66991638283961e-05
aF0.0002945078246235804
aF0.00016146161686222886
aF8.764478393258106e-05
aF0.00041244680074206094
ag145
ag145
aF0.026999016876603787
aF0.030773860031500386
aF0.015751332656317514
aF0.000316744952139531
aF0.008969209075660251
aF0.003859392343145961
aF0.025665783329443574
aF5.967160749588296e-05
aF6.6428103099584e-05
aF0.00029234889732966945
aF0.0001608067786558963
aF8.729005572403751e-05
aF0.00041077726300457637
ag145
ag145
aF0.027916236220335122
aF0.031757172014295065
aF0.01654693417890485
aF0.00041253781455452554
aF0.00949689621552352
aF0.004073911053865231
aF0.025770133056198574
aF0.00042662833311624127
aF0.00019397568917156605
aF0.00030925328417197306
aF0.0001713231429221196
aF9.348559706268134e-05
aF0.00046433886672048175
ag145
ag145
aF0.02629733872754514
aF0.02974593863359587
aF0.015414909319815706
aF0.00031740970371174626
aF0.008453324060155865
aF0.003684025752022535
aF0.018874447262646754
aF0.0003939671923944843
aF0.00017482250905231922
aF0.00029342757250105933
aF0.00016076041151791287
aF8.746732919462374e-05
aF0.0004116116098771272
ag145
ag145
aF0.02741200011064393
aF0.03137575194227793
aF0.016362379403062732
aF0.00038727972059859894
aF0.009020427625159755
aF0.0038226022418257344
aF0.02539783239933513
aF0.0004259755605744431
aF0.00017901470005199371
aF0.0002877059845332042
aF0.00013598287432614597
aF0.00011545985034899786
aF0.00040067175467584093
ag145
ag145
aF0.026517909596236677
aF0.03019704485927832
aF0.015284027784218779
aF0.00040334862933377735
aF0.008837501074594911
aF0.0038129609499719663
aF0.019973547314975804
aF0.000399033997382503
aF0.00015929910773593292
aF0.0003073581191301855
aF0.00015778604029037524
aF9.93450798887352e-05
aF0.0004432586476355027
ag145
ag145
aF0.02753321442150991
aF0.03138041200304542
aF0.01627354100151024
aF0.00031740970371174626
aF0.00913283770137241
aF0.0038560497672506244
aF0.0259483378861205
aF0.0004259755605744431
aF0.00017829783359957219
aF0.00029342757250105933
aF0.00016796460681689496
aF8.746732919462374e-05
aF0.0004299878430060744
ag145
ag145
aF0.026520591460666765
aF0.030068380817056095
aF0.015213574790323037
aF0.00031740970371174626
aF0.008918398845935371
aF0.0038476275630046075
aF0.01963449055642741
aF0.00040436967537971213
aF0.00018270283794663555
aF0.00027523584719801875
aF0.0001611340310319065
aF8.746732919462374e-05
aF0.0004116116098771272
ag145
ag145
aF0.029136893915165274
aF0.033234966873123994
aF0.01719426986369399
aF0.00034319785845582373
aF0.009227484204075154
aF0.0038328579615836134
aF0.020044623027729358
aF0.0005233952224443783
aF0.00022374813374881342
aF0.00031867420966591453
aF0.00018378860568191158
aF9.874500528894714e-05
aF0.0004697550729702016
ag145
ag145
aF0.02506221245494089
aF0.02910253704612842
aF0.014486749461866566
aF0.00045875007708673365
aF0.00864984235238353
aF0.003900471946280959
aF0.024902495207925313
aF0.00038034872522985097
aF0.00017634457140047743
aF0.0002558896120490317
aF0.00016809949352136755
aF9.590866716280289e-05
aF0.0003851196653954503
ag145
ag145
aF0.027370078582180213
aF0.0313736840605543
aF0.015927468141399004
aF0.0004493292326515075
aF0.009000124854310343
aF0.0038237889247056955
aF0.019925697631833827
aF0.00046980630213511176
aF0.0002150420211819437
aF0.0003215729692556124
aF0.00017059050856005342
aF9.241790257874527e-05
aF0.00043124042821318653
ag145
ag145
aF0.026823198994406994
aF0.03091260184987732
aF0.015524491617043168
aF0.00032683054814697243
aF0.00895537955943837
aF0.003871753837643155
aF0.025284677224249208
aF0.00043546159577090293
aF0.00019793616706920147
aF0.00027907121818770975
aF0.00015381801313196775
aF8.016149058676092e-05
aF0.00040094578338312203
ag145
ag145
atp215
ba(lp216
g15
(g16
(dp217
g18
g19
(g20
(I0
tp218
g22
tp219
Rp220
(I1
(I1
tp221
g29
I00
(lp222
g43
atp223
bsg66
Nstp224
Rp225
ag15
(g16
(dp226
g18
g19
(g20
(I0
tp227
g22
tp228
Rp229
(I1
(I31
tp230
g29
I00
(lp231
g33
ag34
ag35
ag36
ag37
ag38
ag39
ag40
ag41
ag42
ag44
ag45
ag46
ag47
ag48
ag49
ag50
ag51
ag52
ag53
ag54
ag55
ag56
ag57
ag58
ag59
ag60
ag61
ag62
ag63
ag64
atp232
bsg66
Nstp233
Rp234
a(dp235
S'0.14.1'
p236
(dp237
S'axes'
p238
g14
sS'blocks'
p239
(lp240
(dp241
S'mgr_locs'
p242
c__builtin__
slice
p243
(I10
I11
I1
tp244
Rp245
sS'values'
p246
g87
sa(dp247
g242
g19
(g20
(I0
tp248
g22
tp249
Rp250
(I1
(I31
tp251
g77
I00
S'\x00\x00\x00\x00\x00\x00\x00\x00\x01\x00\x00\x00\x00\x00\x00\x00\x02\x00\x00\x00\x00\x00\x00\x00\x03\x00\x00\x00\x00\x00\x00\x00\x04\x00\x00\x00\x00\x00\x00\x00\x05\x00\x00\x00\x00\x00\x00\x00\x06\x00\x00\x00\x00\x00\x00\x00\x07\x00\x00\x00\x00\x00\x00\x00\x08\x00\x00\x00\x00\x00\x00\x00\t\x00\x00\x00\x00\x00\x00\x00\x0b\x00\x00\x00\x00\x00\x00\x00\x0c\x00\x00\x00\x00\x00\x00\x00\r\x00\x00\x00\x00\x00\x00\x00\x0e\x00\x00\x00\x00\x00\x00\x00\x0f\x00\x00\x00\x00\x00\x00\x00\x10\x00\x00\x00\x00\x00\x00\x00\x11\x00\x00\x00\x00\x00\x00\x00\x12\x00\x00\x00\x00\x00\x00\x00\x13\x00\x00\x00\x00\x00\x00\x00\x14\x00\x00\x00\x00\x00\x00\x00\x15\x00\x00\x00\x00\x00\x00\x00\x16\x00\x00\x00\x00\x00\x00\x00\x17\x00\x00\x00\x00\x00\x00\x00\x18\x00\x00\x00\x00\x00\x00\x00\x19\x00\x00\x00\x00\x00\x00\x00\x1a\x00\x00\x00\x00\x00\x00\x00\x1b\x00\x00\x00\x00\x00\x00\x00\x1c\x00\x00\x00\x00\x00\x00\x00\x1d\x00\x00\x00\x00\x00\x00\x00\x1e\x00\x00\x00\x00\x00\x00\x00\x1f\x00\x00\x00\x00\x00\x00\x00'
p252
tp253
bsg246
g98
sasstp254
bsb.