ccopy_reg
_reconstructor
p0
(cpandas.core.frame
DataFrame
p1
c__builtin__
object
p2
Ntp3
Rp4
(dp5
S'_metadata'
p6
(lp7
sS'_typ'
p8
S'dataframe'
p9
sS'_data'
p10
g0
(cpandas.core.internals
BlockManager
p11
g2
Ntp12
Rp13
((lp14
cpandas.core.indexes.base
_new_Index
p15
(cpandas.core.indexes.base
Index
p16
(dp17
S'data'
p18
cnumpy.core.multiarray
_reconstruct
p19
(cnumpy
ndarray
p20
(I0
tp21
S'b'
p22
tp23
Rp24
(I1
(I32
tp25
cnumpy
dtype
p26
(S'O8'
p27
I0
I1
tp28
Rp29
(I3
S'|'
p30
NNNI-1
I-1
I63
tp31
bI00
(lp32
S'year'
p33
aS'type'
p34
aS'procOriginal'
p35
aS'proc'
p36
aS'proc_s0'
p37
aS'cat'
p38
aS'inputWSFile'
p39
aS'nominalDataName'
p40
aS'modelWSFile'
p41
aS'model'
p42
aS'rate'
p43
aS'nominal_yield'
p44
aS'sumw2'
p45
aS'nominal_yield_COWCorr'
p46
aS'LooseMvaSF_up_yield'
p47
aS'LooseMvaSF_down_yield'
p48
aS'PreselSF_up_yield'
p49
aS'PreselSF_down_yield'
p50
aS'electronVetoSF_up_yield'
p51
aS'electronVetoSF_down_yield'
p52
aS'TriggerWeight_up_yield'
p53
aS'TriggerWeight_down_yield'
p54
aS'SigmaEOverEShift_up_yield'
p55
aS'SigmaEOverEShift_down_yield'
p56
aS'MvaShift_up_yield'
p57
aS'MvaShift_down_yield'
p58
aS'PUJIDShift_up_yield'
p59
aS'PUJIDShift_down_yield'
p60
aS'JEC_up_yield'
p61
aS'JEC_down_yield'
p62
aS'JER_up_yield'
p63
aS'JER_down_yield'
p64
atp65
bsS'name'
p66
Nstp67
Rp68
ag15
(cpandas.core.indexes.numeric
Int64Index
p69
(dp70
g18
g19
(g20
(I0
tp71
g22
tp72
Rp73
(I1
(I15
tp74
g26
(S'i8'
p75
I0
I1
tp76
Rp77
(I3
S'<'
p78
NNNI-1
I-1
I0
tp79
bI00
S'\x00\x00\x00\x00\x00\x00\x00\x00\x01\x00\x00\x00\x00\x00\x00\x00\x02\x00\x00\x00\x00\x00\x00\x00\x03\x00\x00\x00\x00\x00\x00\x00\x04\x00\x00\x00\x00\x00\x00\x00\x05\x00\x00\x00\x00\x00\x00\x00\x06\x00\x00\x00\x00\x00\x00\x00\x07\x00\x00\x00\x00\x00\x00\x00\x08\x00\x00\x00\x00\x00\x00\x00\t\x00\x00\x00\x00\x00\x00\x00\n\x00\x00\x00\x00\x00\x00\x00\x0b\x00\x00\x00\x00\x00\x00\x00\x0c\x00\x00\x00\x00\x00\x00\x00\r\x00\x00\x00\x00\x00\x00\x00\x0e\x00\x00\x00\x00\x00\x00\x00'
p80
tp81
bsg66
Nstp82
Rp83
a(lp84
g19
(g20
(I0
tp85
g22
tp86
Rp87
(I1
(I1
I15
tp88
g26
(S'f8'
p89
I0
I1
tp90
Rp91
(I3
S'<'
p92
NNNI-1
I-1
I0
tp93
bI00
S'\x00\x00\x00\x00\x80j\xd0@\x00\x00\x00\x00\x80j\xd0@\x00\x00\x00\x00\x80j\xd0@\x00\x00\x00\x00\x80j\xd0@\x00\x00\x00\x00\x80j\xd0@\x00\x00\x00\x00\x80j\xd0@\x00\x00\x00\x00\x80j\xd0@\x00\x00\x00\x00\x80j\xd0@\x00\x00\x00\x00\x80j\xd0@\x00\x00\x00\x00\x80j\xd0@\x00\x00\x00\x00\x80j\xd0@\x00\x00\x00\x00\x80j\xd0@\x00\x00\x00\x00\x80j\xd0@\x00\x00\x00\x00\x00\x00\xf0?\x00\x00\x00\x00\x00\x00\xf0\xbf'
p94
tp95
bag19
(g20
(I0
tp96
g22
tp97
Rp98
(I1
(I31
I15
tp99
g29
I00
(lp100
S'2016postVFP'
p101
ag101
ag101
ag101
ag101
ag101
ag101
ag101
ag101
ag101
ag101
ag101
ag101
ag33
ag33
aS'sig'
p102
ag102
ag102
ag102
ag102
ag102
ag102
ag102
ag102
ag102
ag102
ag102
ag102
aS'bkg'
p103
ag18
aS'GG2HMf05ph0'
p104
aS'GG2HbsmM'
p105
aS'GG2Hsm'
p106
aS'TTHsm'
p107
aS'VBFMf05ph0'
p108
aS'VBFbsmM'
p109
aS'VBFsm'
p110
aS'WHMf05ph0'
p111
aS'WHbsmM'
p112
aS'WHsm'
p113
aS'ZHMf05ph0'
p114
aS'ZHbsmM'
p115
aS'ZHsm'
p116
aS'bkg_mass'
p117
aS'data_obs'
p118
aS'GG2HMf05ph0_2016postVFP_hgg'
p119
aS'GG2HbsmM_2016postVFP_hgg'
p120
aS'GG2Hsm_2016postVFP_hgg'
p121
aS'tth0P_2016postVFP_hgg'
p122
aS'vbf0Mf05ph0_2016postVFP_hgg'
p123
aS'vbf0M_2016postVFP_hgg'
p124
aS'vbf0P_2016postVFP_hgg'
p125
aS'wh0Mf05ph0_2016postVFP_hgg'
p126
aS'wh0M_2016postVFP_hgg'
p127
aS'wh0P_2016postVFP_hgg'
p128
aS'zh0Mf05ph0_2016postVFP_hgg'
p129
aS'zh0M_2016postVFP_hgg'
p130
aS'zh0P_2016postVFP_hgg'
p131
ag117
ag118
aS'jjh0Mf05ph0'
p132
aS'jjh0M'
p133
aS'jjh0P'
p134
aS'tth0P'
p135
aS'vbf0Mf05ph0'
p136
aS'vbf0M'
p137
aS'vbf0P'
p138
aS'wh0Mf05ph0'
p139
aS'wh0M'
p140
aS'wh0P'
p141
aS'zh0Mf05ph0'
p142
aS'zh0M'
p143
aS'zh0P'
p144
aS'-'
p145
ag145
aS'AC_Bin16_2016postVFP'
p146
aS'AC_Bin16_2016postVFP'
p147
aS'AC_Bin16_2016postVFP'
p148
aS'AC_Bin16_2016postVFP'
p149
aS'AC_Bin16_2016postVFP'
p150
aS'AC_Bin16_2016postVFP'
p151
aS'AC_Bin16_2016postVFP'
p152
aS'AC_Bin16_2016postVFP'
p153
aS'AC_Bin16_2016postVFP'
p154
aS'AC_Bin16_2016postVFP'
p155
aS'AC_Bin16_2016postVFP'
p156
aS'AC_Bin16_2016postVFP'
p157
aS'AC_Bin16_2016postVFP'
p158
aS'AC_Bin16_2016postVFP'
p159
ag159
aS'Trees/Opt_2016postVFP/2016PostVFP/Trees2WS_2016postVFP/WS/output_GluGluHToGGPlusTwoJets_MM_M125_TuneCP5_13TeV-amcatnlopowheg-minlo-pythia8_GG2HMf05ph0.root'
p160
aS'Trees/Opt_2016postVFP/2016PostVFP/Trees2WS_2016postVFP/WS/output_GluGluHToGGPlusTwoJets_CPodd_M125_TuneCP5_13TeV-amcatnlopowheg-minlo-pythia8_GG2HbsmM.root'
p161
aS'Trees/Opt_2016postVFP/2016PostVFP/Trees2WS_2016postVFP/WS/output_GluGluHToGGPlusTwoJets_SM_M125_TuneCP5_13TeV-amcatnlopowheg-minlo-pythia8_GG2Hsm.root'
p162
aS'Trees/Opt_2016postVFP/2016PostVFP/Trees2WS_2016postVFP/WS/output_ttHJetToGG_M125_TuneCP5_13TeV-amcatnloFXFX-madspin-pythia8_TTHsm.root'
p163
aS'Trees/Opt_2016postVFP/2016PostVFP/Trees2WS_2016postVFP/WS/output_VBFHiggs0Mf05ph0ToGG_M125_TuneCP5_13TeV-JHUGenV7011-pythia8_VBFMf05ph0.root'
p164
aS'Trees/Opt_2016postVFP/2016PostVFP/Trees2WS_2016postVFP/WS/output_VBFHiggs0MToGG_M125_TuneCP5_13TeV-JHUGenV7011-pythia8_VBFbsmM.root'
p165
aS'Trees/Opt_2016postVFP/2016PostVFP/Trees2WS_2016postVFP/WS/output_VBFHToGG_M125_TuneCP5_13TeV-amcatnlo-pythia8_VBFsm.root'
p166
aS'Trees/Opt_2016postVFP/2016PostVFP/Trees2WS_2016postVFP/WS/output_WHiggs0Mf05ph0ToGG_M125_TuneCP5_13TeV-JHUGenV7011-pythia8_WHMf05ph0.root'
p167
aS'Trees/Opt_2016postVFP/2016PostVFP/Trees2WS_2016postVFP/WS/output_WHiggs0MToGG_M125_TuneCP5_13TeV-JHUGenV7011-pythia8_WHbsmM.root'
p168
aS'Trees/Opt_2016postVFP/2016PostVFP/Trees2WS_2016postVFP/WS/output_WHiggs0PMToGG_M125_TuneCP5_13TeV-JHUGenV7011-pythia8_WHsm.root'
p169
aS'Trees/Opt_2016postVFP/2016PostVFP/Trees2WS_2016postVFP/WS/output_ZHiggs0Mf05ph0ToGG_M125_TuneCP5_13TeV-JHUGenV7011-pythia8_ZHMf05ph0.root'
p170
aS'Trees/Opt_2016postVFP/2016PostVFP/Trees2WS_2016postVFP/WS/output_ZHiggs0MToGG_M125_TuneCP5_13TeV-JHUGenV7011-pythia8_ZHbsmM.root'
p171
aS'Trees/Opt_2016postVFP/2016PostVFP/Trees2WS_2016postVFP/WS/output_ZH_HToGG_ZToAll_M125_TuneCP5_13TeV-powheg-pythia8_ZHsm.root'
p172
ag145
ag145
aS'jjh0Mf05ph0_125_13TeV_AC_Bin16'
p173
aS'jjh0M_125_13TeV_AC_Bin16'
p174
aS'jjh0P_125_13TeV_AC_Bin16'
p175
aS'tth0P_125_13TeV_AC_Bin16'
p176
aS'vbf0Mf05ph0_125_13TeV_AC_Bin16'
p177
aS'vbf0M_125_13TeV_AC_Bin16'
p178
aS'vbf0P_125_13TeV_AC_Bin16'
p179
aS'wh0Mf05ph0_125_13TeV_AC_Bin16'
p180
aS'wh0M_125_13TeV_AC_Bin16'
p181
aS'wh0P_125_13TeV_AC_Bin16'
p182
aS'zh0Mf05ph0_125_13TeV_AC_Bin16'
p183
aS'zh0M_125_13TeV_AC_Bin16'
p184
aS'zh0P_125_13TeV_AC_Bin16'
p185
ag145
ag145
aS'./Models/signal/CMS-HGG_sigfit_packaged_AC_Bin16_2016postVFP.root'
p186
aS'./Models/signal/CMS-HGG_sigfit_packaged_AC_Bin16_2016postVFP.root'
p187
aS'./Models/signal/CMS-HGG_sigfit_packaged_AC_Bin16_2016postVFP.root'
p188
aS'./Models/signal/CMS-HGG_sigfit_packaged_AC_Bin16_2016postVFP.root'
p189
aS'./Models/signal/CMS-HGG_sigfit_packaged_AC_Bin16_2016postVFP.root'
p190
aS'./Models/signal/CMS-HGG_sigfit_packaged_AC_Bin16_2016postVFP.root'
p191
aS'./Models/signal/CMS-HGG_sigfit_packaged_AC_Bin16_2016postVFP.root'
p192
aS'./Models/signal/CMS-HGG_sigfit_packaged_AC_Bin16_2016postVFP.root'
p193
aS'./Models/signal/CMS-HGG_sigfit_packaged_AC_Bin16_2016postVFP.root'
p194
aS'./Models/signal/CMS-HGG_sigfit_packaged_AC_Bin16_2016postVFP.root'
p195
aS'./Models/signal/CMS-HGG_sigfit_packaged_AC_Bin16_2016postVFP.root'
p196
aS'./Models/signal/CMS-HGG_sigfit_packaged_AC_Bin16_2016postVFP.root'
p197
aS'./Models/signal/CMS-HGG_sigfit_packaged_AC_Bin16_2016postVFP.root'
p198
aS'./Models/background/CMS-HGG_multipdf_AC_Bin16_2016postVFP.root'
p199
ag199
aS'wsig_13TeV:hggpdfsmrel_GG2HMf05ph0_2016postVFP_AC_Bin16_13TeV'
p200
aS'wsig_13TeV:hggpdfsmrel_GG2HbsmM_2016postVFP_AC_Bin16_13TeV'
p201
aS'wsig_13TeV:hggpdfsmrel_GG2Hsm_2016postVFP_AC_Bin16_13TeV'
p202
aS'wsig_13TeV:hggpdfsmrel_TTHsm_2016postVFP_AC_Bin16_13TeV'
p203
aS'wsig_13TeV:hggpdfsmrel_VBFMf05ph0_2016postVFP_AC_Bin16_13TeV'
p204
aS'wsig_13TeV:hggpdfsmrel_VBFbsmM_2016postVFP_AC_Bin16_13TeV'
p205
aS'wsig_13TeV:hggpdfsmrel_VBFsm_2016postVFP_AC_Bin16_13TeV'
p206
aS'wsig_13TeV:hggpdfsmrel_WHMf05ph0_2016postVFP_AC_Bin16_13TeV'
p207
aS'wsig_13TeV:hggpdfsmrel_WHbsmM_2016postVFP_AC_Bin16_13TeV'
p208
aS'wsig_13TeV:hggpdfsmrel_WHsm_2016postVFP_AC_Bin16_13TeV'
p209
aS'wsig_13TeV:hggpdfsmrel_ZHMf05ph0_2016postVFP_AC_Bin16_13TeV'
p210
aS'wsig_13TeV:hggpdfsmrel_ZHbsmM_2016postVFP_AC_Bin16_13TeV'
p211
aS'wsig_13TeV:hggpdfsmrel_ZHsm_2016postVFP_AC_Bin16_13TeV'
p212
aS'multipdf:CMS_hgg_AC_Bin16_2016postVFP_13TeV_bkgshape'
p213
aS'multipdf:roohist_data_mass_AC_Bin16'
p214
aF0.04397644715709248
aF0.04475927633438914
aF0.03470192596273591
aF0.0007244379876283347
aF0.00848607029570303
aF0.004482292362581575
aF0.018160441476538836
aF5.912472352065379e-05
aF0.0002438563028590579
aF0.001189299303291591
aF0.000756251456323298
aF0.0003014750732859284
aF0.0014951116198744785
ag145
ag145
aF9.78102794867218e-07
aF1.0111623020630603e-06
aF7.803689832276242e-07
aF2.744367968146468e-07
aF1.0655381894343749e-07
aF5.7027994651268655e-08
aF9.167816921585813e-07
aF8.931001098533405e-10
aF2.169295015156286e-09
aF1.257138792711689e-08
aF4.8879827945584676e-09
aF1.978098433298836e-09
aF2.60890809650867e-08
ag145
ag145
aF0.045436183275426305
aF0.046156687831568156
aF0.03579175817500444
aF0.0007370162728639579
aF0.008720169478131767
aF0.004615196965458881
aF0.018630637829861636
aF5.992712497653709e-05
aF0.00025051848944086206
aF0.0012259626159833773
aF0.0007718940418515025
aF0.00030850698999785616
aF0.0015302050964759888
ag145
ag145
aF0.04427190355642343
aF0.04506055033814135
aF0.034934496609384975
aF0.0007294294524025711
aF0.008542356605620685
aF0.004511774311296023
aF0.01827982460641665
aF5.948082256312854e-05
aF0.00024546622268895474
aF0.0011971302647178126
aF0.0007611678121627043
aF0.00030336310182048994
aF0.0015049236039073545
ag145
ag145
aF0.04368198090703772
aF0.04445901478910819
aF0.03447013304252501
aF0.0007194633182320649
aF0.008429970691114728
aF0.004452906903653475
aF0.01804145085178909
aF5.8769703615696664e-05
aF0.00024225170885217173
aF0.0011814941764527512
aF0.000751351088189369
aF0.0002995929237599094
aF0.0014853317048787958
ag145
ag145
aF0.04458611228494138
aF0.0453952218089087
aF0.03519721669939751
aF0.0007290665432781471
aF0.008609305425662454
aF0.004541574185787547
aF0.01841018783695906
aF5.950351081024791e-05
aF0.0002466476480780819
aF0.0012067053142940983
aF0.0007672910633416997
aF0.0003055962086364165
aF0.0015141930812086963
ag145
ag145
aF0.043370808883911253
aF0.044127465564116966
aF0.03420992685099734
aF0.0007198203723762292
aF0.008363730531787909
aF0.004423340065743625
aF0.017912326409648537
aF5.874715364194324e-05
aF0.00024107867823341112
aF0.0011720231108114476
aF0.0007452878343228957
aF0.000297384202796593
aF0.0014761421575598124
ag145
ag145
aF0.04407203238778731
aF0.04485623462740899
aF0.03477672821863776
aF0.0007252063298500477
aF0.008505783635477536
aF0.004492472031385343
aF0.018200132492875803
aF5.924503438069124e-05
aF0.0002443991926275247
aF0.001191970527555418
aF0.0007580218169616828
aF0.0003021602076836362
aF0.0014981931252638653
ag145
ag145
aF0.0438809583726731
aF0.044662419100101526
aF0.03462720199574797
aF0.0007236694305779645
aF0.008466378523836852
aF0.004472122951791347
aF0.01812078880335095
aF5.9004537235877495e-05
aF0.0002433139151904526
aF0.0011866309678298188
aF0.0007544830604629108
aF0.00030079065030005924
aF0.0014920329534076902
ag145
ag145
aF0.04407928673258653
aF0.044859764965473205
aF0.034780847002014
aF0.0007258957981111755
aF0.008505136070669038
aF0.004492440350385722
aF0.01819959790869677
aF5.92441340770608e-05
aF0.0002443873840133424
aF0.0011931676767593788
aF0.0007578272843916969
aF0.0003021128451452039
aF0.0014986573277912896
ag145
ag145
aF0.04387373165547155
aF0.0446589025170032
aF0.034623093910714615
aF0.0007229816709255479
aF0.00846702575909352
aF0.004472155698312571
aF0.01812132486632232
aF5.9005434375944646e-05
aF0.00024332580137048616
aF0.0011854363258031906
aF0.0007546772682614914
aF0.000300837972103792
aF0.0014915700459802086
ag145
ag145
aF0.04557110264090625
aF0.04622639650006022
aF0.03603116878275614
aF0.0007244379876283347
aF0.00887495302526986
aF0.0047150380630682776
aF0.013249057779148643
aF0.0009291864789702231
aF0.0004897092530882219
aF0.0012399012865671466
aF0.0007904628212145326
aF0.00034257264957204825
aF0.001568603772170718
ag145
ag145
aF0.04234080604146584
aF0.04340386577246136
aF0.03339828380921972
aF0.0008672760441186256
aF0.008112943503419956
aF0.004194630459323889
aF0.01404896113592713
aF0.0008476447374050622
aF0.0004897092530882219
aF0.0011169378075237546
aF0.000710239197815099
aF0.00028833786569748554
aF0.001544762447224457
ag145
ag145
aF0.044155763824392125
aF0.044925060449259036
aF0.03515811066472452
aF0.000872232848450949
aF0.008482270269041692
aF0.004284461146767171
aF0.012903263787734431
aF0.0009101461646423559
aF0.0005239044476184063
aF0.001244280380433338
aF0.0007829818904383501
aF0.0003124183620570875
aF0.0015287443001170686
ag145
ag145
aF0.043216043562779305
aF0.04341497865743804
aF0.03365926297055921
aF0.00034417793995089596
aF0.008394907434308152
aF0.004422713728786221
aF0.012913870115539794
aF0.0009097812280742801
aF0.0004764706836795085
aF0.0012372873014783181
aF0.0007487707800919452
aF0.00034318388185283766
aF0.0015082088965527873
ag145
ag145
aF0.04486712920243008
aF0.045411903143076415
aF0.0353520110786576
aF0.0007244379876283347
aF0.008507985609185198
aF0.004502167961391024
aF0.01808177267685096
aF0.0009147513874268043
aF0.0005111041627969826
aF0.0012730672432326173
aF0.000757081962774464
aF0.0003014750732859284
aF0.0014890399851310576
ag145
ag145
aF0.0433133278988862
aF0.04402997709303236
aF0.03410856388313732
aF0.0007244379876283347
aF0.008371878481511885
aF0.0044742760353528865
aF0.012713652011484555
aF0.0009004904222820187
aF0.00046749963257752825
aF0.00113917255191609
aF0.0007457167641859996
aF0.0002846890911882838
aF0.0014719923100301457
ag145
ag145
aF0.046512528879020465
aF0.047528895682035
aF0.03744718005100367
aF0.0006414622539523407
aF0.008407913153178015
aF0.004385401213085061
aF0.017577850709244558
aF0.0009689781318229507
aF0.0005178708292987722
aF0.0013712004679291567
aF0.0008059240350348773
aF0.0003292009632787085
aF0.0015589711146049012
ag145
ag145
aF0.04167458087908926
aF0.04224516784188381
aF0.03277866280654962
aF0.0008567340510126087
aF0.0084548506927149
aF0.0044285569290423155
aF0.012720201244974305
aF0.000838471511087846
aF0.00045490578668250237
aF0.0012007551459873866
aF0.0007239500521336595
aF0.00027967413012675024
aF0.0013946804014040026
ag145
ag145
aF0.044604654452086834
aF0.04506794889880439
aF0.03503730482702849
aF0.0007244379876283347
aF0.008401495166026507
aF0.004430629696571486
aF0.013025617674998102
aF0.0009079474402824417
aF0.0004948371342834434
aF0.0012359112128024208
aF0.0007802424295277888
aF0.00029881916162821653
aF0.0015053793634933754
ag145
ag145
aF0.04366418883864753
aF0.04452711917019769
aF0.03440134489369484
aF0.0007721445172137464
aF0.008582476659057647
aF0.004495045968496925
aF0.013527448738500425
aF0.000866338509695197
aF0.0004766731535710278
aF0.0011567077453946695
aF0.0007461498819338885
aF0.0002859385663782632
aF0.001518918087072052
ag145
ag145
atp215
ba(lp216
g15
(g16
(dp217
g18
g19
(g20
(I0
tp218
g22
tp219
Rp220
(I1
(I1
tp221
g29
I00
(lp222
g43
atp223
bsg66
Nstp224
Rp225
ag15
(g16
(dp226
g18
g19
(g20
(I0
tp227
g22
tp228
Rp229
(I1
(I31
tp230
g29
I00
(lp231
g33
ag34
ag35
ag36
ag37
ag38
ag39
ag40
ag41
ag42
ag44
ag45
ag46
ag47
ag48
ag49
ag50
ag51
ag52
ag53
ag54
ag55
ag56
ag57
ag58
ag59
ag60
ag61
ag62
ag63
ag64
atp232
bsg66
Nstp233
Rp234
a(dp235
S'0.14.1'
p236
(dp237
S'axes'
p238
g14
sS'blocks'
p239
(lp240
(dp241
S'mgr_locs'
p242
c__builtin__
slice
p243
(I10
I11
I1
tp244
Rp245
sS'values'
p246
g87
sa(dp247
g242
g19
(g20
(I0
tp248
g22
tp249
Rp250
(I1
(I31
tp251
g77
I00
S'\x00\x00\x00\x00\x00\x00\x00\x00\x01\x00\x00\x00\x00\x00\x00\x00\x02\x00\x00\x00\x00\x00\x00\x00\x03\x00\x00\x00\x00\x00\x00\x00\x04\x00\x00\x00\x00\x00\x00\x00\x05\x00\x00\x00\x00\x00\x00\x00\x06\x00\x00\x00\x00\x00\x00\x00\x07\x00\x00\x00\x00\x00\x00\x00\x08\x00\x00\x00\x00\x00\x00\x00\t\x00\x00\x00\x00\x00\x00\x00\x0b\x00\x00\x00\x00\x00\x00\x00\x0c\x00\x00\x00\x00\x00\x00\x00\r\x00\x00\x00\x00\x00\x00\x00\x0e\x00\x00\x00\x00\x00\x00\x00\x0f\x00\x00\x00\x00\x00\x00\x00\x10\x00\x00\x00\x00\x00\x00\x00\x11\x00\x00\x00\x00\x00\x00\x00\x12\x00\x00\x00\x00\x00\x00\x00\x13\x00\x00\x00\x00\x00\x00\x00\x14\x00\x00\x00\x00\x00\x00\x00\x15\x00\x00\x00\x00\x00\x00\x00\x16\x00\x00\x00\x00\x00\x00\x00\x17\x00\x00\x00\x00\x00\x00\x00\x18\x00\x00\x00\x00\x00\x00\x00\x19\x00\x00\x00\x00\x00\x00\x00\x1a\x00\x00\x00\x00\x00\x00\x00\x1b\x00\x00\x00\x00\x00\x00\x00\x1c\x00\x00\x00\x00\x00\x00\x00\x1d\x00\x00\x00\x00\x00\x00\x00\x1e\x00\x00\x00\x00\x00\x00\x00\x1f\x00\x00\x00\x00\x00\x00\x00'
p252
tp253
bsg246
g98
sasstp254
bsb.