ccopy_reg
_reconstructor
p0
(cpandas.core.frame
DataFrame
p1
c__builtin__
object
p2
Ntp3
Rp4
(dp5
S'_metadata'
p6
(lp7
sS'_typ'
p8
S'dataframe'
p9
sS'_data'
p10
g0
(cpandas.core.internals
BlockManager
p11
g2
Ntp12
Rp13
((lp14
cpandas.core.indexes.base
_new_Index
p15
(cpandas.core.indexes.base
Index
p16
(dp17
S'data'
p18
cnumpy.core.multiarray
_reconstruct
p19
(cnumpy
ndarray
p20
(I0
tp21
S'b'
p22
tp23
Rp24
(I1
(I32
tp25
cnumpy
dtype
p26
(S'O8'
p27
I0
I1
tp28
Rp29
(I3
S'|'
p30
NNNI-1
I-1
I63
tp31
bI00
(lp32
S'year'
p33
aS'type'
p34
aS'procOriginal'
p35
aS'proc'
p36
aS'proc_s0'
p37
aS'cat'
p38
aS'inputWSFile'
p39
aS'nominalDataName'
p40
aS'modelWSFile'
p41
aS'model'
p42
aS'rate'
p43
aS'nominal_yield'
p44
aS'sumw2'
p45
aS'nominal_yield_COWCorr'
p46
aS'LooseMvaSF_up_yield'
p47
aS'LooseMvaSF_down_yield'
p48
aS'PreselSF_up_yield'
p49
aS'PreselSF_down_yield'
p50
aS'electronVetoSF_up_yield'
p51
aS'electronVetoSF_down_yield'
p52
aS'TriggerWeight_up_yield'
p53
aS'TriggerWeight_down_yield'
p54
aS'SigmaEOverEShift_up_yield'
p55
aS'SigmaEOverEShift_down_yield'
p56
aS'MvaShift_up_yield'
p57
aS'MvaShift_down_yield'
p58
aS'PUJIDShift_up_yield'
p59
aS'PUJIDShift_down_yield'
p60
aS'JEC_up_yield'
p61
aS'JEC_down_yield'
p62
aS'JER_up_yield'
p63
aS'JER_down_yield'
p64
atp65
bsS'name'
p66
Nstp67
Rp68
ag15
(cpandas.core.indexes.numeric
Int64Index
p69
(dp70
g18
g19
(g20
(I0
tp71
g22
tp72
Rp73
(I1
(I15
tp74
g26
(S'i8'
p75
I0
I1
tp76
Rp77
(I3
S'<'
p78
NNNI-1
I-1
I0
tp79
bI00
S'\x00\x00\x00\x00\x00\x00\x00\x00\x01\x00\x00\x00\x00\x00\x00\x00\x02\x00\x00\x00\x00\x00\x00\x00\x03\x00\x00\x00\x00\x00\x00\x00\x04\x00\x00\x00\x00\x00\x00\x00\x05\x00\x00\x00\x00\x00\x00\x00\x06\x00\x00\x00\x00\x00\x00\x00\x07\x00\x00\x00\x00\x00\x00\x00\x08\x00\x00\x00\x00\x00\x00\x00\t\x00\x00\x00\x00\x00\x00\x00\n\x00\x00\x00\x00\x00\x00\x00\x0b\x00\x00\x00\x00\x00\x00\x00\x0c\x00\x00\x00\x00\x00\x00\x00\r\x00\x00\x00\x00\x00\x00\x00\x0e\x00\x00\x00\x00\x00\x00\x00'
p80
tp81
bsg66
Nstp82
Rp83
a(lp84
g19
(g20
(I0
tp85
g22
tp86
Rp87
(I1
(I1
I15
tp88
g26
(S'f8'
p89
I0
I1
tp90
Rp91
(I3
S'<'
p92
NNNI-1
I-1
I0
tp93
bI00
S'\x00\x00\x00\x00\x80j\xd0@\x00\x00\x00\x00\x80j\xd0@\x00\x00\x00\x00\x80j\xd0@\x00\x00\x00\x00\x80j\xd0@\x00\x00\x00\x00\x80j\xd0@\x00\x00\x00\x00\x80j\xd0@\x00\x00\x00\x00\x80j\xd0@\x00\x00\x00\x00\x80j\xd0@\x00\x00\x00\x00\x80j\xd0@\x00\x00\x00\x00\x80j\xd0@\x00\x00\x00\x00\x80j\xd0@\x00\x00\x00\x00\x80j\xd0@\x00\x00\x00\x00\x80j\xd0@\x00\x00\x00\x00\x00\x00\xf0?\x00\x00\x00\x00\x00\x00\xf0\xbf'
p94
tp95
bag19
(g20
(I0
tp96
g22
tp97
Rp98
(I1
(I31
I15
tp99
g29
I00
(lp100
S'2016postVFP'
p101
ag101
ag101
ag101
ag101
ag101
ag101
ag101
ag101
ag101
ag101
ag101
ag101
ag33
ag33
aS'sig'
p102
ag102
ag102
ag102
ag102
ag102
ag102
ag102
ag102
ag102
ag102
ag102
ag102
aS'bkg'
p103
ag18
aS'GG2HMf05ph0'
p104
aS'GG2HbsmM'
p105
aS'GG2Hsm'
p106
aS'TTHsm'
p107
aS'VBFMf05ph0'
p108
aS'VBFbsmM'
p109
aS'VBFsm'
p110
aS'WHMf05ph0'
p111
aS'WHbsmM'
p112
aS'WHsm'
p113
aS'ZHMf05ph0'
p114
aS'ZHbsmM'
p115
aS'ZHsm'
p116
aS'bkg_mass'
p117
aS'data_obs'
p118
aS'GG2HMf05ph0_2016postVFP_hgg'
p119
aS'GG2HbsmM_2016postVFP_hgg'
p120
aS'GG2Hsm_2016postVFP_hgg'
p121
aS'tth0P_2016postVFP_hgg'
p122
aS'vbf0Mf05ph0_2016postVFP_hgg'
p123
aS'vbf0M_2016postVFP_hgg'
p124
aS'vbf0P_2016postVFP_hgg'
p125
aS'wh0Mf05ph0_2016postVFP_hgg'
p126
aS'wh0M_2016postVFP_hgg'
p127
aS'wh0P_2016postVFP_hgg'
p128
aS'zh0Mf05ph0_2016postVFP_hgg'
p129
aS'zh0M_2016postVFP_hgg'
p130
aS'zh0P_2016postVFP_hgg'
p131
ag117
ag118
aS'jjh0Mf05ph0'
p132
aS'jjh0M'
p133
aS'jjh0P'
p134
aS'tth0P'
p135
aS'vbf0Mf05ph0'
p136
aS'vbf0M'
p137
aS'vbf0P'
p138
aS'wh0Mf05ph0'
p139
aS'wh0M'
p140
aS'wh0P'
p141
aS'zh0Mf05ph0'
p142
aS'zh0M'
p143
aS'zh0P'
p144
aS'-'
p145
ag145
aS'AC_Bin25_2016postVFP'
p146
aS'AC_Bin25_2016postVFP'
p147
aS'AC_Bin25_2016postVFP'
p148
aS'AC_Bin25_2016postVFP'
p149
aS'AC_Bin25_2016postVFP'
p150
aS'AC_Bin25_2016postVFP'
p151
aS'AC_Bin25_2016postVFP'
p152
aS'AC_Bin25_2016postVFP'
p153
aS'AC_Bin25_2016postVFP'
p154
aS'AC_Bin25_2016postVFP'
p155
aS'AC_Bin25_2016postVFP'
p156
aS'AC_Bin25_2016postVFP'
p157
aS'AC_Bin25_2016postVFP'
p158
aS'AC_Bin25_2016postVFP'
p159
ag159
aS'Trees/Opt_2016postVFP/2016PostVFP/Trees2WS_2016postVFP/WS/output_GluGluHToGGPlusTwoJets_MM_M125_TuneCP5_13TeV-amcatnlopowheg-minlo-pythia8_GG2HMf05ph0.root'
p160
aS'Trees/Opt_2016postVFP/2016PostVFP/Trees2WS_2016postVFP/WS/output_GluGluHToGGPlusTwoJets_CPodd_M125_TuneCP5_13TeV-amcatnlopowheg-minlo-pythia8_GG2HbsmM.root'
p161
aS'Trees/Opt_2016postVFP/2016PostVFP/Trees2WS_2016postVFP/WS/output_GluGluHToGGPlusTwoJets_SM_M125_TuneCP5_13TeV-amcatnlopowheg-minlo-pythia8_GG2Hsm.root'
p162
aS'Trees/Opt_2016postVFP/2016PostVFP/Trees2WS_2016postVFP/WS/output_ttHJetToGG_M125_TuneCP5_13TeV-amcatnloFXFX-madspin-pythia8_TTHsm.root'
p163
aS'Trees/Opt_2016postVFP/2016PostVFP/Trees2WS_2016postVFP/WS/output_VBFHiggs0Mf05ph0ToGG_M125_TuneCP5_13TeV-JHUGenV7011-pythia8_VBFMf05ph0.root'
p164
aS'Trees/Opt_2016postVFP/2016PostVFP/Trees2WS_2016postVFP/WS/output_VBFHiggs0MToGG_M125_TuneCP5_13TeV-JHUGenV7011-pythia8_VBFbsmM.root'
p165
aS'Trees/Opt_2016postVFP/2016PostVFP/Trees2WS_2016postVFP/WS/output_VBFHToGG_M125_TuneCP5_13TeV-amcatnlo-pythia8_VBFsm.root'
p166
aS'Trees/Opt_2016postVFP/2016PostVFP/Trees2WS_2016postVFP/WS/output_WHiggs0Mf05ph0ToGG_M125_TuneCP5_13TeV-JHUGenV7011-pythia8_WHMf05ph0.root'
p167
aS'Trees/Opt_2016postVFP/2016PostVFP/Trees2WS_2016postVFP/WS/output_WHiggs0MToGG_M125_TuneCP5_13TeV-JHUGenV7011-pythia8_WHbsmM.root'
p168
aS'Trees/Opt_2016postVFP/2016PostVFP/Trees2WS_2016postVFP/WS/output_WHiggs0PMToGG_M125_TuneCP5_13TeV-JHUGenV7011-pythia8_WHsm.root'
p169
aS'Trees/Opt_2016postVFP/2016PostVFP/Trees2WS_2016postVFP/WS/output_ZHiggs0Mf05ph0ToGG_M125_TuneCP5_13TeV-JHUGenV7011-pythia8_ZHMf05ph0.root'
p170
aS'Trees/Opt_2016postVFP/2016PostVFP/Trees2WS_2016postVFP/WS/output_ZHiggs0MToGG_M125_TuneCP5_13TeV-JHUGenV7011-pythia8_ZHbsmM.root'
p171
aS'Trees/Opt_2016postVFP/2016PostVFP/Trees2WS_2016postVFP/WS/output_ZH_HToGG_ZToAll_M125_TuneCP5_13TeV-powheg-pythia8_ZHsm.root'
p172
ag145
ag145
aS'jjh0Mf05ph0_125_13TeV_AC_Bin25'
p173
aS'jjh0M_125_13TeV_AC_Bin25'
p174
aS'jjh0P_125_13TeV_AC_Bin25'
p175
aS'tth0P_125_13TeV_AC_Bin25'
p176
aS'vbf0Mf05ph0_125_13TeV_AC_Bin25'
p177
aS'vbf0M_125_13TeV_AC_Bin25'
p178
aS'vbf0P_125_13TeV_AC_Bin25'
p179
aS'wh0Mf05ph0_125_13TeV_AC_Bin25'
p180
aS'wh0M_125_13TeV_AC_Bin25'
p181
aS'wh0P_125_13TeV_AC_Bin25'
p182
aS'zh0Mf05ph0_125_13TeV_AC_Bin25'
p183
aS'zh0M_125_13TeV_AC_Bin25'
p184
aS'zh0P_125_13TeV_AC_Bin25'
p185
ag145
ag145
aS'./Models/signal/CMS-HGG_sigfit_packaged_AC_Bin25_2016postVFP.root'
p186
aS'./Models/signal/CMS-HGG_sigfit_packaged_AC_Bin25_2016postVFP.root'
p187
aS'./Models/signal/CMS-HGG_sigfit_packaged_AC_Bin25_2016postVFP.root'
p188
aS'./Models/signal/CMS-HGG_sigfit_packaged_AC_Bin25_2016postVFP.root'
p189
aS'./Models/signal/CMS-HGG_sigfit_packaged_AC_Bin25_2016postVFP.root'
p190
aS'./Models/signal/CMS-HGG_sigfit_packaged_AC_Bin25_2016postVFP.root'
p191
aS'./Models/signal/CMS-HGG_sigfit_packaged_AC_Bin25_2016postVFP.root'
p192
aS'./Models/signal/CMS-HGG_sigfit_packaged_AC_Bin25_2016postVFP.root'
p193
aS'./Models/signal/CMS-HGG_sigfit_packaged_AC_Bin25_2016postVFP.root'
p194
aS'./Models/signal/CMS-HGG_sigfit_packaged_AC_Bin25_2016postVFP.root'
p195
aS'./Models/signal/CMS-HGG_sigfit_packaged_AC_Bin25_2016postVFP.root'
p196
aS'./Models/signal/CMS-HGG_sigfit_packaged_AC_Bin25_2016postVFP.root'
p197
aS'./Models/signal/CMS-HGG_sigfit_packaged_AC_Bin25_2016postVFP.root'
p198
aS'./Models/background/CMS-HGG_multipdf_AC_Bin25_2016postVFP.root'
p199
ag199
aS'wsig_13TeV:hggpdfsmrel_GG2HMf05ph0_2016postVFP_AC_Bin25_13TeV'
p200
aS'wsig_13TeV:hggpdfsmrel_GG2HbsmM_2016postVFP_AC_Bin25_13TeV'
p201
aS'wsig_13TeV:hggpdfsmrel_GG2Hsm_2016postVFP_AC_Bin25_13TeV'
p202
aS'wsig_13TeV:hggpdfsmrel_TTHsm_2016postVFP_AC_Bin25_13TeV'
p203
aS'wsig_13TeV:hggpdfsmrel_VBFMf05ph0_2016postVFP_AC_Bin25_13TeV'
p204
aS'wsig_13TeV:hggpdfsmrel_VBFbsmM_2016postVFP_AC_Bin25_13TeV'
p205
aS'wsig_13TeV:hggpdfsmrel_VBFsm_2016postVFP_AC_Bin25_13TeV'
p206
aS'wsig_13TeV:hggpdfsmrel_WHMf05ph0_2016postVFP_AC_Bin25_13TeV'
p207
aS'wsig_13TeV:hggpdfsmrel_WHbsmM_2016postVFP_AC_Bin25_13TeV'
p208
aS'wsig_13TeV:hggpdfsmrel_WHsm_2016postVFP_AC_Bin25_13TeV'
p209
aS'wsig_13TeV:hggpdfsmrel_ZHMf05ph0_2016postVFP_AC_Bin25_13TeV'
p210
aS'wsig_13TeV:hggpdfsmrel_ZHbsmM_2016postVFP_AC_Bin25_13TeV'
p211
aS'wsig_13TeV:hggpdfsmrel_ZHsm_2016postVFP_AC_Bin25_13TeV'
p212
aS'multipdf:CMS_hgg_AC_Bin25_2016postVFP_13TeV_bkgshape'
p213
aS'multipdf:roohist_data_mass_AC_Bin25'
p214
aF0.04184224871278275
aF0.04988464677740012
aF0.020642284745235884
aF0.003175520491822681
aF0.07636058482671615
aF0.1261238717854667
aF0.05081151254523775
aF0.00017569494775671046
aF0.0005555951418045879
aF0.00022016921184331295
aF0.000357020662420382
aF0.000657141588817467
aF0.0005984461761272541
ag145
ag145
aF9.68573863111378e-07
aF1.178255888468936e-06
aF4.784365045601944e-07
aF8.107363932051898e-07
aF9.703798725133275e-07
aF1.6021490274551196e-06
aF2.5622492924282635e-06
aF3.932068555009483e-09
aF5.832922300221034e-09
aF2.308777042835072e-09
aF2.262782208029345e-09
aF4.918358256027015e-09
aF7.855435778963778e-09
ag145
ag145
aF0.04262078619164378
aF0.050848159460715484
aF0.021029069567948897
aF0.00323324033249787
aF0.07784535196446402
aF0.12853104890657585
aF0.05177188381433296
aF0.00017906571197277293
aF0.0005653430352876577
aF0.00022411470447293867
aF0.0003638563602614679
aF0.0006712852254798457
aF0.0006090077199267173
ag145
ag145
aF0.04214281056004043
aF0.05024341878253334
aF0.020791059219865425
aF0.003199239585860714
aF0.07691271281049192
aF0.12703940218275311
aF0.05117369168045676
aF0.00017701542830825416
aF0.0005594961859059749
aF0.00022173838128616334
aF0.000359620193948146
aF0.0006618927042221654
aF0.0006026698915456185
ag145
ag145
aF0.04154277028796015
aF0.049527168712035156
aF0.020494048128253256
aF0.003151889535513672
aF0.07581046105338014
aF0.1252116740230023
aF0.05045062912586415
aF0.00017437941552531883
aF0.0005517079807608484
aF0.00021860571612617903
aF0.0003544306046971985
aF0.0006524077275099261
aF0.0005942375808011802
ag145
ag145
aF0.04229267626333369
aF0.05042821785197374
aF0.020873545570251263
aF0.003198808065229096
aF0.07713846797753449
aF0.12739861948323705
aF0.05135350348202943
aF0.00017705454321168123
aF0.0005621327187980654
aF0.00022226833836313937
aF0.0003609149714830174
aF0.0006632780496817911
aF0.0006053501249144534
ag145
ag145
aF0.04139422204053198
aF0.049343940155617
aF0.020412369880147156
aF0.0031523225799610826
aF0.07558664488686714
aF0.12485532176877663
aF0.050272418100628394
aF0.0001743406015922538
aF0.0005491038072127235
aF0.0002180798422495258
aF0.00035314587899903927
aF0.0006510327008703311
aF0.0005915988676716366
ag145
ag145
aF0.041907006615763145
aF0.04996231593817184
aF0.020673838561790465
aF0.0031789570178470086
aF0.07647136898311502
aF0.12630468409165735
aF0.050889566606072155
aF0.00017588307716285553
aF0.000556550354147399
aF0.00022048413593753799
aF0.00035756239450675795
aF0.0006580553452495728
aF0.0005993910434172683
ag145
ag145
aF0.041777542520291935
aF0.049807039662549284
aF0.02061075561017841
aF0.0031720853364815386
aF0.07624988567986696
aF0.12594319118670946
aF0.050733519001179395
aF0.00017550690548438113
aF0.0005546407740538018
aF0.0002198545315731649
aF0.00035647929803113616
aF0.0006562284637372309
aF0.0005975021749284807
ag145
ag145
aF0.04192888406897955
aF0.049989894224118675
aF0.02068577133359111
aF0.0031819100830841923
aF0.07652325654488959
aF0.12638744445365363
aF0.050918961333441176
aF0.0001760480102959965
aF0.0005567193529628133
aF0.00022061175189571933
aF0.0003577473659710446
aF0.0006585784816182565
aF0.0005996526859755294
ag145
ag145
aF0.04175570306044596
aF0.0497795101814115
aF0.020598843989117734
aF0.0031691372007209492
aF0.0761980852720201
aF0.12586057303136827
aF0.050704176713045716
aF0.00017534223757801633
aF0.0005544720576437012
aF0.00021972711750092025
aF0.0003562947009328274
aF0.0006557062431447469
aF0.0005972408909304145
ag145
ag145
aF0.041265660926455894
aF0.049074951062721084
aF0.02027910579931813
aF0.0031752876320751966
aF0.07588640675953684
aF0.12570727073966736
aF0.05060998758369806
aF0.000732082121885469
aF0.001023234225044689
aF0.00021209715259828954
aF0.00035409060996016706
aF0.0006479602125182282
aF0.0005984461761272541
ag145
ag145
aF0.04259397154692124
aF0.050693220819312046
aF0.020986782623140243
aF0.0032776066227597767
aF0.07697511378887611
aF0.12693497552049848
aF0.052048063560619084
aF0.0007525168380198011
aF0.001023234225044689
aF0.00023260542047864874
aF0.000357020662420382
aF0.000657141588817467
aF0.000626321409299635
ag145
ag145
aF0.042708169928573625
aF0.0507296459365989
aF0.020994097274751766
aF0.003024800019375107
aF0.07725778947974504
aF0.12776453758704065
aF0.05155915658781396
aF0.0007525168380198011
aF0.0010296737426642721
aF0.00022016921184331295
aF0.00036308216584757247
aF0.0006739139348610479
aF0.0005984461761272541
ag145
ag145
aF0.04109782913064919
aF0.04888528506558032
aF0.02015166770001997
aF0.003110562786787341
aF0.07511381323479327
aF0.12450496044300507
aF0.04992278419683771
aF0.0007525168380198011
aF0.0010212902983539607
aF0.00021242591947157052
aF0.000342868443738098
aF0.0006442915273510152
aF0.0005833622810769157
ag145
ag145
aF0.042138920146499004
aF0.050216632839010344
aF0.020804185958013477
aF0.003175520491822681
aF0.07646960848296658
aF0.12629226645981362
aF0.05102783909239861
aF0.0007525168380198011
aF0.0010547140003609456
aF0.00022016921184331295
aF0.0003693790128522778
aF0.0006744787970092148
aF0.0005984461761272541
ag145
ag145
aF0.04155237049599236
aF0.04960422063891201
aF0.020518651538850463
aF0.003175520491822681
aF0.07627978287359838
aF0.12606159412302986
aF0.05039886860720344
aF0.0007386434776890383
aF0.0009956981215282212
aF0.00021209715259828954
aF0.000357020662420382
aF0.0006518367017633864
aF0.0005984461761272541
ag145
ag145
aF0.04333850224679736
aF0.05197272979148693
aF0.021143178747252023
aF0.0028579831605384243
aF0.07722378234336702
aF0.12720408645475345
aF0.05201268667599379
aF0.0009251078545275959
aF0.0010705300448989874
aF0.00025179490376103786
aF0.00043316003751669996
aF0.0006714849323543604
aF0.000603445479328002
ag145
ag145
aF0.040156254642624845
aF0.04709280061456411
aF0.019944469828487854
aF0.0027820080367746414
aF0.07533565658809493
aF0.12494603290952
aF0.050094184146246334
aF0.000697957715146913
aF0.0009083874409725468
aF0.00023083543328539236
aF0.0003276971598893397
aF0.000556904030190708
aF0.0005736669675115991
ag145
ag145
aF0.042246517493822466
aF0.04988997501436643
aF0.020697505191719756
aF0.0028296574755586335
aF0.07636134238748582
aF0.12598443424826655
aF0.051269396640577725
aF0.0007818346780368302
aF0.0010189611801934007
aF0.000245183464812726
aF0.0003797702037786621
aF0.0006241612973099109
aF0.0006222870845249417
ag145
ag145
aF0.04197306578316784
aF0.04952150488202278
aF0.020649250596989077
aF0.003175520491822681
aF0.07637138590860104
aF0.1264768587633398
aF0.05040174970474709
aF0.000760717323373683
aF0.0010092901683265154
aF0.00022016921184331295
aF0.00036507796215801136
aF0.0006307270568868262
aF0.0005819985683501727
ag145
ag145
atp215
ba(lp216
g15
(g16
(dp217
g18
g19
(g20
(I0
tp218
g22
tp219
Rp220
(I1
(I1
tp221
g29
I00
(lp222
g43
atp223
bsg66
Nstp224
Rp225
ag15
(g16
(dp226
g18
g19
(g20
(I0
tp227
g22
tp228
Rp229
(I1
(I31
tp230
g29
I00
(lp231
g33
ag34
ag35
ag36
ag37
ag38
ag39
ag40
ag41
ag42
ag44
ag45
ag46
ag47
ag48
ag49
ag50
ag51
ag52
ag53
ag54
ag55
ag56
ag57
ag58
ag59
ag60
ag61
ag62
ag63
ag64
atp232
bsg66
Nstp233
Rp234
a(dp235
S'0.14.1'
p236
(dp237
S'axes'
p238
g14
sS'blocks'
p239
(lp240
(dp241
S'mgr_locs'
p242
c__builtin__
slice
p243
(I10
I11
I1
tp244
Rp245
sS'values'
p246
g87
sa(dp247
g242
g19
(g20
(I0
tp248
g22
tp249
Rp250
(I1
(I31
tp251
g77
I00
S'\x00\x00\x00\x00\x00\x00\x00\x00\x01\x00\x00\x00\x00\x00\x00\x00\x02\x00\x00\x00\x00\x00\x00\x00\x03\x00\x00\x00\x00\x00\x00\x00\x04\x00\x00\x00\x00\x00\x00\x00\x05\x00\x00\x00\x00\x00\x00\x00\x06\x00\x00\x00\x00\x00\x00\x00\x07\x00\x00\x00\x00\x00\x00\x00\x08\x00\x00\x00\x00\x00\x00\x00\t\x00\x00\x00\x00\x00\x00\x00\x0b\x00\x00\x00\x00\x00\x00\x00\x0c\x00\x00\x00\x00\x00\x00\x00\r\x00\x00\x00\x00\x00\x00\x00\x0e\x00\x00\x00\x00\x00\x00\x00\x0f\x00\x00\x00\x00\x00\x00\x00\x10\x00\x00\x00\x00\x00\x00\x00\x11\x00\x00\x00\x00\x00\x00\x00\x12\x00\x00\x00\x00\x00\x00\x00\x13\x00\x00\x00\x00\x00\x00\x00\x14\x00\x00\x00\x00\x00\x00\x00\x15\x00\x00\x00\x00\x00\x00\x00\x16\x00\x00\x00\x00\x00\x00\x00\x17\x00\x00\x00\x00\x00\x00\x00\x18\x00\x00\x00\x00\x00\x00\x00\x19\x00\x00\x00\x00\x00\x00\x00\x1a\x00\x00\x00\x00\x00\x00\x00\x1b\x00\x00\x00\x00\x00\x00\x00\x1c\x00\x00\x00\x00\x00\x00\x00\x1d\x00\x00\x00\x00\x00\x00\x00\x1e\x00\x00\x00\x00\x00\x00\x00\x1f\x00\x00\x00\x00\x00\x00\x00'
p252
tp253
bsg246
g98
sasstp254
bsb.