ccopy_reg
_reconstructor
p0
(cpandas.core.frame
DataFrame
p1
c__builtin__
object
p2
Ntp3
Rp4
(dp5
S'_metadata'
p6
(lp7
sS'_typ'
p8
S'dataframe'
p9
sS'_data'
p10
g0
(cpandas.core.internals
BlockManager
p11
g2
Ntp12
Rp13
((lp14
cpandas.core.indexes.base
_new_Index
p15
(cpandas.core.indexes.base
Index
p16
(dp17
S'data'
p18
cnumpy.core.multiarray
_reconstruct
p19
(cnumpy
ndarray
p20
(I0
tp21
S'b'
p22
tp23
Rp24
(I1
(I32
tp25
cnumpy
dtype
p26
(S'O8'
p27
I0
I1
tp28
Rp29
(I3
S'|'
p30
NNNI-1
I-1
I63
tp31
bI00
(lp32
S'year'
p33
aS'type'
p34
aS'procOriginal'
p35
aS'proc'
p36
aS'proc_s0'
p37
aS'cat'
p38
aS'inputWSFile'
p39
aS'nominalDataName'
p40
aS'modelWSFile'
p41
aS'model'
p42
aS'rate'
p43
aS'nominal_yield'
p44
aS'sumw2'
p45
aS'nominal_yield_COWCorr'
p46
aS'LooseMvaSF_up_yield'
p47
aS'LooseMvaSF_down_yield'
p48
aS'PreselSF_up_yield'
p49
aS'PreselSF_down_yield'
p50
aS'electronVetoSF_up_yield'
p51
aS'electronVetoSF_down_yield'
p52
aS'TriggerWeight_up_yield'
p53
aS'TriggerWeight_down_yield'
p54
aS'SigmaEOverEShift_up_yield'
p55
aS'SigmaEOverEShift_down_yield'
p56
aS'MvaShift_up_yield'
p57
aS'MvaShift_down_yield'
p58
aS'PUJIDShift_up_yield'
p59
aS'PUJIDShift_down_yield'
p60
aS'JEC_up_yield'
p61
aS'JEC_down_yield'
p62
aS'JER_up_yield'
p63
aS'JER_down_yield'
p64
atp65
bsS'name'
p66
Nstp67
Rp68
ag15
(cpandas.core.indexes.numeric
Int64Index
p69
(dp70
g18
g19
(g20
(I0
tp71
g22
tp72
Rp73
(I1
(I15
tp74
g26
(S'i8'
p75
I0
I1
tp76
Rp77
(I3
S'<'
p78
NNNI-1
I-1
I0
tp79
bI00
S'\x00\x00\x00\x00\x00\x00\x00\x00\x01\x00\x00\x00\x00\x00\x00\x00\x02\x00\x00\x00\x00\x00\x00\x00\x03\x00\x00\x00\x00\x00\x00\x00\x04\x00\x00\x00\x00\x00\x00\x00\x05\x00\x00\x00\x00\x00\x00\x00\x06\x00\x00\x00\x00\x00\x00\x00\x07\x00\x00\x00\x00\x00\x00\x00\x08\x00\x00\x00\x00\x00\x00\x00\t\x00\x00\x00\x00\x00\x00\x00\n\x00\x00\x00\x00\x00\x00\x00\x0b\x00\x00\x00\x00\x00\x00\x00\x0c\x00\x00\x00\x00\x00\x00\x00\r\x00\x00\x00\x00\x00\x00\x00\x0e\x00\x00\x00\x00\x00\x00\x00'
p80
tp81
bsg66
Nstp82
Rp83
a(lp84
g19
(g20
(I0
tp85
g22
tp86
Rp87
(I1
(I1
I15
tp88
g26
(S'f8'
p89
I0
I1
tp90
Rp91
(I3
S'<'
p92
NNNI-1
I-1
I0
tp93
bI00
S'\x00\x00\x00\x00\x80j\xd0@\x00\x00\x00\x00\x80j\xd0@\x00\x00\x00\x00\x80j\xd0@\x00\x00\x00\x00\x80j\xd0@\x00\x00\x00\x00\x80j\xd0@\x00\x00\x00\x00\x80j\xd0@\x00\x00\x00\x00\x80j\xd0@\x00\x00\x00\x00\x80j\xd0@\x00\x00\x00\x00\x80j\xd0@\x00\x00\x00\x00\x80j\xd0@\x00\x00\x00\x00\x80j\xd0@\x00\x00\x00\x00\x80j\xd0@\x00\x00\x00\x00\x80j\xd0@\x00\x00\x00\x00\x00\x00\xf0?\x00\x00\x00\x00\x00\x00\xf0\xbf'
p94
tp95
bag19
(g20
(I0
tp96
g22
tp97
Rp98
(I1
(I31
I15
tp99
g29
I00
(lp100
S'2016postVFP'
p101
ag101
ag101
ag101
ag101
ag101
ag101
ag101
ag101
ag101
ag101
ag101
ag101
ag33
ag33
aS'sig'
p102
ag102
ag102
ag102
ag102
ag102
ag102
ag102
ag102
ag102
ag102
ag102
ag102
aS'bkg'
p103
ag18
aS'GG2HMf05ph0'
p104
aS'GG2HbsmM'
p105
aS'GG2Hsm'
p106
aS'TTHsm'
p107
aS'VBFMf05ph0'
p108
aS'VBFbsmM'
p109
aS'VBFsm'
p110
aS'WHMf05ph0'
p111
aS'WHbsmM'
p112
aS'WHsm'
p113
aS'ZHMf05ph0'
p114
aS'ZHbsmM'
p115
aS'ZHsm'
p116
aS'bkg_mass'
p117
aS'data_obs'
p118
aS'GG2HMf05ph0_2016postVFP_hgg'
p119
aS'GG2HbsmM_2016postVFP_hgg'
p120
aS'GG2Hsm_2016postVFP_hgg'
p121
aS'tth0P_2016postVFP_hgg'
p122
aS'vbf0Mf05ph0_2016postVFP_hgg'
p123
aS'vbf0M_2016postVFP_hgg'
p124
aS'vbf0P_2016postVFP_hgg'
p125
aS'wh0Mf05ph0_2016postVFP_hgg'
p126
aS'wh0M_2016postVFP_hgg'
p127
aS'wh0P_2016postVFP_hgg'
p128
aS'zh0Mf05ph0_2016postVFP_hgg'
p129
aS'zh0M_2016postVFP_hgg'
p130
aS'zh0P_2016postVFP_hgg'
p131
ag117
ag118
aS'jjh0Mf05ph0'
p132
aS'jjh0M'
p133
aS'jjh0P'
p134
aS'tth0P'
p135
aS'vbf0Mf05ph0'
p136
aS'vbf0M'
p137
aS'vbf0P'
p138
aS'wh0Mf05ph0'
p139
aS'wh0M'
p140
aS'wh0P'
p141
aS'zh0Mf05ph0'
p142
aS'zh0M'
p143
aS'zh0P'
p144
aS'-'
p145
ag145
aS'AC_Bin7_2016postVFP'
p146
aS'AC_Bin7_2016postVFP'
p147
aS'AC_Bin7_2016postVFP'
p148
aS'AC_Bin7_2016postVFP'
p149
aS'AC_Bin7_2016postVFP'
p150
aS'AC_Bin7_2016postVFP'
p151
aS'AC_Bin7_2016postVFP'
p152
aS'AC_Bin7_2016postVFP'
p153
aS'AC_Bin7_2016postVFP'
p154
aS'AC_Bin7_2016postVFP'
p155
aS'AC_Bin7_2016postVFP'
p156
aS'AC_Bin7_2016postVFP'
p157
aS'AC_Bin7_2016postVFP'
p158
aS'AC_Bin7_2016postVFP'
p159
ag159
aS'Trees/Opt_2016postVFP/2016PostVFP/Trees2WS_2016postVFP/WS/output_GluGluHToGGPlusTwoJets_MM_M125_TuneCP5_13TeV-amcatnlopowheg-minlo-pythia8_GG2HMf05ph0.root'
p160
aS'Trees/Opt_2016postVFP/2016PostVFP/Trees2WS_2016postVFP/WS/output_GluGluHToGGPlusTwoJets_CPodd_M125_TuneCP5_13TeV-amcatnlopowheg-minlo-pythia8_GG2HbsmM.root'
p161
aS'Trees/Opt_2016postVFP/2016PostVFP/Trees2WS_2016postVFP/WS/output_GluGluHToGGPlusTwoJets_SM_M125_TuneCP5_13TeV-amcatnlopowheg-minlo-pythia8_GG2Hsm.root'
p162
aS'Trees/Opt_2016postVFP/2016PostVFP/Trees2WS_2016postVFP/WS/output_ttHJetToGG_M125_TuneCP5_13TeV-amcatnloFXFX-madspin-pythia8_TTHsm.root'
p163
aS'Trees/Opt_2016postVFP/2016PostVFP/Trees2WS_2016postVFP/WS/output_VBFHiggs0Mf05ph0ToGG_M125_TuneCP5_13TeV-JHUGenV7011-pythia8_VBFMf05ph0.root'
p164
aS'Trees/Opt_2016postVFP/2016PostVFP/Trees2WS_2016postVFP/WS/output_VBFHiggs0MToGG_M125_TuneCP5_13TeV-JHUGenV7011-pythia8_VBFbsmM.root'
p165
aS'Trees/Opt_2016postVFP/2016PostVFP/Trees2WS_2016postVFP/WS/output_VBFHToGG_M125_TuneCP5_13TeV-amcatnlo-pythia8_VBFsm.root'
p166
aS'Trees/Opt_2016postVFP/2016PostVFP/Trees2WS_2016postVFP/WS/output_WHiggs0Mf05ph0ToGG_M125_TuneCP5_13TeV-JHUGenV7011-pythia8_WHMf05ph0.root'
p167
aS'Trees/Opt_2016postVFP/2016PostVFP/Trees2WS_2016postVFP/WS/output_WHiggs0MToGG_M125_TuneCP5_13TeV-JHUGenV7011-pythia8_WHbsmM.root'
p168
aS'Trees/Opt_2016postVFP/2016PostVFP/Trees2WS_2016postVFP/WS/output_WHiggs0PMToGG_M125_TuneCP5_13TeV-JHUGenV7011-pythia8_WHsm.root'
p169
aS'Trees/Opt_2016postVFP/2016PostVFP/Trees2WS_2016postVFP/WS/output_ZHiggs0Mf05ph0ToGG_M125_TuneCP5_13TeV-JHUGenV7011-pythia8_ZHMf05ph0.root'
p170
aS'Trees/Opt_2016postVFP/2016PostVFP/Trees2WS_2016postVFP/WS/output_ZHiggs0MToGG_M125_TuneCP5_13TeV-JHUGenV7011-pythia8_ZHbsmM.root'
p171
aS'Trees/Opt_2016postVFP/2016PostVFP/Trees2WS_2016postVFP/WS/output_ZH_HToGG_ZToAll_M125_TuneCP5_13TeV-powheg-pythia8_ZHsm.root'
p172
ag145
ag145
aS'jjh0Mf05ph0_125_13TeV_AC_Bin7'
p173
aS'jjh0M_125_13TeV_AC_Bin7'
p174
aS'jjh0P_125_13TeV_AC_Bin7'
p175
aS'tth0P_125_13TeV_AC_Bin7'
p176
aS'vbf0Mf05ph0_125_13TeV_AC_Bin7'
p177
aS'vbf0M_125_13TeV_AC_Bin7'
p178
aS'vbf0P_125_13TeV_AC_Bin7'
p179
aS'wh0Mf05ph0_125_13TeV_AC_Bin7'
p180
aS'wh0M_125_13TeV_AC_Bin7'
p181
aS'wh0P_125_13TeV_AC_Bin7'
p182
aS'zh0Mf05ph0_125_13TeV_AC_Bin7'
p183
aS'zh0M_125_13TeV_AC_Bin7'
p184
aS'zh0P_125_13TeV_AC_Bin7'
p185
ag145
ag145
aS'./Models/signal/CMS-HGG_sigfit_packaged_AC_Bin7_2016postVFP.root'
p186
aS'./Models/signal/CMS-HGG_sigfit_packaged_AC_Bin7_2016postVFP.root'
p187
aS'./Models/signal/CMS-HGG_sigfit_packaged_AC_Bin7_2016postVFP.root'
p188
aS'./Models/signal/CMS-HGG_sigfit_packaged_AC_Bin7_2016postVFP.root'
p189
aS'./Models/signal/CMS-HGG_sigfit_packaged_AC_Bin7_2016postVFP.root'
p190
aS'./Models/signal/CMS-HGG_sigfit_packaged_AC_Bin7_2016postVFP.root'
p191
aS'./Models/signal/CMS-HGG_sigfit_packaged_AC_Bin7_2016postVFP.root'
p192
aS'./Models/signal/CMS-HGG_sigfit_packaged_AC_Bin7_2016postVFP.root'
p193
aS'./Models/signal/CMS-HGG_sigfit_packaged_AC_Bin7_2016postVFP.root'
p194
aS'./Models/signal/CMS-HGG_sigfit_packaged_AC_Bin7_2016postVFP.root'
p195
aS'./Models/signal/CMS-HGG_sigfit_packaged_AC_Bin7_2016postVFP.root'
p196
aS'./Models/signal/CMS-HGG_sigfit_packaged_AC_Bin7_2016postVFP.root'
p197
aS'./Models/signal/CMS-HGG_sigfit_packaged_AC_Bin7_2016postVFP.root'
p198
aS'./Models/background/CMS-HGG_multipdf_AC_Bin7_2016postVFP.root'
p199
ag199
aS'wsig_13TeV:hggpdfsmrel_GG2HMf05ph0_2016postVFP_AC_Bin7_13TeV'
p200
aS'wsig_13TeV:hggpdfsmrel_GG2HbsmM_2016postVFP_AC_Bin7_13TeV'
p201
aS'wsig_13TeV:hggpdfsmrel_GG2Hsm_2016postVFP_AC_Bin7_13TeV'
p202
aS'wsig_13TeV:hggpdfsmrel_TTHsm_2016postVFP_AC_Bin7_13TeV'
p203
aS'wsig_13TeV:hggpdfsmrel_VBFMf05ph0_2016postVFP_AC_Bin7_13TeV'
p204
aS'wsig_13TeV:hggpdfsmrel_VBFbsmM_2016postVFP_AC_Bin7_13TeV'
p205
aS'wsig_13TeV:hggpdfsmrel_VBFsm_2016postVFP_AC_Bin7_13TeV'
p206
aS'wsig_13TeV:hggpdfsmrel_WHMf05ph0_2016postVFP_AC_Bin7_13TeV'
p207
aS'wsig_13TeV:hggpdfsmrel_WHbsmM_2016postVFP_AC_Bin7_13TeV'
p208
aS'wsig_13TeV:hggpdfsmrel_WHsm_2016postVFP_AC_Bin7_13TeV'
p209
aS'wsig_13TeV:hggpdfsmrel_ZHMf05ph0_2016postVFP_AC_Bin7_13TeV'
p210
aS'wsig_13TeV:hggpdfsmrel_ZHbsmM_2016postVFP_AC_Bin7_13TeV'
p211
aS'wsig_13TeV:hggpdfsmrel_ZHsm_2016postVFP_AC_Bin7_13TeV'
p212
aS'multipdf:CMS_hgg_AC_Bin7_2016postVFP_13TeV_bkgshape'
p213
aS'multipdf:roohist_data_mass_AC_Bin7'
p214
aF0.6854425259621166
aF0.7185882850683356
aF0.7227225835840727
aF0.028135532210399106
aF0.05473948624813829
aF0.0692726220803479
aF0.10064851721006107
aF0.006926761915792667
aF0.02568643605621901
aF0.05239398506580528
aF0.04042289718498182
aF0.03602171388286024
aF0.045870513576971916
ag145
ag145
aF1.6231729451368365e-05
aF1.7169097976269863e-05
aF1.677124505261539e-05
aF8.86139643032708e-06
aF6.828444057933254e-07
aF8.726950089685316e-07
aF5.041353194034921e-06
aF1.3228444590391062e-07
aF2.7482105735499563e-07
aF5.528741492707392e-07
aF2.7591553761120765e-07
aF2.5076680027623904e-07
aF7.857969695556634e-07
ag145
ag145
aF0.7027594903631891
aF0.7364297180974105
aF0.741447192074802
aF0.02889952839215059
aF0.056003537849116665
aF0.07092787185888999
aF0.10297862025090798
aF0.007083655015842057
aF0.026261061355302154
aF0.05360679233703088
aF0.04133851883721825
aF0.036853071905612884
aF0.04693818231646343
ag145
ag145
aF0.6901391078659372
aF0.7235113468400958
aF0.7276747107573381
aF0.028332251482322313
aF0.0551105493026298
aF0.06973864744080278
aF0.10133870667144503
aF0.006973119679089554
aF0.025858219038254037
aF0.05274662845702289
aF0.04069624143983046
aF0.036263585001197016
aF0.04618024471128342
ag145
ag145
aF0.6807621303739714
aF0.713682187473374
aF0.7177875251545259
aF0.027939500789569773
aF0.05436968502716098
aF0.06880816961077511
aF0.09996070743131628
aF0.006880559714082664
aF0.02551523005735434
aF0.052042535316293596
aF0.040150483017854184
aF0.035780659016737944
aF0.04556183578366983
ag145
ag145
aF0.693914836574106
aF0.7274906409793761
aF0.7316949877106248
aF0.02844303107227227
aF0.055415393302089506
aF0.07013958855840718
aF0.10191177947539079
aF0.007011444841722641
aF0.026002614190609268
aF0.05306080629145132
aF0.040923844643824585
aF0.03646905879600641
aF0.04642921492371573
ag145
ag145
aF0.6770217975743589
aF0.7097400411690368
aF0.7138047172382852
aF0.027830079168145297
aF0.05406752639947671
aF0.06841068679449533
aF0.09939304793805907
aF0.006842594186601723
aF0.0253720936691496
aF0.05173121446556695
aF0.039924954557125476
aF0.03557701554147941
aF0.04531526235957197
ag145
ag145
aF0.6867581113284524
aF0.7199595912866625
aF0.7241052069260546
aF0.028183873350961345
aF0.054846988523062315
aF0.06941379392927799
aF0.10084207675922925
aF0.006941265704114912
aF0.02573959545945589
aF0.05249998368351374
aF0.04050362061007874
aF0.03609530967664216
aF0.045961636500916926
ag145
ag145
aF0.6841282599653643
aF0.7172183251706966
aF0.7213413313656671
aF0.028087227116925777
aF0.0546320893247635
aF0.06913159379676527
aF0.1004551520173741
aF0.006912273405268359
aF0.025633330673861473
aF0.052288096660944264
aF0.040342256673399586
aF0.03594819511241082
aF0.045779487963314686
ag145
ag145
aF0.6869803153850762
aF0.7201882531497017
aF0.7243469664956049
aF0.028199256445624155
aF0.05486141801582918
aF0.06942824837368082
aF0.10087086881476999
aF0.006942109549804929
aF0.025742197175666708
aF0.052512637392280716
aF0.04051151305896766
aF0.036101680411811596
aF0.04597588568888299
ag145
ag145
aF0.683906479866878
aF0.7169901283153343
aF0.7211000360151921
aF0.028071879681153943
aF0.05461768963865628
aF0.0691171703906501
aF0.1004264156842035
aF0.0069114311958627835
aF0.02563073546568614
aF0.052275466680414044
aF0.040334380744675824
aF0.035941836021066834
aF0.045765261391748
ag145
ag145
aF0.6818044616863972
aF0.7132557133554656
aF0.7172125943091032
aF0.029305208891855727
aF0.05514997681433442
aF0.07012922471551519
aF0.08844740924337202
aF0.05473587210815367
aF0.05048627816154294
aF0.052075824808866855
aF0.04051621670058125
aF0.03631232311840904
aF0.04555214714508793
ag145
ag145
aF0.6880285625027227
aF0.7216769161823322
aF0.7252280847733346
aF0.028667035666330776
aF0.054217295965543144
aF0.06841274355099358
aF0.08855324927503716
aF0.0546134712200228
aF0.04988859170646265
aF0.052516246395498456
aF0.040131616375589374
aF0.035844589947203076
aF0.04619311016261918
ag145
ag145
aF0.7013426286977165
aF0.736858545094492
aF0.7384663450548032
aF0.02876491318875196
aF0.05530737298767008
aF0.0703847831771327
aF0.10318257335018188
aF0.055411056666457625
aF0.051115414121795766
aF0.053706696328049475
aF0.04106052538023164
aF0.0365401657807638
aF0.04675528474075463
ag145
ag145
aF0.6685841603562039
aF0.699940927246189
aF0.7032490537119429
aF0.02805586981412489
aF0.05383467504276496
aF0.06798170203569498
aF0.08712482561941215
aF0.0535458896944192
aF0.04901241235404541
aF0.051269904296418645
aF0.03959701888729228
aF0.03548645255654037
aF0.04489896004457705
ag145
ag145
aF0.6934108891950928
aF0.7264129014970422
aF0.7307395501266001
aF0.02811241337167303
aF0.055001009153158975
aF0.06937054233219442
aF0.09949344368783386
aF0.05462031100262266
aF0.05052082270412939
aF0.052734523063350025
aF0.040641535598780365
aF0.036263922978719165
aF0.046021211683125784
ag145
ag145
aF0.6777711606359844
aF0.7091943328687194
aF0.7143408747378999
aF0.028135532210399106
aF0.05449263135170668
aF0.06895316857014677
aF0.08792096386264348
aF0.054054109665344185
aF0.049825704083218625
aF0.052081048199170255
aF0.040113130950402365
aF0.035834897075972094
aF0.04564352299661323
ag145
ag145
aF0.7224006302922135
aF0.7551477794638686
aF0.7601894839659735
aF0.02676534643069317
aF0.05538101158930431
aF0.06972953554077321
aF0.09034098837094007
aF0.056587393480072024
aF0.05167413237256824
aF0.05410954703108928
aF0.041525423417027696
aF0.03690775141865288
aF0.04677803279167847
ag145
ag145
aF0.6519279763965642
aF0.6835082725067423
aF0.685779630879324
aF0.029299640652425296
aF0.053928842324182824
aF0.06842945496862285
aF0.08641685349130057
aF0.052925965339113645
aF0.04857477060511428
aF0.05048848514593374
aF0.03928091653492061
aF0.035124594608817006
aF0.0448191180717572
ag145
ag145
aF0.6900131996130767
aF0.7230953125238102
aF0.727270504688363
aF0.027987431647488847
aF0.054718140406578186
aF0.06929058096829976
aF0.08925660508634792
aF0.054780354638410245
aF0.05044906714465469
aF0.05238194604328328
aF0.04050417954798036
aF0.036070967518753605
aF0.045944045442126935
ag145
ag145
aF0.6815614410704711
aF0.7172349762411159
aF0.719220798646802
aF0.027758271271522972
aF0.05467399011644147
aF0.06907996441134401
aF0.0885122688600859
aF0.0545013421059366
aF0.04994968200264793
aF0.052366124610443876
aF0.040233575033227
aF0.0358097811913467
aF0.04578533928184925
ag145
ag145
atp215
ba(lp216
g15
(g16
(dp217
g18
g19
(g20
(I0
tp218
g22
tp219
Rp220
(I1
(I1
tp221
g29
I00
(lp222
g43
atp223
bsg66
Nstp224
Rp225
ag15
(g16
(dp226
g18
g19
(g20
(I0
tp227
g22
tp228
Rp229
(I1
(I31
tp230
g29
I00
(lp231
g33
ag34
ag35
ag36
ag37
ag38
ag39
ag40
ag41
ag42
ag44
ag45
ag46
ag47
ag48
ag49
ag50
ag51
ag52
ag53
ag54
ag55
ag56
ag57
ag58
ag59
ag60
ag61
ag62
ag63
ag64
atp232
bsg66
Nstp233
Rp234
a(dp235
S'0.14.1'
p236
(dp237
S'axes'
p238
g14
sS'blocks'
p239
(lp240
(dp241
S'mgr_locs'
p242
c__builtin__
slice
p243
(I10
I11
I1
tp244
Rp245
sS'values'
p246
g87
sa(dp247
g242
g19
(g20
(I0
tp248
g22
tp249
Rp250
(I1
(I31
tp251
g77
I00
S'\x00\x00\x00\x00\x00\x00\x00\x00\x01\x00\x00\x00\x00\x00\x00\x00\x02\x00\x00\x00\x00\x00\x00\x00\x03\x00\x00\x00\x00\x00\x00\x00\x04\x00\x00\x00\x00\x00\x00\x00\x05\x00\x00\x00\x00\x00\x00\x00\x06\x00\x00\x00\x00\x00\x00\x00\x07\x00\x00\x00\x00\x00\x00\x00\x08\x00\x00\x00\x00\x00\x00\x00\t\x00\x00\x00\x00\x00\x00\x00\x0b\x00\x00\x00\x00\x00\x00\x00\x0c\x00\x00\x00\x00\x00\x00\x00\r\x00\x00\x00\x00\x00\x00\x00\x0e\x00\x00\x00\x00\x00\x00\x00\x0f\x00\x00\x00\x00\x00\x00\x00\x10\x00\x00\x00\x00\x00\x00\x00\x11\x00\x00\x00\x00\x00\x00\x00\x12\x00\x00\x00\x00\x00\x00\x00\x13\x00\x00\x00\x00\x00\x00\x00\x14\x00\x00\x00\x00\x00\x00\x00\x15\x00\x00\x00\x00\x00\x00\x00\x16\x00\x00\x00\x00\x00\x00\x00\x17\x00\x00\x00\x00\x00\x00\x00\x18\x00\x00\x00\x00\x00\x00\x00\x19\x00\x00\x00\x00\x00\x00\x00\x1a\x00\x00\x00\x00\x00\x00\x00\x1b\x00\x00\x00\x00\x00\x00\x00\x1c\x00\x00\x00\x00\x00\x00\x00\x1d\x00\x00\x00\x00\x00\x00\x00\x1e\x00\x00\x00\x00\x00\x00\x00\x1f\x00\x00\x00\x00\x00\x00\x00'
p252
tp253
bsg246
g98
sasstp254
bsb.