ccopy_reg
_reconstructor
p0
(cpandas.core.frame
DataFrame
p1
c__builtin__
object
p2
Ntp3
Rp4
(dp5
S'_metadata'
p6
(lp7
sS'_typ'
p8
S'dataframe'
p9
sS'_data'
p10
g0
(cpandas.core.internals
BlockManager
p11
g2
Ntp12
Rp13
((lp14
cpandas.core.indexes.base
_new_Index
p15
(cpandas.core.indexes.base
Index
p16
(dp17
S'data'
p18
cnumpy.core.multiarray
_reconstruct
p19
(cnumpy
ndarray
p20
(I0
tp21
S'b'
p22
tp23
Rp24
(I1
(I32
tp25
cnumpy
dtype
p26
(S'O8'
p27
I0
I1
tp28
Rp29
(I3
S'|'
p30
NNNI-1
I-1
I63
tp31
bI00
(lp32
S'year'
p33
aS'type'
p34
aS'procOriginal'
p35
aS'proc'
p36
aS'proc_s0'
p37
aS'cat'
p38
aS'inputWSFile'
p39
aS'nominalDataName'
p40
aS'modelWSFile'
p41
aS'model'
p42
aS'rate'
p43
aS'nominal_yield'
p44
aS'sumw2'
p45
aS'nominal_yield_COWCorr'
p46
aS'LooseMvaSF_up_yield'
p47
aS'LooseMvaSF_down_yield'
p48
aS'PreselSF_up_yield'
p49
aS'PreselSF_down_yield'
p50
aS'electronVetoSF_up_yield'
p51
aS'electronVetoSF_down_yield'
p52
aS'TriggerWeight_up_yield'
p53
aS'TriggerWeight_down_yield'
p54
aS'SigmaEOverEShift_up_yield'
p55
aS'SigmaEOverEShift_down_yield'
p56
aS'MvaShift_up_yield'
p57
aS'MvaShift_down_yield'
p58
aS'PUJIDShift_up_yield'
p59
aS'PUJIDShift_down_yield'
p60
aS'JEC_up_yield'
p61
aS'JEC_down_yield'
p62
aS'JER_up_yield'
p63
aS'JER_down_yield'
p64
atp65
bsS'name'
p66
Nstp67
Rp68
ag15
(cpandas.core.indexes.numeric
Int64Index
p69
(dp70
g18
g19
(g20
(I0
tp71
g22
tp72
Rp73
(I1
(I15
tp74
g26
(S'i8'
p75
I0
I1
tp76
Rp77
(I3
S'<'
p78
NNNI-1
I-1
I0
tp79
bI00
S'\x00\x00\x00\x00\x00\x00\x00\x00\x01\x00\x00\x00\x00\x00\x00\x00\x02\x00\x00\x00\x00\x00\x00\x00\x03\x00\x00\x00\x00\x00\x00\x00\x04\x00\x00\x00\x00\x00\x00\x00\x05\x00\x00\x00\x00\x00\x00\x00\x06\x00\x00\x00\x00\x00\x00\x00\x07\x00\x00\x00\x00\x00\x00\x00\x08\x00\x00\x00\x00\x00\x00\x00\t\x00\x00\x00\x00\x00\x00\x00\n\x00\x00\x00\x00\x00\x00\x00\x0b\x00\x00\x00\x00\x00\x00\x00\x0c\x00\x00\x00\x00\x00\x00\x00\r\x00\x00\x00\x00\x00\x00\x00\x0e\x00\x00\x00\x00\x00\x00\x00'
p80
tp81
bsg66
Nstp82
Rp83
a(lp84
g19
(g20
(I0
tp85
g22
tp86
Rp87
(I1
(I1
I15
tp88
g26
(S'f8'
p89
I0
I1
tp90
Rp91
(I3
S'<'
p92
NNNI-1
I-1
I0
tp93
bI00
S'\x00\x00\x00\x00\x80j\xd0@\x00\x00\x00\x00\x80j\xd0@\x00\x00\x00\x00\x80j\xd0@\x00\x00\x00\x00\x80j\xd0@\x00\x00\x00\x00\x80j\xd0@\x00\x00\x00\x00\x80j\xd0@\x00\x00\x00\x00\x80j\xd0@\x00\x00\x00\x00\x80j\xd0@\x00\x00\x00\x00\x80j\xd0@\x00\x00\x00\x00\x80j\xd0@\x00\x00\x00\x00\x80j\xd0@\x00\x00\x00\x00\x80j\xd0@\x00\x00\x00\x00\x80j\xd0@\x00\x00\x00\x00\x00\x00\xf0?\x00\x00\x00\x00\x00\x00\xf0\xbf'
p94
tp95
bag19
(g20
(I0
tp96
g22
tp97
Rp98
(I1
(I31
I15
tp99
g29
I00
(lp100
S'2016postVFP'
p101
ag101
ag101
ag101
ag101
ag101
ag101
ag101
ag101
ag101
ag101
ag101
ag101
ag33
ag33
aS'sig'
p102
ag102
ag102
ag102
ag102
ag102
ag102
ag102
ag102
ag102
ag102
ag102
ag102
aS'bkg'
p103
ag18
aS'GG2HMf05ph0'
p104
aS'GG2HbsmM'
p105
aS'GG2Hsm'
p106
aS'TTHsm'
p107
aS'VBFMf05ph0'
p108
aS'VBFbsmM'
p109
aS'VBFsm'
p110
aS'WHMf05ph0'
p111
aS'WHbsmM'
p112
aS'WHsm'
p113
aS'ZHMf05ph0'
p114
aS'ZHbsmM'
p115
aS'ZHsm'
p116
aS'bkg_mass'
p117
aS'data_obs'
p118
aS'GG2HMf05ph0_2016postVFP_hgg'
p119
aS'GG2HbsmM_2016postVFP_hgg'
p120
aS'GG2Hsm_2016postVFP_hgg'
p121
aS'tth0P_2016postVFP_hgg'
p122
aS'vbf0Mf05ph0_2016postVFP_hgg'
p123
aS'vbf0M_2016postVFP_hgg'
p124
aS'vbf0P_2016postVFP_hgg'
p125
aS'wh0Mf05ph0_2016postVFP_hgg'
p126
aS'wh0M_2016postVFP_hgg'
p127
aS'wh0P_2016postVFP_hgg'
p128
aS'zh0Mf05ph0_2016postVFP_hgg'
p129
aS'zh0M_2016postVFP_hgg'
p130
aS'zh0P_2016postVFP_hgg'
p131
ag117
ag118
aS'jjh0Mf05ph0'
p132
aS'jjh0M'
p133
aS'jjh0P'
p134
aS'tth0P'
p135
aS'vbf0Mf05ph0'
p136
aS'vbf0M'
p137
aS'vbf0P'
p138
aS'wh0Mf05ph0'
p139
aS'wh0M'
p140
aS'wh0P'
p141
aS'zh0Mf05ph0'
p142
aS'zh0M'
p143
aS'zh0P'
p144
aS'-'
p145
ag145
aS'AC_Bin19_2016postVFP'
p146
aS'AC_Bin19_2016postVFP'
p147
aS'AC_Bin19_2016postVFP'
p148
aS'AC_Bin19_2016postVFP'
p149
aS'AC_Bin19_2016postVFP'
p150
aS'AC_Bin19_2016postVFP'
p151
aS'AC_Bin19_2016postVFP'
p152
aS'AC_Bin19_2016postVFP'
p153
aS'AC_Bin19_2016postVFP'
p154
aS'AC_Bin19_2016postVFP'
p155
aS'AC_Bin19_2016postVFP'
p156
aS'AC_Bin19_2016postVFP'
p157
aS'AC_Bin19_2016postVFP'
p158
aS'AC_Bin19_2016postVFP'
p159
ag159
aS'Trees/Opt_2016postVFP/2016PostVFP/Trees2WS_2016postVFP/WS/output_GluGluHToGGPlusTwoJets_MM_M125_TuneCP5_13TeV-amcatnlopowheg-minlo-pythia8_GG2HMf05ph0.root'
p160
aS'Trees/Opt_2016postVFP/2016PostVFP/Trees2WS_2016postVFP/WS/output_GluGluHToGGPlusTwoJets_CPodd_M125_TuneCP5_13TeV-amcatnlopowheg-minlo-pythia8_GG2HbsmM.root'
p161
aS'Trees/Opt_2016postVFP/2016PostVFP/Trees2WS_2016postVFP/WS/output_GluGluHToGGPlusTwoJets_SM_M125_TuneCP5_13TeV-amcatnlopowheg-minlo-pythia8_GG2Hsm.root'
p162
aS'Trees/Opt_2016postVFP/2016PostVFP/Trees2WS_2016postVFP/WS/output_ttHJetToGG_M125_TuneCP5_13TeV-amcatnloFXFX-madspin-pythia8_TTHsm.root'
p163
aS'Trees/Opt_2016postVFP/2016PostVFP/Trees2WS_2016postVFP/WS/output_VBFHiggs0Mf05ph0ToGG_M125_TuneCP5_13TeV-JHUGenV7011-pythia8_VBFMf05ph0.root'
p164
aS'Trees/Opt_2016postVFP/2016PostVFP/Trees2WS_2016postVFP/WS/output_VBFHiggs0MToGG_M125_TuneCP5_13TeV-JHUGenV7011-pythia8_VBFbsmM.root'
p165
aS'Trees/Opt_2016postVFP/2016PostVFP/Trees2WS_2016postVFP/WS/output_VBFHToGG_M125_TuneCP5_13TeV-amcatnlo-pythia8_VBFsm.root'
p166
aS'Trees/Opt_2016postVFP/2016PostVFP/Trees2WS_2016postVFP/WS/output_WHiggs0Mf05ph0ToGG_M125_TuneCP5_13TeV-JHUGenV7011-pythia8_WHMf05ph0.root'
p167
aS'Trees/Opt_2016postVFP/2016PostVFP/Trees2WS_2016postVFP/WS/output_WHiggs0MToGG_M125_TuneCP5_13TeV-JHUGenV7011-pythia8_WHbsmM.root'
p168
aS'Trees/Opt_2016postVFP/2016PostVFP/Trees2WS_2016postVFP/WS/output_WHiggs0PMToGG_M125_TuneCP5_13TeV-JHUGenV7011-pythia8_WHsm.root'
p169
aS'Trees/Opt_2016postVFP/2016PostVFP/Trees2WS_2016postVFP/WS/output_ZHiggs0Mf05ph0ToGG_M125_TuneCP5_13TeV-JHUGenV7011-pythia8_ZHMf05ph0.root'
p170
aS'Trees/Opt_2016postVFP/2016PostVFP/Trees2WS_2016postVFP/WS/output_ZHiggs0MToGG_M125_TuneCP5_13TeV-JHUGenV7011-pythia8_ZHbsmM.root'
p171
aS'Trees/Opt_2016postVFP/2016PostVFP/Trees2WS_2016postVFP/WS/output_ZH_HToGG_ZToAll_M125_TuneCP5_13TeV-powheg-pythia8_ZHsm.root'
p172
ag145
ag145
aS'jjh0Mf05ph0_125_13TeV_AC_Bin19'
p173
aS'jjh0M_125_13TeV_AC_Bin19'
p174
aS'jjh0P_125_13TeV_AC_Bin19'
p175
aS'tth0P_125_13TeV_AC_Bin19'
p176
aS'vbf0Mf05ph0_125_13TeV_AC_Bin19'
p177
aS'vbf0M_125_13TeV_AC_Bin19'
p178
aS'vbf0P_125_13TeV_AC_Bin19'
p179
aS'wh0Mf05ph0_125_13TeV_AC_Bin19'
p180
aS'wh0M_125_13TeV_AC_Bin19'
p181
aS'wh0P_125_13TeV_AC_Bin19'
p182
aS'zh0Mf05ph0_125_13TeV_AC_Bin19'
p183
aS'zh0M_125_13TeV_AC_Bin19'
p184
aS'zh0P_125_13TeV_AC_Bin19'
p185
ag145
ag145
aS'./Models/signal/CMS-HGG_sigfit_packaged_AC_Bin19_2016postVFP.root'
p186
aS'./Models/signal/CMS-HGG_sigfit_packaged_AC_Bin19_2016postVFP.root'
p187
aS'./Models/signal/CMS-HGG_sigfit_packaged_AC_Bin19_2016postVFP.root'
p188
aS'./Models/signal/CMS-HGG_sigfit_packaged_AC_Bin19_2016postVFP.root'
p189
aS'./Models/signal/CMS-HGG_sigfit_packaged_AC_Bin19_2016postVFP.root'
p190
aS'./Models/signal/CMS-HGG_sigfit_packaged_AC_Bin19_2016postVFP.root'
p191
aS'./Models/signal/CMS-HGG_sigfit_packaged_AC_Bin19_2016postVFP.root'
p192
aS'./Models/signal/CMS-HGG_sigfit_packaged_AC_Bin19_2016postVFP.root'
p193
aS'./Models/signal/CMS-HGG_sigfit_packaged_AC_Bin19_2016postVFP.root'
p194
aS'./Models/signal/CMS-HGG_sigfit_packaged_AC_Bin19_2016postVFP.root'
p195
aS'./Models/signal/CMS-HGG_sigfit_packaged_AC_Bin19_2016postVFP.root'
p196
aS'./Models/signal/CMS-HGG_sigfit_packaged_AC_Bin19_2016postVFP.root'
p197
aS'./Models/signal/CMS-HGG_sigfit_packaged_AC_Bin19_2016postVFP.root'
p198
aS'./Models/background/CMS-HGG_multipdf_AC_Bin19_2016postVFP.root'
p199
ag199
aS'wsig_13TeV:hggpdfsmrel_GG2HMf05ph0_2016postVFP_AC_Bin19_13TeV'
p200
aS'wsig_13TeV:hggpdfsmrel_GG2HbsmM_2016postVFP_AC_Bin19_13TeV'
p201
aS'wsig_13TeV:hggpdfsmrel_GG2Hsm_2016postVFP_AC_Bin19_13TeV'
p202
aS'wsig_13TeV:hggpdfsmrel_TTHsm_2016postVFP_AC_Bin19_13TeV'
p203
aS'wsig_13TeV:hggpdfsmrel_VBFMf05ph0_2016postVFP_AC_Bin19_13TeV'
p204
aS'wsig_13TeV:hggpdfsmrel_VBFbsmM_2016postVFP_AC_Bin19_13TeV'
p205
aS'wsig_13TeV:hggpdfsmrel_VBFsm_2016postVFP_AC_Bin19_13TeV'
p206
aS'wsig_13TeV:hggpdfsmrel_WHMf05ph0_2016postVFP_AC_Bin19_13TeV'
p207
aS'wsig_13TeV:hggpdfsmrel_WHbsmM_2016postVFP_AC_Bin19_13TeV'
p208
aS'wsig_13TeV:hggpdfsmrel_WHsm_2016postVFP_AC_Bin19_13TeV'
p209
aS'wsig_13TeV:hggpdfsmrel_ZHMf05ph0_2016postVFP_AC_Bin19_13TeV'
p210
aS'wsig_13TeV:hggpdfsmrel_ZHbsmM_2016postVFP_AC_Bin19_13TeV'
p211
aS'wsig_13TeV:hggpdfsmrel_ZHsm_2016postVFP_AC_Bin19_13TeV'
p212
aS'multipdf:CMS_hgg_AC_Bin19_2016postVFP_13TeV_bkgshape'
p213
aS'multipdf:roohist_data_mass_AC_Bin19'
p214
aF0.024970467415641906
aF0.01657856310362149
aF0.027184433396541863
aF0.0005893686939089093
aF0.004347965841361656
aF0.0005221512899424852
aF0.017623000238245368
aF6.392345721906167e-05
aF7.873955337345251e-05
aF0.0003755415127670858
aF0.00015380500599349034
aF0.00011276731743237178
aF0.0003612402510952961
ag145
ag145
aF5.856441937615318e-07
aF4.3124223363578477e-07
aF6.339066029132369e-07
aF1.167415293790153e-07
aF5.236011317037915e-08
aF6.775835533099593e-09
aF8.186546325251503e-07
aF9.042195702496089e-10
aF7.125197451103274e-10
aF4.102952105998926e-09
aF1.0561112704310087e-09
aF7.698469837782101e-10
aF5.569679684258329e-09
ag145
ag145
aF0.025835669284409644
aF0.01704603507195451
aF0.028204018960846337
aF0.0006017260772743979
aF0.004490437469259784
aF0.0005446408237566469
aF0.018111558792728775
aF7.027866091043289e-05
aF8.029553335223026e-05
aF0.00038204089683986625
aF0.00015700827549271722
aF0.00011542671229557291
aF0.0003718886568768262
ag145
ag145
aF0.02513771425921783
aF0.01669097860769779
aF0.027368385624976194
aF0.0005937541410155757
aF0.004376486657797477
aF0.0005255334010214722
aF0.01773731124943148
aF6.437346544865258e-05
aF7.926527863887291e-05
aF0.00037790974926191554
aF0.00015476105386265233
aF0.00011353885079488776
aF0.0003635137865487675
ag145
ag145
aF0.02480378094810791
aF0.01646652913809289
aF0.027001102300362217
aF0.0005849994502515114
aF0.004319538533857009
aF0.0005187800302271836
aF0.017509061030406198
aF6.3475056179645e-05
aF7.821563489625265e-05
aF0.0003731808552617739
aF0.0001528518864353727
aF0.0001119984044172467
aF0.0003589740841860458
ag145
ag145
aF0.025339181692473994
aF0.016819659758728185
aF0.02758070505991187
aF0.0005926832021491458
aF0.004408571542979301
aF0.0005305432528502638
aF0.01787186435182393
aF6.457999033155566e-05
aF7.945024330007127e-05
aF0.00038069840111820284
aF0.00015602866929701855
aF0.00011519868210973884
aF0.0003673739275323055
ag145
ag145
aF0.024604406748432586
aF0.016339047033882774
aF0.02679096450562301
aF0.0005860041318879686
aF0.0042877602911138525
aF0.000513828617376219
aF0.017375858327757423
aF6.327012296636839e-05
aF7.803207694959499e-05
aF0.0003704191689538414
aF0.00015160260403765415
aF0.00011035648432484522
aF0.0003551540275386271
ag145
ag145
aF0.02502491250508877
aF0.016613672516614518
aF0.02724304001009221
aF0.0005899683930581944
aF0.004358125346773879
aF0.0005235334299022956
aF0.017665552315729454
aF6.408008965903859e-05
aF7.887466178000892e-05
aF0.00037640943273418276
aF0.00015419074304940807
aF0.00011301940036905298
aF0.0003621610766020563
ag145
ag145
aF0.024916080256551714
aF0.016543492305262388
aF0.027125887733451128
aF0.0005887689533177242
aF0.004337818660032422
aF0.0005207706367135755
aF0.017580502466392495
aF6.376696286663806e-05
aF7.860457538538488e-05
aF0.0003746745376053819
aF0.0001534197945780584
aF0.00011251548758312988
aF0.0003603206164764653
ag145
ag145
aF0.02502749660967644
aF0.01661679966977975
aF0.027247815399343768
aF0.0005905463572362052
aF0.0043582124963751105
aF0.000523381141711149
aF0.0176631734547812
aF6.430035046486665e-05
aF7.889913669397948e-05
aF0.000376339080982299
aF0.00015411670453122005
aF0.0001129970339999858
aF0.00036208915990758105
ag145
ag145
aF0.02491350332655086
aF0.016540372346223645
aF0.027121125015345682
aF0.0005881922399841074
aF0.004337731264508696
aF0.0005209228638056662
aF0.017582865463688962
aF6.354719143731024e-05
aF7.85801351622582e-05
aF0.0003747447911352426
aF0.00015349362212061716
aF0.00011253783518787937
aF0.00036039232493502064
ag145
ag145
aF0.025752615773399157
aF0.017093046145873814
aF0.028143096488520314
aF0.0006596900457225274
aF0.004581609894216854
aF0.000541906106946044
aF0.013640231009503623
aF0.000271623165190249
aF0.00022050600318834768
aF0.00038067987907197676
aF0.00015380500599349034
aF0.00011276731743237178
aF0.00039084150239432347
ag145
ag145
aF0.024064019098432254
aF0.016360370918164335
aF0.026298501637711524
aF0.0005325279526005033
aF0.004241869424959077
aF0.0005312814116678055
aF0.01274991412219606
aF0.00024585384198871907
aF0.00019904185637642513
aF0.00033935439023480285
aF0.0001482465336266614
aF0.00010859530880225066
aF0.00035211448584959726
ag145
ag145
aF0.025202740402164636
aF0.01653283103019021
aF0.02756799912867791
aF0.0006850263962405734
aF0.004297853238995231
aF0.00046007824471416825
aF0.017166556834126823
aF0.00025925546151484014
aF0.000223225399167859
aF0.00040612943303131033
aF0.0001903093000237277
aF9.495714834883984e-05
aF0.00033420218369428767
ag145
ag145
aF0.024450387900515125
aF0.016149041969356404
aF0.02724314576857978
aF0.0005948767211521044
aF0.004348671897105305
aF0.0005434612073713652
aF0.013542465527734748
aF0.000271623165190249
aF0.000204588755423174
aF0.0003542745039339934
aF0.0001436841082522733
aF0.00010624229912536975
aF0.00039502893241660786
ag145
ag145
aF0.025611491663312336
aF0.017055880819725644
aF0.027872687895069248
aF0.0005893686939089093
aF0.004416569045815777
aF0.0005221512899424852
aF0.024352310591780224
aF0.000271623165190249
aF0.00021042116759417695
aF0.0003868368476105388
aF0.000161347793891764
aF0.00011276731743237178
aF0.0003379436570867256
ag145
ag145
aF0.024278772864818166
aF0.015975535245843275
aF0.026726861391580314
aF0.0005893686939089093
aF0.004253104570807409
aF0.0005221512899424852
aF0.01693184552641469
aF0.00025743624200913473
aF0.00020363006660772953
aF0.0003631617673818255
aF0.00015380500599349034
aF0.00011276731743237178
aF0.0003612402510952961
ag145
ag145
aF0.02762836456918194
aF0.018413040673294745
aF0.029694041351376654
aF0.00045861207399866544
aF0.004541799328421803
aF0.0005155563223979698
aF0.028251562706941513
aF0.00034405934593451093
aF0.00023576193416374736
aF0.0004320344146435673
aF0.00018946458112623077
aF0.00015203069483504805
aF0.00034336805083512445
ag145
ag145
aF0.02247648264255986
aF0.01510529427309848
aF0.025134999350257203
aF0.0006875787403259892
aF0.004188139169400529
aF0.0004811235455690621
aF0.017185189041242666
aF0.00024969426112875226
aF0.00021828947546964628
aF0.00034053488343488425
aF0.0001521885474176088
aF9.838614437285287e-05
aF0.0002672691109637526
ag145
ag145
aF0.025316023735513227
aF0.017140815545417354
aF0.027696416523212974
aF0.0005893686939089093
aF0.004354196890517414
aF0.0005010781349028548
aF0.016554176071394977
aF0.0002814798058352608
aF0.00019635375701909652
aF0.00039864415612100856
aF0.0001822204308155051
aF0.0001343105566320446
aF0.00032449201944473316
ag145
ag145
aF0.025030530796129824
aF0.01625685657450049
aF0.026708278640626304
aF0.0006295963285083417
aF0.004367842902638586
aF0.000496003486432528
aF0.01331461860172567
aF0.00025743624200913473
aF0.0001803512991500611
aF0.0003664325404315605
aF0.00013707089601666667
aF0.00011502982192723721
aF0.0003353119047915243
ag145
ag145
atp215
ba(lp216
g15
(g16
(dp217
g18
g19
(g20
(I0
tp218
g22
tp219
Rp220
(I1
(I1
tp221
g29
I00
(lp222
g43
atp223
bsg66
Nstp224
Rp225
ag15
(g16
(dp226
g18
g19
(g20
(I0
tp227
g22
tp228
Rp229
(I1
(I31
tp230
g29
I00
(lp231
g33
ag34
ag35
ag36
ag37
ag38
ag39
ag40
ag41
ag42
ag44
ag45
ag46
ag47
ag48
ag49
ag50
ag51
ag52
ag53
ag54
ag55
ag56
ag57
ag58
ag59
ag60
ag61
ag62
ag63
ag64
atp232
bsg66
Nstp233
Rp234
a(dp235
S'0.14.1'
p236
(dp237
S'axes'
p238
g14
sS'blocks'
p239
(lp240
(dp241
S'mgr_locs'
p242
c__builtin__
slice
p243
(I10
I11
I1
tp244
Rp245
sS'values'
p246
g87
sa(dp247
g242
g19
(g20
(I0
tp248
g22
tp249
Rp250
(I1
(I31
tp251
g77
I00
S'\x00\x00\x00\x00\x00\x00\x00\x00\x01\x00\x00\x00\x00\x00\x00\x00\x02\x00\x00\x00\x00\x00\x00\x00\x03\x00\x00\x00\x00\x00\x00\x00\x04\x00\x00\x00\x00\x00\x00\x00\x05\x00\x00\x00\x00\x00\x00\x00\x06\x00\x00\x00\x00\x00\x00\x00\x07\x00\x00\x00\x00\x00\x00\x00\x08\x00\x00\x00\x00\x00\x00\x00\t\x00\x00\x00\x00\x00\x00\x00\x0b\x00\x00\x00\x00\x00\x00\x00\x0c\x00\x00\x00\x00\x00\x00\x00\r\x00\x00\x00\x00\x00\x00\x00\x0e\x00\x00\x00\x00\x00\x00\x00\x0f\x00\x00\x00\x00\x00\x00\x00\x10\x00\x00\x00\x00\x00\x00\x00\x11\x00\x00\x00\x00\x00\x00\x00\x12\x00\x00\x00\x00\x00\x00\x00\x13\x00\x00\x00\x00\x00\x00\x00\x14\x00\x00\x00\x00\x00\x00\x00\x15\x00\x00\x00\x00\x00\x00\x00\x16\x00\x00\x00\x00\x00\x00\x00\x17\x00\x00\x00\x00\x00\x00\x00\x18\x00\x00\x00\x00\x00\x00\x00\x19\x00\x00\x00\x00\x00\x00\x00\x1a\x00\x00\x00\x00\x00\x00\x00\x1b\x00\x00\x00\x00\x00\x00\x00\x1c\x00\x00\x00\x00\x00\x00\x00\x1d\x00\x00\x00\x00\x00\x00\x00\x1e\x00\x00\x00\x00\x00\x00\x00\x1f\x00\x00\x00\x00\x00\x00\x00'
p252
tp253
bsg246
g98
sasstp254
bsb.