ccopy_reg
_reconstructor
p0
(cpandas.core.frame
DataFrame
p1
c__builtin__
object
p2
Ntp3
Rp4
(dp5
S'_metadata'
p6
(lp7
sS'_typ'
p8
S'dataframe'
p9
sS'_data'
p10
g0
(cpandas.core.internals
BlockManager
p11
g2
Ntp12
Rp13
((lp14
cpandas.core.indexes.base
_new_Index
p15
(cpandas.core.indexes.base
Index
p16
(dp17
S'data'
p18
cnumpy.core.multiarray
_reconstruct
p19
(cnumpy
ndarray
p20
(I0
tp21
S'b'
p22
tp23
Rp24
(I1
(I34
tp25
cnumpy
dtype
p26
(S'O8'
p27
I0
I1
tp28
Rp29
(I3
S'|'
p30
NNNI-1
I-1
I63
tp31
bI00
(lp32
S'year'
p33
aS'type'
p34
aS'procOriginal'
p35
aS'proc'
p36
aS'proc_s0'
p37
aS'cat'
p38
aS'inputWSFile'
p39
aS'nominalDataName'
p40
aS'modelWSFile'
p41
aS'model'
p42
aS'rate'
p43
aS'nominal_yield'
p44
aS'sumw2'
p45
aS'nominal_yield_COWCorr'
p46
aS'LooseMvaSF_up_yield'
p47
aS'LooseMvaSF_down_yield'
p48
aS'PreselSF_up_yield'
p49
aS'PreselSF_down_yield'
p50
aS'electronVetoSF_up_yield'
p51
aS'electronVetoSF_down_yield'
p52
aS'TriggerWeight_up_yield'
p53
aS'TriggerWeight_down_yield'
p54
aS'SigmaEOverEShift_up_yield'
p55
aS'SigmaEOverEShift_down_yield'
p56
aS'MvaShift_up_yield'
p57
aS'MvaShift_down_yield'
p58
aS'PUJIDShift_up_yield'
p59
aS'PUJIDShift_down_yield'
p60
aS'JEC_up_yield'
p61
aS'JEC_down_yield'
p62
aS'JER_up_yield'
p63
aS'JER_down_yield'
p64
aS'JetHEM_up_yield'
p65
aS'JetHEM_down_yield'
p66
atp67
bsS'name'
p68
Nstp69
Rp70
ag15
(cpandas.core.indexes.numeric
Int64Index
p71
(dp72
g18
g19
(g20
(I0
tp73
g22
tp74
Rp75
(I1
(I15
tp76
g26
(S'i8'
p77
I0
I1
tp78
Rp79
(I3
S'<'
p80
NNNI-1
I-1
I0
tp81
bI00
S'\x00\x00\x00\x00\x00\x00\x00\x00\x01\x00\x00\x00\x00\x00\x00\x00\x02\x00\x00\x00\x00\x00\x00\x00\x03\x00\x00\x00\x00\x00\x00\x00\x04\x00\x00\x00\x00\x00\x00\x00\x05\x00\x00\x00\x00\x00\x00\x00\x06\x00\x00\x00\x00\x00\x00\x00\x07\x00\x00\x00\x00\x00\x00\x00\x08\x00\x00\x00\x00\x00\x00\x00\t\x00\x00\x00\x00\x00\x00\x00\n\x00\x00\x00\x00\x00\x00\x00\x0b\x00\x00\x00\x00\x00\x00\x00\x0c\x00\x00\x00\x00\x00\x00\x00\r\x00\x00\x00\x00\x00\x00\x00\x0e\x00\x00\x00\x00\x00\x00\x00'
p82
tp83
bsg68
Nstp84
Rp85
a(lp86
g19
(g20
(I0
tp87
g22
tp88
Rp89
(I1
(I1
I15
tp90
g26
(S'f8'
p91
I0
I1
tp92
Rp93
(I3
S'<'
p94
NNNI-1
I-1
I0
tp95
bI00
S'\x00\x00\x00\x00\x80j\xd0@\x00\x00\x00\x00\x80j\xd0@\x00\x00\x00\x00\x80j\xd0@\x00\x00\x00\x00\x80j\xd0@\x00\x00\x00\x00\x80j\xd0@\x00\x00\x00\x00\x80j\xd0@\x00\x00\x00\x00\x80j\xd0@\x00\x00\x00\x00\x80j\xd0@\x00\x00\x00\x00\x80j\xd0@\x00\x00\x00\x00\x80j\xd0@\x00\x00\x00\x00\x80j\xd0@\x00\x00\x00\x00\x80j\xd0@\x00\x00\x00\x00\x80j\xd0@\x00\x00\x00\x00\x00\x00\xf0?\x00\x00\x00\x00\x00\x00\xf0\xbf'
p96
tp97
bag19
(g20
(I0
tp98
g22
tp99
Rp100
(I1
(I33
I15
tp101
g29
I00
(lp102
S'2016postVFP'
p103
ag103
ag103
ag103
ag103
ag103
ag103
ag103
ag103
ag103
ag103
ag103
ag103
ag33
ag33
aS'sig'
p104
ag104
ag104
ag104
ag104
ag104
ag104
ag104
ag104
ag104
ag104
ag104
ag104
aS'bkg'
p105
ag18
aS'GG2HMf05ph0'
p106
aS'GG2HbsmM'
p107
aS'GG2Hsm'
p108
aS'TTHsm'
p109
aS'VBFMf05ph0'
p110
aS'VBFbsmM'
p111
aS'VBFsm'
p112
aS'WHMf05ph0'
p113
aS'WHbsmM'
p114
aS'WHsm'
p115
aS'ZHMf05ph0'
p116
aS'ZHbsmM'
p117
aS'ZHsm'
p118
aS'bkg_mass'
p119
aS'data_obs'
p120
aS'GG2HMf05ph0_2016postVFP_hgg'
p121
aS'GG2HbsmM_2016postVFP_hgg'
p122
aS'GG2Hsm_2016postVFP_hgg'
p123
aS'tth0P_2016postVFP_hgg'
p124
aS'vbf0Mf05ph0_2016postVFP_hgg'
p125
aS'vbf0M_2016postVFP_hgg'
p126
aS'vbf0P_2016postVFP_hgg'
p127
aS'wh0Mf05ph0_2016postVFP_hgg'
p128
aS'wh0M_2016postVFP_hgg'
p129
aS'wh0P_2016postVFP_hgg'
p130
aS'zh0Mf05ph0_2016postVFP_hgg'
p131
aS'zh0M_2016postVFP_hgg'
p132
aS'zh0P_2016postVFP_hgg'
p133
ag119
ag120
aS'jjh0Mf05ph0'
p134
aS'jjh0M'
p135
aS'jjh0P'
p136
aS'tth0P'
p137
aS'vbf0Mf05ph0'
p138
aS'vbf0M'
p139
aS'vbf0P'
p140
aS'wh0Mf05ph0'
p141
aS'wh0M'
p142
aS'wh0P'
p143
aS'zh0Mf05ph0'
p144
aS'zh0M'
p145
aS'zh0P'
p146
aS'-'
p147
ag147
aS'AC_Bin24_2016postVFP'
p148
aS'AC_Bin24_2016postVFP'
p149
aS'AC_Bin24_2016postVFP'
p150
aS'AC_Bin24_2016postVFP'
p151
aS'AC_Bin24_2016postVFP'
p152
aS'AC_Bin24_2016postVFP'
p153
aS'AC_Bin24_2016postVFP'
p154
aS'AC_Bin24_2016postVFP'
p155
aS'AC_Bin24_2016postVFP'
p156
aS'AC_Bin24_2016postVFP'
p157
aS'AC_Bin24_2016postVFP'
p158
aS'AC_Bin24_2016postVFP'
p159
aS'AC_Bin24_2016postVFP'
p160
aS'AC_Bin24_2016postVFP'
p161
ag161
aS'Trees/Opt_2016postVFP/2016PostVFP/Trees2WS_2016postVFP/WS/output_GluGluHToGGPlusTwoJets_MM_M125_TuneCP5_13TeV-amcatnlopowheg-minlo-pythia8_GG2HMf05ph0.root'
p162
aS'Trees/Opt_2016postVFP/2016PostVFP/Trees2WS_2016postVFP/WS/output_GluGluHToGGPlusTwoJets_CPodd_M125_TuneCP5_13TeV-amcatnlopowheg-minlo-pythia8_GG2HbsmM.root'
p163
aS'Trees/Opt_2016postVFP/2016PostVFP/Trees2WS_2016postVFP/WS/output_GluGluHToGGPlusTwoJets_SM_M125_TuneCP5_13TeV-amcatnlopowheg-minlo-pythia8_GG2Hsm.root'
p164
aS'Trees/Opt_2016postVFP/2016PostVFP/Trees2WS_2016postVFP/WS/output_ttHJetToGG_M125_TuneCP5_13TeV-amcatnloFXFX-madspin-pythia8_TTHsm.root'
p165
aS'Trees/Opt_2016postVFP/2016PostVFP/Trees2WS_2016postVFP/WS/output_VBFHiggs0Mf05ph0ToGG_M125_TuneCP5_13TeV-JHUGenV7011-pythia8_VBFMf05ph0.root'
p166
aS'Trees/Opt_2016postVFP/2016PostVFP/Trees2WS_2016postVFP/WS/output_VBFHiggs0MToGG_M125_TuneCP5_13TeV-JHUGenV7011-pythia8_VBFbsmM.root'
p167
aS'Trees/Opt_2016postVFP/2016PostVFP/Trees2WS_2016postVFP/WS/output_VBFHToGG_M125_TuneCP5_13TeV-amcatnlo-pythia8_VBFsm.root'
p168
aS'Trees/Opt_2016postVFP/2016PostVFP/Trees2WS_2016postVFP/WS/output_WHiggs0Mf05ph0ToGG_M125_TuneCP5_13TeV-JHUGenV7011-pythia8_WHMf05ph0.root'
p169
aS'Trees/Opt_2016postVFP/2016PostVFP/Trees2WS_2016postVFP/WS/output_WHiggs0MToGG_M125_TuneCP5_13TeV-JHUGenV7011-pythia8_WHbsmM.root'
p170
aS'Trees/Opt_2016postVFP/2016PostVFP/Trees2WS_2016postVFP/WS/output_WHiggs0PMToGG_M125_TuneCP5_13TeV-JHUGenV7011-pythia8_WHsm.root'
p171
aS'Trees/Opt_2016postVFP/2016PostVFP/Trees2WS_2016postVFP/WS/output_ZHiggs0Mf05ph0ToGG_M125_TuneCP5_13TeV-JHUGenV7011-pythia8_ZHMf05ph0.root'
p172
aS'Trees/Opt_2016postVFP/2016PostVFP/Trees2WS_2016postVFP/WS/output_ZHiggs0MToGG_M125_TuneCP5_13TeV-JHUGenV7011-pythia8_ZHbsmM.root'
p173
aS'Trees/Opt_2016postVFP/2016PostVFP/Trees2WS_2016postVFP/WS/output_ZH_HToGG_ZToAll_M125_TuneCP5_13TeV-powheg-pythia8_ZHsm.root'
p174
ag147
ag147
aS'jjh0Mf05ph0_125_13TeV_AC_Bin24'
p175
aS'jjh0M_125_13TeV_AC_Bin24'
p176
aS'jjh0P_125_13TeV_AC_Bin24'
p177
aS'tth0P_125_13TeV_AC_Bin24'
p178
aS'vbf0Mf05ph0_125_13TeV_AC_Bin24'
p179
aS'vbf0M_125_13TeV_AC_Bin24'
p180
aS'vbf0P_125_13TeV_AC_Bin24'
p181
aS'wh0Mf05ph0_125_13TeV_AC_Bin24'
p182
aS'wh0M_125_13TeV_AC_Bin24'
p183
aS'wh0P_125_13TeV_AC_Bin24'
p184
aS'zh0Mf05ph0_125_13TeV_AC_Bin24'
p185
aS'zh0M_125_13TeV_AC_Bin24'
p186
aS'zh0P_125_13TeV_AC_Bin24'
p187
ag147
ag147
aS'./Models/signal/CMS-HGG_sigfit_packaged_AC_Bin24_2016postVFP.root'
p188
aS'./Models/signal/CMS-HGG_sigfit_packaged_AC_Bin24_2016postVFP.root'
p189
aS'./Models/signal/CMS-HGG_sigfit_packaged_AC_Bin24_2016postVFP.root'
p190
aS'./Models/signal/CMS-HGG_sigfit_packaged_AC_Bin24_2016postVFP.root'
p191
aS'./Models/signal/CMS-HGG_sigfit_packaged_AC_Bin24_2016postVFP.root'
p192
aS'./Models/signal/CMS-HGG_sigfit_packaged_AC_Bin24_2016postVFP.root'
p193
aS'./Models/signal/CMS-HGG_sigfit_packaged_AC_Bin24_2016postVFP.root'
p194
aS'./Models/signal/CMS-HGG_sigfit_packaged_AC_Bin24_2016postVFP.root'
p195
aS'./Models/signal/CMS-HGG_sigfit_packaged_AC_Bin24_2016postVFP.root'
p196
aS'./Models/signal/CMS-HGG_sigfit_packaged_AC_Bin24_2016postVFP.root'
p197
aS'./Models/signal/CMS-HGG_sigfit_packaged_AC_Bin24_2016postVFP.root'
p198
aS'./Models/signal/CMS-HGG_sigfit_packaged_AC_Bin24_2016postVFP.root'
p199
aS'./Models/signal/CMS-HGG_sigfit_packaged_AC_Bin24_2016postVFP.root'
p200
aS'./Models/background/CMS-HGG_multipdf_AC_Bin24_2016postVFP.root'
p201
ag201
aS'wsig_13TeV:hggpdfsmrel_GG2HMf05ph0_2016postVFP_AC_Bin24_13TeV'
p202
aS'wsig_13TeV:hggpdfsmrel_GG2HbsmM_2016postVFP_AC_Bin24_13TeV'
p203
aS'wsig_13TeV:hggpdfsmrel_GG2Hsm_2016postVFP_AC_Bin24_13TeV'
p204
aS'wsig_13TeV:hggpdfsmrel_TTHsm_2016postVFP_AC_Bin24_13TeV'
p205
aS'wsig_13TeV:hggpdfsmrel_VBFMf05ph0_2016postVFP_AC_Bin24_13TeV'
p206
aS'wsig_13TeV:hggpdfsmrel_VBFbsmM_2016postVFP_AC_Bin24_13TeV'
p207
aS'wsig_13TeV:hggpdfsmrel_VBFsm_2016postVFP_AC_Bin24_13TeV'
p208
aS'wsig_13TeV:hggpdfsmrel_WHMf05ph0_2016postVFP_AC_Bin24_13TeV'
p209
aS'wsig_13TeV:hggpdfsmrel_WHbsmM_2016postVFP_AC_Bin24_13TeV'
p210
aS'wsig_13TeV:hggpdfsmrel_WHsm_2016postVFP_AC_Bin24_13TeV'
p211
aS'wsig_13TeV:hggpdfsmrel_ZHMf05ph0_2016postVFP_AC_Bin24_13TeV'
p212
aS'wsig_13TeV:hggpdfsmrel_ZHbsmM_2016postVFP_AC_Bin24_13TeV'
p213
aS'wsig_13TeV:hggpdfsmrel_ZHsm_2016postVFP_AC_Bin24_13TeV'
p214
aS'multipdf:CMS_hgg_AC_Bin24_2016postVFP_13TeV_bkgshape'
p215
aS'multipdf:roohist_data_mass_AC_Bin24'
p216
aF0.043212229667801694
aF0.026237819168954957
aF0.0490926375878189
aF0.0013741030770688667
aF0.01247338500695605
aF0.002341127451927605
aF0.03435669737405078
aF9.077166214410681e-05
aF0.00034742424122669036
aF0.00045398799102258636
aF0.0003345147983964125
aF0.0003112140415169051
aF0.0005939073892022861
ag147
ag147
aF1.0040099345473926e-06
aF6.676747419492799e-07
aF1.1172696988779546e-06
aF3.713860769020661e-07
aF1.9627987381703816e-07
aF2.7766408746995663e-08
aF1.692751853162927e-06
aF2.2445970598158407e-09
aF3.4898261711332886e-09
aF4.657916626976058e-09
aF2.1419330836719275e-09
aF2.207593214010991e-09
aF9.789149118111843e-09
ag147
ag147
aF0.044469928246244184
aF0.026812780071370956
aF0.05050224051304365
aF0.0013998966602237852
aF0.012769980274966074
aF0.002402092964212468
aF0.03518934113425574
aF9.255155633823175e-05
aF0.0003542299433304898
aF0.00046884967786287935
aF0.0003448399000534642
aF0.0003187258097590972
aF0.0006081114163320584
ag147
ag147
aF0.04351242942610989
aF0.026422276595025856
aF0.04943428923875366
aF0.0013849595604347262
aF0.012558766687993134
aF0.0023572924003457847
aF0.03459202982681806
aF9.139370677572643e-05
aF0.00034979211286997994
aF0.00045690555027836163
aF0.00033672943950766054
aF0.0003133004931269667
aF0.000597815170081943
ag147
ag147
aF0.04291307953933231
aF0.026054014145064544
aF0.04875218274301672
aF0.0013632896266908294
aF0.012388297363348472
aF0.002325018350149571
aF0.0341221752544424
aF9.015171477939064e-05
aF0.0003450644992213562
aF0.0004510800852696781
aF0.0003323075850975121
aF0.0003091346752435205
aF0.0005900126765607269
ag147
ag147
aF0.04375042251613687
aF0.02655261214423068
aF0.04970514702855928
aF0.001376598746941198
aF0.012629962682185275
aF0.0023713989655846797
aF0.03480511051693389
aF9.142041232510832e-05
aF0.0003520784188156537
aF0.0004591527547773283
aF0.0003388769578783385
aF0.0003152574325863352
aF0.0006014078502362306
ag147
ag147
aF0.042677359338905464
aF0.025924913646490858
aF0.04848410562805656
aF0.0013715901873841425
aF0.012317757266839733
aF0.0023110360766827195
aF0.033911046409856156
aF9.012520282039826e-05
aF0.00034279470978727366
aF0.00044885133893736537
aF0.00033019221961571395
aF0.00030720749529878765
aF0.0005864526142766791
ag147
ag147
aF0.04329003136923856
aF0.0262829885896188
aF0.04918263463597826
aF0.0013747968852052966
aF0.01249756606088957
aF0.002345569774141513
aF0.03442417542557549
aF9.09076819718902e-05
aF0.00034806394755121237
aF0.000454981134133011
aF0.0003353541336248364
aF0.0003119242272964743
aF0.000595131510032582
ag147
ag147
aF0.04313450185699444
aF0.02619269299634063
aF0.04900272664531083
aF0.0013734090773307095
aF0.012449228686018516
aF0.0023366893404428166
aF0.03428928741005008
aF9.063572623440344e-05
aF0.00034678511084488986
aF0.0004529963615520781
aF0.0003336764906629269
aF0.00031050470790119087
aF0.0005926847369380662
ag147
ag147
aF0.043313375318305314
aF0.026294739361190325
aF0.04920156624027578
aF0.001376882607449691
aF0.012501097447350309
aF0.002346239836119451
aF0.03443298392808406
aF9.095439148832835e-05
aF0.0003481341535329489
aF0.00045517982464284105
aF0.0003353636548066329
aF0.0003119487188008427
aF0.0005953486717774246
ag147
ag147
aF0.043111201894695014
aF0.026180961302145603
aF0.048983830138624264
aF0.0013713263915841203
aF0.012445705186065009
aF0.002336020647151288
aF0.034280493077426866
aF9.058912142143016e-05
aF0.00034671505695427966
aF0.0004527977557870161
aF0.0003336669764317869
aF0.00031048021600870893
aF0.0005924678133588629
ag147
ag147
aF0.04301185112387884
aF0.026034341270815275
aF0.04864206829347495
aF0.0013741030770688667
aF0.01244365699210448
aF0.002352144592350669
aF0.029577416818938218
aF0.0006440198467316804
aF0.0006901243995116602
aF0.0004488496247176954
aF0.00034375903487671167
aF0.0003112140415169051
aF0.0005643061379032588
ag147
ag147
aF0.0436658305399078
aF0.02609074675069678
aF0.04919276332884692
aF0.0013741030770688667
aF0.01241692023518226
aF0.0022717414235557953
aF0.0293418894940487
aF0.0006362012450153998
aF0.0006782907770457314
aF0.0004719772155112878
aF0.00034007327076324145
aF0.00031096813415842917
aF0.000603033154447985
ag147
ag147
aF0.0447511008977699
aF0.0269515072698141
aF0.05055484552985945
aF0.001444500651814451
aF0.01292474675790345
aF0.0023300946040762938
aF0.029555507889881483
aF0.0006563875504070893
aF0.0007011951446429521
aF0.00044629790863837115
aF0.0003430793590268877
aF0.0003231244135122324
aF0.0006357793806728296
ag147
ag147
aF0.041503431364731114
aF0.02539089570041142
aF0.04727312621434976
aF0.0014116836200628313
aF0.012120744955495866
aF0.0022409756402339553
aF0.028769398525128054
aF0.000658301604744338
aF0.0006503588332407162
aF0.00043824925342050847
aF0.0003317390060146863
aF0.00031140038834109873
aF0.0005780649140660898
ag147
ag147
aF0.044196391353466424
aF0.02726973788116993
aF0.049795142939728976
aF0.0013741030770688667
aF0.012637827011417357
aF0.0023607926491422404
aF0.029767432006565286
aF0.0006696565069432836
aF0.000689480117102903
aF0.000486102332615701
aF0.00034713440345512936
aF0.0003170988860574653
aF0.0005939073892022861
ag147
ag147
aF0.04202657049506797
aF0.025537196257346295
aF0.048109085953910835
aF0.0013741030770688667
aF0.012231633595206404
aF0.0023273860074368713
aF0.02873873439034469
aF0.0006157087973406306
aF0.0006625444683550086
aF0.0004730661075882381
aF0.0003293313970971212
aF0.00030458221351636894
aF0.0005799709781513229
ag147
ag147
aF0.04716240251457293
aF0.028923954692345433
aF0.052826774739060056
aF0.0015623108329236857
aF0.012409764444669236
aF0.0024577761228101735
aF0.045468488584901934
aF0.0006037195121280092
aF0.0007048356113728005
aF0.00048758160301076714
aF0.00041072884641835117
aF0.0003699673158052974
aF0.0006204237857900807
ag147
ag147
aF0.04016909159918214
aF0.024223034372653274
aF0.04585607374360734
aF0.0015469301060875296
aF0.01220079088136572
aF0.002309055960722617
aF0.02941905046577631
aF0.0006039072241037502
aF0.0006379906725442197
aF0.0004007247182471474
aF0.00032942398524937744
aF0.00027617894431841705
aF0.0005033046975313482
ag147
ag147
aF0.04381683783924473
aF0.026717459448036607
aF0.04970284614933007
aF0.0013033278437433182
aF0.01231925249305732
aF0.0023595178117830073
aF0.029509220930208357
aF0.000613877675277763
aF0.0006923565377974228
aF0.0004657543604480452
aF0.00035689504284164286
aF0.00031694984556907
aF0.0005932360948008863
ag147
ag147
aF0.042871438426686836
aF0.02600974593929095
aF0.0487885485094921
aF0.0014648033820776618
aF0.012422327629224128
aF0.002314924185611744
aF0.029366699312390665
aF0.0006357040956572746
aF0.0006736483854865583
aF0.0004388882884995837
aF0.00034032389885396697
aF0.00031146556864314334
aF0.0005679757489360782
ag147
ag147
aF0.043212229667801694
aF0.026237819168954957
aF0.0490926375878189
aF0.0013741030770688667
aF0.01247338500695605
aF0.002341127451927605
aF0.03435669737405078
aF9.077166214410681e-05
aF0.00034742424122669036
aF0.00045398799102258636
aF0.0003345147983964125
aF0.0003112140415169051
aF0.0005939073892022861
ag147
ag147
aF0.043212229667801694
aF0.026237819168954957
aF0.0490926375878189
aF0.0013741030770688667
aF0.01247338500695605
aF0.002341127451927605
aF0.03435669737405078
aF9.077166214410681e-05
aF0.00034742424122669036
aF0.00045398799102258636
aF0.0003345147983964125
aF0.0003112140415169051
aF0.0005939073892022861
ag147
ag147
atp217
ba(lp218
g15
(g16
(dp219
g18
g19
(g20
(I0
tp220
g22
tp221
Rp222
(I1
(I1
tp223
g29
I00
(lp224
g43
atp225
bsg68
Nstp226
Rp227
ag15
(g16
(dp228
g18
g19
(g20
(I0
tp229
g22
tp230
Rp231
(I1
(I33
tp232
g29
I00
(lp233
g33
ag34
ag35
ag36
ag37
ag38
ag39
ag40
ag41
ag42
ag44
ag45
ag46
ag47
ag48
ag49
ag50
ag51
ag52
ag53
ag54
ag55
ag56
ag57
ag58
ag59
ag60
ag61
ag62
ag63
ag64
ag65
ag66
atp234
bsg68
Nstp235
Rp236
a(dp237
S'0.14.1'
p238
(dp239
S'axes'
p240
g14
sS'blocks'
p241
(lp242
(dp243
S'mgr_locs'
p244
c__builtin__
slice
p245
(I10
I11
I1
tp246
Rp247
sS'values'
p248
g89
sa(dp249
g244
g19
(g20
(I0
tp250
g22
tp251
Rp252
(I1
(I33
tp253
g79
I00
S'\x00\x00\x00\x00\x00\x00\x00\x00\x01\x00\x00\x00\x00\x00\x00\x00\x02\x00\x00\x00\x00\x00\x00\x00\x03\x00\x00\x00\x00\x00\x00\x00\x04\x00\x00\x00\x00\x00\x00\x00\x05\x00\x00\x00\x00\x00\x00\x00\x06\x00\x00\x00\x00\x00\x00\x00\x07\x00\x00\x00\x00\x00\x00\x00\x08\x00\x00\x00\x00\x00\x00\x00\t\x00\x00\x00\x00\x00\x00\x00\x0b\x00\x00\x00\x00\x00\x00\x00\x0c\x00\x00\x00\x00\x00\x00\x00\r\x00\x00\x00\x00\x00\x00\x00\x0e\x00\x00\x00\x00\x00\x00\x00\x0f\x00\x00\x00\x00\x00\x00\x00\x10\x00\x00\x00\x00\x00\x00\x00\x11\x00\x00\x00\x00\x00\x00\x00\x12\x00\x00\x00\x00\x00\x00\x00\x13\x00\x00\x00\x00\x00\x00\x00\x14\x00\x00\x00\x00\x00\x00\x00\x15\x00\x00\x00\x00\x00\x00\x00\x16\x00\x00\x00\x00\x00\x00\x00\x17\x00\x00\x00\x00\x00\x00\x00\x18\x00\x00\x00\x00\x00\x00\x00\x19\x00\x00\x00\x00\x00\x00\x00\x1a\x00\x00\x00\x00\x00\x00\x00\x1b\x00\x00\x00\x00\x00\x00\x00\x1c\x00\x00\x00\x00\x00\x00\x00\x1d\x00\x00\x00\x00\x00\x00\x00\x1e\x00\x00\x00\x00\x00\x00\x00\x1f\x00\x00\x00\x00\x00\x00\x00 \x00\x00\x00\x00\x00\x00\x00!\x00\x00\x00\x00\x00\x00\x00'
p254
tp255
bsg248
g100
sasstp256
bsb.