ccopy_reg
_reconstructor
p0
(cpandas.core.frame
DataFrame
p1
c__builtin__
object
p2
Ntp3
Rp4
(dp5
S'_metadata'
p6
(lp7
sS'_typ'
p8
S'dataframe'
p9
sS'_data'
p10
g0
(cpandas.core.internals
BlockManager
p11
g2
Ntp12
Rp13
((lp14
cpandas.core.indexes.base
_new_Index
p15
(cpandas.core.indexes.base
Index
p16
(dp17
S'data'
p18
cnumpy.core.multiarray
_reconstruct
p19
(cnumpy
ndarray
p20
(I0
tp21
S'b'
p22
tp23
Rp24
(I1
(I34
tp25
cnumpy
dtype
p26
(S'O8'
p27
I0
I1
tp28
Rp29
(I3
S'|'
p30
NNNI-1
I-1
I63
tp31
bI00
(lp32
S'year'
p33
aS'type'
p34
aS'procOriginal'
p35
aS'proc'
p36
aS'proc_s0'
p37
aS'cat'
p38
aS'inputWSFile'
p39
aS'nominalDataName'
p40
aS'modelWSFile'
p41
aS'model'
p42
aS'rate'
p43
aS'nominal_yield'
p44
aS'sumw2'
p45
aS'nominal_yield_COWCorr'
p46
aS'LooseMvaSF_up_yield'
p47
aS'LooseMvaSF_down_yield'
p48
aS'PreselSF_up_yield'
p49
aS'PreselSF_down_yield'
p50
aS'electronVetoSF_up_yield'
p51
aS'electronVetoSF_down_yield'
p52
aS'TriggerWeight_up_yield'
p53
aS'TriggerWeight_down_yield'
p54
aS'SigmaEOverEShift_up_yield'
p55
aS'SigmaEOverEShift_down_yield'
p56
aS'MvaShift_up_yield'
p57
aS'MvaShift_down_yield'
p58
aS'PUJIDShift_up_yield'
p59
aS'PUJIDShift_down_yield'
p60
aS'JEC_up_yield'
p61
aS'JEC_down_yield'
p62
aS'JER_up_yield'
p63
aS'JER_down_yield'
p64
aS'JetHEM_up_yield'
p65
aS'JetHEM_down_yield'
p66
atp67
bsS'name'
p68
Nstp69
Rp70
ag15
(cpandas.core.indexes.numeric
Int64Index
p71
(dp72
g18
g19
(g20
(I0
tp73
g22
tp74
Rp75
(I1
(I15
tp76
g26
(S'i8'
p77
I0
I1
tp78
Rp79
(I3
S'<'
p80
NNNI-1
I-1
I0
tp81
bI00
S'\x00\x00\x00\x00\x00\x00\x00\x00\x01\x00\x00\x00\x00\x00\x00\x00\x02\x00\x00\x00\x00\x00\x00\x00\x03\x00\x00\x00\x00\x00\x00\x00\x04\x00\x00\x00\x00\x00\x00\x00\x05\x00\x00\x00\x00\x00\x00\x00\x06\x00\x00\x00\x00\x00\x00\x00\x07\x00\x00\x00\x00\x00\x00\x00\x08\x00\x00\x00\x00\x00\x00\x00\t\x00\x00\x00\x00\x00\x00\x00\n\x00\x00\x00\x00\x00\x00\x00\x0b\x00\x00\x00\x00\x00\x00\x00\x0c\x00\x00\x00\x00\x00\x00\x00\r\x00\x00\x00\x00\x00\x00\x00\x0e\x00\x00\x00\x00\x00\x00\x00'
p82
tp83
bsg68
Nstp84
Rp85
a(lp86
g19
(g20
(I0
tp87
g22
tp88
Rp89
(I1
(I1
I15
tp90
g26
(S'f8'
p91
I0
I1
tp92
Rp93
(I3
S'<'
p94
NNNI-1
I-1
I0
tp95
bI00
S'\x00\x00\x00\x00\x80j\xd0@\x00\x00\x00\x00\x80j\xd0@\x00\x00\x00\x00\x80j\xd0@\x00\x00\x00\x00\x80j\xd0@\x00\x00\x00\x00\x80j\xd0@\x00\x00\x00\x00\x80j\xd0@\x00\x00\x00\x00\x80j\xd0@\x00\x00\x00\x00\x80j\xd0@\x00\x00\x00\x00\x80j\xd0@\x00\x00\x00\x00\x80j\xd0@\x00\x00\x00\x00\x80j\xd0@\x00\x00\x00\x00\x80j\xd0@\x00\x00\x00\x00\x80j\xd0@\x00\x00\x00\x00\x00\x00\xf0?\x00\x00\x00\x00\x00\x00\xf0\xbf'
p96
tp97
bag19
(g20
(I0
tp98
g22
tp99
Rp100
(I1
(I33
I15
tp101
g29
I00
(lp102
S'2016postVFP'
p103
ag103
ag103
ag103
ag103
ag103
ag103
ag103
ag103
ag103
ag103
ag103
ag103
ag33
ag33
aS'sig'
p104
ag104
ag104
ag104
ag104
ag104
ag104
ag104
ag104
ag104
ag104
ag104
ag104
aS'bkg'
p105
ag18
aS'GG2HMf05ph0'
p106
aS'GG2HbsmM'
p107
aS'GG2Hsm'
p108
aS'TTHsm'
p109
aS'VBFMf05ph0'
p110
aS'VBFbsmM'
p111
aS'VBFsm'
p112
aS'WHMf05ph0'
p113
aS'WHbsmM'
p114
aS'WHsm'
p115
aS'ZHMf05ph0'
p116
aS'ZHbsmM'
p117
aS'ZHsm'
p118
aS'bkg_mass'
p119
aS'data_obs'
p120
aS'GG2HMf05ph0_2016postVFP_hgg'
p121
aS'GG2HbsmM_2016postVFP_hgg'
p122
aS'GG2Hsm_2016postVFP_hgg'
p123
aS'tth0P_2016postVFP_hgg'
p124
aS'vbf0Mf05ph0_2016postVFP_hgg'
p125
aS'vbf0M_2016postVFP_hgg'
p126
aS'vbf0P_2016postVFP_hgg'
p127
aS'wh0Mf05ph0_2016postVFP_hgg'
p128
aS'wh0M_2016postVFP_hgg'
p129
aS'wh0P_2016postVFP_hgg'
p130
aS'zh0Mf05ph0_2016postVFP_hgg'
p131
aS'zh0M_2016postVFP_hgg'
p132
aS'zh0P_2016postVFP_hgg'
p133
ag119
ag120
aS'jjh0Mf05ph0'
p134
aS'jjh0M'
p135
aS'jjh0P'
p136
aS'tth0P'
p137
aS'vbf0Mf05ph0'
p138
aS'vbf0M'
p139
aS'vbf0P'
p140
aS'wh0Mf05ph0'
p141
aS'wh0M'
p142
aS'wh0P'
p143
aS'zh0Mf05ph0'
p144
aS'zh0M'
p145
aS'zh0P'
p146
aS'-'
p147
ag147
aS'AC_Bin19_2016postVFP'
p148
aS'AC_Bin19_2016postVFP'
p149
aS'AC_Bin19_2016postVFP'
p150
aS'AC_Bin19_2016postVFP'
p151
aS'AC_Bin19_2016postVFP'
p152
aS'AC_Bin19_2016postVFP'
p153
aS'AC_Bin19_2016postVFP'
p154
aS'AC_Bin19_2016postVFP'
p155
aS'AC_Bin19_2016postVFP'
p156
aS'AC_Bin19_2016postVFP'
p157
aS'AC_Bin19_2016postVFP'
p158
aS'AC_Bin19_2016postVFP'
p159
aS'AC_Bin19_2016postVFP'
p160
aS'AC_Bin19_2016postVFP'
p161
ag161
aS'Trees/Opt_2016postVFP/2016PostVFP/Trees2WS_2016postVFP/WS/output_GluGluHToGGPlusTwoJets_MM_M125_TuneCP5_13TeV-amcatnlopowheg-minlo-pythia8_GG2HMf05ph0.root'
p162
aS'Trees/Opt_2016postVFP/2016PostVFP/Trees2WS_2016postVFP/WS/output_GluGluHToGGPlusTwoJets_CPodd_M125_TuneCP5_13TeV-amcatnlopowheg-minlo-pythia8_GG2HbsmM.root'
p163
aS'Trees/Opt_2016postVFP/2016PostVFP/Trees2WS_2016postVFP/WS/output_GluGluHToGGPlusTwoJets_SM_M125_TuneCP5_13TeV-amcatnlopowheg-minlo-pythia8_GG2Hsm.root'
p164
aS'Trees/Opt_2016postVFP/2016PostVFP/Trees2WS_2016postVFP/WS/output_ttHJetToGG_M125_TuneCP5_13TeV-amcatnloFXFX-madspin-pythia8_TTHsm.root'
p165
aS'Trees/Opt_2016postVFP/2016PostVFP/Trees2WS_2016postVFP/WS/output_VBFHiggs0Mf05ph0ToGG_M125_TuneCP5_13TeV-JHUGenV7011-pythia8_VBFMf05ph0.root'
p166
aS'Trees/Opt_2016postVFP/2016PostVFP/Trees2WS_2016postVFP/WS/output_VBFHiggs0MToGG_M125_TuneCP5_13TeV-JHUGenV7011-pythia8_VBFbsmM.root'
p167
aS'Trees/Opt_2016postVFP/2016PostVFP/Trees2WS_2016postVFP/WS/output_VBFHToGG_M125_TuneCP5_13TeV-amcatnlo-pythia8_VBFsm.root'
p168
aS'Trees/Opt_2016postVFP/2016PostVFP/Trees2WS_2016postVFP/WS/output_WHiggs0Mf05ph0ToGG_M125_TuneCP5_13TeV-JHUGenV7011-pythia8_WHMf05ph0.root'
p169
aS'Trees/Opt_2016postVFP/2016PostVFP/Trees2WS_2016postVFP/WS/output_WHiggs0MToGG_M125_TuneCP5_13TeV-JHUGenV7011-pythia8_WHbsmM.root'
p170
aS'Trees/Opt_2016postVFP/2016PostVFP/Trees2WS_2016postVFP/WS/output_WHiggs0PMToGG_M125_TuneCP5_13TeV-JHUGenV7011-pythia8_WHsm.root'
p171
aS'Trees/Opt_2016postVFP/2016PostVFP/Trees2WS_2016postVFP/WS/output_ZHiggs0Mf05ph0ToGG_M125_TuneCP5_13TeV-JHUGenV7011-pythia8_ZHMf05ph0.root'
p172
aS'Trees/Opt_2016postVFP/2016PostVFP/Trees2WS_2016postVFP/WS/output_ZHiggs0MToGG_M125_TuneCP5_13TeV-JHUGenV7011-pythia8_ZHbsmM.root'
p173
aS'Trees/Opt_2016postVFP/2016PostVFP/Trees2WS_2016postVFP/WS/output_ZH_HToGG_ZToAll_M125_TuneCP5_13TeV-powheg-pythia8_ZHsm.root'
p174
ag147
ag147
aS'jjh0Mf05ph0_125_13TeV_AC_Bin19'
p175
aS'jjh0M_125_13TeV_AC_Bin19'
p176
aS'jjh0P_125_13TeV_AC_Bin19'
p177
aS'tth0P_125_13TeV_AC_Bin19'
p178
aS'vbf0Mf05ph0_125_13TeV_AC_Bin19'
p179
aS'vbf0M_125_13TeV_AC_Bin19'
p180
aS'vbf0P_125_13TeV_AC_Bin19'
p181
aS'wh0Mf05ph0_125_13TeV_AC_Bin19'
p182
aS'wh0M_125_13TeV_AC_Bin19'
p183
aS'wh0P_125_13TeV_AC_Bin19'
p184
aS'zh0Mf05ph0_125_13TeV_AC_Bin19'
p185
aS'zh0M_125_13TeV_AC_Bin19'
p186
aS'zh0P_125_13TeV_AC_Bin19'
p187
ag147
ag147
aS'./Models/signal/CMS-HGG_sigfit_packaged_AC_Bin19_2016postVFP.root'
p188
aS'./Models/signal/CMS-HGG_sigfit_packaged_AC_Bin19_2016postVFP.root'
p189
aS'./Models/signal/CMS-HGG_sigfit_packaged_AC_Bin19_2016postVFP.root'
p190
aS'./Models/signal/CMS-HGG_sigfit_packaged_AC_Bin19_2016postVFP.root'
p191
aS'./Models/signal/CMS-HGG_sigfit_packaged_AC_Bin19_2016postVFP.root'
p192
aS'./Models/signal/CMS-HGG_sigfit_packaged_AC_Bin19_2016postVFP.root'
p193
aS'./Models/signal/CMS-HGG_sigfit_packaged_AC_Bin19_2016postVFP.root'
p194
aS'./Models/signal/CMS-HGG_sigfit_packaged_AC_Bin19_2016postVFP.root'
p195
aS'./Models/signal/CMS-HGG_sigfit_packaged_AC_Bin19_2016postVFP.root'
p196
aS'./Models/signal/CMS-HGG_sigfit_packaged_AC_Bin19_2016postVFP.root'
p197
aS'./Models/signal/CMS-HGG_sigfit_packaged_AC_Bin19_2016postVFP.root'
p198
aS'./Models/signal/CMS-HGG_sigfit_packaged_AC_Bin19_2016postVFP.root'
p199
aS'./Models/signal/CMS-HGG_sigfit_packaged_AC_Bin19_2016postVFP.root'
p200
aS'./Models/background/CMS-HGG_multipdf_AC_Bin19_2016postVFP.root'
p201
ag201
aS'wsig_13TeV:hggpdfsmrel_GG2HMf05ph0_2016postVFP_AC_Bin19_13TeV'
p202
aS'wsig_13TeV:hggpdfsmrel_GG2HbsmM_2016postVFP_AC_Bin19_13TeV'
p203
aS'wsig_13TeV:hggpdfsmrel_GG2Hsm_2016postVFP_AC_Bin19_13TeV'
p204
aS'wsig_13TeV:hggpdfsmrel_TTHsm_2016postVFP_AC_Bin19_13TeV'
p205
aS'wsig_13TeV:hggpdfsmrel_VBFMf05ph0_2016postVFP_AC_Bin19_13TeV'
p206
aS'wsig_13TeV:hggpdfsmrel_VBFbsmM_2016postVFP_AC_Bin19_13TeV'
p207
aS'wsig_13TeV:hggpdfsmrel_VBFsm_2016postVFP_AC_Bin19_13TeV'
p208
aS'wsig_13TeV:hggpdfsmrel_WHMf05ph0_2016postVFP_AC_Bin19_13TeV'
p209
aS'wsig_13TeV:hggpdfsmrel_WHbsmM_2016postVFP_AC_Bin19_13TeV'
p210
aS'wsig_13TeV:hggpdfsmrel_WHsm_2016postVFP_AC_Bin19_13TeV'
p211
aS'wsig_13TeV:hggpdfsmrel_ZHMf05ph0_2016postVFP_AC_Bin19_13TeV'
p212
aS'wsig_13TeV:hggpdfsmrel_ZHbsmM_2016postVFP_AC_Bin19_13TeV'
p213
aS'wsig_13TeV:hggpdfsmrel_ZHsm_2016postVFP_AC_Bin19_13TeV'
p214
aS'multipdf:CMS_hgg_AC_Bin19_2016postVFP_13TeV_bkgshape'
p215
aS'multipdf:roohist_data_mass_AC_Bin19'
p216
aF0.01563852468461846
aF0.010631907518927619
aF0.01673247993721816
aF0.00023464433252229355
aF0.002901643769291695
aF0.00030328894399644923
aF0.008835619806632167
aF4.4562013954418944e-05
aF6.250943215491134e-05
aF0.00025599057971703587
aF9.806300840864424e-05
aF8.57871743846772e-05
aF0.0002566932666923094
ag147
ag147
aF3.68488882608901e-07
aF2.714145334399675e-07
aF4.059977906261031e-07
aF3.6037487160664574e-08
aF4.3213369584381166e-08
aF3.6663945960924464e-09
aF4.425287284179689e-07
aF5.293540849596296e-10
aF5.794043211768161e-10
aF2.9386963668020945e-09
aF6.427053125755291e-10
aF5.754142069859473e-10
aF4.127475443504473e-09
ag147
ag147
aF0.016156221414271685
aF0.010953291108417924
aF0.01734117658261693
aF0.00023889835369585651
aF0.0029886104163109944
aF0.00032039575187892263
aF0.009081652832736134
aF5.050848570109595e-05
aF6.382819016115996e-05
aF0.0002603539034721548
aF0.00010019612113600459
aF8.776397897723067e-05
aF0.00026145346956741596
ag147
ag147
aF0.015742666141439456
aF0.010703702825116087
aF0.016845553936921342
aF0.00023650106723125
aF0.0029203010760270828
aF0.0003052529455113128
aF0.008892321774183528
aF4.48644624750636e-05
aF6.293633976109896e-05
aF0.00025761461669822285
aF9.866963415060013e-05
aF8.635976912530898e-05
aF0.00025830002303972393
ag147
ag147
aF0.015534730424423477
aF0.010560355145087932
aF0.0166197872099761
aF0.00023279485809937718
aF0.002883046283379814
aF0.0003013312479947041
aF0.00877910020426183
aF4.426061170827576e-05
aF6.208400674846811e-05
aF0.0002543717717993932
aF9.745824336124306e-05
aF8.52164698395571e-05
aF0.0002550917711546199
ag147
ag147
aF0.01586784354580672
aF0.010789691886261367
aF0.016984197765257794
aF0.0002337751226712162
aF0.002944349554343748
aF0.00030819543529518346
aF0.0089552841561592
aF4.506689832984804e-05
aF6.311519277229388e-05
aF0.00025970844467056284
aF9.973840559779798e-05
aF8.77970077084939e-05
aF0.0002607442517968869
ag147
ag147
aF0.015410806778183597
aF0.01047517828823108
aF0.01648259994684604
aF0.0002354416853130713
aF0.002859249806125985
aF0.0002984227402757752
aF0.008716641893679216
aF4.4059735706472495e-05
aF6.19065274333985e-05
aF0.00025230027268871786
aF9.640627675436492e-05
aF8.37954103249483e-05
aF0.0002526778357968746
ag147
ag147
aF0.015673359609979603
aF0.010654998848095842
aF0.016768908866708752
aF0.00023469652462587627
aF0.002909071247158527
aF0.0003040968850657746
aF0.00885741372609078
aF4.469923352718365e-05
aF6.26121911842392e-05
aF0.0002565977954458892
aF9.833512309970288e-05
aF8.59969427471442e-05
aF0.00025729536183646834
ag147
ag147
aF0.015603728039708656
aF0.010608842327145526
aF0.01669608837369862
aF0.0002345917423703269
aF0.002894226453737683
aF0.0003024818234116093
aF0.008813851755357878
aF4.442492422044766e-05
aF6.240676148101274e-05
aF0.0002553840193448902
aF9.779132451624855e-05
aF8.557763213899756e-05
aF0.0002560918944714935
ag147
ag147
aF0.015674699643059915
aF0.010656949714512075
aF0.016772101032376266
aF0.00023511528380489456
aF0.0029084265329270657
aF0.00030406042982843525
aF0.008856267907390107
aF4.48999730535266e-05
aF6.263636547012384e-05
aF0.00025654343670676637
aF9.826237336989272e-05
aF8.596250199996876e-05
aF0.00025723620517364743
ag147
ag147
aF0.015602391412064506
aF0.010606896439464986
aF0.016692905428820473
aF0.00023417386069608071
aF0.002894868834468845
aF0.00030251840222696175
aF0.008814995683110609
aF4.4224642253959626e-05
aF6.238263014253326e-05
aF0.00025543831876227865
aF9.786384538143221e-05
aF8.561202641679932e-05
aF0.0002561509044770404
ag147
ag147
aF0.016173433692529215
aF0.011015654654784157
aF0.017343727068464432
aF0.00023464433252229355
aF0.003080663725086197
aF0.0003216655181859096
aF0.0074195560533780736
aF0.00016072889184215455
aF0.0001877212794170191
aF0.0002611289460219268
aF9.806300840864424e-05
aF8.57871743846772e-05
aF0.00028629451799133676
ag147
ag147
aF0.015054255301720332
aF0.010518000469801336
aF0.016127665157910087
aF0.00023464433252229355
aF0.002786825442854024
aF0.0003117820801890048
aF0.006982311565479904
aF0.00015426580011990154
aF0.00016625713260509656
aF0.00023218320257001324
aF9.25045360418153e-05
aF8.161516575455607e-05
aF0.00024756750144661055
ag147
ag147
aF0.01583730693164398
aF0.01048936349889118
aF0.016851408575348614
aF0.00034207432327093557
aF0.0028509449734883674
aF0.00027690347815223504
aF0.018951369177784727
aF0.0001483611881667457
aF0.00019044067539653042
aF0.0002865784999812604
aF0.0001207701934617944
aF6.797700530114525e-05
aF0.00024275671603390947
ag147
ag147
aF0.01543579221993241
aF0.010301801099558361
aF0.016988664893460736
aF0.0001551070308778435
aF0.0029064335185466916
aF0.0003329108958496363
aF0.0072980378877218754
aF0.00016072889184215455
aF0.00017760299988367478
aF0.00021739441672252724
aF8.933419258028152e-05
aF7.926215607767517e-05
aF0.000259024592651258
ag147
ag147
aF0.016216198455367703
aF0.010966396044295834
aF0.017231667791293148
aF0.00023464433252229355
aF0.002957684728244203
aF0.00030328894399644923
aF0.011125858094032992
aF0.00016072889184215455
aF0.00017763644382284838
aF0.0002672859145604889
aF0.00010560579630691791
aF8.57871743846772e-05
aF0.00023339667268373887
ag147
ag147
aF0.015146294536407368
aF0.01018203431613074
aF0.016398454108184524
aF0.00023464433252229355
aF0.0028455958745325916
aF0.00030328894399644923
aF0.007072775071947035
aF0.0001465419686610403
aF0.00017084534283640096
aF0.00025599057971703587
aF9.806300840864424e-05
aF8.57871743846772e-05
aF0.0002566932666923094
ag147
ag147
aF0.017540028817165876
aF0.012049756212718421
aF0.018599238795331985
aF0.00023464433252229355
aF0.003040396995743322
aF0.00029039074297543266
aF0.007146142873125427
aF0.0002272244914820476
aF0.00018422843004373135
aF0.0002580015866442409
aF0.00012147152756369906
aF0.00012505055178735347
aF0.0002504924336790282
ag147
ag147
aF0.013964746859528532
aF0.009756172613833769
aF0.01537250406977364
aF0.00023464433252229355
aF0.0028184559032524703
aF0.00026547106926955166
aF0.015326388216749365
aF0.00014833109844403225
aF0.00017605243237994728
aF0.00021281428871589014
aF9.100470992962073e-05
aF6.577962335541088e-05
aF0.00016986891682790883
ag147
ag147
aF0.01595656458243866
aF0.011063798351642617
aF0.01723271615082922
aF0.00023464433252229355
aF0.002863177804101724
aF0.00028058658108420786
aF0.007202342249343019
aF0.00017892254754769965
aF0.00017084534283640096
aF0.00027284249154035933
aF0.00011219980024179677
aF0.00010733041358435003
aF0.00022092434073783807
ag147
ag147
aF0.015518450224362823
aF0.010483278286301356
aF0.01648437304561412
aF0.00023464433252229355
aF0.0029237702992759296
aF0.0002789654049593082
aF0.0073113250487040204
aF0.000136711636059772
aF0.00014756657537873252
aF0.00023064253400661983
aF8.132889843182056e-05
aF8.804967887954263e-05
aF0.00023076492038853758
ag147
ag147
aF0.01563852468461846
aF0.010631907518927619
aF0.01673247993721816
aF0.00023464433252229355
aF0.002901643769291695
aF0.00030328894399644923
aF0.008835619806632167
aF4.4562013954418944e-05
aF6.250943215491134e-05
aF0.00025599057971703587
aF9.806300840864424e-05
aF8.57871743846772e-05
aF0.0002566932666923094
ag147
ag147
aF0.01563852468461846
aF0.010631907518927619
aF0.01673247993721816
aF0.00023464433252229355
aF0.002901643769291695
aF0.00030328894399644923
aF0.008835619806632167
aF4.4562013954418944e-05
aF6.250943215491134e-05
aF0.00025599057971703587
aF9.806300840864424e-05
aF8.57871743846772e-05
aF0.0002566932666923094
ag147
ag147
atp217
ba(lp218
g15
(g16
(dp219
g18
g19
(g20
(I0
tp220
g22
tp221
Rp222
(I1
(I1
tp223
g29
I00
(lp224
g43
atp225
bsg68
Nstp226
Rp227
ag15
(g16
(dp228
g18
g19
(g20
(I0
tp229
g22
tp230
Rp231
(I1
(I33
tp232
g29
I00
(lp233
g33
ag34
ag35
ag36
ag37
ag38
ag39
ag40
ag41
ag42
ag44
ag45
ag46
ag47
ag48
ag49
ag50
ag51
ag52
ag53
ag54
ag55
ag56
ag57
ag58
ag59
ag60
ag61
ag62
ag63
ag64
ag65
ag66
atp234
bsg68
Nstp235
Rp236
a(dp237
S'0.14.1'
p238
(dp239
S'axes'
p240
g14
sS'blocks'
p241
(lp242
(dp243
S'mgr_locs'
p244
c__builtin__
slice
p245
(I10
I11
I1
tp246
Rp247
sS'values'
p248
g89
sa(dp249
g244
g19
(g20
(I0
tp250
g22
tp251
Rp252
(I1
(I33
tp253
g79
I00
S'\x00\x00\x00\x00\x00\x00\x00\x00\x01\x00\x00\x00\x00\x00\x00\x00\x02\x00\x00\x00\x00\x00\x00\x00\x03\x00\x00\x00\x00\x00\x00\x00\x04\x00\x00\x00\x00\x00\x00\x00\x05\x00\x00\x00\x00\x00\x00\x00\x06\x00\x00\x00\x00\x00\x00\x00\x07\x00\x00\x00\x00\x00\x00\x00\x08\x00\x00\x00\x00\x00\x00\x00\t\x00\x00\x00\x00\x00\x00\x00\x0b\x00\x00\x00\x00\x00\x00\x00\x0c\x00\x00\x00\x00\x00\x00\x00\r\x00\x00\x00\x00\x00\x00\x00\x0e\x00\x00\x00\x00\x00\x00\x00\x0f\x00\x00\x00\x00\x00\x00\x00\x10\x00\x00\x00\x00\x00\x00\x00\x11\x00\x00\x00\x00\x00\x00\x00\x12\x00\x00\x00\x00\x00\x00\x00\x13\x00\x00\x00\x00\x00\x00\x00\x14\x00\x00\x00\x00\x00\x00\x00\x15\x00\x00\x00\x00\x00\x00\x00\x16\x00\x00\x00\x00\x00\x00\x00\x17\x00\x00\x00\x00\x00\x00\x00\x18\x00\x00\x00\x00\x00\x00\x00\x19\x00\x00\x00\x00\x00\x00\x00\x1a\x00\x00\x00\x00\x00\x00\x00\x1b\x00\x00\x00\x00\x00\x00\x00\x1c\x00\x00\x00\x00\x00\x00\x00\x1d\x00\x00\x00\x00\x00\x00\x00\x1e\x00\x00\x00\x00\x00\x00\x00\x1f\x00\x00\x00\x00\x00\x00\x00 \x00\x00\x00\x00\x00\x00\x00!\x00\x00\x00\x00\x00\x00\x00'
p254
tp255
bsg248
g100
sasstp256
bsb.