ccopy_reg
_reconstructor
p0
(cpandas.core.frame
DataFrame
p1
c__builtin__
object
p2
Ntp3
Rp4
(dp5
S'_metadata'
p6
(lp7
sS'_typ'
p8
S'dataframe'
p9
sS'_data'
p10
g0
(cpandas.core.internals
BlockManager
p11
g2
Ntp12
Rp13
((lp14
cpandas.core.indexes.base
_new_Index
p15
(cpandas.core.indexes.base
Index
p16
(dp17
S'data'
p18
cnumpy.core.multiarray
_reconstruct
p19
(cnumpy
ndarray
p20
(I0
tp21
S'b'
p22
tp23
Rp24
(I1
(I34
tp25
cnumpy
dtype
p26
(S'O8'
p27
I0
I1
tp28
Rp29
(I3
S'|'
p30
NNNI-1
I-1
I63
tp31
bI00
(lp32
S'year'
p33
aS'type'
p34
aS'procOriginal'
p35
aS'proc'
p36
aS'proc_s0'
p37
aS'cat'
p38
aS'inputWSFile'
p39
aS'nominalDataName'
p40
aS'modelWSFile'
p41
aS'model'
p42
aS'rate'
p43
aS'nominal_yield'
p44
aS'sumw2'
p45
aS'nominal_yield_COWCorr'
p46
aS'LooseMvaSF_up_yield'
p47
aS'LooseMvaSF_down_yield'
p48
aS'PreselSF_up_yield'
p49
aS'PreselSF_down_yield'
p50
aS'electronVetoSF_up_yield'
p51
aS'electronVetoSF_down_yield'
p52
aS'TriggerWeight_up_yield'
p53
aS'TriggerWeight_down_yield'
p54
aS'SigmaEOverEShift_up_yield'
p55
aS'SigmaEOverEShift_down_yield'
p56
aS'MvaShift_up_yield'
p57
aS'MvaShift_down_yield'
p58
aS'PUJIDShift_up_yield'
p59
aS'PUJIDShift_down_yield'
p60
aS'JEC_up_yield'
p61
aS'JEC_down_yield'
p62
aS'JER_up_yield'
p63
aS'JER_down_yield'
p64
aS'JetHEM_up_yield'
p65
aS'JetHEM_down_yield'
p66
atp67
bsS'name'
p68
Nstp69
Rp70
ag15
(cpandas.core.indexes.numeric
Int64Index
p71
(dp72
g18
g19
(g20
(I0
tp73
g22
tp74
Rp75
(I1
(I15
tp76
g26
(S'i8'
p77
I0
I1
tp78
Rp79
(I3
S'<'
p80
NNNI-1
I-1
I0
tp81
bI00
S'\x00\x00\x00\x00\x00\x00\x00\x00\x01\x00\x00\x00\x00\x00\x00\x00\x02\x00\x00\x00\x00\x00\x00\x00\x03\x00\x00\x00\x00\x00\x00\x00\x04\x00\x00\x00\x00\x00\x00\x00\x05\x00\x00\x00\x00\x00\x00\x00\x06\x00\x00\x00\x00\x00\x00\x00\x07\x00\x00\x00\x00\x00\x00\x00\x08\x00\x00\x00\x00\x00\x00\x00\t\x00\x00\x00\x00\x00\x00\x00\n\x00\x00\x00\x00\x00\x00\x00\x0b\x00\x00\x00\x00\x00\x00\x00\x0c\x00\x00\x00\x00\x00\x00\x00\r\x00\x00\x00\x00\x00\x00\x00\x0e\x00\x00\x00\x00\x00\x00\x00'
p82
tp83
bsg68
Nstp84
Rp85
a(lp86
g19
(g20
(I0
tp87
g22
tp88
Rp89
(I1
(I1
I15
tp90
g26
(S'f8'
p91
I0
I1
tp92
Rp93
(I3
S'<'
p94
NNNI-1
I-1
I0
tp95
bI00
S'\x00\x00\x00\x00\x80j\xd0@\x00\x00\x00\x00\x80j\xd0@\x00\x00\x00\x00\x80j\xd0@\x00\x00\x00\x00\x80j\xd0@\x00\x00\x00\x00\x80j\xd0@\x00\x00\x00\x00\x80j\xd0@\x00\x00\x00\x00\x80j\xd0@\x00\x00\x00\x00\x80j\xd0@\x00\x00\x00\x00\x80j\xd0@\x00\x00\x00\x00\x80j\xd0@\x00\x00\x00\x00\x80j\xd0@\x00\x00\x00\x00\x80j\xd0@\x00\x00\x00\x00\x80j\xd0@\x00\x00\x00\x00\x00\x00\xf0?\x00\x00\x00\x00\x00\x00\xf0\xbf'
p96
tp97
bag19
(g20
(I0
tp98
g22
tp99
Rp100
(I1
(I33
I15
tp101
g29
I00
(lp102
S'2016postVFP'
p103
ag103
ag103
ag103
ag103
ag103
ag103
ag103
ag103
ag103
ag103
ag103
ag103
ag33
ag33
aS'sig'
p104
ag104
ag104
ag104
ag104
ag104
ag104
ag104
ag104
ag104
ag104
ag104
ag104
aS'bkg'
p105
ag18
aS'GG2HMf05ph0'
p106
aS'GG2HbsmM'
p107
aS'GG2Hsm'
p108
aS'TTHsm'
p109
aS'VBFMf05ph0'
p110
aS'VBFbsmM'
p111
aS'VBFsm'
p112
aS'WHMf05ph0'
p113
aS'WHbsmM'
p114
aS'WHsm'
p115
aS'ZHMf05ph0'
p116
aS'ZHbsmM'
p117
aS'ZHsm'
p118
aS'bkg_mass'
p119
aS'data_obs'
p120
aS'GG2HMf05ph0_2016postVFP_hgg'
p121
aS'GG2HbsmM_2016postVFP_hgg'
p122
aS'GG2Hsm_2016postVFP_hgg'
p123
aS'tth0P_2016postVFP_hgg'
p124
aS'vbf0Mf05ph0_2016postVFP_hgg'
p125
aS'vbf0M_2016postVFP_hgg'
p126
aS'vbf0P_2016postVFP_hgg'
p127
aS'wh0Mf05ph0_2016postVFP_hgg'
p128
aS'wh0M_2016postVFP_hgg'
p129
aS'wh0P_2016postVFP_hgg'
p130
aS'zh0Mf05ph0_2016postVFP_hgg'
p131
aS'zh0M_2016postVFP_hgg'
p132
aS'zh0P_2016postVFP_hgg'
p133
ag119
ag120
aS'jjh0Mf05ph0'
p134
aS'jjh0M'
p135
aS'jjh0P'
p136
aS'tth0P'
p137
aS'vbf0Mf05ph0'
p138
aS'vbf0M'
p139
aS'vbf0P'
p140
aS'wh0Mf05ph0'
p141
aS'wh0M'
p142
aS'wh0P'
p143
aS'zh0Mf05ph0'
p144
aS'zh0M'
p145
aS'zh0P'
p146
aS'-'
p147
ag147
aS'AC_Bin25_2016postVFP'
p148
aS'AC_Bin25_2016postVFP'
p149
aS'AC_Bin25_2016postVFP'
p150
aS'AC_Bin25_2016postVFP'
p151
aS'AC_Bin25_2016postVFP'
p152
aS'AC_Bin25_2016postVFP'
p153
aS'AC_Bin25_2016postVFP'
p154
aS'AC_Bin25_2016postVFP'
p155
aS'AC_Bin25_2016postVFP'
p156
aS'AC_Bin25_2016postVFP'
p157
aS'AC_Bin25_2016postVFP'
p158
aS'AC_Bin25_2016postVFP'
p159
aS'AC_Bin25_2016postVFP'
p160
aS'AC_Bin25_2016postVFP'
p161
ag161
aS'Trees/Opt_2016postVFP/2016PostVFP/Trees2WS_2016postVFP/WS/output_GluGluHToGGPlusTwoJets_MM_M125_TuneCP5_13TeV-amcatnlopowheg-minlo-pythia8_GG2HMf05ph0.root'
p162
aS'Trees/Opt_2016postVFP/2016PostVFP/Trees2WS_2016postVFP/WS/output_GluGluHToGGPlusTwoJets_CPodd_M125_TuneCP5_13TeV-amcatnlopowheg-minlo-pythia8_GG2HbsmM.root'
p163
aS'Trees/Opt_2016postVFP/2016PostVFP/Trees2WS_2016postVFP/WS/output_GluGluHToGGPlusTwoJets_SM_M125_TuneCP5_13TeV-amcatnlopowheg-minlo-pythia8_GG2Hsm.root'
p164
aS'Trees/Opt_2016postVFP/2016PostVFP/Trees2WS_2016postVFP/WS/output_ttHJetToGG_M125_TuneCP5_13TeV-amcatnloFXFX-madspin-pythia8_TTHsm.root'
p165
aS'Trees/Opt_2016postVFP/2016PostVFP/Trees2WS_2016postVFP/WS/output_VBFHiggs0Mf05ph0ToGG_M125_TuneCP5_13TeV-JHUGenV7011-pythia8_VBFMf05ph0.root'
p166
aS'Trees/Opt_2016postVFP/2016PostVFP/Trees2WS_2016postVFP/WS/output_VBFHiggs0MToGG_M125_TuneCP5_13TeV-JHUGenV7011-pythia8_VBFbsmM.root'
p167
aS'Trees/Opt_2016postVFP/2016PostVFP/Trees2WS_2016postVFP/WS/output_VBFHToGG_M125_TuneCP5_13TeV-amcatnlo-pythia8_VBFsm.root'
p168
aS'Trees/Opt_2016postVFP/2016PostVFP/Trees2WS_2016postVFP/WS/output_WHiggs0Mf05ph0ToGG_M125_TuneCP5_13TeV-JHUGenV7011-pythia8_WHMf05ph0.root'
p169
aS'Trees/Opt_2016postVFP/2016PostVFP/Trees2WS_2016postVFP/WS/output_WHiggs0MToGG_M125_TuneCP5_13TeV-JHUGenV7011-pythia8_WHbsmM.root'
p170
aS'Trees/Opt_2016postVFP/2016PostVFP/Trees2WS_2016postVFP/WS/output_WHiggs0PMToGG_M125_TuneCP5_13TeV-JHUGenV7011-pythia8_WHsm.root'
p171
aS'Trees/Opt_2016postVFP/2016PostVFP/Trees2WS_2016postVFP/WS/output_ZHiggs0Mf05ph0ToGG_M125_TuneCP5_13TeV-JHUGenV7011-pythia8_ZHMf05ph0.root'
p172
aS'Trees/Opt_2016postVFP/2016PostVFP/Trees2WS_2016postVFP/WS/output_ZHiggs0MToGG_M125_TuneCP5_13TeV-JHUGenV7011-pythia8_ZHbsmM.root'
p173
aS'Trees/Opt_2016postVFP/2016PostVFP/Trees2WS_2016postVFP/WS/output_ZH_HToGG_ZToAll_M125_TuneCP5_13TeV-powheg-pythia8_ZHsm.root'
p174
ag147
ag147
aS'jjh0Mf05ph0_125_13TeV_AC_Bin25'
p175
aS'jjh0M_125_13TeV_AC_Bin25'
p176
aS'jjh0P_125_13TeV_AC_Bin25'
p177
aS'tth0P_125_13TeV_AC_Bin25'
p178
aS'vbf0Mf05ph0_125_13TeV_AC_Bin25'
p179
aS'vbf0M_125_13TeV_AC_Bin25'
p180
aS'vbf0P_125_13TeV_AC_Bin25'
p181
aS'wh0Mf05ph0_125_13TeV_AC_Bin25'
p182
aS'wh0M_125_13TeV_AC_Bin25'
p183
aS'wh0P_125_13TeV_AC_Bin25'
p184
aS'zh0Mf05ph0_125_13TeV_AC_Bin25'
p185
aS'zh0M_125_13TeV_AC_Bin25'
p186
aS'zh0P_125_13TeV_AC_Bin25'
p187
ag147
ag147
aS'./Models/signal/CMS-HGG_sigfit_packaged_AC_Bin25_2016postVFP.root'
p188
aS'./Models/signal/CMS-HGG_sigfit_packaged_AC_Bin25_2016postVFP.root'
p189
aS'./Models/signal/CMS-HGG_sigfit_packaged_AC_Bin25_2016postVFP.root'
p190
aS'./Models/signal/CMS-HGG_sigfit_packaged_AC_Bin25_2016postVFP.root'
p191
aS'./Models/signal/CMS-HGG_sigfit_packaged_AC_Bin25_2016postVFP.root'
p192
aS'./Models/signal/CMS-HGG_sigfit_packaged_AC_Bin25_2016postVFP.root'
p193
aS'./Models/signal/CMS-HGG_sigfit_packaged_AC_Bin25_2016postVFP.root'
p194
aS'./Models/signal/CMS-HGG_sigfit_packaged_AC_Bin25_2016postVFP.root'
p195
aS'./Models/signal/CMS-HGG_sigfit_packaged_AC_Bin25_2016postVFP.root'
p196
aS'./Models/signal/CMS-HGG_sigfit_packaged_AC_Bin25_2016postVFP.root'
p197
aS'./Models/signal/CMS-HGG_sigfit_packaged_AC_Bin25_2016postVFP.root'
p198
aS'./Models/signal/CMS-HGG_sigfit_packaged_AC_Bin25_2016postVFP.root'
p199
aS'./Models/signal/CMS-HGG_sigfit_packaged_AC_Bin25_2016postVFP.root'
p200
aS'./Models/background/CMS-HGG_multipdf_AC_Bin25_2016postVFP.root'
p201
ag201
aS'wsig_13TeV:hggpdfsmrel_GG2HMf05ph0_2016postVFP_AC_Bin25_13TeV'
p202
aS'wsig_13TeV:hggpdfsmrel_GG2HbsmM_2016postVFP_AC_Bin25_13TeV'
p203
aS'wsig_13TeV:hggpdfsmrel_GG2Hsm_2016postVFP_AC_Bin25_13TeV'
p204
aS'wsig_13TeV:hggpdfsmrel_TTHsm_2016postVFP_AC_Bin25_13TeV'
p205
aS'wsig_13TeV:hggpdfsmrel_VBFMf05ph0_2016postVFP_AC_Bin25_13TeV'
p206
aS'wsig_13TeV:hggpdfsmrel_VBFbsmM_2016postVFP_AC_Bin25_13TeV'
p207
aS'wsig_13TeV:hggpdfsmrel_VBFsm_2016postVFP_AC_Bin25_13TeV'
p208
aS'wsig_13TeV:hggpdfsmrel_WHMf05ph0_2016postVFP_AC_Bin25_13TeV'
p209
aS'wsig_13TeV:hggpdfsmrel_WHbsmM_2016postVFP_AC_Bin25_13TeV'
p210
aS'wsig_13TeV:hggpdfsmrel_WHsm_2016postVFP_AC_Bin25_13TeV'
p211
aS'wsig_13TeV:hggpdfsmrel_ZHMf05ph0_2016postVFP_AC_Bin25_13TeV'
p212
aS'wsig_13TeV:hggpdfsmrel_ZHbsmM_2016postVFP_AC_Bin25_13TeV'
p213
aS'wsig_13TeV:hggpdfsmrel_ZHsm_2016postVFP_AC_Bin25_13TeV'
p214
aS'multipdf:CMS_hgg_AC_Bin25_2016postVFP_13TeV_bkgshape'
p215
aS'multipdf:roohist_data_mass_AC_Bin25'
p216
aF0.04177673072263133
aF0.04983740613374721
aF0.020627614572049424
aF0.003175520491822681
aF0.09767051562857887
aF0.11732453152740163
aF0.05080128647057336
aF0.00017569494775671046
aF0.0005555951418045879
aF0.00022016921184331295
aF0.000357020662420382
aF0.000657141588817467
aF0.0005984461761272541
ag147
ag147
aF9.671181155880672e-07
aF1.1767543048640079e-06
aF4.782212905788738e-07
aF8.107363932051898e-07
aF1.5875603695201458e-06
aF1.3863917930269877e-06
aF2.5621447198252215e-06
aF3.932068555009483e-09
aF5.832922300221034e-09
aF2.308777042835072e-09
aF2.262782208029345e-09
aF4.918358256027015e-09
aF7.855435778963778e-09
ag147
ag147
aF0.04255369839529799
aF0.050799994627986594
aF0.021014072181150353
aF0.00323324033249787
aF0.09956963638768127
aF0.1195637660517884
aF0.05176145975657311
aF0.00017906571197277293
aF0.0005653430352876577
aF0.00022411470447293867
aF0.0003638563602614679
aF0.0006712852254798457
aF0.0006090077199267173
ag147
ag147
aF0.04207681138326153
aF0.05019581810545299
aF0.02077627724129025
aF0.003199239585860714
aF0.09837672584137136
aF0.11817618770816284
aF0.051163387670234685
aF0.00017701542830825416
aF0.0005594961859059749
aF0.00022173838128616334
aF0.000359620193948146
aF0.0006618927042221654
aF0.0006026698915456185
ag147
ag147
aF0.041477731728357774
aF0.04948028673469518
aF0.020479489335846403
aF0.003151889535513672
aF0.09696686894076989
aF0.11647597547204802
aF0.05044048069100804
aF0.00017437941552531883
aF0.0005517079807608484
aF0.00021860571612617903
aF0.0003544306046971985
aF0.0006524077275099261
aF0.0005942375808011802
ag147
ag147
aF0.042226074564994776
aF0.0503806071940537
aF0.020858760492476553
aF0.003198808065229096
aF0.09866548245061227
aF0.11851034333649885
aF0.05134319731146988
aF0.00017705454321168123
aF0.0005621327187980654
aF0.00022226833836313937
aF0.0003609149714830174
aF0.0006632780496817911
aF0.0006053501249144534
ag147
ag147
aF0.04132978130964162
aF0.04929706807932395
aF0.02039781416191025
aF0.0031523225799610826
aF0.09668059244848573
aF0.1161444850030218
aF0.05026227180871275
aF0.0001743406015922538
aF0.0005491038072127235
aF0.0002180798422495258
aF0.00035314587899903927
aF0.0006510327008703311
aF0.0005915988676716366
ag147
ag147
aF0.04184138150712119
aF0.04991502792755893
aF0.020659153679250572
aF0.0031789570178470086
aF0.09781221629399302
aF0.11749272902114083
aF0.0508793302777265
aF0.00017588307716285553
aF0.000556550354147399
aF0.00022048413593753799
aF0.00035756239450675795
aF0.0006580553452495728
aF0.0005993910434172683
ag147
ag147
aF0.04171213157896247
aF0.04975984636635141
aF0.020596100140087985
aF0.0031720853364815386
aF0.09752892369630563
aF0.11715645655220418
aF0.050723303175846994
aF0.00017550690548438113
aF0.0005546407740538018
aF0.0002198545315731649
aF0.00035647929803113616
aF0.0006562284637372309
aF0.0005975021749284807
ag147
ag147
aF0.041863234110603574
aF0.04994255866618931
aF0.02067107164873074
aF0.0031819100830841923
aF0.09787858410557389
aF0.11756971540405048
aF0.05090871471164966
aF0.0001760480102959965
aF0.0005567193529628133
aF0.00022061175189571933
aF0.0003577473659710446
aF0.0006585784816182565
aF0.0005996526859755294
ag147
ag147
aF0.04169031690617754
aF0.04973236435839499
aF0.020584203297212115
aF0.0031691372007209492
aF0.09746266736068455
aF0.11707960245455219
aF0.05069397116314087
aF0.00017534223757801633
aF0.0005544720576437012
aF0.00021972711750092025
aF0.0003562947009328274
aF0.0006557062431447469
aF0.0005972408909304145
ag147
ag147
aF0.041200142936304474
aF0.04902771041906817
aF0.02026443562613167
aF0.0031752876320751966
aF0.0970640088021355
aF0.11693699567013027
aF0.05057279285927052
aF0.000732082121885469
aF0.001023234225044689
aF0.00021209715259828954
aF0.00035409060996016706
aF0.0006479602125182282
aF0.0005984461761272541
ag147
ag147
aF0.04252845355676982
aF0.05064598017565913
aF0.020972112449953784
aF0.0032776066227597767
aF0.09845654105265567
aF0.11807904662941837
aF0.048669175308759804
aF0.0007525168380198011
aF0.001023234225044689
aF0.00023260542047864874
aF0.000357020662420382
aF0.000657141588817467
aF0.000626321409299635
ag147
ag147
aF0.042642651938422205
aF0.05068240529294599
aF0.020979427101565307
aF0.003024800019375107
aF0.09881810297156335
aF0.11885073227489329
aF0.04836155198813685
aF0.0007525168380198011
aF0.0010296737426642721
aF0.00022016921184331295
aF0.00036308216584757247
aF0.0006739139348610479
aF0.0005984461761272541
ag147
ag147
aF0.04103231114049777
aF0.04884777690017472
aF0.02013699752683351
aF0.003110562786787341
aF0.09607580775934821
aF0.11581856749376129
aF0.04685005426790667
aF0.0007525168380198011
aF0.0010212902983539607
aF0.00021242591947157052
aF0.000342868443738098
aF0.0006442915273510152
aF0.0005833622810769157
ag147
ag147
aF0.042073402156347584
aF0.05016939219535743
aF0.020789515784827017
aF0.003175520491822681
aF0.09780996448876067
aF0.1174811777366358
aF0.04789929769685841
aF0.0007525168380198011
aF0.0010547140003609456
aF0.00022016921184331295
aF0.0003693790128522778
aF0.0006744787970092148
aF0.0005984461761272541
ag147
ag147
aF0.04148685250584094
aF0.0495569799952591
aF0.020503981365664004
aF0.003175520491822681
aF0.09756716429410517
aF0.11726659881855994
aF0.04744113174274389
aF0.0007386434776890383
aF0.0009956981215282212
aF0.00021209715259828954
aF0.000357020662420382
aF0.0006518367017633864
aF0.0005984461761272541
ag147
ag147
aF0.04327298425664594
aF0.051925489147834014
aF0.021128508574065563
aF0.0028579831605384243
aF0.09877460546670136
aF0.11832938236989321
aF0.04827996108053867
aF0.0009251078545275959
aF0.0010705300448989874
aF0.00025179490376103786
aF0.00043316003751669996
aF0.0006714849323543604
aF0.000603445479328002
ag147
ag147
aF0.04006027986133631
aF0.0470455599709112
aF0.019929799655301395
aF0.0027820080367746414
aF0.09635956091130993
aF0.11622886743350591
aF0.04711934358533654
aF0.000697957715146913
aF0.0009083874409725468
aF0.00023083543328539236
aF0.0003276971598893397
aF0.000556904030190708
aF0.0005736669675115991
ag147
ag147
aF0.042180999503671046
aF0.049842734370713515
aF0.020682835018533297
aF0.0028296574755586335
aF0.09767148459604869
aF0.1171948221817729
aF0.051240337188914964
aF0.0007818346780368302
aF0.0010189611801934007
aF0.000245183464812726
aF0.0003797702037786621
aF0.0006241612973099109
aF0.0006222870845249417
ag147
ag147
aF0.04190754779301642
aF0.04947426423836987
aF0.020634580423802618
aF0.003175520491822681
aF0.09768433096166973
aF0.11765289150275748
aF0.04732857654653344
aF0.000760717323373683
aF0.0010092901683265154
aF0.00022016921184331295
aF0.00036507796215801136
aF0.0006307270568868262
aF0.0005819985683501727
ag147
ag147
aF0.04177673072263133
aF0.04983740613374721
aF0.020627614572049424
aF0.003175520491822681
aF0.09767051562857887
aF0.11732453152740163
aF0.05080128647057336
aF0.00017569494775671046
aF0.0005555951418045879
aF0.00022016921184331295
aF0.000357020662420382
aF0.000657141588817467
aF0.0005984461761272541
ag147
ag147
aF0.04177673072263133
aF0.04983740613374721
aF0.020627614572049424
aF0.003175520491822681
aF0.09767051562857887
aF0.11732453152740163
aF0.05080128647057336
aF0.00017569494775671046
aF0.0005555951418045879
aF0.00022016921184331295
aF0.000357020662420382
aF0.000657141588817467
aF0.0005984461761272541
ag147
ag147
atp217
ba(lp218
g15
(g16
(dp219
g18
g19
(g20
(I0
tp220
g22
tp221
Rp222
(I1
(I1
tp223
g29
I00
(lp224
g43
atp225
bsg68
Nstp226
Rp227
ag15
(g16
(dp228
g18
g19
(g20
(I0
tp229
g22
tp230
Rp231
(I1
(I33
tp232
g29
I00
(lp233
g33
ag34
ag35
ag36
ag37
ag38
ag39
ag40
ag41
ag42
ag44
ag45
ag46
ag47
ag48
ag49
ag50
ag51
ag52
ag53
ag54
ag55
ag56
ag57
ag58
ag59
ag60
ag61
ag62
ag63
ag64
ag65
ag66
atp234
bsg68
Nstp235
Rp236
a(dp237
S'0.14.1'
p238
(dp239
S'axes'
p240
g14
sS'blocks'
p241
(lp242
(dp243
S'mgr_locs'
p244
c__builtin__
slice
p245
(I10
I11
I1
tp246
Rp247
sS'values'
p248
g89
sa(dp249
g244
g19
(g20
(I0
tp250
g22
tp251
Rp252
(I1
(I33
tp253
g79
I00
S'\x00\x00\x00\x00\x00\x00\x00\x00\x01\x00\x00\x00\x00\x00\x00\x00\x02\x00\x00\x00\x00\x00\x00\x00\x03\x00\x00\x00\x00\x00\x00\x00\x04\x00\x00\x00\x00\x00\x00\x00\x05\x00\x00\x00\x00\x00\x00\x00\x06\x00\x00\x00\x00\x00\x00\x00\x07\x00\x00\x00\x00\x00\x00\x00\x08\x00\x00\x00\x00\x00\x00\x00\t\x00\x00\x00\x00\x00\x00\x00\x0b\x00\x00\x00\x00\x00\x00\x00\x0c\x00\x00\x00\x00\x00\x00\x00\r\x00\x00\x00\x00\x00\x00\x00\x0e\x00\x00\x00\x00\x00\x00\x00\x0f\x00\x00\x00\x00\x00\x00\x00\x10\x00\x00\x00\x00\x00\x00\x00\x11\x00\x00\x00\x00\x00\x00\x00\x12\x00\x00\x00\x00\x00\x00\x00\x13\x00\x00\x00\x00\x00\x00\x00\x14\x00\x00\x00\x00\x00\x00\x00\x15\x00\x00\x00\x00\x00\x00\x00\x16\x00\x00\x00\x00\x00\x00\x00\x17\x00\x00\x00\x00\x00\x00\x00\x18\x00\x00\x00\x00\x00\x00\x00\x19\x00\x00\x00\x00\x00\x00\x00\x1a\x00\x00\x00\x00\x00\x00\x00\x1b\x00\x00\x00\x00\x00\x00\x00\x1c\x00\x00\x00\x00\x00\x00\x00\x1d\x00\x00\x00\x00\x00\x00\x00\x1e\x00\x00\x00\x00\x00\x00\x00\x1f\x00\x00\x00\x00\x00\x00\x00 \x00\x00\x00\x00\x00\x00\x00!\x00\x00\x00\x00\x00\x00\x00'
p254
tp255
bsg248
g100
sasstp256
bsb.