ccopy_reg
_reconstructor
p0
(cpandas.core.frame
DataFrame
p1
c__builtin__
object
p2
Ntp3
Rp4
(dp5
S'_metadata'
p6
(lp7
sS'_typ'
p8
S'dataframe'
p9
sS'_data'
p10
g0
(cpandas.core.internals
BlockManager
p11
g2
Ntp12
Rp13
((lp14
cpandas.core.indexes.base
_new_Index
p15
(cpandas.core.indexes.base
Index
p16
(dp17
S'data'
p18
cnumpy.core.multiarray
_reconstruct
p19
(cnumpy
ndarray
p20
(I0
tp21
S'b'
p22
tp23
Rp24
(I1
(I34
tp25
cnumpy
dtype
p26
(S'O8'
p27
I0
I1
tp28
Rp29
(I3
S'|'
p30
NNNI-1
I-1
I63
tp31
bI00
(lp32
S'year'
p33
aS'type'
p34
aS'procOriginal'
p35
aS'proc'
p36
aS'proc_s0'
p37
aS'cat'
p38
aS'inputWSFile'
p39
aS'nominalDataName'
p40
aS'modelWSFile'
p41
aS'model'
p42
aS'rate'
p43
aS'nominal_yield'
p44
aS'sumw2'
p45
aS'nominal_yield_COWCorr'
p46
aS'LooseMvaSF_up_yield'
p47
aS'LooseMvaSF_down_yield'
p48
aS'PreselSF_up_yield'
p49
aS'PreselSF_down_yield'
p50
aS'electronVetoSF_up_yield'
p51
aS'electronVetoSF_down_yield'
p52
aS'TriggerWeight_up_yield'
p53
aS'TriggerWeight_down_yield'
p54
aS'SigmaEOverEShift_up_yield'
p55
aS'SigmaEOverEShift_down_yield'
p56
aS'MvaShift_up_yield'
p57
aS'MvaShift_down_yield'
p58
aS'PUJIDShift_up_yield'
p59
aS'PUJIDShift_down_yield'
p60
aS'JEC_up_yield'
p61
aS'JEC_down_yield'
p62
aS'JER_up_yield'
p63
aS'JER_down_yield'
p64
aS'JetHEM_up_yield'
p65
aS'JetHEM_down_yield'
p66
atp67
bsS'name'
p68
Nstp69
Rp70
ag15
(cpandas.core.indexes.numeric
Int64Index
p71
(dp72
g18
g19
(g20
(I0
tp73
g22
tp74
Rp75
(I1
(I15
tp76
g26
(S'i8'
p77
I0
I1
tp78
Rp79
(I3
S'<'
p80
NNNI-1
I-1
I0
tp81
bI00
S'\x00\x00\x00\x00\x00\x00\x00\x00\x01\x00\x00\x00\x00\x00\x00\x00\x02\x00\x00\x00\x00\x00\x00\x00\x03\x00\x00\x00\x00\x00\x00\x00\x04\x00\x00\x00\x00\x00\x00\x00\x05\x00\x00\x00\x00\x00\x00\x00\x06\x00\x00\x00\x00\x00\x00\x00\x07\x00\x00\x00\x00\x00\x00\x00\x08\x00\x00\x00\x00\x00\x00\x00\t\x00\x00\x00\x00\x00\x00\x00\n\x00\x00\x00\x00\x00\x00\x00\x0b\x00\x00\x00\x00\x00\x00\x00\x0c\x00\x00\x00\x00\x00\x00\x00\r\x00\x00\x00\x00\x00\x00\x00\x0e\x00\x00\x00\x00\x00\x00\x00'
p82
tp83
bsg68
Nstp84
Rp85
a(lp86
g19
(g20
(I0
tp87
g22
tp88
Rp89
(I1
(I1
I15
tp90
g26
(S'f8'
p91
I0
I1
tp92
Rp93
(I3
S'<'
p94
NNNI-1
I-1
I0
tp95
bI00
S'\x00\x00\x00\x00\x80j\xd0@\x00\x00\x00\x00\x80j\xd0@\x00\x00\x00\x00\x80j\xd0@\x00\x00\x00\x00\x80j\xd0@\x00\x00\x00\x00\x80j\xd0@\x00\x00\x00\x00\x80j\xd0@\x00\x00\x00\x00\x80j\xd0@\x00\x00\x00\x00\x80j\xd0@\x00\x00\x00\x00\x80j\xd0@\x00\x00\x00\x00\x80j\xd0@\x00\x00\x00\x00\x80j\xd0@\x00\x00\x00\x00\x80j\xd0@\x00\x00\x00\x00\x80j\xd0@\x00\x00\x00\x00\x00\x00\xf0?\x00\x00\x00\x00\x00\x00\xf0\xbf'
p96
tp97
bag19
(g20
(I0
tp98
g22
tp99
Rp100
(I1
(I33
I15
tp101
g29
I00
(lp102
S'2016postVFP'
p103
ag103
ag103
ag103
ag103
ag103
ag103
ag103
ag103
ag103
ag103
ag103
ag103
ag33
ag33
aS'sig'
p104
ag104
ag104
ag104
ag104
ag104
ag104
ag104
ag104
ag104
ag104
ag104
ag104
aS'bkg'
p105
ag18
aS'GG2HMf05ph0'
p106
aS'GG2HbsmM'
p107
aS'GG2Hsm'
p108
aS'TTHsm'
p109
aS'VBFMf05ph0'
p110
aS'VBFbsmM'
p111
aS'VBFsm'
p112
aS'WHMf05ph0'
p113
aS'WHbsmM'
p114
aS'WHsm'
p115
aS'ZHMf05ph0'
p116
aS'ZHbsmM'
p117
aS'ZHsm'
p118
aS'bkg_mass'
p119
aS'data_obs'
p120
aS'GG2HMf05ph0_2016postVFP_hgg'
p121
aS'GG2HbsmM_2016postVFP_hgg'
p122
aS'GG2Hsm_2016postVFP_hgg'
p123
aS'tth0P_2016postVFP_hgg'
p124
aS'vbf0Mf05ph0_2016postVFP_hgg'
p125
aS'vbf0M_2016postVFP_hgg'
p126
aS'vbf0P_2016postVFP_hgg'
p127
aS'wh0Mf05ph0_2016postVFP_hgg'
p128
aS'wh0M_2016postVFP_hgg'
p129
aS'wh0P_2016postVFP_hgg'
p130
aS'zh0Mf05ph0_2016postVFP_hgg'
p131
aS'zh0M_2016postVFP_hgg'
p132
aS'zh0P_2016postVFP_hgg'
p133
ag119
ag120
aS'jjh0Mf05ph0'
p134
aS'jjh0M'
p135
aS'jjh0P'
p136
aS'tth0P'
p137
aS'vbf0Mf05ph0'
p138
aS'vbf0M'
p139
aS'vbf0P'
p140
aS'wh0Mf05ph0'
p141
aS'wh0M'
p142
aS'wh0P'
p143
aS'zh0Mf05ph0'
p144
aS'zh0M'
p145
aS'zh0P'
p146
aS'-'
p147
ag147
aS'AC_Bin5_2016postVFP'
p148
aS'AC_Bin5_2016postVFP'
p149
aS'AC_Bin5_2016postVFP'
p150
aS'AC_Bin5_2016postVFP'
p151
aS'AC_Bin5_2016postVFP'
p152
aS'AC_Bin5_2016postVFP'
p153
aS'AC_Bin5_2016postVFP'
p154
aS'AC_Bin5_2016postVFP'
p155
aS'AC_Bin5_2016postVFP'
p156
aS'AC_Bin5_2016postVFP'
p157
aS'AC_Bin5_2016postVFP'
p158
aS'AC_Bin5_2016postVFP'
p159
aS'AC_Bin5_2016postVFP'
p160
aS'AC_Bin5_2016postVFP'
p161
ag161
aS'Trees/Opt_2016postVFP/2016PostVFP/Trees2WS_2016postVFP/WS/output_GluGluHToGGPlusTwoJets_MM_M125_TuneCP5_13TeV-amcatnlopowheg-minlo-pythia8_GG2HMf05ph0.root'
p162
aS'Trees/Opt_2016postVFP/2016PostVFP/Trees2WS_2016postVFP/WS/output_GluGluHToGGPlusTwoJets_CPodd_M125_TuneCP5_13TeV-amcatnlopowheg-minlo-pythia8_GG2HbsmM.root'
p163
aS'Trees/Opt_2016postVFP/2016PostVFP/Trees2WS_2016postVFP/WS/output_GluGluHToGGPlusTwoJets_SM_M125_TuneCP5_13TeV-amcatnlopowheg-minlo-pythia8_GG2Hsm.root'
p164
aS'Trees/Opt_2016postVFP/2016PostVFP/Trees2WS_2016postVFP/WS/output_ttHJetToGG_M125_TuneCP5_13TeV-amcatnloFXFX-madspin-pythia8_TTHsm.root'
p165
aS'Trees/Opt_2016postVFP/2016PostVFP/Trees2WS_2016postVFP/WS/output_VBFHiggs0Mf05ph0ToGG_M125_TuneCP5_13TeV-JHUGenV7011-pythia8_VBFMf05ph0.root'
p166
aS'Trees/Opt_2016postVFP/2016PostVFP/Trees2WS_2016postVFP/WS/output_VBFHiggs0MToGG_M125_TuneCP5_13TeV-JHUGenV7011-pythia8_VBFbsmM.root'
p167
aS'Trees/Opt_2016postVFP/2016PostVFP/Trees2WS_2016postVFP/WS/output_VBFHToGG_M125_TuneCP5_13TeV-amcatnlo-pythia8_VBFsm.root'
p168
aS'Trees/Opt_2016postVFP/2016PostVFP/Trees2WS_2016postVFP/WS/output_WHiggs0Mf05ph0ToGG_M125_TuneCP5_13TeV-JHUGenV7011-pythia8_WHMf05ph0.root'
p169
aS'Trees/Opt_2016postVFP/2016PostVFP/Trees2WS_2016postVFP/WS/output_WHiggs0MToGG_M125_TuneCP5_13TeV-JHUGenV7011-pythia8_WHbsmM.root'
p170
aS'Trees/Opt_2016postVFP/2016PostVFP/Trees2WS_2016postVFP/WS/output_WHiggs0PMToGG_M125_TuneCP5_13TeV-JHUGenV7011-pythia8_WHsm.root'
p171
aS'Trees/Opt_2016postVFP/2016PostVFP/Trees2WS_2016postVFP/WS/output_ZHiggs0Mf05ph0ToGG_M125_TuneCP5_13TeV-JHUGenV7011-pythia8_ZHMf05ph0.root'
p172
aS'Trees/Opt_2016postVFP/2016PostVFP/Trees2WS_2016postVFP/WS/output_ZHiggs0MToGG_M125_TuneCP5_13TeV-JHUGenV7011-pythia8_ZHbsmM.root'
p173
aS'Trees/Opt_2016postVFP/2016PostVFP/Trees2WS_2016postVFP/WS/output_ZH_HToGG_ZToAll_M125_TuneCP5_13TeV-powheg-pythia8_ZHsm.root'
p174
ag147
ag147
aS'jjh0Mf05ph0_125_13TeV_AC_Bin5'
p175
aS'jjh0M_125_13TeV_AC_Bin5'
p176
aS'jjh0P_125_13TeV_AC_Bin5'
p177
aS'tth0P_125_13TeV_AC_Bin5'
p178
aS'vbf0Mf05ph0_125_13TeV_AC_Bin5'
p179
aS'vbf0M_125_13TeV_AC_Bin5'
p180
aS'vbf0P_125_13TeV_AC_Bin5'
p181
aS'wh0Mf05ph0_125_13TeV_AC_Bin5'
p182
aS'wh0M_125_13TeV_AC_Bin5'
p183
aS'wh0P_125_13TeV_AC_Bin5'
p184
aS'zh0Mf05ph0_125_13TeV_AC_Bin5'
p185
aS'zh0M_125_13TeV_AC_Bin5'
p186
aS'zh0P_125_13TeV_AC_Bin5'
p187
ag147
ag147
aS'./Models/signal/CMS-HGG_sigfit_packaged_AC_Bin5_2016postVFP.root'
p188
aS'./Models/signal/CMS-HGG_sigfit_packaged_AC_Bin5_2016postVFP.root'
p189
aS'./Models/signal/CMS-HGG_sigfit_packaged_AC_Bin5_2016postVFP.root'
p190
aS'./Models/signal/CMS-HGG_sigfit_packaged_AC_Bin5_2016postVFP.root'
p191
aS'./Models/signal/CMS-HGG_sigfit_packaged_AC_Bin5_2016postVFP.root'
p192
aS'./Models/signal/CMS-HGG_sigfit_packaged_AC_Bin5_2016postVFP.root'
p193
aS'./Models/signal/CMS-HGG_sigfit_packaged_AC_Bin5_2016postVFP.root'
p194
aS'./Models/signal/CMS-HGG_sigfit_packaged_AC_Bin5_2016postVFP.root'
p195
aS'./Models/signal/CMS-HGG_sigfit_packaged_AC_Bin5_2016postVFP.root'
p196
aS'./Models/signal/CMS-HGG_sigfit_packaged_AC_Bin5_2016postVFP.root'
p197
aS'./Models/signal/CMS-HGG_sigfit_packaged_AC_Bin5_2016postVFP.root'
p198
aS'./Models/signal/CMS-HGG_sigfit_packaged_AC_Bin5_2016postVFP.root'
p199
aS'./Models/signal/CMS-HGG_sigfit_packaged_AC_Bin5_2016postVFP.root'
p200
aS'./Models/background/CMS-HGG_multipdf_AC_Bin5_2016postVFP.root'
p201
ag201
aS'wsig_13TeV:hggpdfsmrel_GG2HMf05ph0_2016postVFP_AC_Bin5_13TeV'
p202
aS'wsig_13TeV:hggpdfsmrel_GG2HbsmM_2016postVFP_AC_Bin5_13TeV'
p203
aS'wsig_13TeV:hggpdfsmrel_GG2Hsm_2016postVFP_AC_Bin5_13TeV'
p204
aS'wsig_13TeV:hggpdfsmrel_TTHsm_2016postVFP_AC_Bin5_13TeV'
p205
aS'wsig_13TeV:hggpdfsmrel_VBFMf05ph0_2016postVFP_AC_Bin5_13TeV'
p206
aS'wsig_13TeV:hggpdfsmrel_VBFbsmM_2016postVFP_AC_Bin5_13TeV'
p207
aS'wsig_13TeV:hggpdfsmrel_VBFsm_2016postVFP_AC_Bin5_13TeV'
p208
aS'wsig_13TeV:hggpdfsmrel_WHMf05ph0_2016postVFP_AC_Bin5_13TeV'
p209
aS'wsig_13TeV:hggpdfsmrel_WHbsmM_2016postVFP_AC_Bin5_13TeV'
p210
aS'wsig_13TeV:hggpdfsmrel_WHsm_2016postVFP_AC_Bin5_13TeV'
p211
aS'wsig_13TeV:hggpdfsmrel_ZHMf05ph0_2016postVFP_AC_Bin5_13TeV'
p212
aS'wsig_13TeV:hggpdfsmrel_ZHbsmM_2016postVFP_AC_Bin5_13TeV'
p213
aS'wsig_13TeV:hggpdfsmrel_ZHsm_2016postVFP_AC_Bin5_13TeV'
p214
aS'multipdf:CMS_hgg_AC_Bin5_2016postVFP_13TeV_bkgshape'
p215
aS'multipdf:roohist_data_mass_AC_Bin5'
p216
aF0.04606395327266455
aF0.06913141097857078
aF0.03377516109890166
aF0.000868381503096316
aF0.03388749902501331
aF0.026832229047499823
aF0.0668079566646611
aF0.00010220326475973707
aF0.00041993041122623254
aF0.000648215778710437
aF0.0004611886594716452
aF0.0005138254573466838
aF0.0009667105532571441
ag147
ag147
aF1.0688459436271004e-06
aF1.5902141203722596e-06
aF7.833300948162512e-07
aF4.387367470846435e-07
aF5.441229812387132e-07
aF3.1636902276105833e-07
aF3.3410597466598293e-06
aF1.7879751229373308e-09
aF4.561930330915154e-09
aF7.042252491820583e-09
aF2.8999732522209684e-09
aF3.699390589914915e-09
aF1.6942310725516932e-08
ag147
ag147
aF0.04716568761509514
aF0.07083787337785132
aF0.034646254928263426
aF0.0008761584219767977
aF0.03464206071688826
aF0.027473343123367255
aF0.06834804357162547
aF0.00010437387080002058
aF0.00042920833381369743
aF0.0006600703128622399
aF0.00047004828655497895
aF0.0005325070150532418
aF0.0009895100832670932
ag147
ag147
aF0.04638617624283151
aF0.06961240429634198
aF0.03401195707459646
aF0.0008753730287941639
aF0.03411977583451446
aF0.02701715946292342
aF0.067264543613784
aF0.00010290662487276941
aF0.00042286051886994067
aF0.0006525451099636231
aF0.000464407111310135
aF0.0005173524811844156
aF0.0009732980397481061
ag147
ag147
aF0.04574285969329411
aF0.06865209498320345
aF0.03353919809213441
aF0.0008614175840225006
aF0.03365601995619614
aF0.026647934564106787
aF0.06635293481679269
aF0.00010150232817402499
aF0.00041701054512765975
aF0.000643901162448041
aF0.00045798137594617945
aF0.0005103106138727428
aF0.0009601455827800626
ag147
ag147
aF0.04661648269224222
aF0.07000327121313496
aF0.03419500864742714
aF0.0008642044663797973
aF0.03430613497209658
aF0.02716540453114049
aF0.06765472184207054
aF0.00010368281646168177
aF0.00042457421967374045
aF0.0006566709302345535
aF0.00046663220488688087
aF0.0005192805187084023
aF0.0009780834288165357
ag147
ag147
aF0.04551459728237261
aF0.06826506773002795
aF0.033358086756002985
aF0.0008723936458371666
aF0.033471445410378685
aF0.02650093803601028
aF0.06596628396435636
aF0.0001007310913599924
aF0.00041530956322860264
aF0.0006398119990173498
aF0.0004557764808876742
aF0.0005083966852295233
aF0.0009554119769550238
ag147
ag147
aF0.04614618474183436
aF0.06925824810065587
aF0.03383605249733227
aF0.0008686295648783222
aF0.03395122763500741
aF0.026883420925240847
aF0.06693868167502862
aF0.00010239237259462974
aF0.0004206261089418203
aF0.0006495563143422121
aF0.0004619484733403057
aF0.0005148233558129748
aF0.0009684457868419446
ag147
ag147
aF0.045981795062072735
aF0.06900469682014597
aF0.033714326389600105
aF0.0008681321633091163
aF0.03382382882735916
aF0.02678108280225795
aF0.06667736280227728
aF0.00010201434277406686
aF0.00041923529169823773
aF0.0006468767136171115
aF0.0004604294372284971
aF0.0005128284977563126
aF0.0009649768069206757
ag147
ag147
aF0.04616572345406559
aF0.06928528956713846
aF0.03385165668650643
aF0.000869816775164809
aF0.03396004488929836
aF0.026891277833704298
aF0.06695388810629799
aF0.0001024091257556626
aF0.00042086641734293933
aF0.0006495490244899158
aF0.0004621276260960315
aF0.0005152382094835958
aF0.0009686974985509237
ag147
ag147
aF0.04596229568586394
aF0.0689777043146071
aF0.03369875213503168
aF0.000866947386200747
aF0.03381503082863883
aF0.026773244944958922
aF0.06666220489388743
aF0.00010199761763118821
aF0.0004189954498674184
aF0.0006468839167155536
aF0.00046025065688570235
aF0.0005124145194527053
aF0.0009647256635502302
ag147
ag147
aF0.04587577260861053
aF0.06833157728192418
aF0.03343329111089588
aF0.0009294907431467436
aF0.03410118687929753
aF0.027233772752424557
aF0.047837240217631916
aF0.00075261403821969
aF0.0007780692092183017
aF0.0006392734926521371
aF0.0004633201119190744
aF0.000515080746026797
aF0.0009448308433093189
ag147
ag147
aF0.04593117032038663
aF0.06963157683594545
aF0.033961036017672086
aF0.0007979882429935969
aF0.03366999132163073
aF0.026339517341057217
aF0.047572896396445685
aF0.0007589586009544291
aF0.0008087149033144669
aF0.0006415338757506106
aF0.0004657335873048396
aF0.0005138254573466838
aF0.0009783968816918787
ag147
ag147
aF0.046870912931012754
aF0.0705123024565637
aF0.03430788872196899
aF0.0006388269830495119
aF0.034446395101667804
aF0.027311208190440084
aF0.04854063516404494
aF0.00075261403821969
aF0.0008335674449426733
aF0.0006580867402590229
aF0.00045637207966819915
aF0.0005138254573466838
aF0.0009915446798913763
ag147
ag147
aF0.04508316328167439
aF0.06760060154829262
aF0.03294075926851292
aF0.0009480161788815167
aF0.03351263705690144
aF0.026443954136198045
aF0.046536698779959806
aF0.0006998896999448334
aF0.0008040112959406542
aF0.0006140394220892631
aF0.0004619681005237908
aF0.0005081769572825579
aF0.0009749277951414115
ag147
ag147
aF0.04705287198305541
aF0.07053570670314002
aF0.034529237165997984
aF0.000868381503096316
aF0.03405492630986373
aF0.026906540936920464
aF0.048048211157492915
aF0.0007796240554398537
aF0.0008249689660715376
aF0.000648215778710437
aF0.00047246075399698384
aF0.0005378377086344699
aF0.0009667105532571441
ag147
ag147
aF0.04530620648677086
aF0.06770924334523443
aF0.03324381912375429
aF0.000868381503096316
aF0.03362769172804292
aF0.02673888165088556
aF0.04825241754849685
aF0.0007556435778042214
aF0.0007934285074497893
aF0.000648215778710437
aF0.00043382905977296105
aF0.0005050590004884725
aF0.0009527059646643465
ag147
ag147
aF0.04909667966296638
aF0.0736151824260105
aF0.03686841701801313
aF0.0008309205913974438
aF0.03405457745407148
aF0.026763451585452458
aF0.047841401581649734
aF0.0007963787913922715
aF0.000865621254774851
aF0.0006951933969503443
aF0.0005398783734449353
aF0.0005492484201568004
aF0.0010248606093909984
ag147
ag147
aF0.042800447742479264
aF0.06376383224642268
aF0.031349573279840115
aF0.0009427482073078863
aF0.03356222111642637
aF0.02675612135215033
aF0.06563191459099471
aF0.0007142849528918305
aF0.0007644060533493757
aF0.0004603146253430168
aF0.0004083478970073884
aF0.0004693545156442269
aF0.0008833664569465327
ag147
ag147
aF0.046676366368160416
aF0.0698443987284918
aF0.03429223083776378
aF0.0009941893404175062
aF0.03361234119688561
aF0.026827236344047378
aF0.04794523470638978
aF0.000812945442930868
aF0.0008416779601247981
aF0.0006354052611641237
aF0.00047594943515605337
aF0.0005339336867109523
aF0.0010099669116243604
ag147
ag147
aF0.045421353670576536
aF0.06821020297797986
aF0.03311771573862643
aF0.000868381503096316
aF0.03377440032807044
aF0.0268811610138755
aF0.05917331681257565
aF0.0007517031483530445
aF0.0008161678604210465
aF0.0005751193626792883
aF0.0004543447529954392
aF0.0004922336547679151
aF0.0009509793366078156
ag147
ag147
aF0.04606395327266455
aF0.06913141097857078
aF0.03377516109890166
aF0.000868381503096316
aF0.03388749902501331
aF0.026832229047499823
aF0.0668079566646611
aF0.00010220326475973707
aF0.00041993041122623254
aF0.000648215778710437
aF0.0004611886594716452
aF0.0005138254573466838
aF0.0009667105532571441
ag147
ag147
aF0.04606395327266455
aF0.06913141097857078
aF0.03377516109890166
aF0.000868381503096316
aF0.03388749902501331
aF0.026832229047499823
aF0.0668079566646611
aF0.00010220326475973707
aF0.00041993041122623254
aF0.000648215778710437
aF0.0004611886594716452
aF0.0005138254573466838
aF0.0009667105532571441
ag147
ag147
atp217
ba(lp218
g15
(g16
(dp219
g18
g19
(g20
(I0
tp220
g22
tp221
Rp222
(I1
(I1
tp223
g29
I00
(lp224
g43
atp225
bsg68
Nstp226
Rp227
ag15
(g16
(dp228
g18
g19
(g20
(I0
tp229
g22
tp230
Rp231
(I1
(I33
tp232
g29
I00
(lp233
g33
ag34
ag35
ag36
ag37
ag38
ag39
ag40
ag41
ag42
ag44
ag45
ag46
ag47
ag48
ag49
ag50
ag51
ag52
ag53
ag54
ag55
ag56
ag57
ag58
ag59
ag60
ag61
ag62
ag63
ag64
ag65
ag66
atp234
bsg68
Nstp235
Rp236
a(dp237
S'0.14.1'
p238
(dp239
S'axes'
p240
g14
sS'blocks'
p241
(lp242
(dp243
S'mgr_locs'
p244
c__builtin__
slice
p245
(I10
I11
I1
tp246
Rp247
sS'values'
p248
g89
sa(dp249
g244
g19
(g20
(I0
tp250
g22
tp251
Rp252
(I1
(I33
tp253
g79
I00
S'\x00\x00\x00\x00\x00\x00\x00\x00\x01\x00\x00\x00\x00\x00\x00\x00\x02\x00\x00\x00\x00\x00\x00\x00\x03\x00\x00\x00\x00\x00\x00\x00\x04\x00\x00\x00\x00\x00\x00\x00\x05\x00\x00\x00\x00\x00\x00\x00\x06\x00\x00\x00\x00\x00\x00\x00\x07\x00\x00\x00\x00\x00\x00\x00\x08\x00\x00\x00\x00\x00\x00\x00\t\x00\x00\x00\x00\x00\x00\x00\x0b\x00\x00\x00\x00\x00\x00\x00\x0c\x00\x00\x00\x00\x00\x00\x00\r\x00\x00\x00\x00\x00\x00\x00\x0e\x00\x00\x00\x00\x00\x00\x00\x0f\x00\x00\x00\x00\x00\x00\x00\x10\x00\x00\x00\x00\x00\x00\x00\x11\x00\x00\x00\x00\x00\x00\x00\x12\x00\x00\x00\x00\x00\x00\x00\x13\x00\x00\x00\x00\x00\x00\x00\x14\x00\x00\x00\x00\x00\x00\x00\x15\x00\x00\x00\x00\x00\x00\x00\x16\x00\x00\x00\x00\x00\x00\x00\x17\x00\x00\x00\x00\x00\x00\x00\x18\x00\x00\x00\x00\x00\x00\x00\x19\x00\x00\x00\x00\x00\x00\x00\x1a\x00\x00\x00\x00\x00\x00\x00\x1b\x00\x00\x00\x00\x00\x00\x00\x1c\x00\x00\x00\x00\x00\x00\x00\x1d\x00\x00\x00\x00\x00\x00\x00\x1e\x00\x00\x00\x00\x00\x00\x00\x1f\x00\x00\x00\x00\x00\x00\x00 \x00\x00\x00\x00\x00\x00\x00!\x00\x00\x00\x00\x00\x00\x00'
p254
tp255
bsg248
g100
sasstp256
bsb.