ccopy_reg
_reconstructor
p0
(cpandas.core.frame
DataFrame
p1
c__builtin__
object
p2
Ntp3
Rp4
(dp5
S'_metadata'
p6
(lp7
sS'_typ'
p8
S'dataframe'
p9
sS'_data'
p10
g0
(cpandas.core.internals
BlockManager
p11
g2
Ntp12
Rp13
((lp14
cpandas.core.indexes.base
_new_Index
p15
(cpandas.core.indexes.base
Index
p16
(dp17
S'data'
p18
cnumpy.core.multiarray
_reconstruct
p19
(cnumpy
ndarray
p20
(I0
tp21
S'b'
p22
tp23
Rp24
(I1
(I34
tp25
cnumpy
dtype
p26
(S'O8'
p27
I0
I1
tp28
Rp29
(I3
S'|'
p30
NNNI-1
I-1
I63
tp31
bI00
(lp32
S'year'
p33
aS'type'
p34
aS'procOriginal'
p35
aS'proc'
p36
aS'proc_s0'
p37
aS'cat'
p38
aS'inputWSFile'
p39
aS'nominalDataName'
p40
aS'modelWSFile'
p41
aS'model'
p42
aS'rate'
p43
aS'nominal_yield'
p44
aS'sumw2'
p45
aS'nominal_yield_COWCorr'
p46
aS'LooseMvaSF_up_yield'
p47
aS'LooseMvaSF_down_yield'
p48
aS'PreselSF_up_yield'
p49
aS'PreselSF_down_yield'
p50
aS'electronVetoSF_up_yield'
p51
aS'electronVetoSF_down_yield'
p52
aS'TriggerWeight_up_yield'
p53
aS'TriggerWeight_down_yield'
p54
aS'SigmaEOverEShift_up_yield'
p55
aS'SigmaEOverEShift_down_yield'
p56
aS'MvaShift_up_yield'
p57
aS'MvaShift_down_yield'
p58
aS'PUJIDShift_up_yield'
p59
aS'PUJIDShift_down_yield'
p60
aS'JEC_up_yield'
p61
aS'JEC_down_yield'
p62
aS'JER_up_yield'
p63
aS'JER_down_yield'
p64
aS'JetHEM_up_yield'
p65
aS'JetHEM_down_yield'
p66
atp67
bsS'name'
p68
Nstp69
Rp70
ag15
(cpandas.core.indexes.numeric
Int64Index
p71
(dp72
g18
g19
(g20
(I0
tp73
g22
tp74
Rp75
(I1
(I15
tp76
g26
(S'i8'
p77
I0
I1
tp78
Rp79
(I3
S'<'
p80
NNNI-1
I-1
I0
tp81
bI00
S'\x00\x00\x00\x00\x00\x00\x00\x00\x01\x00\x00\x00\x00\x00\x00\x00\x02\x00\x00\x00\x00\x00\x00\x00\x03\x00\x00\x00\x00\x00\x00\x00\x04\x00\x00\x00\x00\x00\x00\x00\x05\x00\x00\x00\x00\x00\x00\x00\x06\x00\x00\x00\x00\x00\x00\x00\x07\x00\x00\x00\x00\x00\x00\x00\x08\x00\x00\x00\x00\x00\x00\x00\t\x00\x00\x00\x00\x00\x00\x00\n\x00\x00\x00\x00\x00\x00\x00\x0b\x00\x00\x00\x00\x00\x00\x00\x0c\x00\x00\x00\x00\x00\x00\x00\r\x00\x00\x00\x00\x00\x00\x00\x0e\x00\x00\x00\x00\x00\x00\x00'
p82
tp83
bsg68
Nstp84
Rp85
a(lp86
g19
(g20
(I0
tp87
g22
tp88
Rp89
(I1
(I1
I15
tp90
g26
(S'f8'
p91
I0
I1
tp92
Rp93
(I3
S'<'
p94
NNNI-1
I-1
I0
tp95
bI00
S'\x00\x00\x00\x00\x80j\xd0@\x00\x00\x00\x00\x80j\xd0@\x00\x00\x00\x00\x80j\xd0@\x00\x00\x00\x00\x80j\xd0@\x00\x00\x00\x00\x80j\xd0@\x00\x00\x00\x00\x80j\xd0@\x00\x00\x00\x00\x80j\xd0@\x00\x00\x00\x00\x80j\xd0@\x00\x00\x00\x00\x80j\xd0@\x00\x00\x00\x00\x80j\xd0@\x00\x00\x00\x00\x80j\xd0@\x00\x00\x00\x00\x80j\xd0@\x00\x00\x00\x00\x80j\xd0@\x00\x00\x00\x00\x00\x00\xf0?\x00\x00\x00\x00\x00\x00\xf0\xbf'
p96
tp97
bag19
(g20
(I0
tp98
g22
tp99
Rp100
(I1
(I33
I15
tp101
g29
I00
(lp102
S'2016postVFP'
p103
ag103
ag103
ag103
ag103
ag103
ag103
ag103
ag103
ag103
ag103
ag103
ag103
ag33
ag33
aS'sig'
p104
ag104
ag104
ag104
ag104
ag104
ag104
ag104
ag104
ag104
ag104
ag104
ag104
aS'bkg'
p105
ag18
aS'GG2HMf05ph0'
p106
aS'GG2HbsmM'
p107
aS'GG2Hsm'
p108
aS'TTHsm'
p109
aS'VBFMf05ph0'
p110
aS'VBFbsmM'
p111
aS'VBFsm'
p112
aS'WHMf05ph0'
p113
aS'WHbsmM'
p114
aS'WHsm'
p115
aS'ZHMf05ph0'
p116
aS'ZHbsmM'
p117
aS'ZHsm'
p118
aS'bkg_mass'
p119
aS'data_obs'
p120
aS'GG2HMf05ph0_2016postVFP_hgg'
p121
aS'GG2HbsmM_2016postVFP_hgg'
p122
aS'GG2Hsm_2016postVFP_hgg'
p123
aS'tth0P_2016postVFP_hgg'
p124
aS'vbf0Mf05ph0_2016postVFP_hgg'
p125
aS'vbf0M_2016postVFP_hgg'
p126
aS'vbf0P_2016postVFP_hgg'
p127
aS'wh0Mf05ph0_2016postVFP_hgg'
p128
aS'wh0M_2016postVFP_hgg'
p129
aS'wh0P_2016postVFP_hgg'
p130
aS'zh0Mf05ph0_2016postVFP_hgg'
p131
aS'zh0M_2016postVFP_hgg'
p132
aS'zh0P_2016postVFP_hgg'
p133
ag119
ag120
aS'jjh0Mf05ph0'
p134
aS'jjh0M'
p135
aS'jjh0P'
p136
aS'tth0P'
p137
aS'vbf0Mf05ph0'
p138
aS'vbf0M'
p139
aS'vbf0P'
p140
aS'wh0Mf05ph0'
p141
aS'wh0M'
p142
aS'wh0P'
p143
aS'zh0Mf05ph0'
p144
aS'zh0M'
p145
aS'zh0P'
p146
aS'-'
p147
ag147
aS'AC_Bin10_2016postVFP'
p148
aS'AC_Bin10_2016postVFP'
p149
aS'AC_Bin10_2016postVFP'
p150
aS'AC_Bin10_2016postVFP'
p151
aS'AC_Bin10_2016postVFP'
p152
aS'AC_Bin10_2016postVFP'
p153
aS'AC_Bin10_2016postVFP'
p154
aS'AC_Bin10_2016postVFP'
p155
aS'AC_Bin10_2016postVFP'
p156
aS'AC_Bin10_2016postVFP'
p157
aS'AC_Bin10_2016postVFP'
p158
aS'AC_Bin10_2016postVFP'
p159
aS'AC_Bin10_2016postVFP'
p160
aS'AC_Bin10_2016postVFP'
p161
ag161
aS'Trees/Opt_2016postVFP/2016PostVFP/Trees2WS_2016postVFP/WS/output_GluGluHToGGPlusTwoJets_MM_M125_TuneCP5_13TeV-amcatnlopowheg-minlo-pythia8_GG2HMf05ph0.root'
p162
aS'Trees/Opt_2016postVFP/2016PostVFP/Trees2WS_2016postVFP/WS/output_GluGluHToGGPlusTwoJets_CPodd_M125_TuneCP5_13TeV-amcatnlopowheg-minlo-pythia8_GG2HbsmM.root'
p163
aS'Trees/Opt_2016postVFP/2016PostVFP/Trees2WS_2016postVFP/WS/output_GluGluHToGGPlusTwoJets_SM_M125_TuneCP5_13TeV-amcatnlopowheg-minlo-pythia8_GG2Hsm.root'
p164
aS'Trees/Opt_2016postVFP/2016PostVFP/Trees2WS_2016postVFP/WS/output_ttHJetToGG_M125_TuneCP5_13TeV-amcatnloFXFX-madspin-pythia8_TTHsm.root'
p165
aS'Trees/Opt_2016postVFP/2016PostVFP/Trees2WS_2016postVFP/WS/output_VBFHiggs0Mf05ph0ToGG_M125_TuneCP5_13TeV-JHUGenV7011-pythia8_VBFMf05ph0.root'
p166
aS'Trees/Opt_2016postVFP/2016PostVFP/Trees2WS_2016postVFP/WS/output_VBFHiggs0MToGG_M125_TuneCP5_13TeV-JHUGenV7011-pythia8_VBFbsmM.root'
p167
aS'Trees/Opt_2016postVFP/2016PostVFP/Trees2WS_2016postVFP/WS/output_VBFHToGG_M125_TuneCP5_13TeV-amcatnlo-pythia8_VBFsm.root'
p168
aS'Trees/Opt_2016postVFP/2016PostVFP/Trees2WS_2016postVFP/WS/output_WHiggs0Mf05ph0ToGG_M125_TuneCP5_13TeV-JHUGenV7011-pythia8_WHMf05ph0.root'
p169
aS'Trees/Opt_2016postVFP/2016PostVFP/Trees2WS_2016postVFP/WS/output_WHiggs0MToGG_M125_TuneCP5_13TeV-JHUGenV7011-pythia8_WHbsmM.root'
p170
aS'Trees/Opt_2016postVFP/2016PostVFP/Trees2WS_2016postVFP/WS/output_WHiggs0PMToGG_M125_TuneCP5_13TeV-JHUGenV7011-pythia8_WHsm.root'
p171
aS'Trees/Opt_2016postVFP/2016PostVFP/Trees2WS_2016postVFP/WS/output_ZHiggs0Mf05ph0ToGG_M125_TuneCP5_13TeV-JHUGenV7011-pythia8_ZHMf05ph0.root'
p172
aS'Trees/Opt_2016postVFP/2016PostVFP/Trees2WS_2016postVFP/WS/output_ZHiggs0MToGG_M125_TuneCP5_13TeV-JHUGenV7011-pythia8_ZHbsmM.root'
p173
aS'Trees/Opt_2016postVFP/2016PostVFP/Trees2WS_2016postVFP/WS/output_ZH_HToGG_ZToAll_M125_TuneCP5_13TeV-powheg-pythia8_ZHsm.root'
p174
ag147
ag147
aS'jjh0Mf05ph0_125_13TeV_AC_Bin10'
p175
aS'jjh0M_125_13TeV_AC_Bin10'
p176
aS'jjh0P_125_13TeV_AC_Bin10'
p177
aS'tth0P_125_13TeV_AC_Bin10'
p178
aS'vbf0Mf05ph0_125_13TeV_AC_Bin10'
p179
aS'vbf0M_125_13TeV_AC_Bin10'
p180
aS'vbf0P_125_13TeV_AC_Bin10'
p181
aS'wh0Mf05ph0_125_13TeV_AC_Bin10'
p182
aS'wh0M_125_13TeV_AC_Bin10'
p183
aS'wh0P_125_13TeV_AC_Bin10'
p184
aS'zh0Mf05ph0_125_13TeV_AC_Bin10'
p185
aS'zh0M_125_13TeV_AC_Bin10'
p186
aS'zh0P_125_13TeV_AC_Bin10'
p187
ag147
ag147
aS'./Models/signal/CMS-HGG_sigfit_packaged_AC_Bin10_2016postVFP.root'
p188
aS'./Models/signal/CMS-HGG_sigfit_packaged_AC_Bin10_2016postVFP.root'
p189
aS'./Models/signal/CMS-HGG_sigfit_packaged_AC_Bin10_2016postVFP.root'
p190
aS'./Models/signal/CMS-HGG_sigfit_packaged_AC_Bin10_2016postVFP.root'
p191
aS'./Models/signal/CMS-HGG_sigfit_packaged_AC_Bin10_2016postVFP.root'
p192
aS'./Models/signal/CMS-HGG_sigfit_packaged_AC_Bin10_2016postVFP.root'
p193
aS'./Models/signal/CMS-HGG_sigfit_packaged_AC_Bin10_2016postVFP.root'
p194
aS'./Models/signal/CMS-HGG_sigfit_packaged_AC_Bin10_2016postVFP.root'
p195
aS'./Models/signal/CMS-HGG_sigfit_packaged_AC_Bin10_2016postVFP.root'
p196
aS'./Models/signal/CMS-HGG_sigfit_packaged_AC_Bin10_2016postVFP.root'
p197
aS'./Models/signal/CMS-HGG_sigfit_packaged_AC_Bin10_2016postVFP.root'
p198
aS'./Models/signal/CMS-HGG_sigfit_packaged_AC_Bin10_2016postVFP.root'
p199
aS'./Models/signal/CMS-HGG_sigfit_packaged_AC_Bin10_2016postVFP.root'
p200
aS'./Models/background/CMS-HGG_multipdf_AC_Bin10_2016postVFP.root'
p201
ag201
aS'wsig_13TeV:hggpdfsmrel_GG2HMf05ph0_2016postVFP_AC_Bin10_13TeV'
p202
aS'wsig_13TeV:hggpdfsmrel_GG2HbsmM_2016postVFP_AC_Bin10_13TeV'
p203
aS'wsig_13TeV:hggpdfsmrel_GG2Hsm_2016postVFP_AC_Bin10_13TeV'
p204
aS'wsig_13TeV:hggpdfsmrel_TTHsm_2016postVFP_AC_Bin10_13TeV'
p205
aS'wsig_13TeV:hggpdfsmrel_VBFMf05ph0_2016postVFP_AC_Bin10_13TeV'
p206
aS'wsig_13TeV:hggpdfsmrel_VBFbsmM_2016postVFP_AC_Bin10_13TeV'
p207
aS'wsig_13TeV:hggpdfsmrel_VBFsm_2016postVFP_AC_Bin10_13TeV'
p208
aS'wsig_13TeV:hggpdfsmrel_WHMf05ph0_2016postVFP_AC_Bin10_13TeV'
p209
aS'wsig_13TeV:hggpdfsmrel_WHbsmM_2016postVFP_AC_Bin10_13TeV'
p210
aS'wsig_13TeV:hggpdfsmrel_WHsm_2016postVFP_AC_Bin10_13TeV'
p211
aS'wsig_13TeV:hggpdfsmrel_ZHMf05ph0_2016postVFP_AC_Bin10_13TeV'
p212
aS'wsig_13TeV:hggpdfsmrel_ZHbsmM_2016postVFP_AC_Bin10_13TeV'
p213
aS'wsig_13TeV:hggpdfsmrel_ZHsm_2016postVFP_AC_Bin10_13TeV'
p214
aS'multipdf:CMS_hgg_AC_Bin10_2016postVFP_13TeV_bkgshape'
p215
aS'multipdf:roohist_data_mass_AC_Bin10'
p216
aF0.02924734364592041
aF0.050413596754651735
aF0.02169671045612631
aF0.0023283196260308614
aF0.09295494644391056
aF0.11922102473602081
aF0.05272784038959344
aF6.25933635092224e-05
aF0.0006416707582275194
aF0.0003518504677231249
aF0.0004589730044699536
aF0.0005491999827995642
aF0.0005777144774583576
ag147
ag147
aF6.692546056189118e-07
aF1.1887886534235357e-06
aF4.895776261999599e-07
aF7.258355528914805e-07
aF1.5034270901393756e-06
aF1.4047030684719526e-06
aF2.5552559197705118e-06
aF1.034564078937222e-09
aF6.56628630359473e-09
aF3.5970465653401205e-09
aF2.869122468692904e-09
aF3.797050735385418e-09
aF9.220639904463675e-09
ag147
ag147
aF0.0298223036616162
aF0.05137572018797497
aF0.02210164967167382
aF0.0023738845579495496
aF0.09473202075026656
aF0.12151377795860645
aF0.0537202412676771
aF6.367211660671277e-05
aF0.0006567016049370482
aF0.00035850110340461934
aF0.0004690000406864628
aF0.0005604783673840964
aF0.0005872929039000551
ag147
ag147
aF0.0294570257977416
aF0.050776687987812846
aF0.02185264499853164
aF0.0023455678189823097
aF0.09362826404624847
aF0.12008592204351146
aF0.053103089823919605
aF6.30457010130741e-05
aF0.000646246599234973
aF0.00035434303533535673
aF0.000462219149544392
aF0.0005532087015010538
aF0.0005816355614964411
ag147
ag147
aF0.029038416481859453
aF0.050051817406716874
aF0.021541337247189055
aF0.0023111352860604503
aF0.09228407533555497
aF0.11835927803695524
aF0.0523539328265982
aF6.214265142809123e-05
aF0.0006371113027974323
aF0.00034936669345553246
aF0.00045573839498915555
aF0.0005452058770809044
aF0.0005738068672988905
ag147
ag147
aF0.02956850414543043
aF0.0509553618312211
aF0.021926031070418055
aF0.002355419247077722
aF0.09389605498261096
aF0.12040488827703165
aF0.053315283030881316
aF6.306158902686401e-05
aF0.0006496467807427337
aF0.0003564315977780456
aF0.0004639546546928379
aF0.000555154769173396
aF0.0005852810206722016
ag147
ag147
aF0.02892799370962676
aF0.049874670109435804
aF0.021468545574423927
aF0.002301363300800714
aF0.09201845796873517
aF0.11804299985715382
aF0.05214348488430329
aF6.212688150277672e-05
aF0.0006337397482120544
aF0.00034729435884861163
aF0.00045402126060928034
aF0.0005432749269952974
aF0.0005702072590486043
ag147
ag147
aF0.0292924278815951
aF0.05048980619949897
aF0.021729515719144093
aF0.0023321298748667607
aF0.09308947781809077
aF0.11939080474047398
aF0.05281357631210302
aF6.267206424022276e-05
aF0.0006427317536023122
aF0.00035246385002263243
aF0.0004596828770614231
aF0.00054995654811876
aF0.0005788483253939376
ag147
ag147
aF0.029202297065913
aF0.05033744525006265
aF0.021663929889702224
aF0.0023245118521454116
aF0.0928205145112074
aF0.11905137398258361
aF0.052642177456685646
aF6.25147058313596e-05
aF0.0006406106780246606
aF0.00035123752652842683
aF0.00045826372573465785
aF0.0005484438874633828
aF0.0005765820617025678
ag147
ag147
aF0.029310983058246597
aF0.050521932664264836
aF0.021742343367180353
aF0.002333041052588257
aF0.09315105937252709
aF0.11947194714094787
aF0.05283967873736564
aF6.271910891718969e-05
aF0.0006434268620085487
aF0.00035256439447321205
aF0.00046009758142518585
aF0.000550413139517248
aF0.0005788924867543574
ag147
ag147
aF0.02918377775228813
aF0.05030537669123594
aF0.021651125435565906
aF0.0023236030201606766
aF0.09275903898961571
aF0.11897036504710545
aF0.052616120723309165
aF6.246774334133357e-05
aF0.0006399168919542677
aF0.00035113727293262193
aF0.0004578497583613451
aF0.0005479881446844011
aF0.0005765376581693697
ag147
ag147
aF0.028865853292927568
aF0.049834155595590346
aF0.02141337379680408
aF0.002267210385980434
aF0.09227612971142207
aF0.1187012730774768
aF0.048680551297479724
aF0.0009201226866935031
aF0.001135127491579624
aF0.0003221074784960365
aF0.00044508730388770346
aF0.000547944694119451
aF0.0005777144774583576
ag147
ag147
aF0.02985762312209772
aF0.05116918059161435
aF0.02210876459866995
aF0.0023987128861335805
aF0.09355343926938531
aF0.11998828562900599
aF0.050369564005904977
aF0.0009201226866935031
aF0.001155515050413669
aF0.00036695215612780885
aF0.0004589730044699536
aF0.0005491999827995642
aF0.0005777144774583576
ag147
ag147
aF0.029670745046360025
aF0.0513092498365495
aF0.022046299537578307
aF0.0023283196260308614
aF0.09398903059388886
aF0.12047658314827459
aF0.04964281432773987
aF0.0009201226866935031
aF0.0011739614456018899
aF0.0003518504677231249
aF0.000465352236687977
aF0.0005491999827995642
aF0.0005777144774583576
ag147
ag147
aF0.028513512134622943
aF0.049038220826105317
aF0.02111633441518279
aF0.001800309872123762
aF0.09148241120033163
aF0.11750953938951625
aF0.05149108026171234
aF0.0009201226866935031
aF0.0010974031747537083
aF0.0003518504677231249
aF0.0004337782936545409
aF0.0005491999827995642
aF0.0005224675082899921
ag147
ag147
aF0.02950688233818255
aF0.05058344907570245
aF0.0219792136867909
aF0.0023283196260308614
aF0.09309550207706252
aF0.11930228524317954
aF0.04960125548552696
aF0.0009332393592558219
aF0.0011976116147707216
aF0.0003650562107395672
aF0.00047198212246257754
aF0.0005781167733971415
aF0.0005777144774583576
ag147
ag147
aF0.02888554032074353
aF0.05022026881101738
aF0.021485682976162934
aF0.0023283196260308614
aF0.09279261041444897
aF0.11919515598958697
aF0.05253516642903833
aF0.000906401533029566
aF0.0011392701526347082
aF0.0003472959856480884
aF0.000433011935228933
aF0.0005358399822057436
aF0.0005659503626702644
ag147
ag147
aF0.030097359408955526
aF0.0522818002641543
aF0.023257222151187307
aF0.0021142249770491617
aF0.09393039187989416
aF0.12023478724529468
aF0.050711040574469735
aF0.0008752141102377209
aF0.0012350041350828178
aF0.00036454265273277997
aF0.0004858820400386321
aF0.0006176222619274085
aF0.0005995752385388187
ag147
ag147
aF0.027718114987692388
aF0.04797280953084737
aF0.020463052695731676
aF0.0024424975981673924
aF0.09211663354074062
aF0.11792000716559414
aF0.050407590089321275
aF0.0008516930975019932
aF0.001008179852306057
aF0.0002524677197470737
aF0.00041798213146648777
aF0.000548153020247355
aF0.0005527287180484564
ag147
ag147
aF0.029277824291739307
aF0.050513158079183995
aF0.021881977444081713
aF0.002392967942796531
aF0.0926495425393341
aF0.11908855931085327
aF0.05301224164031737
aF0.000952814206812036
aF0.0011433320823925897
aF0.0003379850736564549
aF0.00045634604498445697
aF0.0005448268598797767
aF0.000598381931467884
ag147
ag147
aF0.02855929481665953
aF0.05016752874553276
aF0.021702244612242794
aF0.002353501155084814
aF0.09304915680377235
aF0.11905243628973494
aF0.049046570409814194
aF0.0009053574331119307
aF0.0011327621867849302
aF0.0003381839269422926
aF0.0004471189899959427
aF0.0005368718084923785
aF0.0005765864784734731
ag147
ag147
aF0.02924734364592041
aF0.050413596754651735
aF0.02169671045612631
aF0.0023283196260308614
aF0.09295494644391056
aF0.11922102473602081
aF0.05272784038959344
aF6.25933635092224e-05
aF0.0006416707582275194
aF0.0003518504677231249
aF0.0004589730044699536
aF0.0005491999827995642
aF0.0005777144774583576
ag147
ag147
aF0.02924734364592041
aF0.050413596754651735
aF0.02169671045612631
aF0.0023283196260308614
aF0.09295494644391056
aF0.11922102473602081
aF0.05272784038959344
aF6.25933635092224e-05
aF0.0006416707582275194
aF0.0003518504677231249
aF0.0004589730044699536
aF0.0005491999827995642
aF0.0005777144774583576
ag147
ag147
atp217
ba(lp218
g15
(g16
(dp219
g18
g19
(g20
(I0
tp220
g22
tp221
Rp222
(I1
(I1
tp223
g29
I00
(lp224
g43
atp225
bsg68
Nstp226
Rp227
ag15
(g16
(dp228
g18
g19
(g20
(I0
tp229
g22
tp230
Rp231
(I1
(I33
tp232
g29
I00
(lp233
g33
ag34
ag35
ag36
ag37
ag38
ag39
ag40
ag41
ag42
ag44
ag45
ag46
ag47
ag48
ag49
ag50
ag51
ag52
ag53
ag54
ag55
ag56
ag57
ag58
ag59
ag60
ag61
ag62
ag63
ag64
ag65
ag66
atp234
bsg68
Nstp235
Rp236
a(dp237
S'0.14.1'
p238
(dp239
S'axes'
p240
g14
sS'blocks'
p241
(lp242
(dp243
S'mgr_locs'
p244
c__builtin__
slice
p245
(I10
I11
I1
tp246
Rp247
sS'values'
p248
g89
sa(dp249
g244
g19
(g20
(I0
tp250
g22
tp251
Rp252
(I1
(I33
tp253
g79
I00
S'\x00\x00\x00\x00\x00\x00\x00\x00\x01\x00\x00\x00\x00\x00\x00\x00\x02\x00\x00\x00\x00\x00\x00\x00\x03\x00\x00\x00\x00\x00\x00\x00\x04\x00\x00\x00\x00\x00\x00\x00\x05\x00\x00\x00\x00\x00\x00\x00\x06\x00\x00\x00\x00\x00\x00\x00\x07\x00\x00\x00\x00\x00\x00\x00\x08\x00\x00\x00\x00\x00\x00\x00\t\x00\x00\x00\x00\x00\x00\x00\x0b\x00\x00\x00\x00\x00\x00\x00\x0c\x00\x00\x00\x00\x00\x00\x00\r\x00\x00\x00\x00\x00\x00\x00\x0e\x00\x00\x00\x00\x00\x00\x00\x0f\x00\x00\x00\x00\x00\x00\x00\x10\x00\x00\x00\x00\x00\x00\x00\x11\x00\x00\x00\x00\x00\x00\x00\x12\x00\x00\x00\x00\x00\x00\x00\x13\x00\x00\x00\x00\x00\x00\x00\x14\x00\x00\x00\x00\x00\x00\x00\x15\x00\x00\x00\x00\x00\x00\x00\x16\x00\x00\x00\x00\x00\x00\x00\x17\x00\x00\x00\x00\x00\x00\x00\x18\x00\x00\x00\x00\x00\x00\x00\x19\x00\x00\x00\x00\x00\x00\x00\x1a\x00\x00\x00\x00\x00\x00\x00\x1b\x00\x00\x00\x00\x00\x00\x00\x1c\x00\x00\x00\x00\x00\x00\x00\x1d\x00\x00\x00\x00\x00\x00\x00\x1e\x00\x00\x00\x00\x00\x00\x00\x1f\x00\x00\x00\x00\x00\x00\x00 \x00\x00\x00\x00\x00\x00\x00!\x00\x00\x00\x00\x00\x00\x00'
p254
tp255
bsg248
g100
sasstp256
bsb.