ccopy_reg
_reconstructor
p0
(cpandas.core.frame
DataFrame
p1
c__builtin__
object
p2
Ntp3
Rp4
(dp5
S'_metadata'
p6
(lp7
sS'_typ'
p8
S'dataframe'
p9
sS'_data'
p10
g0
(cpandas.core.internals
BlockManager
p11
g2
Ntp12
Rp13
((lp14
cpandas.core.indexes.base
_new_Index
p15
(cpandas.core.indexes.base
Index
p16
(dp17
S'data'
p18
cnumpy.core.multiarray
_reconstruct
p19
(cnumpy
ndarray
p20
(I0
tp21
S'b'
p22
tp23
Rp24
(I1
(I34
tp25
cnumpy
dtype
p26
(S'O8'
p27
I0
I1
tp28
Rp29
(I3
S'|'
p30
NNNI-1
I-1
I63
tp31
bI00
(lp32
S'year'
p33
aS'type'
p34
aS'procOriginal'
p35
aS'proc'
p36
aS'proc_s0'
p37
aS'cat'
p38
aS'inputWSFile'
p39
aS'nominalDataName'
p40
aS'modelWSFile'
p41
aS'model'
p42
aS'rate'
p43
aS'nominal_yield'
p44
aS'sumw2'
p45
aS'nominal_yield_COWCorr'
p46
aS'LooseMvaSF_up_yield'
p47
aS'LooseMvaSF_down_yield'
p48
aS'PreselSF_up_yield'
p49
aS'PreselSF_down_yield'
p50
aS'electronVetoSF_up_yield'
p51
aS'electronVetoSF_down_yield'
p52
aS'TriggerWeight_up_yield'
p53
aS'TriggerWeight_down_yield'
p54
aS'SigmaEOverEShift_up_yield'
p55
aS'SigmaEOverEShift_down_yield'
p56
aS'MvaShift_up_yield'
p57
aS'MvaShift_down_yield'
p58
aS'PUJIDShift_up_yield'
p59
aS'PUJIDShift_down_yield'
p60
aS'JEC_up_yield'
p61
aS'JEC_down_yield'
p62
aS'JER_up_yield'
p63
aS'JER_down_yield'
p64
aS'JetHEM_up_yield'
p65
aS'JetHEM_down_yield'
p66
atp67
bsS'name'
p68
Nstp69
Rp70
ag15
(cpandas.core.indexes.numeric
Int64Index
p71
(dp72
g18
g19
(g20
(I0
tp73
g22
tp74
Rp75
(I1
(I15
tp76
g26
(S'i8'
p77
I0
I1
tp78
Rp79
(I3
S'<'
p80
NNNI-1
I-1
I0
tp81
bI00
S'\x00\x00\x00\x00\x00\x00\x00\x00\x01\x00\x00\x00\x00\x00\x00\x00\x02\x00\x00\x00\x00\x00\x00\x00\x03\x00\x00\x00\x00\x00\x00\x00\x04\x00\x00\x00\x00\x00\x00\x00\x05\x00\x00\x00\x00\x00\x00\x00\x06\x00\x00\x00\x00\x00\x00\x00\x07\x00\x00\x00\x00\x00\x00\x00\x08\x00\x00\x00\x00\x00\x00\x00\t\x00\x00\x00\x00\x00\x00\x00\n\x00\x00\x00\x00\x00\x00\x00\x0b\x00\x00\x00\x00\x00\x00\x00\x0c\x00\x00\x00\x00\x00\x00\x00\r\x00\x00\x00\x00\x00\x00\x00\x0e\x00\x00\x00\x00\x00\x00\x00'
p82
tp83
bsg68
Nstp84
Rp85
a(lp86
g19
(g20
(I0
tp87
g22
tp88
Rp89
(I1
(I1
I15
tp90
g26
(S'f8'
p91
I0
I1
tp92
Rp93
(I3
S'<'
p94
NNNI-1
I-1
I0
tp95
bI00
S'\x00\x00\x00\x00\x80j\xd0@\x00\x00\x00\x00\x80j\xd0@\x00\x00\x00\x00\x80j\xd0@\x00\x00\x00\x00\x80j\xd0@\x00\x00\x00\x00\x80j\xd0@\x00\x00\x00\x00\x80j\xd0@\x00\x00\x00\x00\x80j\xd0@\x00\x00\x00\x00\x80j\xd0@\x00\x00\x00\x00\x80j\xd0@\x00\x00\x00\x00\x80j\xd0@\x00\x00\x00\x00\x80j\xd0@\x00\x00\x00\x00\x80j\xd0@\x00\x00\x00\x00\x80j\xd0@\x00\x00\x00\x00\x00\x00\xf0?\x00\x00\x00\x00\x00\x00\xf0\xbf'
p96
tp97
bag19
(g20
(I0
tp98
g22
tp99
Rp100
(I1
(I33
I15
tp101
g29
I00
(lp102
S'2016postVFP'
p103
ag103
ag103
ag103
ag103
ag103
ag103
ag103
ag103
ag103
ag103
ag103
ag103
ag33
ag33
aS'sig'
p104
ag104
ag104
ag104
ag104
ag104
ag104
ag104
ag104
ag104
ag104
ag104
ag104
aS'bkg'
p105
ag18
aS'GG2HMf05ph0'
p106
aS'GG2HbsmM'
p107
aS'GG2Hsm'
p108
aS'TTHsm'
p109
aS'VBFMf05ph0'
p110
aS'VBFbsmM'
p111
aS'VBFsm'
p112
aS'WHMf05ph0'
p113
aS'WHbsmM'
p114
aS'WHsm'
p115
aS'ZHMf05ph0'
p116
aS'ZHbsmM'
p117
aS'ZHsm'
p118
aS'bkg_mass'
p119
aS'data_obs'
p120
aS'GG2HMf05ph0_2016postVFP_hgg'
p121
aS'GG2HbsmM_2016postVFP_hgg'
p122
aS'GG2Hsm_2016postVFP_hgg'
p123
aS'tth0P_2016postVFP_hgg'
p124
aS'vbf0Mf05ph0_2016postVFP_hgg'
p125
aS'vbf0M_2016postVFP_hgg'
p126
aS'vbf0P_2016postVFP_hgg'
p127
aS'wh0Mf05ph0_2016postVFP_hgg'
p128
aS'wh0M_2016postVFP_hgg'
p129
aS'wh0P_2016postVFP_hgg'
p130
aS'zh0Mf05ph0_2016postVFP_hgg'
p131
aS'zh0M_2016postVFP_hgg'
p132
aS'zh0P_2016postVFP_hgg'
p133
ag119
ag120
aS'jjh0Mf05ph0'
p134
aS'jjh0M'
p135
aS'jjh0P'
p136
aS'tth0P'
p137
aS'vbf0Mf05ph0'
p138
aS'vbf0M'
p139
aS'vbf0P'
p140
aS'wh0Mf05ph0'
p141
aS'wh0M'
p142
aS'wh0P'
p143
aS'zh0Mf05ph0'
p144
aS'zh0M'
p145
aS'zh0P'
p146
aS'-'
p147
ag147
aS'AC_Bin9_2016postVFP'
p148
aS'AC_Bin9_2016postVFP'
p149
aS'AC_Bin9_2016postVFP'
p150
aS'AC_Bin9_2016postVFP'
p151
aS'AC_Bin9_2016postVFP'
p152
aS'AC_Bin9_2016postVFP'
p153
aS'AC_Bin9_2016postVFP'
p154
aS'AC_Bin9_2016postVFP'
p155
aS'AC_Bin9_2016postVFP'
p156
aS'AC_Bin9_2016postVFP'
p157
aS'AC_Bin9_2016postVFP'
p158
aS'AC_Bin9_2016postVFP'
p159
aS'AC_Bin9_2016postVFP'
p160
aS'AC_Bin9_2016postVFP'
p161
ag161
aS'Trees/Opt_2016postVFP/2016PostVFP/Trees2WS_2016postVFP/WS/output_GluGluHToGGPlusTwoJets_MM_M125_TuneCP5_13TeV-amcatnlopowheg-minlo-pythia8_GG2HMf05ph0.root'
p162
aS'Trees/Opt_2016postVFP/2016PostVFP/Trees2WS_2016postVFP/WS/output_GluGluHToGGPlusTwoJets_CPodd_M125_TuneCP5_13TeV-amcatnlopowheg-minlo-pythia8_GG2HbsmM.root'
p163
aS'Trees/Opt_2016postVFP/2016PostVFP/Trees2WS_2016postVFP/WS/output_GluGluHToGGPlusTwoJets_SM_M125_TuneCP5_13TeV-amcatnlopowheg-minlo-pythia8_GG2Hsm.root'
p164
aS'Trees/Opt_2016postVFP/2016PostVFP/Trees2WS_2016postVFP/WS/output_ttHJetToGG_M125_TuneCP5_13TeV-amcatnloFXFX-madspin-pythia8_TTHsm.root'
p165
aS'Trees/Opt_2016postVFP/2016PostVFP/Trees2WS_2016postVFP/WS/output_VBFHiggs0Mf05ph0ToGG_M125_TuneCP5_13TeV-JHUGenV7011-pythia8_VBFMf05ph0.root'
p166
aS'Trees/Opt_2016postVFP/2016PostVFP/Trees2WS_2016postVFP/WS/output_VBFHiggs0MToGG_M125_TuneCP5_13TeV-JHUGenV7011-pythia8_VBFbsmM.root'
p167
aS'Trees/Opt_2016postVFP/2016PostVFP/Trees2WS_2016postVFP/WS/output_VBFHToGG_M125_TuneCP5_13TeV-amcatnlo-pythia8_VBFsm.root'
p168
aS'Trees/Opt_2016postVFP/2016PostVFP/Trees2WS_2016postVFP/WS/output_WHiggs0Mf05ph0ToGG_M125_TuneCP5_13TeV-JHUGenV7011-pythia8_WHMf05ph0.root'
p169
aS'Trees/Opt_2016postVFP/2016PostVFP/Trees2WS_2016postVFP/WS/output_WHiggs0MToGG_M125_TuneCP5_13TeV-JHUGenV7011-pythia8_WHbsmM.root'
p170
aS'Trees/Opt_2016postVFP/2016PostVFP/Trees2WS_2016postVFP/WS/output_WHiggs0PMToGG_M125_TuneCP5_13TeV-JHUGenV7011-pythia8_WHsm.root'
p171
aS'Trees/Opt_2016postVFP/2016PostVFP/Trees2WS_2016postVFP/WS/output_ZHiggs0Mf05ph0ToGG_M125_TuneCP5_13TeV-JHUGenV7011-pythia8_ZHMf05ph0.root'
p172
aS'Trees/Opt_2016postVFP/2016PostVFP/Trees2WS_2016postVFP/WS/output_ZHiggs0MToGG_M125_TuneCP5_13TeV-JHUGenV7011-pythia8_ZHbsmM.root'
p173
aS'Trees/Opt_2016postVFP/2016PostVFP/Trees2WS_2016postVFP/WS/output_ZH_HToGG_ZToAll_M125_TuneCP5_13TeV-powheg-pythia8_ZHsm.root'
p174
ag147
ag147
aS'jjh0Mf05ph0_125_13TeV_AC_Bin9'
p175
aS'jjh0M_125_13TeV_AC_Bin9'
p176
aS'jjh0P_125_13TeV_AC_Bin9'
p177
aS'tth0P_125_13TeV_AC_Bin9'
p178
aS'vbf0Mf05ph0_125_13TeV_AC_Bin9'
p179
aS'vbf0M_125_13TeV_AC_Bin9'
p180
aS'vbf0P_125_13TeV_AC_Bin9'
p181
aS'wh0Mf05ph0_125_13TeV_AC_Bin9'
p182
aS'wh0M_125_13TeV_AC_Bin9'
p183
aS'wh0P_125_13TeV_AC_Bin9'
p184
aS'zh0Mf05ph0_125_13TeV_AC_Bin9'
p185
aS'zh0M_125_13TeV_AC_Bin9'
p186
aS'zh0P_125_13TeV_AC_Bin9'
p187
ag147
ag147
aS'./Models/signal/CMS-HGG_sigfit_packaged_AC_Bin9_2016postVFP.root'
p188
aS'./Models/signal/CMS-HGG_sigfit_packaged_AC_Bin9_2016postVFP.root'
p189
aS'./Models/signal/CMS-HGG_sigfit_packaged_AC_Bin9_2016postVFP.root'
p190
aS'./Models/signal/CMS-HGG_sigfit_packaged_AC_Bin9_2016postVFP.root'
p191
aS'./Models/signal/CMS-HGG_sigfit_packaged_AC_Bin9_2016postVFP.root'
p192
aS'./Models/signal/CMS-HGG_sigfit_packaged_AC_Bin9_2016postVFP.root'
p193
aS'./Models/signal/CMS-HGG_sigfit_packaged_AC_Bin9_2016postVFP.root'
p194
aS'./Models/signal/CMS-HGG_sigfit_packaged_AC_Bin9_2016postVFP.root'
p195
aS'./Models/signal/CMS-HGG_sigfit_packaged_AC_Bin9_2016postVFP.root'
p196
aS'./Models/signal/CMS-HGG_sigfit_packaged_AC_Bin9_2016postVFP.root'
p197
aS'./Models/signal/CMS-HGG_sigfit_packaged_AC_Bin9_2016postVFP.root'
p198
aS'./Models/signal/CMS-HGG_sigfit_packaged_AC_Bin9_2016postVFP.root'
p199
aS'./Models/signal/CMS-HGG_sigfit_packaged_AC_Bin9_2016postVFP.root'
p200
aS'./Models/background/CMS-HGG_multipdf_AC_Bin9_2016postVFP.root'
p201
ag201
aS'wsig_13TeV:hggpdfsmrel_GG2HMf05ph0_2016postVFP_AC_Bin9_13TeV'
p202
aS'wsig_13TeV:hggpdfsmrel_GG2HbsmM_2016postVFP_AC_Bin9_13TeV'
p203
aS'wsig_13TeV:hggpdfsmrel_GG2Hsm_2016postVFP_AC_Bin9_13TeV'
p204
aS'wsig_13TeV:hggpdfsmrel_TTHsm_2016postVFP_AC_Bin9_13TeV'
p205
aS'wsig_13TeV:hggpdfsmrel_VBFMf05ph0_2016postVFP_AC_Bin9_13TeV'
p206
aS'wsig_13TeV:hggpdfsmrel_VBFbsmM_2016postVFP_AC_Bin9_13TeV'
p207
aS'wsig_13TeV:hggpdfsmrel_VBFsm_2016postVFP_AC_Bin9_13TeV'
p208
aS'wsig_13TeV:hggpdfsmrel_WHMf05ph0_2016postVFP_AC_Bin9_13TeV'
p209
aS'wsig_13TeV:hggpdfsmrel_WHbsmM_2016postVFP_AC_Bin9_13TeV'
p210
aS'wsig_13TeV:hggpdfsmrel_WHsm_2016postVFP_AC_Bin9_13TeV'
p211
aS'wsig_13TeV:hggpdfsmrel_ZHMf05ph0_2016postVFP_AC_Bin9_13TeV'
p212
aS'wsig_13TeV:hggpdfsmrel_ZHbsmM_2016postVFP_AC_Bin9_13TeV'
p213
aS'wsig_13TeV:hggpdfsmrel_ZHsm_2016postVFP_AC_Bin9_13TeV'
p214
aS'multipdf:CMS_hgg_AC_Bin9_2016postVFP_13TeV_bkgshape'
p215
aS'multipdf:roohist_data_mass_AC_Bin9'
p216
aF0.034302337842063935
aF0.02811625815456864
aF0.04884659503909461
aF0.0008147669714162475
aF0.01215347728816596
aF0.0023891100804576126
aF0.03303031582663607
aF5.05022890138207e-05
aF0.0002716316453188483
aF0.0005508560300313547
aF0.0004895867331242698
aF0.00044118252242242306
aF0.0007920467764961359
ag147
ag147
aF8.12404819995162e-07
aF6.905091201174428e-07
aF1.1135461329159195e-06
aF2.2998761012669148e-07
aF1.897337870630918e-07
aF2.843126172863051e-08
aF1.6863375398392044e-06
aF9.702086064314716e-10
aF2.9606756820548477e-09
aF5.9650226791855126e-09
aF3.510839604857361e-09
aF3.0876361452504264e-09
aF1.2399354905399699e-08
ag147
ag147
aF0.03519074893285316
aF0.028704563450288823
aF0.05038602569034021
aF0.0008335949421233113
aF0.012452142370375988
aF0.00243942880994774
aF0.03388044710886122
aF5.1725276658308726e-05
aF0.0002783536354583441
aF0.0005674996047708774
aF0.0005081837212005664
aF0.0004528556608901207
aF0.0008103591105145714
ag147
ag147
aF0.034542125320274626
aF0.02831179055769007
aF0.04918743099544595
aF0.0008205238287483577
aF0.012236628186030506
aF0.0024055351195051704
aF0.03325317953344351
aF5.088718271831258e-05
aF0.00027338839280329033
aF0.0005547423967489265
aF0.0004929306997945576
aF0.00044412981347564153
aF0.000797560374822351
ag147
ag147
aF0.03406339317520591
aF0.02792141126709299
aF0.04850695409788574
aF0.000809030331346051
aF0.012070612382215094
aF0.002372741488353155
aF0.03280821070752403
aF5.0118860205846465e-05
aF0.00026988056521036447
aF0.0005469833847765109
aF0.00048625427426105114
aF0.0004382451428035258
aF0.0007865525377025012
ag147
ag147
aF0.03474829974102142
aF0.028470414953221966
aF0.049471359298853705
aF0.0008277282587622123
aF0.01231385566834569
aF0.00242144263095842
aF0.03345736288963202
aF5.089784983085525e-05
aF0.0002745375682016076
aF0.0005581338966382748
aF0.0004947625011469254
aF0.000447564820066688
aF0.0008004726124594387
ag147
ag147
aF0.03385921861174481
aF0.027764391331601836
aF0.04822578470294655
aF0.000801946365269655
aF0.011994091709406874
aF0.0023569878361401914
aF0.03260585229429082
aF5.010827633610581e-05
aF0.0002687388235498849
aF0.0005436182165893001
aF0.0004844354852903615
aF0.00043484541072822926
aF0.000783661413131567
ag147
ag147
aF0.034365069164352
aF0.028166797470556833
aF0.04893498316131616
aF0.0008162283164224967
aF0.012177574822125099
aF0.0023936284550769523
aF0.033098948821127655
aF5.055292648145972e-05
aF0.0002722245229838917
aF0.0005518587559088235
aF0.0004906065236087239
aF0.0004421543442366489
aF0.0007935297661377296
ag147
ag147
aF0.03423966660235841
aF0.028065767828882798
aF0.04875829135405538
aF0.0008133069848372818
aF0.012129404799854106
aF0.0023845957882905108
aF0.032961758296345976
aF5.045167312764887e-05
aF0.0002710393377682861
aF0.0005498540614243531
aF0.0004885679910878739
aF0.0004402118208418002
aF0.0007905653551948812
ag147
ag147
aF0.034379116323671896
aF0.028178520369539457
aF0.048954582651871525
aF0.000816393235944035
aF0.012180956320482888
aF0.0023940539693903516
aF0.03310905926316443
aF5.060400212664211e-05
aF0.0002722543157442408
aF0.0005521206767633866
aF0.0004908096169602262
aF0.00044221794912344353
aF0.0007940771711501799
ag147
ag147
aF0.034225656580818005
aF0.028054065630418228
aF0.04873872724906968
aF0.0008131423351646872
aF0.012126029191294995
aF0.00238417134338962
aF0.03295166551296603
aF5.0400680071490664e-05
aF0.00027100967730801594
aF0.0005495928327090238
aF0.000488365330225962
aF0.00044014829243526227
aF0.0007900188774060788
ag147
ag147
aF0.034205220553531035
aF0.0277754640137573
aF0.04858471704915246
aF0.0007473066061720601
aF0.012128980561328717
aF0.0024201587234529143
aF0.02975152966564565
aF0.00045469499400496716
aF0.0005482066301283339
aF0.0005232613259522623
aF0.0004979301760386079
aF0.00042312208859129896
aF0.0007898506714809628
ag147
ag147
aF0.034649975723141324
aF0.02860983828895769
aF0.049207297676048256
aF0.0007352934626396745
aF0.012120401717538698
aF0.002342946761928033
aF0.02993171729247024
aF0.0004887896657237434
aF0.0005221690009875601
aF0.0005626898130230984
aF0.0004844964618087033
aF0.0004342125454286361
aF0.0007920467764961359
ag147
ag147
aF0.035554799979991
aF0.028962944695877013
aF0.050166570944838895
aF0.0008155079331118031
aF0.012245713073070874
aF0.002478104672604786
aF0.04921956967996266
aF0.00047393510703841457
aF0.0005224457997883292
aF0.0005788121491150378
aF0.0005073741477872318
aF0.0004599581706088429
aF0.0008011582190192712
ag147
ag147
aF0.03326025606043004
aF0.027026405889728267
aF0.04782760474586212
aF0.0009308182843597024
aF0.011822141970696975
aF0.002292858338023507
aF0.06327751694482231
aF0.0004316454569561756
aF0.0005392154364471935
aF0.0005176553988803789
aF0.00047890785606341524
aF0.00043717538710552617
aF0.0007610311990902119
ag147
ag147
aF0.03497849791096996
aF0.02870390294037861
aF0.050134324080090664
aF0.0008147669714162475
aF0.012321219124942218
aF0.002449146397793811
aF0.06431000251961905
aF0.0005020410708311829
aF0.0005406890134054265
aF0.0005508560300313547
aF0.0005140734841688754
aF0.0004493774034699527
aF0.0007790063650645607
ag147
ag147
aF0.033171449472547465
aF0.027280146360226354
aF0.04778749860656717
aF0.0008147669714162475
aF0.011972169632144869
aF0.0023686033014200802
aF0.06310843370090424
aF0.0005022461564294645
aF0.0005179261308967398
aF0.0005397798215653893
aF0.0004775236046725695
aF0.0004345674668684296
aF0.0007920467764961359
ag147
ag147
aF0.0370550960806213
aF0.030754109503959626
aF0.052385035560746473
aF0.0008442143835054594
aF0.012276655675918846
aF0.002406114862878894
aF0.030087508512451677
aF0.0005829898918818799
aF0.0006071351426726324
aF0.000631320760703602
aF0.0005408199066323505
aF0.0004556966408131302
aF0.0008967498147285369
ag147
ag147
aF0.03146259479080982
aF0.02593610899907617
aF0.04445678851948287
aF0.0009157890226560994
aF0.012142015559447827
aF0.002320243295343971
aF0.028981767740219766
aF0.0004541994139799499
aF0.00046079673461463244
aF0.0005027326171784807
aF0.0004469283262551471
aF0.0004031624831668523
aF0.0007115442690519558
ag147
ag147
aF0.03477203309694232
aF0.028456054660864538
aF0.04918868084018868
aF0.0008147669714162475
aF0.01210173442109408
aF0.0023499341009483032
aF0.029363245211357025
aF0.0005178630117370631
aF0.000530213203319363
aF0.0005634687656765891
aF0.00048540460034018906
aF0.0004499756904579044
aF0.000804126947059558
ag147
ag147
aF0.033788289753829304
aF0.027665819057119734
aF0.04823252275491541
aF0.000702164134963823
aF0.01216451092409443
aF0.002397239006768359
aF0.05226524640215757
aF0.0005264648634693003
aF0.0005052070566762268
aF0.0005816138648242486
aF0.0005297789674614251
aF0.0004352692923248469
aF0.0007899829156485794
ag147
ag147
aF0.034302337842063935
aF0.02811625815456864
aF0.04884659503909461
aF0.0008147669714162475
aF0.01215347728816596
aF0.0023891100804576126
aF0.03303031582663607
aF5.05022890138207e-05
aF0.0002716316453188483
aF0.0005508560300313547
aF0.0004895867331242698
aF0.00044118252242242306
aF0.0007920467764961359
ag147
ag147
aF0.034302337842063935
aF0.02811625815456864
aF0.04884659503909461
aF0.0008147669714162475
aF0.01215347728816596
aF0.0023891100804576126
aF0.03303031582663607
aF5.05022890138207e-05
aF0.0002716316453188483
aF0.0005508560300313547
aF0.0004895867331242698
aF0.00044118252242242306
aF0.0007920467764961359
ag147
ag147
atp217
ba(lp218
g15
(g16
(dp219
g18
g19
(g20
(I0
tp220
g22
tp221
Rp222
(I1
(I1
tp223
g29
I00
(lp224
g43
atp225
bsg68
Nstp226
Rp227
ag15
(g16
(dp228
g18
g19
(g20
(I0
tp229
g22
tp230
Rp231
(I1
(I33
tp232
g29
I00
(lp233
g33
ag34
ag35
ag36
ag37
ag38
ag39
ag40
ag41
ag42
ag44
ag45
ag46
ag47
ag48
ag49
ag50
ag51
ag52
ag53
ag54
ag55
ag56
ag57
ag58
ag59
ag60
ag61
ag62
ag63
ag64
ag65
ag66
atp234
bsg68
Nstp235
Rp236
a(dp237
S'0.14.1'
p238
(dp239
S'axes'
p240
g14
sS'blocks'
p241
(lp242
(dp243
S'mgr_locs'
p244
c__builtin__
slice
p245
(I10
I11
I1
tp246
Rp247
sS'values'
p248
g89
sa(dp249
g244
g19
(g20
(I0
tp250
g22
tp251
Rp252
(I1
(I33
tp253
g79
I00
S'\x00\x00\x00\x00\x00\x00\x00\x00\x01\x00\x00\x00\x00\x00\x00\x00\x02\x00\x00\x00\x00\x00\x00\x00\x03\x00\x00\x00\x00\x00\x00\x00\x04\x00\x00\x00\x00\x00\x00\x00\x05\x00\x00\x00\x00\x00\x00\x00\x06\x00\x00\x00\x00\x00\x00\x00\x07\x00\x00\x00\x00\x00\x00\x00\x08\x00\x00\x00\x00\x00\x00\x00\t\x00\x00\x00\x00\x00\x00\x00\x0b\x00\x00\x00\x00\x00\x00\x00\x0c\x00\x00\x00\x00\x00\x00\x00\r\x00\x00\x00\x00\x00\x00\x00\x0e\x00\x00\x00\x00\x00\x00\x00\x0f\x00\x00\x00\x00\x00\x00\x00\x10\x00\x00\x00\x00\x00\x00\x00\x11\x00\x00\x00\x00\x00\x00\x00\x12\x00\x00\x00\x00\x00\x00\x00\x13\x00\x00\x00\x00\x00\x00\x00\x14\x00\x00\x00\x00\x00\x00\x00\x15\x00\x00\x00\x00\x00\x00\x00\x16\x00\x00\x00\x00\x00\x00\x00\x17\x00\x00\x00\x00\x00\x00\x00\x18\x00\x00\x00\x00\x00\x00\x00\x19\x00\x00\x00\x00\x00\x00\x00\x1a\x00\x00\x00\x00\x00\x00\x00\x1b\x00\x00\x00\x00\x00\x00\x00\x1c\x00\x00\x00\x00\x00\x00\x00\x1d\x00\x00\x00\x00\x00\x00\x00\x1e\x00\x00\x00\x00\x00\x00\x00\x1f\x00\x00\x00\x00\x00\x00\x00 \x00\x00\x00\x00\x00\x00\x00!\x00\x00\x00\x00\x00\x00\x00'
p254
tp255
bsg248
g100
sasstp256
bsb.