ccopy_reg
_reconstructor
p0
(cpandas.core.frame
DataFrame
p1
c__builtin__
object
p2
Ntp3
Rp4
(dp5
S'_metadata'
p6
(lp7
sS'_typ'
p8
S'dataframe'
p9
sS'_data'
p10
g0
(cpandas.core.internals
BlockManager
p11
g2
Ntp12
Rp13
((lp14
cpandas.core.indexes.base
_new_Index
p15
(cpandas.core.indexes.base
Index
p16
(dp17
S'data'
p18
cnumpy.core.multiarray
_reconstruct
p19
(cnumpy
ndarray
p20
(I0
tp21
S'b'
p22
tp23
Rp24
(I1
(I34
tp25
cnumpy
dtype
p26
(S'O8'
p27
I0
I1
tp28
Rp29
(I3
S'|'
p30
NNNI-1
I-1
I63
tp31
bI00
(lp32
S'year'
p33
aS'type'
p34
aS'procOriginal'
p35
aS'proc'
p36
aS'proc_s0'
p37
aS'cat'
p38
aS'inputWSFile'
p39
aS'nominalDataName'
p40
aS'modelWSFile'
p41
aS'model'
p42
aS'rate'
p43
aS'nominal_yield'
p44
aS'sumw2'
p45
aS'nominal_yield_COWCorr'
p46
aS'LooseMvaSF_up_yield'
p47
aS'LooseMvaSF_down_yield'
p48
aS'PreselSF_up_yield'
p49
aS'PreselSF_down_yield'
p50
aS'electronVetoSF_up_yield'
p51
aS'electronVetoSF_down_yield'
p52
aS'TriggerWeight_up_yield'
p53
aS'TriggerWeight_down_yield'
p54
aS'SigmaEOverEShift_up_yield'
p55
aS'SigmaEOverEShift_down_yield'
p56
aS'MvaShift_up_yield'
p57
aS'MvaShift_down_yield'
p58
aS'PUJIDShift_up_yield'
p59
aS'PUJIDShift_down_yield'
p60
aS'JEC_up_yield'
p61
aS'JEC_down_yield'
p62
aS'JER_up_yield'
p63
aS'JER_down_yield'
p64
aS'JetHEM_up_yield'
p65
aS'JetHEM_down_yield'
p66
atp67
bsS'name'
p68
Nstp69
Rp70
ag15
(cpandas.core.indexes.numeric
Int64Index
p71
(dp72
g18
g19
(g20
(I0
tp73
g22
tp74
Rp75
(I1
(I15
tp76
g26
(S'i8'
p77
I0
I1
tp78
Rp79
(I3
S'<'
p80
NNNI-1
I-1
I0
tp81
bI00
S'\x00\x00\x00\x00\x00\x00\x00\x00\x01\x00\x00\x00\x00\x00\x00\x00\x02\x00\x00\x00\x00\x00\x00\x00\x03\x00\x00\x00\x00\x00\x00\x00\x04\x00\x00\x00\x00\x00\x00\x00\x05\x00\x00\x00\x00\x00\x00\x00\x06\x00\x00\x00\x00\x00\x00\x00\x07\x00\x00\x00\x00\x00\x00\x00\x08\x00\x00\x00\x00\x00\x00\x00\t\x00\x00\x00\x00\x00\x00\x00\n\x00\x00\x00\x00\x00\x00\x00\x0b\x00\x00\x00\x00\x00\x00\x00\x0c\x00\x00\x00\x00\x00\x00\x00\r\x00\x00\x00\x00\x00\x00\x00\x0e\x00\x00\x00\x00\x00\x00\x00'
p82
tp83
bsg68
Nstp84
Rp85
a(lp86
g19
(g20
(I0
tp87
g22
tp88
Rp89
(I1
(I1
I15
tp90
g26
(S'f8'
p91
I0
I1
tp92
Rp93
(I3
S'<'
p94
NNNI-1
I-1
I0
tp95
bI00
S'\x00\x00\x00\x00\x80j\xd0@\x00\x00\x00\x00\x80j\xd0@\x00\x00\x00\x00\x80j\xd0@\x00\x00\x00\x00\x80j\xd0@\x00\x00\x00\x00\x80j\xd0@\x00\x00\x00\x00\x80j\xd0@\x00\x00\x00\x00\x80j\xd0@\x00\x00\x00\x00\x80j\xd0@\x00\x00\x00\x00\x80j\xd0@\x00\x00\x00\x00\x80j\xd0@\x00\x00\x00\x00\x80j\xd0@\x00\x00\x00\x00\x80j\xd0@\x00\x00\x00\x00\x80j\xd0@\x00\x00\x00\x00\x00\x00\xf0?\x00\x00\x00\x00\x00\x00\xf0\xbf'
p96
tp97
bag19
(g20
(I0
tp98
g22
tp99
Rp100
(I1
(I33
I15
tp101
g29
I00
(lp102
S'2016postVFP'
p103
ag103
ag103
ag103
ag103
ag103
ag103
ag103
ag103
ag103
ag103
ag103
ag103
ag33
ag33
aS'sig'
p104
ag104
ag104
ag104
ag104
ag104
ag104
ag104
ag104
ag104
ag104
ag104
ag104
aS'bkg'
p105
ag18
aS'GG2HMf05ph0'
p106
aS'GG2HbsmM'
p107
aS'GG2Hsm'
p108
aS'TTHsm'
p109
aS'VBFMf05ph0'
p110
aS'VBFbsmM'
p111
aS'VBFsm'
p112
aS'WHMf05ph0'
p113
aS'WHbsmM'
p114
aS'WHsm'
p115
aS'ZHMf05ph0'
p116
aS'ZHbsmM'
p117
aS'ZHsm'
p118
aS'bkg_mass'
p119
aS'data_obs'
p120
aS'GG2HMf05ph0_2016postVFP_hgg'
p121
aS'GG2HbsmM_2016postVFP_hgg'
p122
aS'GG2Hsm_2016postVFP_hgg'
p123
aS'tth0P_2016postVFP_hgg'
p124
aS'vbf0Mf05ph0_2016postVFP_hgg'
p125
aS'vbf0M_2016postVFP_hgg'
p126
aS'vbf0P_2016postVFP_hgg'
p127
aS'wh0Mf05ph0_2016postVFP_hgg'
p128
aS'wh0M_2016postVFP_hgg'
p129
aS'wh0P_2016postVFP_hgg'
p130
aS'zh0Mf05ph0_2016postVFP_hgg'
p131
aS'zh0M_2016postVFP_hgg'
p132
aS'zh0P_2016postVFP_hgg'
p133
ag119
ag120
aS'jjh0Mf05ph0'
p134
aS'jjh0M'
p135
aS'jjh0P'
p136
aS'tth0P'
p137
aS'vbf0Mf05ph0'
p138
aS'vbf0M'
p139
aS'vbf0P'
p140
aS'wh0Mf05ph0'
p141
aS'wh0M'
p142
aS'wh0P'
p143
aS'zh0Mf05ph0'
p144
aS'zh0M'
p145
aS'zh0P'
p146
aS'-'
p147
ag147
aS'AC_Bin20_2016postVFP'
p148
aS'AC_Bin20_2016postVFP'
p149
aS'AC_Bin20_2016postVFP'
p150
aS'AC_Bin20_2016postVFP'
p151
aS'AC_Bin20_2016postVFP'
p152
aS'AC_Bin20_2016postVFP'
p153
aS'AC_Bin20_2016postVFP'
p154
aS'AC_Bin20_2016postVFP'
p155
aS'AC_Bin20_2016postVFP'
p156
aS'AC_Bin20_2016postVFP'
p157
aS'AC_Bin20_2016postVFP'
p158
aS'AC_Bin20_2016postVFP'
p159
aS'AC_Bin20_2016postVFP'
p160
aS'AC_Bin20_2016postVFP'
p161
ag161
aS'Trees/Opt_2016postVFP/2016PostVFP/Trees2WS_2016postVFP/WS/output_GluGluHToGGPlusTwoJets_MM_M125_TuneCP5_13TeV-amcatnlopowheg-minlo-pythia8_GG2HMf05ph0.root'
p162
aS'Trees/Opt_2016postVFP/2016PostVFP/Trees2WS_2016postVFP/WS/output_GluGluHToGGPlusTwoJets_CPodd_M125_TuneCP5_13TeV-amcatnlopowheg-minlo-pythia8_GG2HbsmM.root'
p163
aS'Trees/Opt_2016postVFP/2016PostVFP/Trees2WS_2016postVFP/WS/output_GluGluHToGGPlusTwoJets_SM_M125_TuneCP5_13TeV-amcatnlopowheg-minlo-pythia8_GG2Hsm.root'
p164
aS'Trees/Opt_2016postVFP/2016PostVFP/Trees2WS_2016postVFP/WS/output_ttHJetToGG_M125_TuneCP5_13TeV-amcatnloFXFX-madspin-pythia8_TTHsm.root'
p165
aS'Trees/Opt_2016postVFP/2016PostVFP/Trees2WS_2016postVFP/WS/output_VBFHiggs0Mf05ph0ToGG_M125_TuneCP5_13TeV-JHUGenV7011-pythia8_VBFMf05ph0.root'
p166
aS'Trees/Opt_2016postVFP/2016PostVFP/Trees2WS_2016postVFP/WS/output_VBFHiggs0MToGG_M125_TuneCP5_13TeV-JHUGenV7011-pythia8_VBFbsmM.root'
p167
aS'Trees/Opt_2016postVFP/2016PostVFP/Trees2WS_2016postVFP/WS/output_VBFHToGG_M125_TuneCP5_13TeV-amcatnlo-pythia8_VBFsm.root'
p168
aS'Trees/Opt_2016postVFP/2016PostVFP/Trees2WS_2016postVFP/WS/output_WHiggs0Mf05ph0ToGG_M125_TuneCP5_13TeV-JHUGenV7011-pythia8_WHMf05ph0.root'
p169
aS'Trees/Opt_2016postVFP/2016PostVFP/Trees2WS_2016postVFP/WS/output_WHiggs0MToGG_M125_TuneCP5_13TeV-JHUGenV7011-pythia8_WHbsmM.root'
p170
aS'Trees/Opt_2016postVFP/2016PostVFP/Trees2WS_2016postVFP/WS/output_WHiggs0PMToGG_M125_TuneCP5_13TeV-JHUGenV7011-pythia8_WHsm.root'
p171
aS'Trees/Opt_2016postVFP/2016PostVFP/Trees2WS_2016postVFP/WS/output_ZHiggs0Mf05ph0ToGG_M125_TuneCP5_13TeV-JHUGenV7011-pythia8_ZHMf05ph0.root'
p172
aS'Trees/Opt_2016postVFP/2016PostVFP/Trees2WS_2016postVFP/WS/output_ZHiggs0MToGG_M125_TuneCP5_13TeV-JHUGenV7011-pythia8_ZHbsmM.root'
p173
aS'Trees/Opt_2016postVFP/2016PostVFP/Trees2WS_2016postVFP/WS/output_ZH_HToGG_ZToAll_M125_TuneCP5_13TeV-powheg-pythia8_ZHsm.root'
p174
ag147
ag147
aS'jjh0Mf05ph0_125_13TeV_AC_Bin20'
p175
aS'jjh0M_125_13TeV_AC_Bin20'
p176
aS'jjh0P_125_13TeV_AC_Bin20'
p177
aS'tth0P_125_13TeV_AC_Bin20'
p178
aS'vbf0Mf05ph0_125_13TeV_AC_Bin20'
p179
aS'vbf0M_125_13TeV_AC_Bin20'
p180
aS'vbf0P_125_13TeV_AC_Bin20'
p181
aS'wh0Mf05ph0_125_13TeV_AC_Bin20'
p182
aS'wh0M_125_13TeV_AC_Bin20'
p183
aS'wh0P_125_13TeV_AC_Bin20'
p184
aS'zh0Mf05ph0_125_13TeV_AC_Bin20'
p185
aS'zh0M_125_13TeV_AC_Bin20'
p186
aS'zh0P_125_13TeV_AC_Bin20'
p187
ag147
ag147
aS'./Models/signal/CMS-HGG_sigfit_packaged_AC_Bin20_2016postVFP.root'
p188
aS'./Models/signal/CMS-HGG_sigfit_packaged_AC_Bin20_2016postVFP.root'
p189
aS'./Models/signal/CMS-HGG_sigfit_packaged_AC_Bin20_2016postVFP.root'
p190
aS'./Models/signal/CMS-HGG_sigfit_packaged_AC_Bin20_2016postVFP.root'
p191
aS'./Models/signal/CMS-HGG_sigfit_packaged_AC_Bin20_2016postVFP.root'
p192
aS'./Models/signal/CMS-HGG_sigfit_packaged_AC_Bin20_2016postVFP.root'
p193
aS'./Models/signal/CMS-HGG_sigfit_packaged_AC_Bin20_2016postVFP.root'
p194
aS'./Models/signal/CMS-HGG_sigfit_packaged_AC_Bin20_2016postVFP.root'
p195
aS'./Models/signal/CMS-HGG_sigfit_packaged_AC_Bin20_2016postVFP.root'
p196
aS'./Models/signal/CMS-HGG_sigfit_packaged_AC_Bin20_2016postVFP.root'
p197
aS'./Models/signal/CMS-HGG_sigfit_packaged_AC_Bin20_2016postVFP.root'
p198
aS'./Models/signal/CMS-HGG_sigfit_packaged_AC_Bin20_2016postVFP.root'
p199
aS'./Models/signal/CMS-HGG_sigfit_packaged_AC_Bin20_2016postVFP.root'
p200
aS'./Models/background/CMS-HGG_multipdf_AC_Bin20_2016postVFP.root'
p201
ag201
aS'wsig_13TeV:hggpdfsmrel_GG2HMf05ph0_2016postVFP_AC_Bin20_13TeV'
p202
aS'wsig_13TeV:hggpdfsmrel_GG2HbsmM_2016postVFP_AC_Bin20_13TeV'
p203
aS'wsig_13TeV:hggpdfsmrel_GG2Hsm_2016postVFP_AC_Bin20_13TeV'
p204
aS'wsig_13TeV:hggpdfsmrel_TTHsm_2016postVFP_AC_Bin20_13TeV'
p205
aS'wsig_13TeV:hggpdfsmrel_VBFMf05ph0_2016postVFP_AC_Bin20_13TeV'
p206
aS'wsig_13TeV:hggpdfsmrel_VBFbsmM_2016postVFP_AC_Bin20_13TeV'
p207
aS'wsig_13TeV:hggpdfsmrel_VBFsm_2016postVFP_AC_Bin20_13TeV'
p208
aS'wsig_13TeV:hggpdfsmrel_WHMf05ph0_2016postVFP_AC_Bin20_13TeV'
p209
aS'wsig_13TeV:hggpdfsmrel_WHbsmM_2016postVFP_AC_Bin20_13TeV'
p210
aS'wsig_13TeV:hggpdfsmrel_WHsm_2016postVFP_AC_Bin20_13TeV'
p211
aS'wsig_13TeV:hggpdfsmrel_ZHMf05ph0_2016postVFP_AC_Bin20_13TeV'
p212
aS'wsig_13TeV:hggpdfsmrel_ZHbsmM_2016postVFP_AC_Bin20_13TeV'
p213
aS'wsig_13TeV:hggpdfsmrel_ZHsm_2016postVFP_AC_Bin20_13TeV'
p214
aS'multipdf:CMS_hgg_AC_Bin20_2016postVFP_13TeV_bkgshape'
p215
aS'multipdf:roohist_data_mass_AC_Bin20'
p216
aF0.06000756289824949
aF0.06723008884080173
aF0.03527595638547609
aF0.001205268912599422
aF0.041245629638865466
aF0.026020165260774775
aF0.06370179244981955
aF9.811719974095467e-05
aF0.000369930017200204
aF0.0006637476744799642
aF0.0005023642279411433
aF0.00040305463306822276
aF0.0009055450485675465
ag147
ag147
aF1.3720796636835996e-06
aF1.5624288181698068e-06
aF8.18144221757669e-07
aF2.411666409885678e-07
aF6.612373242884618e-07
aF3.054579735946198e-07
aF3.2420620550733378e-06
aF2.1182327504429503e-09
aF4.10993003124163e-09
aF7.086384042524672e-09
aF3.2423011034228785e-09
aF2.8997000034264665e-09
aF1.5118726369045687e-08
ag147
ag147
aF0.06142254693360542
aF0.0688760115205387
aF0.03613153264087935
aF0.0012520587438567055
aF0.04220428563408495
aF0.026612057330067024
aF0.06526075825267465
aF0.00010010954673695264
aF0.0003852467922085597
aF0.0006801471552007665
aF0.0005150893224341136
aF0.00041740978095370414
aF0.0009214879675103877
ag147
ag147
aF0.06042571482210347
aF0.06769728701189752
aF0.035522223677362234
aF0.0012134735533122021
aF0.04152793109852715
aF0.02619965141584254
aF0.06414011906249811
aF9.879802128478439e-05
aF0.0003724273839257069
aF0.0006682568352749923
aF0.000505847376931635
aF0.00040583978225434356
aF0.0009115421844942081
ag147
ag147
aF0.059590872704079284
aF0.06676451667005288
aF0.035030550718241266
aF0.0011970925149961623
aF0.040964295073048725
aF0.02584129787988711
aF0.06326497767393126
aF9.743876260863809e-05
aF0.0003674411185356088
aF0.0006592540200727849
aF0.0004988933036093736
aF0.00040027908427996183
aF0.000899567918754632
ag147
ag147
aF0.0607760861904941
aF0.06808620362645877
aF0.03570642151491912
aF0.0012154753428365074
aF0.041760965596865936
aF0.026336633472773926
aF0.06451671165108457
aF9.978097994952459e-05
aF0.0003758151806020857
aF0.0006701848619127647
aF0.0005085546214734238
aF0.0004079558255667361
aF0.0009160341040204175
ag147
ag147
aF0.05924394937316972
aF0.06637951466760085
aF0.03484801321337141
aF0.0011951059760358588
aF0.04073330939514426
aF0.02570547643904664
aF0.06289246796857811
aF9.646194223682688e-05
aF0.0003640898613132824
aF0.0006573395755892113
aF0.0004962170790464519
aF0.0003981822792127794
aF0.0008951399670835724
ag147
ag147
aF0.060117840338831226
aF0.06735379966496613
aF0.035338642072274794
aF0.0012071939874220838
aF0.04132519508449669
aF0.026068526127145938
aF0.06382484384578646
aF9.830725140987495e-05
aF0.00037073100675070873
aF0.000664942648086827
aF0.0005032827081798888
aF0.00040382621472158343
aF0.0009072490770757307
ag147
ag147
aF0.05989739074728354
aF0.06710649516954
aF0.035213329382466116
aF0.0012033454278674114
aF0.04116613859918861
aF0.025971846661892322
aF0.0635788621622538
aF9.792736052078705e-05
aF0.0003691298096320772
aF0.0006625538862315277
aF0.0005014469663098325
aF0.0004022837035820976
aF0.0009038426358773351
ag147
ag147
aF0.06013757566592649
aF0.0673805007712717
aF0.03535491280601843
aF0.0012080096277783921
aF0.04133560270782811
aF0.026075188157607215
aF0.06384840425068274
aF9.831837340747594e-05
aF0.00037082473685217716
aF0.0006652508074333964
aF0.0005034861709018422
aF0.0004040273651925094
aF0.0009073755893348922
ag147
ag147
aF0.05987769142546514
aF0.06707984604778178
aF0.03519708818369444
aF0.0012025313183808288
aF0.041155754594768126
aF0.025965200681704912
aF0.0635553476270207
aF9.791623564414043e-05
aF0.0003690363706905502
aF0.000662246229275654
aF0.0005012439726399357
aF0.0004020830499629246
aF0.0009037163698000508
ag147
ag147
aF0.059622456808597235
aF0.0669965801833996
aF0.03484725627026819
aF0.0012055017723469064
aF0.0411295398070024
aF0.026215237054771023
aF0.06067586132019187
aF0.0007248715072591949
aF0.0007012619627175809
aF0.0006559940220540739
aF0.0004951051685111452
aF0.0004008772700103691
aF0.0008528177917241919
ag147
ag147
aF0.06024136848748185
aF0.06769049030197039
aF0.03546319509791829
aF0.0011031827816623263
aF0.04115504378410151
aF0.025442308046308426
aF0.045049438812725384
aF0.0007508278430350401
aF0.0007204151428368277
aF0.0006513114658446284
aF0.0005027378474551369
aF0.00040305463306822276
aF0.0008776698153951656
ag147
ag147
aF0.06138577757326402
aF0.06853478422124226
aF0.035997006058778425
aF0.0011963711513089947
aF0.04180176867509999
aF0.02631103151145453
aF0.04589814452231167
aF0.0007188194748550814
aF0.0007256109698801083
aF0.0006769442552467808
aF0.0005214538812197134
aF0.00039836900322143265
aF0.000918110207180689
ag147
ag147
aF0.05813281943255788
aF0.06578256258478632
aF0.03436745231624627
aF0.0007851830050640274
aF0.04052352837027229
aF0.025659038050321215
aF0.044722723004724685
aF0.000679506933806806
aF0.0007144787406332398
aF0.000649817127850838
aF0.0004890375387276436
aF0.00039571744463273717
aF0.0008578691525826798
ag147
ag147
aF0.06101824728818883
aF0.06848194799192697
aF0.03605325543867366
aF0.001205268912599422
aF0.041334384118158596
aF0.02607969075506844
aF0.062237257159608816
aF0.0007407205238223469
aF0.0007125348139425114
aF0.0006705869182042079
aF0.0005243578693807649
aF0.00040863990187745003
aF0.000937534445597521
ag147
ag147
aF0.05892456651884004
aF0.06649880375414341
aF0.03464304665635609
aF0.001205268912599422
aF0.04104509474461793
aF0.02596406697000475
aF0.04525492897676031
aF0.00068715145778242
aF0.0007066833346698331
aF0.0006335848875096417
aF0.0004933523719046207
aF0.0003727089417111529
aF0.0008838963534572031
ag147
ag147
aF0.06439352513382346
aF0.07259586222846792
aF0.038582889080089444
aF0.0011361351207597181
aF0.04266842581250785
aF0.02608955420953407
aF0.046014878176947605
aF0.000879544613667349
aF0.0007685831022854472
aF0.0007115477028492023
aF0.0005316165404565254
aF0.00044294931791455383
aF0.0009790123651782778
ag147
ag147
aF0.05608500288064988
aF0.06301829005315085
aF0.03346208120774463
aF0.0010375105812272523
aF0.04032142134451533
aF0.02599585261145876
aF0.04690914188813622
aF0.0006129184101837382
aF0.0006672112084515902
aF0.0006328779459181533
aF0.00043040730793109105
aF0.0003903778871858776
aF0.0010013895547444918
ag147
ag147
aF0.060517962114658985
aF0.0681387205164583
aF0.03567969938353599
aF0.0010824750934261829
aF0.041520809682992876
aF0.026021681418114895
aF0.044838718373853226
aF0.000831028201787376
aF0.0007067390721431366
aF0.0006647761019848986
aF0.0005303955731505994
aF0.0004421334820676748
aF0.0009586882200665059
ag147
ag147
aF0.05947776740174504
aF0.06727508190192566
aF0.03509739528180944
aF0.0011474807797640096
aF0.04133198478291433
aF0.026103694949142664
aF0.045068363382597454
aF0.0006734050547265724
aF0.0006751135821332355
aF0.0006624855022892007
aF0.0004861274287577544
aF0.00036813178047623296
aF0.000926276693348882
ag147
ag147
aF0.06000756289824949
aF0.06723008884080173
aF0.03527595638547609
aF0.001205268912599422
aF0.041245629638865466
aF0.026020165260774775
aF0.06370179244981955
aF9.811719974095467e-05
aF0.000369930017200204
aF0.0006637476744799642
aF0.0005023642279411433
aF0.00040305463306822276
aF0.0009055450485675465
ag147
ag147
aF0.06000756289824949
aF0.06723008884080173
aF0.03527595638547609
aF0.001205268912599422
aF0.041245629638865466
aF0.026020165260774775
aF0.06370179244981955
aF9.811719974095467e-05
aF0.000369930017200204
aF0.0006637476744799642
aF0.0005023642279411433
aF0.00040305463306822276
aF0.0009055450485675465
ag147
ag147
atp217
ba(lp218
g15
(g16
(dp219
g18
g19
(g20
(I0
tp220
g22
tp221
Rp222
(I1
(I1
tp223
g29
I00
(lp224
g43
atp225
bsg68
Nstp226
Rp227
ag15
(g16
(dp228
g18
g19
(g20
(I0
tp229
g22
tp230
Rp231
(I1
(I33
tp232
g29
I00
(lp233
g33
ag34
ag35
ag36
ag37
ag38
ag39
ag40
ag41
ag42
ag44
ag45
ag46
ag47
ag48
ag49
ag50
ag51
ag52
ag53
ag54
ag55
ag56
ag57
ag58
ag59
ag60
ag61
ag62
ag63
ag64
ag65
ag66
atp234
bsg68
Nstp235
Rp236
a(dp237
S'0.14.1'
p238
(dp239
S'axes'
p240
g14
sS'blocks'
p241
(lp242
(dp243
S'mgr_locs'
p244
c__builtin__
slice
p245
(I10
I11
I1
tp246
Rp247
sS'values'
p248
g89
sa(dp249
g244
g19
(g20
(I0
tp250
g22
tp251
Rp252
(I1
(I33
tp253
g79
I00
S'\x00\x00\x00\x00\x00\x00\x00\x00\x01\x00\x00\x00\x00\x00\x00\x00\x02\x00\x00\x00\x00\x00\x00\x00\x03\x00\x00\x00\x00\x00\x00\x00\x04\x00\x00\x00\x00\x00\x00\x00\x05\x00\x00\x00\x00\x00\x00\x00\x06\x00\x00\x00\x00\x00\x00\x00\x07\x00\x00\x00\x00\x00\x00\x00\x08\x00\x00\x00\x00\x00\x00\x00\t\x00\x00\x00\x00\x00\x00\x00\x0b\x00\x00\x00\x00\x00\x00\x00\x0c\x00\x00\x00\x00\x00\x00\x00\r\x00\x00\x00\x00\x00\x00\x00\x0e\x00\x00\x00\x00\x00\x00\x00\x0f\x00\x00\x00\x00\x00\x00\x00\x10\x00\x00\x00\x00\x00\x00\x00\x11\x00\x00\x00\x00\x00\x00\x00\x12\x00\x00\x00\x00\x00\x00\x00\x13\x00\x00\x00\x00\x00\x00\x00\x14\x00\x00\x00\x00\x00\x00\x00\x15\x00\x00\x00\x00\x00\x00\x00\x16\x00\x00\x00\x00\x00\x00\x00\x17\x00\x00\x00\x00\x00\x00\x00\x18\x00\x00\x00\x00\x00\x00\x00\x19\x00\x00\x00\x00\x00\x00\x00\x1a\x00\x00\x00\x00\x00\x00\x00\x1b\x00\x00\x00\x00\x00\x00\x00\x1c\x00\x00\x00\x00\x00\x00\x00\x1d\x00\x00\x00\x00\x00\x00\x00\x1e\x00\x00\x00\x00\x00\x00\x00\x1f\x00\x00\x00\x00\x00\x00\x00 \x00\x00\x00\x00\x00\x00\x00!\x00\x00\x00\x00\x00\x00\x00'
p254
tp255
bsg248
g100
sasstp256
bsb.