ccopy_reg
_reconstructor
p0
(cpandas.core.frame
DataFrame
p1
c__builtin__
object
p2
Ntp3
Rp4
(dp5
S'_metadata'
p6
(lp7
sS'_typ'
p8
S'dataframe'
p9
sS'_data'
p10
g0
(cpandas.core.internals
BlockManager
p11
g2
Ntp12
Rp13
((lp14
cpandas.core.indexes.base
_new_Index
p15
(cpandas.core.indexes.base
Index
p16
(dp17
S'data'
p18
cnumpy.core.multiarray
_reconstruct
p19
(cnumpy
ndarray
p20
(I0
tp21
S'b'
p22
tp23
Rp24
(I1
(I32
tp25
cnumpy
dtype
p26
(S'O8'
p27
I0
I1
tp28
Rp29
(I3
S'|'
p30
NNNI-1
I-1
I63
tp31
bI00
(lp32
S'year'
p33
aS'type'
p34
aS'procOriginal'
p35
aS'proc'
p36
aS'proc_s0'
p37
aS'cat'
p38
aS'inputWSFile'
p39
aS'nominalDataName'
p40
aS'modelWSFile'
p41
aS'model'
p42
aS'rate'
p43
aS'nominal_yield'
p44
aS'sumw2'
p45
aS'nominal_yield_COWCorr'
p46
aS'LooseMvaSF_up_yield'
p47
aS'LooseMvaSF_down_yield'
p48
aS'PreselSF_up_yield'
p49
aS'PreselSF_down_yield'
p50
aS'electronVetoSF_up_yield'
p51
aS'electronVetoSF_down_yield'
p52
aS'TriggerWeight_up_yield'
p53
aS'TriggerWeight_down_yield'
p54
aS'SigmaEOverEShift_up_yield'
p55
aS'SigmaEOverEShift_down_yield'
p56
aS'MvaShift_up_yield'
p57
aS'MvaShift_down_yield'
p58
aS'PUJIDShift_up_yield'
p59
aS'PUJIDShift_down_yield'
p60
aS'JEC_up_yield'
p61
aS'JEC_down_yield'
p62
aS'JER_up_yield'
p63
aS'JER_down_yield'
p64
atp65
bsS'name'
p66
Nstp67
Rp68
ag15
(cpandas.core.indexes.numeric
Int64Index
p69
(dp70
g18
g19
(g20
(I0
tp71
g22
tp72
Rp73
(I1
(I15
tp74
g26
(S'i8'
p75
I0
I1
tp76
Rp77
(I3
S'<'
p78
NNNI-1
I-1
I0
tp79
bI00
S'\x00\x00\x00\x00\x00\x00\x00\x00\x01\x00\x00\x00\x00\x00\x00\x00\x02\x00\x00\x00\x00\x00\x00\x00\x03\x00\x00\x00\x00\x00\x00\x00\x04\x00\x00\x00\x00\x00\x00\x00\x05\x00\x00\x00\x00\x00\x00\x00\x06\x00\x00\x00\x00\x00\x00\x00\x07\x00\x00\x00\x00\x00\x00\x00\x08\x00\x00\x00\x00\x00\x00\x00\t\x00\x00\x00\x00\x00\x00\x00\n\x00\x00\x00\x00\x00\x00\x00\x0b\x00\x00\x00\x00\x00\x00\x00\x0c\x00\x00\x00\x00\x00\x00\x00\r\x00\x00\x00\x00\x00\x00\x00\x0e\x00\x00\x00\x00\x00\x00\x00'
p80
tp81
bsg66
Nstp82
Rp83
a(lp84
g19
(g20
(I0
tp85
g22
tp86
Rp87
(I1
(I1
I15
tp88
g26
(S'f8'
p89
I0
I1
tp90
Rp91
(I3
S'<'
p92
NNNI-1
I-1
I0
tp93
bI00
S'\x00\x00\x00\x00\x80j\xd0@\x00\x00\x00\x00\x80j\xd0@\x00\x00\x00\x00\x80j\xd0@\x00\x00\x00\x00\x80j\xd0@\x00\x00\x00\x00\x80j\xd0@\x00\x00\x00\x00\x80j\xd0@\x00\x00\x00\x00\x80j\xd0@\x00\x00\x00\x00\x80j\xd0@\x00\x00\x00\x00\x80j\xd0@\x00\x00\x00\x00\x80j\xd0@\x00\x00\x00\x00\x80j\xd0@\x00\x00\x00\x00\x80j\xd0@\x00\x00\x00\x00\x80j\xd0@\x00\x00\x00\x00\x00\x00\xf0?\x00\x00\x00\x00\x00\x00\xf0\xbf'
p94
tp95
bag19
(g20
(I0
tp96
g22
tp97
Rp98
(I1
(I31
I15
tp99
g29
I00
(lp100
S'2016postVFP'
p101
ag101
ag101
ag101
ag101
ag101
ag101
ag101
ag101
ag101
ag101
ag101
ag101
ag33
ag33
aS'sig'
p102
ag102
ag102
ag102
ag102
ag102
ag102
ag102
ag102
ag102
ag102
ag102
ag102
aS'bkg'
p103
ag18
aS'GG2HMf05ph0'
p104
aS'GG2HbsmM'
p105
aS'GG2Hsm'
p106
aS'TTHsm'
p107
aS'VBFMf05ph0'
p108
aS'VBFbsmM'
p109
aS'VBFsm'
p110
aS'WHMf05ph0'
p111
aS'WHbsmM'
p112
aS'WHsm'
p113
aS'ZHMf05ph0'
p114
aS'ZHbsmM'
p115
aS'ZHsm'
p116
aS'bkg_mass'
p117
aS'data_obs'
p118
aS'GG2HMf05ph0_2016postVFP_hgg'
p119
aS'GG2HbsmM_2016postVFP_hgg'
p120
aS'GG2Hsm_2016postVFP_hgg'
p121
aS'tth0P_2016postVFP_hgg'
p122
aS'vbf0Mf05ph0_2016postVFP_hgg'
p123
aS'vbf0M_2016postVFP_hgg'
p124
aS'vbf0P_2016postVFP_hgg'
p125
aS'wh0Mf05ph0_2016postVFP_hgg'
p126
aS'wh0M_2016postVFP_hgg'
p127
aS'wh0P_2016postVFP_hgg'
p128
aS'zh0Mf05ph0_2016postVFP_hgg'
p129
aS'zh0M_2016postVFP_hgg'
p130
aS'zh0P_2016postVFP_hgg'
p131
ag117
ag118
aS'jjh0Mf05ph0'
p132
aS'jjh0M'
p133
aS'jjh0P'
p134
aS'tth0P'
p135
aS'vbf0Mf05ph0'
p136
aS'vbf0M'
p137
aS'vbf0P'
p138
aS'wh0Mf05ph0'
p139
aS'wh0M'
p140
aS'wh0P'
p141
aS'zh0Mf05ph0'
p142
aS'zh0M'
p143
aS'zh0P'
p144
aS'-'
p145
ag145
aS'AC_Bin4_2016postVFP'
p146
aS'AC_Bin4_2016postVFP'
p147
aS'AC_Bin4_2016postVFP'
p148
aS'AC_Bin4_2016postVFP'
p149
aS'AC_Bin4_2016postVFP'
p150
aS'AC_Bin4_2016postVFP'
p151
aS'AC_Bin4_2016postVFP'
p152
aS'AC_Bin4_2016postVFP'
p153
aS'AC_Bin4_2016postVFP'
p154
aS'AC_Bin4_2016postVFP'
p155
aS'AC_Bin4_2016postVFP'
p156
aS'AC_Bin4_2016postVFP'
p157
aS'AC_Bin4_2016postVFP'
p158
aS'AC_Bin4_2016postVFP'
p159
ag159
aS'Trees/Opt_2016postVFP/2016PostVFP/Trees2WS_2016postVFP/WS/output_GluGluHToGGPlusTwoJets_MM_M125_TuneCP5_13TeV-amcatnlopowheg-minlo-pythia8_GG2HMf05ph0.root'
p160
aS'Trees/Opt_2016postVFP/2016PostVFP/Trees2WS_2016postVFP/WS/output_GluGluHToGGPlusTwoJets_CPodd_M125_TuneCP5_13TeV-amcatnlopowheg-minlo-pythia8_GG2HbsmM.root'
p161
aS'Trees/Opt_2016postVFP/2016PostVFP/Trees2WS_2016postVFP/WS/output_GluGluHToGGPlusTwoJets_SM_M125_TuneCP5_13TeV-amcatnlopowheg-minlo-pythia8_GG2Hsm.root'
p162
aS'Trees/Opt_2016postVFP/2016PostVFP/Trees2WS_2016postVFP/WS/output_ttHJetToGG_M125_TuneCP5_13TeV-amcatnloFXFX-madspin-pythia8_TTHsm.root'
p163
aS'Trees/Opt_2016postVFP/2016PostVFP/Trees2WS_2016postVFP/WS/output_VBFHiggs0Mf05ph0ToGG_M125_TuneCP5_13TeV-JHUGenV7011-pythia8_VBFMf05ph0.root'
p164
aS'Trees/Opt_2016postVFP/2016PostVFP/Trees2WS_2016postVFP/WS/output_VBFHiggs0MToGG_M125_TuneCP5_13TeV-JHUGenV7011-pythia8_VBFbsmM.root'
p165
aS'Trees/Opt_2016postVFP/2016PostVFP/Trees2WS_2016postVFP/WS/output_VBFHToGG_M125_TuneCP5_13TeV-amcatnlo-pythia8_VBFsm.root'
p166
aS'Trees/Opt_2016postVFP/2016PostVFP/Trees2WS_2016postVFP/WS/output_WHiggs0Mf05ph0ToGG_M125_TuneCP5_13TeV-JHUGenV7011-pythia8_WHMf05ph0.root'
p167
aS'Trees/Opt_2016postVFP/2016PostVFP/Trees2WS_2016postVFP/WS/output_WHiggs0MToGG_M125_TuneCP5_13TeV-JHUGenV7011-pythia8_WHbsmM.root'
p168
aS'Trees/Opt_2016postVFP/2016PostVFP/Trees2WS_2016postVFP/WS/output_WHiggs0PMToGG_M125_TuneCP5_13TeV-JHUGenV7011-pythia8_WHsm.root'
p169
aS'Trees/Opt_2016postVFP/2016PostVFP/Trees2WS_2016postVFP/WS/output_ZHiggs0Mf05ph0ToGG_M125_TuneCP5_13TeV-JHUGenV7011-pythia8_ZHMf05ph0.root'
p170
aS'Trees/Opt_2016postVFP/2016PostVFP/Trees2WS_2016postVFP/WS/output_ZHiggs0MToGG_M125_TuneCP5_13TeV-JHUGenV7011-pythia8_ZHbsmM.root'
p171
aS'Trees/Opt_2016postVFP/2016PostVFP/Trees2WS_2016postVFP/WS/output_ZH_HToGG_ZToAll_M125_TuneCP5_13TeV-powheg-pythia8_ZHsm.root'
p172
ag145
ag145
aS'jjh0Mf05ph0_125_13TeV_AC_Bin4'
p173
aS'jjh0M_125_13TeV_AC_Bin4'
p174
aS'jjh0P_125_13TeV_AC_Bin4'
p175
aS'tth0P_125_13TeV_AC_Bin4'
p176
aS'vbf0Mf05ph0_125_13TeV_AC_Bin4'
p177
aS'vbf0M_125_13TeV_AC_Bin4'
p178
aS'vbf0P_125_13TeV_AC_Bin4'
p179
aS'wh0Mf05ph0_125_13TeV_AC_Bin4'
p180
aS'wh0M_125_13TeV_AC_Bin4'
p181
aS'wh0P_125_13TeV_AC_Bin4'
p182
aS'zh0Mf05ph0_125_13TeV_AC_Bin4'
p183
aS'zh0M_125_13TeV_AC_Bin4'
p184
aS'zh0P_125_13TeV_AC_Bin4'
p185
ag145
ag145
aS'./Models/signal/CMS-HGG_sigfit_packaged_AC_Bin4_2016postVFP.root'
p186
aS'./Models/signal/CMS-HGG_sigfit_packaged_AC_Bin4_2016postVFP.root'
p187
aS'./Models/signal/CMS-HGG_sigfit_packaged_AC_Bin4_2016postVFP.root'
p188
aS'./Models/signal/CMS-HGG_sigfit_packaged_AC_Bin4_2016postVFP.root'
p189
aS'./Models/signal/CMS-HGG_sigfit_packaged_AC_Bin4_2016postVFP.root'
p190
aS'./Models/signal/CMS-HGG_sigfit_packaged_AC_Bin4_2016postVFP.root'
p191
aS'./Models/signal/CMS-HGG_sigfit_packaged_AC_Bin4_2016postVFP.root'
p192
aS'./Models/signal/CMS-HGG_sigfit_packaged_AC_Bin4_2016postVFP.root'
p193
aS'./Models/signal/CMS-HGG_sigfit_packaged_AC_Bin4_2016postVFP.root'
p194
aS'./Models/signal/CMS-HGG_sigfit_packaged_AC_Bin4_2016postVFP.root'
p195
aS'./Models/signal/CMS-HGG_sigfit_packaged_AC_Bin4_2016postVFP.root'
p196
aS'./Models/signal/CMS-HGG_sigfit_packaged_AC_Bin4_2016postVFP.root'
p197
aS'./Models/signal/CMS-HGG_sigfit_packaged_AC_Bin4_2016postVFP.root'
p198
aS'./Models/background/CMS-HGG_multipdf_AC_Bin4_2016postVFP.root'
p199
ag199
aS'wsig_13TeV:hggpdfsmrel_GG2HMf05ph0_2016postVFP_AC_Bin4_13TeV'
p200
aS'wsig_13TeV:hggpdfsmrel_GG2HbsmM_2016postVFP_AC_Bin4_13TeV'
p201
aS'wsig_13TeV:hggpdfsmrel_GG2Hsm_2016postVFP_AC_Bin4_13TeV'
p202
aS'wsig_13TeV:hggpdfsmrel_TTHsm_2016postVFP_AC_Bin4_13TeV'
p203
aS'wsig_13TeV:hggpdfsmrel_VBFMf05ph0_2016postVFP_AC_Bin4_13TeV'
p204
aS'wsig_13TeV:hggpdfsmrel_VBFbsmM_2016postVFP_AC_Bin4_13TeV'
p205
aS'wsig_13TeV:hggpdfsmrel_VBFsm_2016postVFP_AC_Bin4_13TeV'
p206
aS'wsig_13TeV:hggpdfsmrel_WHMf05ph0_2016postVFP_AC_Bin4_13TeV'
p207
aS'wsig_13TeV:hggpdfsmrel_WHbsmM_2016postVFP_AC_Bin4_13TeV'
p208
aS'wsig_13TeV:hggpdfsmrel_WHsm_2016postVFP_AC_Bin4_13TeV'
p209
aS'wsig_13TeV:hggpdfsmrel_ZHMf05ph0_2016postVFP_AC_Bin4_13TeV'
p210
aS'wsig_13TeV:hggpdfsmrel_ZHbsmM_2016postVFP_AC_Bin4_13TeV'
p211
aS'wsig_13TeV:hggpdfsmrel_ZHsm_2016postVFP_AC_Bin4_13TeV'
p212
aS'multipdf:CMS_hgg_AC_Bin4_2016postVFP_13TeV_bkgshape'
p213
aS'multipdf:roohist_data_mass_AC_Bin4'
p214
aF0.01981490728155677
aF0.01551789790391922
aF0.026905471200279862
aF0.0004624513858288992
aF0.0037383387362979192
aF0.00039027843240546645
aF0.016833955450238136
aF4.834407354792347e-05
aF9.051656979863765e-05
aF0.00036539473819630075
aF0.00022604730520470184
aF0.0001357285514131945
aF0.0003792518396039668
ag145
ag145
aF4.553629585481718e-07
aF3.953815514418325e-07
aF6.199495423961761e-07
aF7.911647624564448e-08
aF4.6560397582323735e-08
aF5.230205626517727e-09
aF8.298209744262687e-07
aF8.705433985538195e-10
aF8.688534511296795e-10
aF3.506733414683971e-09
aF1.7342511370404838e-09
aF8.503332647909804e-10
aF5.897879596920184e-09
ag145
ag145
aF0.02050627350535913
aF0.016024775486706097
aF0.028040599604685516
aF0.0004522290263857589
aF0.00385094725965424
aF0.0003996665845506166
aF0.017472107591820243
aF4.923469080266836e-05
aF9.287349832926581e-05
aF0.00037454348629315973
aF0.00023079740031922352
aF0.00013790557378747886
aF0.0003861827216281475
ag145
ag145
aF0.01994833535296029
aF0.015623120795667795
aF0.02708644373398766
aF0.0004657682037720807
aF0.003762622346635724
aF0.0003927829181558635
aF0.016943444947659182
aF4.8671402608491314e-05
aF9.113870350104166e-05
aF0.00036774340587732873
aF0.00022753605468040148
aF0.00013654269958003412
aF0.0003817508652102446
ag145
ag145
aF0.019681928531922722
aF0.015413031428387602
aF0.026725106917922486
aF0.0004591466426036495
aF0.0037141335468870128
aF0.0003877819910835217
aF0.016724821968042272
aF4.8017831601879926e-05
aF8.98965466903044e-05
aF0.00036305361415907045
aF0.0002245634354739256
aF0.00013491688732269493
aF0.00037676110409060775
ag145
ag145
aF0.020096428287550913
aF0.01573992383267028
aF0.02728965424299454
aF0.000462854485066952
aF0.0037962207302082223
aF0.00039604462833738366
aF0.017108641929430377
aF4.8874829856947625e-05
aF9.280336261205532e-05
aF0.0003706766650672273
aF0.00022928490171516904
aF0.00013731275646917395
aF0.0003824395372210645
ag145
ag145
aF0.019535404644262632
aF0.015297310020369515
aF0.026523979630626568
aF0.000461988344480809
aF0.003680884732560668
aF0.0003845493440371816
aF0.01656133500538165
aF4.7815980084439837e-05
aF8.825253258645238e-05
aF0.000360149140763854
aF0.00022283470987468908
aF0.00013415188384650973
aF0.000376076700831316
ag145
ag145
aF0.0198588412796798
aF0.015550917332376377
aF0.02696320315369352
aF0.0004634518386347655
aF0.003747370267912027
aF0.0003911616506257359
aF0.016876100121107688
aF4.8428637756614207e-05
aF9.076992807456689e-05
aF0.0003662450499266726
aF0.00022652838825670284
aF0.00013606603042534674
aF0.00037991351240967866
ag145
ag145
aF0.019771021906661197
aF0.015484910733666526
aF0.026847799134386115
aF0.00046145240944221684
aF0.0037293171929506656
aF0.0003893961299528879
aF0.016791862295959022
aF4.825956734161866e-05
aF9.026345815502476e-05
aF0.0003645453533647741
aF0.0002255667011116457
aF0.00013539146457837415
aF0.00037859076946314646
ag145
ag145
aF0.019861446103655825
aF0.015554487175545417
aF0.026970996033365138
aF0.00046312071224141496
aF0.003747158849947043
aF0.00039120351909238855
aF0.01687612216717732
aF4.8450639146602206e-05
aF9.070415666787333e-05
aF0.00036626134993162377
aF0.000226509822343234
aF0.00013600940769773989
aF0.0003800263626892907
ag145
ag145
aF0.01976842315506342
aF0.015481351557549903
aF0.026840024661730445
aF0.000461782471194347
aF0.0037295288864224777
aF0.0003893544152669185
aF0.016791840136977782
aF4.823762726483001e-05
aF9.032917634589583e-05
aF0.00036452914332635
aF0.00022558526083183423
aF0.00013544798813671508
aF0.0003784781168523878
ag145
ag145
aF0.020349173322642855
aF0.01602184884950475
aF0.027576638720347546
aF0.0003020552539965138
aF0.0038779640746042787
aF0.00039434466043530847
aF0.012832003186645125
aF0.00029155212359910365
aF0.0002386031389960408
aF0.0003992753084958167
aF0.00021854626947970246
aF0.00014494611741611152
aF0.00038447738688773825
ag145
ag145
aF0.019244486385218806
aF0.014809120230211192
aF0.025969122615606466
aF0.0004624513858288992
aF0.003592902970126488
aF0.00034269638535988634
aF0.021311862873517384
aF0.0002476382442182512
aF0.0002386031389960408
aF0.00036136542701115104
aF0.00021712891839342774
aF0.00012563765244522074
aF0.0003792518396039668
ag145
ag145
aF0.019847975271090945
aF0.015471265264523026
aF0.02689168974916356
aF0.0005170465992705431
aF0.0037802696967901284
aF0.0004188928242001566
aF0.012360711715814432
aF0.00028545917393785203
aF0.00023903394435365044
aF0.0003443157564788635
aF0.00022777624644731986
aF0.0001356484658572299
aF0.0004070761719958682
ag145
ag145
aF0.01953588341655177
aF0.0153214112515343
aF0.026469403843520922
aF0.00037358689587563276
aF0.0038065704956125046
aF0.00040171463524529827
aF0.01621629387318535
aF0.00027338992276781937
aF0.00021636605583807977
aF0.0003844045262439977
aF0.0002080201231819956
aF0.00012179411965007603
aF0.0003962001178479113
ag145
ag145
aF0.020312392123173595
aF0.015901682064395573
aF0.027491416451539408
aF0.0004624513858288992
aF0.0037645805342663152
aF0.00039027843240546645
aF0.016792250502135175
aF0.00026249280290358
aF0.0002386031389960408
aF0.00036539473819630075
aF0.00024320204283867497
aF0.0001357285514131945
aF0.0003792518396039668
ag145
ag145
aF0.01922475188473527
aF0.015084668496456288
aF0.026137497600757342
aF0.0004624513858288992
aF0.003628013695674781
aF0.0004075887868566497
aF0.02010115050040895
aF0.00026249280290358
aF0.0002470617453127488
aF0.0003316436267368772
aF0.00022604730520470184
aF0.0001357285514131945
aF0.00036701139788419823
ag145
ag145
aF0.021708563689912808
aF0.017214142331340554
aF0.03002371249749558
aF0.0003981743248004932
aF0.003892899954848872
aF0.0004304153044358827
aF0.01968368208360971
aF0.00032266636844724417
aF0.00023503593160967284
aF0.00040737992173944804
aF0.00023445394958798715
aF0.00013953088182461215
aF0.00036816697820540867
ag145
ag145
aF0.018296514241114892
aF0.013495172801185618
aF0.024814078775079906
aF0.00038134026908664964
aF0.0036336166269848036
aF0.0003656280009636248
aF0.012500350410391547
aF0.00019333753880346194
aF0.0002124264908616169
aF0.00029425762329537974
aF0.0002044694788310153
aF0.000152420039739809
aF0.00036861276794297737
ag145
ag145
aF0.020532696923396543
aF0.015866449596160237
aF0.02742423241920733
aF0.0003615780769905541
aF0.0037057085444303084
aF0.00040427257044939324
aF0.017150501174796773
aF0.00024187477629311616
aF0.0002458794485846738
aF0.00038420208181833004
aF0.00022652767302133725
aF0.00013366595931074698
aF0.00040115126239470555
ag145
ag145
aF0.019471170411975436
aF0.015021205350421951
aF0.027082060665179597
aF0.00038134026908664964
aF0.003781549704513054
aF0.00036488751766228233
aF0.012585910778170728
aF0.00026249280290358
aF0.00025290315556958376
aF0.00034726947376384487
aF0.0002174857563659316
aF0.00012792505503966822
aF0.0003899943062606326
ag145
ag145
atp215
ba(lp216
g15
(g16
(dp217
g18
g19
(g20
(I0
tp218
g22
tp219
Rp220
(I1
(I1
tp221
g29
I00
(lp222
g43
atp223
bsg66
Nstp224
Rp225
ag15
(g16
(dp226
g18
g19
(g20
(I0
tp227
g22
tp228
Rp229
(I1
(I31
tp230
g29
I00
(lp231
g33
ag34
ag35
ag36
ag37
ag38
ag39
ag40
ag41
ag42
ag44
ag45
ag46
ag47
ag48
ag49
ag50
ag51
ag52
ag53
ag54
ag55
ag56
ag57
ag58
ag59
ag60
ag61
ag62
ag63
ag64
atp232
bsg66
Nstp233
Rp234
a(dp235
S'0.14.1'
p236
(dp237
S'axes'
p238
g14
sS'blocks'
p239
(lp240
(dp241
S'mgr_locs'
p242
c__builtin__
slice
p243
(I10
I11
I1
tp244
Rp245
sS'values'
p246
g87
sa(dp247
g242
g19
(g20
(I0
tp248
g22
tp249
Rp250
(I1
(I31
tp251
g77
I00
S'\x00\x00\x00\x00\x00\x00\x00\x00\x01\x00\x00\x00\x00\x00\x00\x00\x02\x00\x00\x00\x00\x00\x00\x00\x03\x00\x00\x00\x00\x00\x00\x00\x04\x00\x00\x00\x00\x00\x00\x00\x05\x00\x00\x00\x00\x00\x00\x00\x06\x00\x00\x00\x00\x00\x00\x00\x07\x00\x00\x00\x00\x00\x00\x00\x08\x00\x00\x00\x00\x00\x00\x00\t\x00\x00\x00\x00\x00\x00\x00\x0b\x00\x00\x00\x00\x00\x00\x00\x0c\x00\x00\x00\x00\x00\x00\x00\r\x00\x00\x00\x00\x00\x00\x00\x0e\x00\x00\x00\x00\x00\x00\x00\x0f\x00\x00\x00\x00\x00\x00\x00\x10\x00\x00\x00\x00\x00\x00\x00\x11\x00\x00\x00\x00\x00\x00\x00\x12\x00\x00\x00\x00\x00\x00\x00\x13\x00\x00\x00\x00\x00\x00\x00\x14\x00\x00\x00\x00\x00\x00\x00\x15\x00\x00\x00\x00\x00\x00\x00\x16\x00\x00\x00\x00\x00\x00\x00\x17\x00\x00\x00\x00\x00\x00\x00\x18\x00\x00\x00\x00\x00\x00\x00\x19\x00\x00\x00\x00\x00\x00\x00\x1a\x00\x00\x00\x00\x00\x00\x00\x1b\x00\x00\x00\x00\x00\x00\x00\x1c\x00\x00\x00\x00\x00\x00\x00\x1d\x00\x00\x00\x00\x00\x00\x00\x1e\x00\x00\x00\x00\x00\x00\x00\x1f\x00\x00\x00\x00\x00\x00\x00'
p252
tp253
bsg246
g98
sasstp254
bsb.