ccopy_reg
_reconstructor
p0
(cpandas.core.frame
DataFrame
p1
c__builtin__
object
p2
Ntp3
Rp4
(dp5
S'_metadata'
p6
(lp7
sS'_typ'
p8
S'dataframe'
p9
sS'_data'
p10
g0
(cpandas.core.internals
BlockManager
p11
g2
Ntp12
Rp13
((lp14
cpandas.core.indexes.base
_new_Index
p15
(cpandas.core.indexes.base
Index
p16
(dp17
S'data'
p18
cnumpy.core.multiarray
_reconstruct
p19
(cnumpy
ndarray
p20
(I0
tp21
S'b'
p22
tp23
Rp24
(I1
(I32
tp25
cnumpy
dtype
p26
(S'O8'
p27
I0
I1
tp28
Rp29
(I3
S'|'
p30
NNNI-1
I-1
I63
tp31
bI00
(lp32
S'year'
p33
aS'type'
p34
aS'procOriginal'
p35
aS'proc'
p36
aS'proc_s0'
p37
aS'cat'
p38
aS'inputWSFile'
p39
aS'nominalDataName'
p40
aS'modelWSFile'
p41
aS'model'
p42
aS'rate'
p43
aS'nominal_yield'
p44
aS'sumw2'
p45
aS'nominal_yield_COWCorr'
p46
aS'LooseMvaSF_up_yield'
p47
aS'LooseMvaSF_down_yield'
p48
aS'PreselSF_up_yield'
p49
aS'PreselSF_down_yield'
p50
aS'electronVetoSF_up_yield'
p51
aS'electronVetoSF_down_yield'
p52
aS'TriggerWeight_up_yield'
p53
aS'TriggerWeight_down_yield'
p54
aS'SigmaEOverEShift_up_yield'
p55
aS'SigmaEOverEShift_down_yield'
p56
aS'MvaShift_up_yield'
p57
aS'MvaShift_down_yield'
p58
aS'PUJIDShift_up_yield'
p59
aS'PUJIDShift_down_yield'
p60
aS'JEC_up_yield'
p61
aS'JEC_down_yield'
p62
aS'JER_up_yield'
p63
aS'JER_down_yield'
p64
atp65
bsS'name'
p66
Nstp67
Rp68
ag15
(cpandas.core.indexes.numeric
Int64Index
p69
(dp70
g18
g19
(g20
(I0
tp71
g22
tp72
Rp73
(I1
(I15
tp74
g26
(S'i8'
p75
I0
I1
tp76
Rp77
(I3
S'<'
p78
NNNI-1
I-1
I0
tp79
bI00
S'\x00\x00\x00\x00\x00\x00\x00\x00\x01\x00\x00\x00\x00\x00\x00\x00\x02\x00\x00\x00\x00\x00\x00\x00\x03\x00\x00\x00\x00\x00\x00\x00\x04\x00\x00\x00\x00\x00\x00\x00\x05\x00\x00\x00\x00\x00\x00\x00\x06\x00\x00\x00\x00\x00\x00\x00\x07\x00\x00\x00\x00\x00\x00\x00\x08\x00\x00\x00\x00\x00\x00\x00\t\x00\x00\x00\x00\x00\x00\x00\n\x00\x00\x00\x00\x00\x00\x00\x0b\x00\x00\x00\x00\x00\x00\x00\x0c\x00\x00\x00\x00\x00\x00\x00\r\x00\x00\x00\x00\x00\x00\x00\x0e\x00\x00\x00\x00\x00\x00\x00'
p80
tp81
bsg66
Nstp82
Rp83
a(lp84
g19
(g20
(I0
tp85
g22
tp86
Rp87
(I1
(I1
I15
tp88
g26
(S'f8'
p89
I0
I1
tp90
Rp91
(I3
S'<'
p92
NNNI-1
I-1
I0
tp93
bI00
S'\x00\x00\x00\x00\x80j\xd0@\x00\x00\x00\x00\x80j\xd0@\x00\x00\x00\x00\x80j\xd0@\x00\x00\x00\x00\x80j\xd0@\x00\x00\x00\x00\x80j\xd0@\x00\x00\x00\x00\x80j\xd0@\x00\x00\x00\x00\x80j\xd0@\x00\x00\x00\x00\x80j\xd0@\x00\x00\x00\x00\x80j\xd0@\x00\x00\x00\x00\x80j\xd0@\x00\x00\x00\x00\x80j\xd0@\x00\x00\x00\x00\x80j\xd0@\x00\x00\x00\x00\x80j\xd0@\x00\x00\x00\x00\x00\x00\xf0?\x00\x00\x00\x00\x00\x00\xf0\xbf'
p94
tp95
bag19
(g20
(I0
tp96
g22
tp97
Rp98
(I1
(I31
I15
tp99
g29
I00
(lp100
S'2016postVFP'
p101
ag101
ag101
ag101
ag101
ag101
ag101
ag101
ag101
ag101
ag101
ag101
ag101
ag33
ag33
aS'sig'
p102
ag102
ag102
ag102
ag102
ag102
ag102
ag102
ag102
ag102
ag102
ag102
ag102
aS'bkg'
p103
ag18
aS'GG2HMf05ph0'
p104
aS'GG2HbsmM'
p105
aS'GG2Hsm'
p106
aS'TTHsm'
p107
aS'VBFMf05ph0'
p108
aS'VBFbsmM'
p109
aS'VBFsm'
p110
aS'WHMf05ph0'
p111
aS'WHbsmM'
p112
aS'WHsm'
p113
aS'ZHMf05ph0'
p114
aS'ZHbsmM'
p115
aS'ZHsm'
p116
aS'bkg_mass'
p117
aS'data_obs'
p118
aS'GG2HMf05ph0_2016postVFP_hgg'
p119
aS'GG2HbsmM_2016postVFP_hgg'
p120
aS'GG2Hsm_2016postVFP_hgg'
p121
aS'tth0P_2016postVFP_hgg'
p122
aS'vbf0Mf05ph0_2016postVFP_hgg'
p123
aS'vbf0M_2016postVFP_hgg'
p124
aS'vbf0P_2016postVFP_hgg'
p125
aS'wh0Mf05ph0_2016postVFP_hgg'
p126
aS'wh0M_2016postVFP_hgg'
p127
aS'wh0P_2016postVFP_hgg'
p128
aS'zh0Mf05ph0_2016postVFP_hgg'
p129
aS'zh0M_2016postVFP_hgg'
p130
aS'zh0P_2016postVFP_hgg'
p131
ag117
ag118
aS'jjh0Mf05ph0'
p132
aS'jjh0M'
p133
aS'jjh0P'
p134
aS'tth0P'
p135
aS'vbf0Mf05ph0'
p136
aS'vbf0M'
p137
aS'vbf0P'
p138
aS'wh0Mf05ph0'
p139
aS'wh0M'
p140
aS'wh0P'
p141
aS'zh0Mf05ph0'
p142
aS'zh0M'
p143
aS'zh0P'
p144
aS'-'
p145
ag145
aS'AC_Bin10_2016postVFP'
p146
aS'AC_Bin10_2016postVFP'
p147
aS'AC_Bin10_2016postVFP'
p148
aS'AC_Bin10_2016postVFP'
p149
aS'AC_Bin10_2016postVFP'
p150
aS'AC_Bin10_2016postVFP'
p151
aS'AC_Bin10_2016postVFP'
p152
aS'AC_Bin10_2016postVFP'
p153
aS'AC_Bin10_2016postVFP'
p154
aS'AC_Bin10_2016postVFP'
p155
aS'AC_Bin10_2016postVFP'
p156
aS'AC_Bin10_2016postVFP'
p157
aS'AC_Bin10_2016postVFP'
p158
aS'AC_Bin10_2016postVFP'
p159
ag159
aS'Trees/Opt_2016postVFP/2016PostVFP/Trees2WS_2016postVFP/WS/output_GluGluHToGGPlusTwoJets_MM_M125_TuneCP5_13TeV-amcatnlopowheg-minlo-pythia8_GG2HMf05ph0.root'
p160
aS'Trees/Opt_2016postVFP/2016PostVFP/Trees2WS_2016postVFP/WS/output_GluGluHToGGPlusTwoJets_CPodd_M125_TuneCP5_13TeV-amcatnlopowheg-minlo-pythia8_GG2HbsmM.root'
p161
aS'Trees/Opt_2016postVFP/2016PostVFP/Trees2WS_2016postVFP/WS/output_GluGluHToGGPlusTwoJets_SM_M125_TuneCP5_13TeV-amcatnlopowheg-minlo-pythia8_GG2Hsm.root'
p162
aS'Trees/Opt_2016postVFP/2016PostVFP/Trees2WS_2016postVFP/WS/output_ttHJetToGG_M125_TuneCP5_13TeV-amcatnloFXFX-madspin-pythia8_TTHsm.root'
p163
aS'Trees/Opt_2016postVFP/2016PostVFP/Trees2WS_2016postVFP/WS/output_VBFHiggs0Mf05ph0ToGG_M125_TuneCP5_13TeV-JHUGenV7011-pythia8_VBFMf05ph0.root'
p164
aS'Trees/Opt_2016postVFP/2016PostVFP/Trees2WS_2016postVFP/WS/output_VBFHiggs0MToGG_M125_TuneCP5_13TeV-JHUGenV7011-pythia8_VBFbsmM.root'
p165
aS'Trees/Opt_2016postVFP/2016PostVFP/Trees2WS_2016postVFP/WS/output_VBFHToGG_M125_TuneCP5_13TeV-amcatnlo-pythia8_VBFsm.root'
p166
aS'Trees/Opt_2016postVFP/2016PostVFP/Trees2WS_2016postVFP/WS/output_WHiggs0Mf05ph0ToGG_M125_TuneCP5_13TeV-JHUGenV7011-pythia8_WHMf05ph0.root'
p167
aS'Trees/Opt_2016postVFP/2016PostVFP/Trees2WS_2016postVFP/WS/output_WHiggs0MToGG_M125_TuneCP5_13TeV-JHUGenV7011-pythia8_WHbsmM.root'
p168
aS'Trees/Opt_2016postVFP/2016PostVFP/Trees2WS_2016postVFP/WS/output_WHiggs0PMToGG_M125_TuneCP5_13TeV-JHUGenV7011-pythia8_WHsm.root'
p169
aS'Trees/Opt_2016postVFP/2016PostVFP/Trees2WS_2016postVFP/WS/output_ZHiggs0Mf05ph0ToGG_M125_TuneCP5_13TeV-JHUGenV7011-pythia8_ZHMf05ph0.root'
p170
aS'Trees/Opt_2016postVFP/2016PostVFP/Trees2WS_2016postVFP/WS/output_ZHiggs0MToGG_M125_TuneCP5_13TeV-JHUGenV7011-pythia8_ZHbsmM.root'
p171
aS'Trees/Opt_2016postVFP/2016PostVFP/Trees2WS_2016postVFP/WS/output_ZH_HToGG_ZToAll_M125_TuneCP5_13TeV-powheg-pythia8_ZHsm.root'
p172
ag145
ag145
aS'jjh0Mf05ph0_125_13TeV_AC_Bin10'
p173
aS'jjh0M_125_13TeV_AC_Bin10'
p174
aS'jjh0P_125_13TeV_AC_Bin10'
p175
aS'tth0P_125_13TeV_AC_Bin10'
p176
aS'vbf0Mf05ph0_125_13TeV_AC_Bin10'
p177
aS'vbf0M_125_13TeV_AC_Bin10'
p178
aS'vbf0P_125_13TeV_AC_Bin10'
p179
aS'wh0Mf05ph0_125_13TeV_AC_Bin10'
p180
aS'wh0M_125_13TeV_AC_Bin10'
p181
aS'wh0P_125_13TeV_AC_Bin10'
p182
aS'zh0Mf05ph0_125_13TeV_AC_Bin10'
p183
aS'zh0M_125_13TeV_AC_Bin10'
p184
aS'zh0P_125_13TeV_AC_Bin10'
p185
ag145
ag145
aS'./Models/signal/CMS-HGG_sigfit_packaged_AC_Bin10_2016postVFP.root'
p186
aS'./Models/signal/CMS-HGG_sigfit_packaged_AC_Bin10_2016postVFP.root'
p187
aS'./Models/signal/CMS-HGG_sigfit_packaged_AC_Bin10_2016postVFP.root'
p188
aS'./Models/signal/CMS-HGG_sigfit_packaged_AC_Bin10_2016postVFP.root'
p189
aS'./Models/signal/CMS-HGG_sigfit_packaged_AC_Bin10_2016postVFP.root'
p190
aS'./Models/signal/CMS-HGG_sigfit_packaged_AC_Bin10_2016postVFP.root'
p191
aS'./Models/signal/CMS-HGG_sigfit_packaged_AC_Bin10_2016postVFP.root'
p192
aS'./Models/signal/CMS-HGG_sigfit_packaged_AC_Bin10_2016postVFP.root'
p193
aS'./Models/signal/CMS-HGG_sigfit_packaged_AC_Bin10_2016postVFP.root'
p194
aS'./Models/signal/CMS-HGG_sigfit_packaged_AC_Bin10_2016postVFP.root'
p195
aS'./Models/signal/CMS-HGG_sigfit_packaged_AC_Bin10_2016postVFP.root'
p196
aS'./Models/signal/CMS-HGG_sigfit_packaged_AC_Bin10_2016postVFP.root'
p197
aS'./Models/signal/CMS-HGG_sigfit_packaged_AC_Bin10_2016postVFP.root'
p198
aS'./Models/background/CMS-HGG_multipdf_AC_Bin10_2016postVFP.root'
p199
ag199
aS'wsig_13TeV:hggpdfsmrel_GG2HMf05ph0_2016postVFP_AC_Bin10_13TeV'
p200
aS'wsig_13TeV:hggpdfsmrel_GG2HbsmM_2016postVFP_AC_Bin10_13TeV'
p201
aS'wsig_13TeV:hggpdfsmrel_GG2Hsm_2016postVFP_AC_Bin10_13TeV'
p202
aS'wsig_13TeV:hggpdfsmrel_TTHsm_2016postVFP_AC_Bin10_13TeV'
p203
aS'wsig_13TeV:hggpdfsmrel_VBFMf05ph0_2016postVFP_AC_Bin10_13TeV'
p204
aS'wsig_13TeV:hggpdfsmrel_VBFbsmM_2016postVFP_AC_Bin10_13TeV'
p205
aS'wsig_13TeV:hggpdfsmrel_VBFsm_2016postVFP_AC_Bin10_13TeV'
p206
aS'wsig_13TeV:hggpdfsmrel_WHMf05ph0_2016postVFP_AC_Bin10_13TeV'
p207
aS'wsig_13TeV:hggpdfsmrel_WHbsmM_2016postVFP_AC_Bin10_13TeV'
p208
aS'wsig_13TeV:hggpdfsmrel_WHsm_2016postVFP_AC_Bin10_13TeV'
p209
aS'wsig_13TeV:hggpdfsmrel_ZHMf05ph0_2016postVFP_AC_Bin10_13TeV'
p210
aS'wsig_13TeV:hggpdfsmrel_ZHbsmM_2016postVFP_AC_Bin10_13TeV'
p211
aS'wsig_13TeV:hggpdfsmrel_ZHsm_2016postVFP_AC_Bin10_13TeV'
p212
aS'multipdf:CMS_hgg_AC_Bin10_2016postVFP_13TeV_bkgshape'
p213
aS'multipdf:roohist_data_mass_AC_Bin10'
p214
aF0.029278518497676487
aF0.05041868843704833
aF0.021773691137241258
aF0.0023283196260308614
aF0.07267386705893841
aF0.12816260198428608
aF0.0527348443382607
aF6.25933635092224e-05
aF0.0006416707582275194
aF0.0003518504677231249
aF0.0004589730044699536
aF0.0005491999827995642
aF0.0005777144774583576
ag145
ag145
aF6.697405413100817e-07
aF1.1895813458663578e-06
aF4.912083630006731e-07
aF7.258355528914805e-07
aF9.189542735428609e-07
aF1.6233099942948418e-06
aF2.5560322021039423e-06
aF1.034564078937222e-09
aF6.56628630359473e-09
aF3.5970465653401205e-09
aF2.869122468692904e-09
aF3.797050735385418e-09
aF9.220639904463675e-09
ag145
ag145
aF0.029854095612646223
aF0.05138102366595605
aF0.02217994228649855
aF0.0023738845579495496
aF0.07406321605899543
aF0.13062731170603176
aF0.053727051342607995
aF6.367211660671277e-05
aF0.0006567016049370482
aF0.00035850110340461934
aF0.0004690000406864628
aF0.0005604783673840964
aF0.0005872929039000551
ag145
ag145
aF0.029488438241861273
aF0.05078180286641315
aF0.021930162745565928
aF0.0023455678189823097
aF0.07320027900150175
aF0.12909236659287127
aF0.05311009756186387
aF6.30457010130741e-05
aF0.000646246599234973
aF0.00035434303533535673
aF0.000462219149544392
aF0.0005532087015010538
aF0.0005816355614964411
ag145
ag145
aF0.029069354644194623
aF0.05005688591947936
aF0.02161778271432814
aF0.0023111352860604503
aF0.07214936782984911
aF0.12723622427976777
aF0.05236093287320054
aF6.214265142809123e-05
aF0.0006371113027974323
aF0.00034936669345553246
aF0.00045573839498915555
aF0.0005452058770809044
aF0.0005738068672988905
ag145
ag145
aF0.0295999231754417
aF0.05096098420433369
aF0.0220035704380308
aF0.002355419247077722
aF0.07340964282384148
aF0.12943525529338204
aF0.053322297599971515
aF6.306158902686401e-05
aF0.0006496467807427337
aF0.0003564315977780456
aF0.0004639546546928379
aF0.000555154769173396
aF0.0005852810206722016
ag145
ag145
aF0.02895892533818141
aF0.04987923507954245
aF0.021544969580636317
aF0.002301363300800714
aF0.07194170334369328
aF0.12689622523700395
aF0.052150478129743896
aF6.212688150277672e-05
aF0.0006337397482120544
aF0.00034729435884861163
aF0.00045402126060928034
aF0.0005432749269952974
aF0.0005702072590486043
ag145
ag145
aF0.029323633991465047
aF0.0504949386230102
aF0.021806605606692248
aF0.0023321298748667607
aF0.07277904613298375
aF0.12834511548939503
aF0.05282061931420199
aF6.267206424022276e-05
aF0.0006427317536023122
aF0.00035246385002263243
aF0.0004596828770614231
aF0.00054995654811876
aF0.0005788483253939376
ag145
ag145
aF0.029233440672819837
aF0.05034249623031884
aF0.021740801428579024
aF0.0023245118521454116
aF0.07256876573004994
aF0.12798022742402038
aF0.05264914241320117
aF6.25147058313596e-05
aF0.0006406106780246606
aF0.00035123752652842683
aF0.00045826372573465785
aF0.0005484438874633828
aF0.0005765820617025678
ag145
ag145
aF0.02934222054655962
aF0.050527034742325
aF0.02181947879373375
aF0.002333041052588257
aF0.07282719171178251
aF0.12843234357033492
aF0.052846696663884085
aF6.271910891718969e-05
aF0.0006434268620085487
aF0.00035256439447321205
aF0.00046009758142518585
aF0.000550413139517248
aF0.0005788924867543574
ag145
ag145
aF0.02921489003096802
aF0.05031045799080761
aF0.021727951528264993
aF0.0023236030201606766
aF0.07252070304965384
aF0.12789314281795228
aF0.05262311070758355
aF6.246774334133357e-05
aF0.0006399168919542677
aF0.00035113727293262193
aF0.0004578497583613451
aF0.0005479881446844011
aF0.0005765376581693697
ag145
ag145
aF0.028897028144683645
aF0.04983924727798694
aF0.021490354477919027
aF0.002267210385980434
aF0.07214315579562935
aF0.127603868946494
aF0.05180457460971866
aF0.0009201226866935031
aF0.001135127491579624
aF0.0003221074784960365
aF0.00044508730388770346
aF0.000547944694119451
aF0.0005777144774583576
ag145
ag145
aF0.029888797973853798
aF0.05121772022562254
aF0.022185745279784896
aF0.0023987128861335805
aF0.07314177963326074
aF0.12898740744651604
aF0.053697452972414794
aF0.0009201226866935031
aF0.001155515050413669
aF0.00036695215612780885
aF0.0004589730044699536
aF0.0005491999827995642
aF0.0005777144774583576
ag145
ag145
aF0.02970410003899815
aF0.051314341518946094
aF0.022123280218693253
aF0.0023283196260308614
aF0.07348233284335492
aF0.12951232727971274
aF0.05295795618178545
aF0.0009201226866935031
aF0.0011739614456018899
aF0.0003518504677231249
aF0.000465352236687977
aF0.0005491999827995642
aF0.0005777144774583576
ag145
ag145
aF0.02854468698637902
aF0.04902102167011435
aF0.021193315096297738
aF0.001800309872123762
aF0.07152261223177447
aF0.12632275523151293
aF0.05177053782699659
aF0.0009201226866935031
aF0.0010974031747537083
aF0.0003518504677231249
aF0.0004337782936545409
aF0.0005491999827995642
aF0.0005224675082899921
ag145
ag145
aF0.029538057189938627
aF0.05058854075809904
aF0.022056194367905846
aF0.0023283196260308614
aF0.072783756005947
aF0.12824995702953856
aF0.052828094504434375
aF0.0009332393592558219
aF0.0011976116147707216
aF0.0003650562107395672
aF0.00047198212246257754
aF0.0005781167733971415
aF0.0005777144774583576
ag145
ag145
aF0.028916715172499607
aF0.05022536049341397
aF0.02156266365727788
aF0.0023283196260308614
aF0.0725469498026996
aF0.12813479308192655
aF0.05234648495468264
aF0.000906401533029566
aF0.0011392701526347082
aF0.0003472959856480884
aF0.000433011935228933
aF0.0005358399822057436
aF0.0005659503626702644
ag145
ag145
aF0.030128534260711604
aF0.052286891946550895
aF0.023334202832302253
aF0.0021142249770491617
aF0.07343648803419
aF0.12925239667356436
aF0.05430069935073334
aF0.0008752141102377209
aF0.0012350041350828178
aF0.00036454265273277997
aF0.0004858820400386321
aF0.0006176222619274085
aF0.0005995752385388187
ag145
ag145
aF0.027749289839448466
aF0.047955610374856406
aF0.02054459251917251
aF0.0024424975981673924
aF0.07201845880717883
aF0.12676400809618826
aF0.050287726518376985
aF0.0008516930975019932
aF0.001008179852306057
aF0.0002524677197470737
aF0.00041798213146648777
aF0.000548153020247355
aF0.0005527287180484564
ag145
ag145
aF0.029308999143495384
aF0.05051824976158059
aF0.02195895812519666
aF0.002392967942796531
aF0.07243509673673998
aF0.12802020165008798
aF0.052855887043278926
aF0.000952814206812036
aF0.0011433320823925897
aF0.0003379850736564549
aF0.00045634604498445697
aF0.0005448268598797767
aF0.000598381931467884
ag145
ag145
aF0.028590469668415608
aF0.05017262042792936
aF0.0217662227096298
aF0.002353501155084814
aF0.07274752244086358
aF0.12798136940432414
aF0.052339199529683356
aF0.0009053574331119307
aF0.0011327621867849302
aF0.0003381839269422926
aF0.0004471189899959427
aF0.0005368718084923785
aF0.0005765864784734731
ag145
ag145
atp215
ba(lp216
g15
(g16
(dp217
g18
g19
(g20
(I0
tp218
g22
tp219
Rp220
(I1
(I1
tp221
g29
I00
(lp222
g43
atp223
bsg66
Nstp224
Rp225
ag15
(g16
(dp226
g18
g19
(g20
(I0
tp227
g22
tp228
Rp229
(I1
(I31
tp230
g29
I00
(lp231
g33
ag34
ag35
ag36
ag37
ag38
ag39
ag40
ag41
ag42
ag44
ag45
ag46
ag47
ag48
ag49
ag50
ag51
ag52
ag53
ag54
ag55
ag56
ag57
ag58
ag59
ag60
ag61
ag62
ag63
ag64
atp232
bsg66
Nstp233
Rp234
a(dp235
S'0.14.1'
p236
(dp237
S'axes'
p238
g14
sS'blocks'
p239
(lp240
(dp241
S'mgr_locs'
p242
c__builtin__
slice
p243
(I10
I11
I1
tp244
Rp245
sS'values'
p246
g87
sa(dp247
g242
g19
(g20
(I0
tp248
g22
tp249
Rp250
(I1
(I31
tp251
g77
I00
S'\x00\x00\x00\x00\x00\x00\x00\x00\x01\x00\x00\x00\x00\x00\x00\x00\x02\x00\x00\x00\x00\x00\x00\x00\x03\x00\x00\x00\x00\x00\x00\x00\x04\x00\x00\x00\x00\x00\x00\x00\x05\x00\x00\x00\x00\x00\x00\x00\x06\x00\x00\x00\x00\x00\x00\x00\x07\x00\x00\x00\x00\x00\x00\x00\x08\x00\x00\x00\x00\x00\x00\x00\t\x00\x00\x00\x00\x00\x00\x00\x0b\x00\x00\x00\x00\x00\x00\x00\x0c\x00\x00\x00\x00\x00\x00\x00\r\x00\x00\x00\x00\x00\x00\x00\x0e\x00\x00\x00\x00\x00\x00\x00\x0f\x00\x00\x00\x00\x00\x00\x00\x10\x00\x00\x00\x00\x00\x00\x00\x11\x00\x00\x00\x00\x00\x00\x00\x12\x00\x00\x00\x00\x00\x00\x00\x13\x00\x00\x00\x00\x00\x00\x00\x14\x00\x00\x00\x00\x00\x00\x00\x15\x00\x00\x00\x00\x00\x00\x00\x16\x00\x00\x00\x00\x00\x00\x00\x17\x00\x00\x00\x00\x00\x00\x00\x18\x00\x00\x00\x00\x00\x00\x00\x19\x00\x00\x00\x00\x00\x00\x00\x1a\x00\x00\x00\x00\x00\x00\x00\x1b\x00\x00\x00\x00\x00\x00\x00\x1c\x00\x00\x00\x00\x00\x00\x00\x1d\x00\x00\x00\x00\x00\x00\x00\x1e\x00\x00\x00\x00\x00\x00\x00\x1f\x00\x00\x00\x00\x00\x00\x00'
p252
tp253
bsg246
g98
sasstp254
bsb.