ccopy_reg
_reconstructor
p0
(cpandas.core.frame
DataFrame
p1
c__builtin__
object
p2
Ntp3
Rp4
(dp5
S'_metadata'
p6
(lp7
sS'_typ'
p8
S'dataframe'
p9
sS'_data'
p10
g0
(cpandas.core.internals
BlockManager
p11
g2
Ntp12
Rp13
((lp14
cpandas.core.indexes.base
_new_Index
p15
(cpandas.core.indexes.base
Index
p16
(dp17
S'data'
p18
cnumpy.core.multiarray
_reconstruct
p19
(cnumpy
ndarray
p20
(I0
tp21
S'b'
p22
tp23
Rp24
(I1
(I32
tp25
cnumpy
dtype
p26
(S'O8'
p27
I0
I1
tp28
Rp29
(I3
S'|'
p30
NNNI-1
I-1
I63
tp31
bI00
(lp32
S'year'
p33
aS'type'
p34
aS'procOriginal'
p35
aS'proc'
p36
aS'proc_s0'
p37
aS'cat'
p38
aS'inputWSFile'
p39
aS'nominalDataName'
p40
aS'modelWSFile'
p41
aS'model'
p42
aS'rate'
p43
aS'nominal_yield'
p44
aS'sumw2'
p45
aS'nominal_yield_COWCorr'
p46
aS'LooseMvaSF_up_yield'
p47
aS'LooseMvaSF_down_yield'
p48
aS'PreselSF_up_yield'
p49
aS'PreselSF_down_yield'
p50
aS'electronVetoSF_up_yield'
p51
aS'electronVetoSF_down_yield'
p52
aS'TriggerWeight_up_yield'
p53
aS'TriggerWeight_down_yield'
p54
aS'SigmaEOverEShift_up_yield'
p55
aS'SigmaEOverEShift_down_yield'
p56
aS'MvaShift_up_yield'
p57
aS'MvaShift_down_yield'
p58
aS'PUJIDShift_up_yield'
p59
aS'PUJIDShift_down_yield'
p60
aS'JEC_up_yield'
p61
aS'JEC_down_yield'
p62
aS'JER_up_yield'
p63
aS'JER_down_yield'
p64
atp65
bsS'name'
p66
Nstp67
Rp68
ag15
(cpandas.core.indexes.numeric
Int64Index
p69
(dp70
g18
g19
(g20
(I0
tp71
g22
tp72
Rp73
(I1
(I15
tp74
g26
(S'i8'
p75
I0
I1
tp76
Rp77
(I3
S'<'
p78
NNNI-1
I-1
I0
tp79
bI00
S'\x00\x00\x00\x00\x00\x00\x00\x00\x01\x00\x00\x00\x00\x00\x00\x00\x02\x00\x00\x00\x00\x00\x00\x00\x03\x00\x00\x00\x00\x00\x00\x00\x04\x00\x00\x00\x00\x00\x00\x00\x05\x00\x00\x00\x00\x00\x00\x00\x06\x00\x00\x00\x00\x00\x00\x00\x07\x00\x00\x00\x00\x00\x00\x00\x08\x00\x00\x00\x00\x00\x00\x00\t\x00\x00\x00\x00\x00\x00\x00\n\x00\x00\x00\x00\x00\x00\x00\x0b\x00\x00\x00\x00\x00\x00\x00\x0c\x00\x00\x00\x00\x00\x00\x00\r\x00\x00\x00\x00\x00\x00\x00\x0e\x00\x00\x00\x00\x00\x00\x00'
p80
tp81
bsg66
Nstp82
Rp83
a(lp84
g19
(g20
(I0
tp85
g22
tp86
Rp87
(I1
(I1
I15
tp88
g26
(S'f8'
p89
I0
I1
tp90
Rp91
(I3
S'<'
p92
NNNI-1
I-1
I0
tp93
bI00
S'\x00\x00\x00\x00\x80j\xd0@\x00\x00\x00\x00\x80j\xd0@\x00\x00\x00\x00\x80j\xd0@\x00\x00\x00\x00\x80j\xd0@\x00\x00\x00\x00\x80j\xd0@\x00\x00\x00\x00\x80j\xd0@\x00\x00\x00\x00\x80j\xd0@\x00\x00\x00\x00\x80j\xd0@\x00\x00\x00\x00\x80j\xd0@\x00\x00\x00\x00\x80j\xd0@\x00\x00\x00\x00\x80j\xd0@\x00\x00\x00\x00\x80j\xd0@\x00\x00\x00\x00\x80j\xd0@\x00\x00\x00\x00\x00\x00\xf0?\x00\x00\x00\x00\x00\x00\xf0\xbf'
p94
tp95
bag19
(g20
(I0
tp96
g22
tp97
Rp98
(I1
(I31
I15
tp99
g29
I00
(lp100
S'2016postVFP'
p101
ag101
ag101
ag101
ag101
ag101
ag101
ag101
ag101
ag101
ag101
ag101
ag101
ag33
ag33
aS'sig'
p102
ag102
ag102
ag102
ag102
ag102
ag102
ag102
ag102
ag102
ag102
ag102
ag102
aS'bkg'
p103
ag18
aS'GG2HMf05ph0'
p104
aS'GG2HbsmM'
p105
aS'GG2Hsm'
p106
aS'TTHsm'
p107
aS'VBFMf05ph0'
p108
aS'VBFbsmM'
p109
aS'VBFsm'
p110
aS'WHMf05ph0'
p111
aS'WHbsmM'
p112
aS'WHsm'
p113
aS'ZHMf05ph0'
p114
aS'ZHbsmM'
p115
aS'ZHsm'
p116
aS'bkg_mass'
p117
aS'data_obs'
p118
aS'GG2HMf05ph0_2016postVFP_hgg'
p119
aS'GG2HbsmM_2016postVFP_hgg'
p120
aS'GG2Hsm_2016postVFP_hgg'
p121
aS'tth0P_2016postVFP_hgg'
p122
aS'vbf0Mf05ph0_2016postVFP_hgg'
p123
aS'vbf0M_2016postVFP_hgg'
p124
aS'vbf0P_2016postVFP_hgg'
p125
aS'wh0Mf05ph0_2016postVFP_hgg'
p126
aS'wh0M_2016postVFP_hgg'
p127
aS'wh0P_2016postVFP_hgg'
p128
aS'zh0Mf05ph0_2016postVFP_hgg'
p129
aS'zh0M_2016postVFP_hgg'
p130
aS'zh0P_2016postVFP_hgg'
p131
ag117
ag118
aS'jjh0Mf05ph0'
p132
aS'jjh0M'
p133
aS'jjh0P'
p134
aS'tth0P'
p135
aS'vbf0Mf05ph0'
p136
aS'vbf0M'
p137
aS'vbf0P'
p138
aS'wh0Mf05ph0'
p139
aS'wh0M'
p140
aS'wh0P'
p141
aS'zh0Mf05ph0'
p142
aS'zh0M'
p143
aS'zh0P'
p144
aS'-'
p145
ag145
aS'AC_Bin24_2016postVFP'
p146
aS'AC_Bin24_2016postVFP'
p147
aS'AC_Bin24_2016postVFP'
p148
aS'AC_Bin24_2016postVFP'
p149
aS'AC_Bin24_2016postVFP'
p150
aS'AC_Bin24_2016postVFP'
p151
aS'AC_Bin24_2016postVFP'
p152
aS'AC_Bin24_2016postVFP'
p153
aS'AC_Bin24_2016postVFP'
p154
aS'AC_Bin24_2016postVFP'
p155
aS'AC_Bin24_2016postVFP'
p156
aS'AC_Bin24_2016postVFP'
p157
aS'AC_Bin24_2016postVFP'
p158
aS'AC_Bin24_2016postVFP'
p159
ag159
aS'Trees/Opt_2016postVFP/2016PostVFP/Trees2WS_2016postVFP/WS/output_GluGluHToGGPlusTwoJets_MM_M125_TuneCP5_13TeV-amcatnlopowheg-minlo-pythia8_GG2HMf05ph0.root'
p160
aS'Trees/Opt_2016postVFP/2016PostVFP/Trees2WS_2016postVFP/WS/output_GluGluHToGGPlusTwoJets_CPodd_M125_TuneCP5_13TeV-amcatnlopowheg-minlo-pythia8_GG2HbsmM.root'
p161
aS'Trees/Opt_2016postVFP/2016PostVFP/Trees2WS_2016postVFP/WS/output_GluGluHToGGPlusTwoJets_SM_M125_TuneCP5_13TeV-amcatnlopowheg-minlo-pythia8_GG2Hsm.root'
p162
aS'Trees/Opt_2016postVFP/2016PostVFP/Trees2WS_2016postVFP/WS/output_ttHJetToGG_M125_TuneCP5_13TeV-amcatnloFXFX-madspin-pythia8_TTHsm.root'
p163
aS'Trees/Opt_2016postVFP/2016PostVFP/Trees2WS_2016postVFP/WS/output_VBFHiggs0Mf05ph0ToGG_M125_TuneCP5_13TeV-JHUGenV7011-pythia8_VBFMf05ph0.root'
p164
aS'Trees/Opt_2016postVFP/2016PostVFP/Trees2WS_2016postVFP/WS/output_VBFHiggs0MToGG_M125_TuneCP5_13TeV-JHUGenV7011-pythia8_VBFbsmM.root'
p165
aS'Trees/Opt_2016postVFP/2016PostVFP/Trees2WS_2016postVFP/WS/output_VBFHToGG_M125_TuneCP5_13TeV-amcatnlo-pythia8_VBFsm.root'
p166
aS'Trees/Opt_2016postVFP/2016PostVFP/Trees2WS_2016postVFP/WS/output_WHiggs0Mf05ph0ToGG_M125_TuneCP5_13TeV-JHUGenV7011-pythia8_WHMf05ph0.root'
p167
aS'Trees/Opt_2016postVFP/2016PostVFP/Trees2WS_2016postVFP/WS/output_WHiggs0MToGG_M125_TuneCP5_13TeV-JHUGenV7011-pythia8_WHbsmM.root'
p168
aS'Trees/Opt_2016postVFP/2016PostVFP/Trees2WS_2016postVFP/WS/output_WHiggs0PMToGG_M125_TuneCP5_13TeV-JHUGenV7011-pythia8_WHsm.root'
p169
aS'Trees/Opt_2016postVFP/2016PostVFP/Trees2WS_2016postVFP/WS/output_ZHiggs0Mf05ph0ToGG_M125_TuneCP5_13TeV-JHUGenV7011-pythia8_ZHMf05ph0.root'
p170
aS'Trees/Opt_2016postVFP/2016PostVFP/Trees2WS_2016postVFP/WS/output_ZHiggs0MToGG_M125_TuneCP5_13TeV-JHUGenV7011-pythia8_ZHbsmM.root'
p171
aS'Trees/Opt_2016postVFP/2016PostVFP/Trees2WS_2016postVFP/WS/output_ZH_HToGG_ZToAll_M125_TuneCP5_13TeV-powheg-pythia8_ZHsm.root'
p172
ag145
ag145
aS'jjh0Mf05ph0_125_13TeV_AC_Bin24'
p173
aS'jjh0M_125_13TeV_AC_Bin24'
p174
aS'jjh0P_125_13TeV_AC_Bin24'
p175
aS'tth0P_125_13TeV_AC_Bin24'
p176
aS'vbf0Mf05ph0_125_13TeV_AC_Bin24'
p177
aS'vbf0M_125_13TeV_AC_Bin24'
p178
aS'vbf0P_125_13TeV_AC_Bin24'
p179
aS'wh0Mf05ph0_125_13TeV_AC_Bin24'
p180
aS'wh0M_125_13TeV_AC_Bin24'
p181
aS'wh0P_125_13TeV_AC_Bin24'
p182
aS'zh0Mf05ph0_125_13TeV_AC_Bin24'
p183
aS'zh0M_125_13TeV_AC_Bin24'
p184
aS'zh0P_125_13TeV_AC_Bin24'
p185
ag145
ag145
aS'./Models/signal/CMS-HGG_sigfit_packaged_AC_Bin24_2016postVFP.root'
p186
aS'./Models/signal/CMS-HGG_sigfit_packaged_AC_Bin24_2016postVFP.root'
p187
aS'./Models/signal/CMS-HGG_sigfit_packaged_AC_Bin24_2016postVFP.root'
p188
aS'./Models/signal/CMS-HGG_sigfit_packaged_AC_Bin24_2016postVFP.root'
p189
aS'./Models/signal/CMS-HGG_sigfit_packaged_AC_Bin24_2016postVFP.root'
p190
aS'./Models/signal/CMS-HGG_sigfit_packaged_AC_Bin24_2016postVFP.root'
p191
aS'./Models/signal/CMS-HGG_sigfit_packaged_AC_Bin24_2016postVFP.root'
p192
aS'./Models/signal/CMS-HGG_sigfit_packaged_AC_Bin24_2016postVFP.root'
p193
aS'./Models/signal/CMS-HGG_sigfit_packaged_AC_Bin24_2016postVFP.root'
p194
aS'./Models/signal/CMS-HGG_sigfit_packaged_AC_Bin24_2016postVFP.root'
p195
aS'./Models/signal/CMS-HGG_sigfit_packaged_AC_Bin24_2016postVFP.root'
p196
aS'./Models/signal/CMS-HGG_sigfit_packaged_AC_Bin24_2016postVFP.root'
p197
aS'./Models/signal/CMS-HGG_sigfit_packaged_AC_Bin24_2016postVFP.root'
p198
aS'./Models/background/CMS-HGG_multipdf_AC_Bin24_2016postVFP.root'
p199
ag199
aS'wsig_13TeV:hggpdfsmrel_GG2HMf05ph0_2016postVFP_AC_Bin24_13TeV'
p200
aS'wsig_13TeV:hggpdfsmrel_GG2HbsmM_2016postVFP_AC_Bin24_13TeV'
p201
aS'wsig_13TeV:hggpdfsmrel_GG2Hsm_2016postVFP_AC_Bin24_13TeV'
p202
aS'wsig_13TeV:hggpdfsmrel_TTHsm_2016postVFP_AC_Bin24_13TeV'
p203
aS'wsig_13TeV:hggpdfsmrel_VBFMf05ph0_2016postVFP_AC_Bin24_13TeV'
p204
aS'wsig_13TeV:hggpdfsmrel_VBFbsmM_2016postVFP_AC_Bin24_13TeV'
p205
aS'wsig_13TeV:hggpdfsmrel_VBFsm_2016postVFP_AC_Bin24_13TeV'
p206
aS'wsig_13TeV:hggpdfsmrel_WHMf05ph0_2016postVFP_AC_Bin24_13TeV'
p207
aS'wsig_13TeV:hggpdfsmrel_WHbsmM_2016postVFP_AC_Bin24_13TeV'
p208
aS'wsig_13TeV:hggpdfsmrel_WHsm_2016postVFP_AC_Bin24_13TeV'
p209
aS'wsig_13TeV:hggpdfsmrel_ZHMf05ph0_2016postVFP_AC_Bin24_13TeV'
p210
aS'wsig_13TeV:hggpdfsmrel_ZHbsmM_2016postVFP_AC_Bin24_13TeV'
p211
aS'wsig_13TeV:hggpdfsmrel_ZHsm_2016postVFP_AC_Bin24_13TeV'
p212
aS'multipdf:CMS_hgg_AC_Bin24_2016postVFP_13TeV_bkgshape'
p213
aS'multipdf:roohist_data_mass_AC_Bin24'
p214
aF0.06056084919498517
aF0.0353959979308911
aF0.07048955202094476
aF0.0031161067736320547
aF0.015897689968028317
aF0.004007613026828949
aF0.05157288836664975
aF0.00011371406617399771
aF0.00044230754201635136
aF0.0007963572284097609
aF0.0004950955110416544
aF0.0004078823711779478
aF0.0011751335512144578
ag145
ag145
aF1.3951617211541424e-06
aF8.926442230733027e-07
aF1.5898346362023507e-06
aF6.628430651514943e-07
aF1.9818591661445156e-07
aF4.951824584483471e-08
aF2.6182535223860494e-06
aF2.7709509624865946e-09
aF4.517029795416682e-09
aF8.348759988665489e-09
aF3.2390030522942138e-09
aF2.8582636550069097e-09
aF2.006980236604019e-08
ag145
ag145
aF0.06232872764502805
aF0.03620907584221315
aF0.07261351181206858
aF0.0031752780740220772
aF0.016282229346625078
aF0.004123575334588255
aF0.052830389563196606
aF0.00011599670325799508
aF0.00045080483779057115
aF0.0008182648471662299
aF0.0005091090283999053
aF0.00041739376413627336
aF0.001210597928985106
ag145
ag145
aF0.060983707289369485
aF0.035645987491553316
aF0.07098177396650746
aF0.0031394064311398083
aF0.016007157568063875
aF0.0040351060109592345
aF0.05192739116050533
aF0.00011451096124998751
aF0.00044529886600875435
aF0.000801661656107489
aF0.0004984483285708053
aF0.0004106446512721184
aF0.0011829595576872958
ag145
ag145
aF0.06013947619622791
aF0.03514689574377825
aF0.06999905927899167
aF0.0030928946848650346
aF0.01578860123703227
aF0.003980214580020877
aF0.05121961125769614
aF0.00011291993214874692
aF0.0004393264212743486
aF0.0007910708353584415
aF0.0004917541631545275
aF0.0004051295710615193
aF0.0011673340797578086
ag145
ag145
aF0.06131763704809234
aF0.03582017257496202
aF0.07136983657223593
aF0.003142271956541102
aF0.01610073779243415
aF0.004058891436360037
aF0.052238296745988344
aF0.00011454251312008898
aF0.0004479623366745055
aF0.0008055654302615735
aF0.0005018370406220725
aF0.00041340952857376516
aF0.0011914182212792207
ag145
ag145
aF0.0598087029254742
aF0.034974311116547065
aF0.069615036581721
aF0.0030901329262858104
aF0.01569591492741319
aF0.003956644078085774
aF0.05091160839569835
aF0.00011288861299734527
aF0.00043668236688530526
aF0.0007872067097758035
aF0.00048841911003332
aF0.0004024003199579391
aF0.0011589730220420537
ag145
ag145
aF0.060667773019390546
aF0.03545604169662246
aF0.07061794993609306
aF0.003119146387948992
aF0.015927705527342826
aF0.004015516845569671
aF0.05167306124604096
aF0.00011387308925592328
aF0.00044312429394394837
aF0.0007979161131270982
aF0.0004962115592095791
aF0.00040876839102120576
aF0.001177669342177066
ag145
ag145
aF0.06045402401649606
aF0.03533600915503962
aF0.07036127747837648
aF0.003113068767727065
aF0.015867704098709863
aF0.003999717654263971
aF0.05147281377695648
aF0.00011355513679222973
aF0.00044149152600173817
aF0.0007948003676628512
aF0.0004939807551922755
aF0.0004069973654051031
aF0.0011726005770459058
ag145
ag145
aF0.060698806477773946
aF0.03547333969065389
aF0.07064728434340597
aF0.0031224748589537177
aF0.01593324246225694
aF0.0040168620507878144
aF0.05168720873107309
aF0.00011394295015510691
aF0.00044321565475898044
aF0.0007982489803874987
aF0.0004962695781063593
aF0.0004088126431131747
aF0.001177877509643088
ag145
ag145
aF0.060423049379658665
aF0.03531874138140517
aF0.07033199687496183
aF0.003109745260282724
aF0.015862178611730733
aF0.003998374824849782
aF0.05145869774530069
aF0.00011348541832738162
aF0.0004414003671476452
aF0.0007944678017878607
aF0.0004939228135050843
aF0.00040695315048114007
aF0.0011723927528630568
ag145
ag145
aF0.060031883192891655
aF0.03507444216438671
aF0.06969264810413733
aF0.0031588578121954924
aF0.01581099716315748
aF0.004035294915070153
aF0.044398256152931026
aF0.0008278102477561333
aF0.000845433746121671
aF0.0007912188621048699
aF0.0005043397475219535
aF0.0004078823711779478
aF0.0011455322999154305
ag145
ag145
aF0.061288048306437304
aF0.035268396057063
aF0.07090393673934159
aF0.0031729475149404607
aF0.015839411555589322
aF0.003883503483507411
aF0.044518771190951156
aF0.0008392978775191295
aF0.0008261387264383302
aF0.0008267261982837226
aF0.0005006539834084833
aF0.0004034196080056063
aF0.0011842593164601567
ag145
ag145
aF0.06272990800096068
aF0.03633358822776245
aF0.07252981910164635
aF0.003106926232248952
aF0.016461615468415403
aF0.004046294823979224
aF0.04506516981200548
aF0.0008401779514315422
aF0.0008490430940355509
aF0.000806268161340995
aF0.0005065901109446713
aF0.0004120433608250096
aF0.0012301070594276098
ag145
ag145
aF0.05831911198049511
aF0.03411957110915864
aF0.06800102957345189
aF0.0031000488406789373
aF0.015499633933927726
aF0.003929769252977167
aF0.04303768997840507
aF0.0008420920057687908
aF0.000798206782633315
aF0.0007632893366462667
aF0.0004923197186599282
aF0.0004080687180021414
aF0.0011278337207158984
ag145
ag145
aF0.06173767072766623
aF0.03654922899727353
aF0.07128576751324545
aF0.0031161067736320547
aF0.01608923512014826
aF0.0040287531138574195
aF0.04532978214558625
aF0.0008534469079677365
aF0.0008373280664955018
aF0.0008284715700028755
aF0.0005077151161003712
aF0.00041376721571850794
aF0.0011557859286313032
ag145
ag145
aF0.05921943017426656
aF0.03453414620594231
aF0.06929658499825564
aF0.0031161067736320547
aF0.015669790801553063
aF0.003970262827010629
aF0.04356170918697444
aF0.0007994991983650834
aF0.0007992512167902532
aF0.0008154353449754126
aF0.0004899121097423631
aF0.0004012505431774116
aF0.0011611971401634946
ag145
ag145
aF0.06576142371488913
aF0.038896017338174715
aF0.07537304029824554
aF0.0032251317525151535
aF0.016259740903706188
aF0.0041946952020452954
aF0.05221570844435064
aF0.0008058511598392215
aF0.0009113171335002335
aF0.0008621580468570755
aF0.000569778277167643
aF0.00046853457490669825
aF0.001266031121076594
ag145
ag145
aF0.05598765127024308
aF0.032231818669060885
aF0.065797631025589
aF0.0031916909929350368
aF0.015280504476663737
aF0.0038781783474632903
aF0.04375396808006826
aF0.0008070251142271445
aF0.0007928209305418932
aF0.0007395058798920218
aF0.0004738315324175346
aF0.00036674203045095055
aF0.001033615145161093
ag145
ag145
aF0.06130656675816226
aF0.03592424002795269
aF0.07091253768317074
aF0.0028486281507866806
aF0.015808594091026862
aF0.00400486318142157
aF0.04425845022876729
aF0.0008160093229889753
aF0.0008560420304775107
aF0.0007992325886334584
aF0.0005140704806763097
aF0.0004058687928818472
aF0.0012167974671228876
ag145
ag145
aF0.06001807115478641
aF0.03494220710194895
aF0.06997237249402133
aF0.0033385300184818334
aF0.01583750680003959
aF0.003970977777157714
aF0.04454085589088663
aF0.0008293215951198363
aF0.0008274609134559796
aF0.00080177551444649
aF0.000487281458617872
aF0.0004111334934577826
aF0.0011492019109482499
ag145
ag145
atp215
ba(lp216
g15
(g16
(dp217
g18
g19
(g20
(I0
tp218
g22
tp219
Rp220
(I1
(I1
tp221
g29
I00
(lp222
g43
atp223
bsg66
Nstp224
Rp225
ag15
(g16
(dp226
g18
g19
(g20
(I0
tp227
g22
tp228
Rp229
(I1
(I31
tp230
g29
I00
(lp231
g33
ag34
ag35
ag36
ag37
ag38
ag39
ag40
ag41
ag42
ag44
ag45
ag46
ag47
ag48
ag49
ag50
ag51
ag52
ag53
ag54
ag55
ag56
ag57
ag58
ag59
ag60
ag61
ag62
ag63
ag64
atp232
bsg66
Nstp233
Rp234
a(dp235
S'0.14.1'
p236
(dp237
S'axes'
p238
g14
sS'blocks'
p239
(lp240
(dp241
S'mgr_locs'
p242
c__builtin__
slice
p243
(I10
I11
I1
tp244
Rp245
sS'values'
p246
g87
sa(dp247
g242
g19
(g20
(I0
tp248
g22
tp249
Rp250
(I1
(I31
tp251
g77
I00
S'\x00\x00\x00\x00\x00\x00\x00\x00\x01\x00\x00\x00\x00\x00\x00\x00\x02\x00\x00\x00\x00\x00\x00\x00\x03\x00\x00\x00\x00\x00\x00\x00\x04\x00\x00\x00\x00\x00\x00\x00\x05\x00\x00\x00\x00\x00\x00\x00\x06\x00\x00\x00\x00\x00\x00\x00\x07\x00\x00\x00\x00\x00\x00\x00\x08\x00\x00\x00\x00\x00\x00\x00\t\x00\x00\x00\x00\x00\x00\x00\x0b\x00\x00\x00\x00\x00\x00\x00\x0c\x00\x00\x00\x00\x00\x00\x00\r\x00\x00\x00\x00\x00\x00\x00\x0e\x00\x00\x00\x00\x00\x00\x00\x0f\x00\x00\x00\x00\x00\x00\x00\x10\x00\x00\x00\x00\x00\x00\x00\x11\x00\x00\x00\x00\x00\x00\x00\x12\x00\x00\x00\x00\x00\x00\x00\x13\x00\x00\x00\x00\x00\x00\x00\x14\x00\x00\x00\x00\x00\x00\x00\x15\x00\x00\x00\x00\x00\x00\x00\x16\x00\x00\x00\x00\x00\x00\x00\x17\x00\x00\x00\x00\x00\x00\x00\x18\x00\x00\x00\x00\x00\x00\x00\x19\x00\x00\x00\x00\x00\x00\x00\x1a\x00\x00\x00\x00\x00\x00\x00\x1b\x00\x00\x00\x00\x00\x00\x00\x1c\x00\x00\x00\x00\x00\x00\x00\x1d\x00\x00\x00\x00\x00\x00\x00\x1e\x00\x00\x00\x00\x00\x00\x00\x1f\x00\x00\x00\x00\x00\x00\x00'
p252
tp253
bsg246
g98
sasstp254
bsb.