ccopy_reg
_reconstructor
p0
(cpandas.core.frame
DataFrame
p1
c__builtin__
object
p2
Ntp3
Rp4
(dp5
S'_metadata'
p6
(lp7
sS'_typ'
p8
S'dataframe'
p9
sS'_data'
p10
g0
(cpandas.core.internals
BlockManager
p11
g2
Ntp12
Rp13
((lp14
cpandas.core.indexes.base
_new_Index
p15
(cpandas.core.indexes.base
Index
p16
(dp17
S'data'
p18
cnumpy.core.multiarray
_reconstruct
p19
(cnumpy
ndarray
p20
(I0
tp21
S'b'
p22
tp23
Rp24
(I1
(I34
tp25
cnumpy
dtype
p26
(S'O8'
p27
I0
I1
tp28
Rp29
(I3
S'|'
p30
NNNI-1
I-1
I63
tp31
bI00
(lp32
S'year'
p33
aS'type'
p34
aS'procOriginal'
p35
aS'proc'
p36
aS'proc_s0'
p37
aS'cat'
p38
aS'inputWSFile'
p39
aS'nominalDataName'
p40
aS'modelWSFile'
p41
aS'model'
p42
aS'rate'
p43
aS'nominal_yield'
p44
aS'sumw2'
p45
aS'nominal_yield_COWCorr'
p46
aS'LooseMvaSF_up_yield'
p47
aS'LooseMvaSF_down_yield'
p48
aS'PreselSF_up_yield'
p49
aS'PreselSF_down_yield'
p50
aS'electronVetoSF_up_yield'
p51
aS'electronVetoSF_down_yield'
p52
aS'TriggerWeight_up_yield'
p53
aS'TriggerWeight_down_yield'
p54
aS'SigmaEOverEShift_up_yield'
p55
aS'SigmaEOverEShift_down_yield'
p56
aS'MvaShift_up_yield'
p57
aS'MvaShift_down_yield'
p58
aS'PUJIDShift_up_yield'
p59
aS'PUJIDShift_down_yield'
p60
aS'JEC_up_yield'
p61
aS'JEC_down_yield'
p62
aS'JER_up_yield'
p63
aS'JER_down_yield'
p64
aS'JetHEM_up_yield'
p65
aS'JetHEM_down_yield'
p66
atp67
bsS'name'
p68
Nstp69
Rp70
ag15
(cpandas.core.indexes.numeric
Int64Index
p71
(dp72
g18
g19
(g20
(I0
tp73
g22
tp74
Rp75
(I1
(I15
tp76
g26
(S'i8'
p77
I0
I1
tp78
Rp79
(I3
S'<'
p80
NNNI-1
I-1
I0
tp81
bI00
S'\x00\x00\x00\x00\x00\x00\x00\x00\x01\x00\x00\x00\x00\x00\x00\x00\x02\x00\x00\x00\x00\x00\x00\x00\x03\x00\x00\x00\x00\x00\x00\x00\x04\x00\x00\x00\x00\x00\x00\x00\x05\x00\x00\x00\x00\x00\x00\x00\x06\x00\x00\x00\x00\x00\x00\x00\x07\x00\x00\x00\x00\x00\x00\x00\x08\x00\x00\x00\x00\x00\x00\x00\t\x00\x00\x00\x00\x00\x00\x00\n\x00\x00\x00\x00\x00\x00\x00\x0b\x00\x00\x00\x00\x00\x00\x00\x0c\x00\x00\x00\x00\x00\x00\x00\r\x00\x00\x00\x00\x00\x00\x00\x0e\x00\x00\x00\x00\x00\x00\x00'
p82
tp83
bsg68
Nstp84
Rp85
a(lp86
g19
(g20
(I0
tp87
g22
tp88
Rp89
(I1
(I1
I15
tp90
g26
(S'f8'
p91
I0
I1
tp92
Rp93
(I3
S'<'
p94
NNNI-1
I-1
I0
tp95
bI00
S'\x00\x00\x00\x00\x80j\xd0@\x00\x00\x00\x00\x80j\xd0@\x00\x00\x00\x00\x80j\xd0@\x00\x00\x00\x00\x80j\xd0@\x00\x00\x00\x00\x80j\xd0@\x00\x00\x00\x00\x80j\xd0@\x00\x00\x00\x00\x80j\xd0@\x00\x00\x00\x00\x80j\xd0@\x00\x00\x00\x00\x80j\xd0@\x00\x00\x00\x00\x80j\xd0@\x00\x00\x00\x00\x80j\xd0@\x00\x00\x00\x00\x80j\xd0@\x00\x00\x00\x00\x80j\xd0@\x00\x00\x00\x00\x00\x00\xf0?\x00\x00\x00\x00\x00\x00\xf0\xbf'
p96
tp97
bag19
(g20
(I0
tp98
g22
tp99
Rp100
(I1
(I33
I15
tp101
g29
I00
(lp102
S'2016postVFP'
p103
ag103
ag103
ag103
ag103
ag103
ag103
ag103
ag103
ag103
ag103
ag103
ag103
ag33
ag33
aS'sig'
p104
ag104
ag104
ag104
ag104
ag104
ag104
ag104
ag104
ag104
ag104
ag104
ag104
aS'bkg'
p105
ag18
aS'GG2HMf05ph0'
p106
aS'GG2HbsmM'
p107
aS'GG2Hsm'
p108
aS'TTHsm'
p109
aS'VBFMf05ph0'
p110
aS'VBFbsmM'
p111
aS'VBFsm'
p112
aS'WHMf05ph0'
p113
aS'WHbsmM'
p114
aS'WHsm'
p115
aS'ZHMf05ph0'
p116
aS'ZHbsmM'
p117
aS'ZHsm'
p118
aS'bkg_mass'
p119
aS'data_obs'
p120
aS'GG2HMf05ph0_2016postVFP_hgg'
p121
aS'GG2HbsmM_2016postVFP_hgg'
p122
aS'GG2Hsm_2016postVFP_hgg'
p123
aS'tth0P_2016postVFP_hgg'
p124
aS'vbf0Mf05ph0_2016postVFP_hgg'
p125
aS'vbf0M_2016postVFP_hgg'
p126
aS'vbf0P_2016postVFP_hgg'
p127
aS'wh0Mf05ph0_2016postVFP_hgg'
p128
aS'wh0M_2016postVFP_hgg'
p129
aS'wh0P_2016postVFP_hgg'
p130
aS'zh0Mf05ph0_2016postVFP_hgg'
p131
aS'zh0M_2016postVFP_hgg'
p132
aS'zh0P_2016postVFP_hgg'
p133
ag119
ag120
aS'jjh0Mf05ph0'
p134
aS'jjh0M'
p135
aS'jjh0P'
p136
aS'tth0P'
p137
aS'vbf0Mf05ph0'
p138
aS'vbf0M'
p139
aS'vbf0P'
p140
aS'wh0Mf05ph0'
p141
aS'wh0M'
p142
aS'wh0P'
p143
aS'zh0Mf05ph0'
p144
aS'zh0M'
p145
aS'zh0P'
p146
aS'-'
p147
ag147
aS'AC_Bin1_2016postVFP'
p148
aS'AC_Bin1_2016postVFP'
p149
aS'AC_Bin1_2016postVFP'
p150
aS'AC_Bin1_2016postVFP'
p151
aS'AC_Bin1_2016postVFP'
p152
aS'AC_Bin1_2016postVFP'
p153
aS'AC_Bin1_2016postVFP'
p154
aS'AC_Bin1_2016postVFP'
p155
aS'AC_Bin1_2016postVFP'
p156
aS'AC_Bin1_2016postVFP'
p157
aS'AC_Bin1_2016postVFP'
p158
aS'AC_Bin1_2016postVFP'
p159
aS'AC_Bin1_2016postVFP'
p160
aS'AC_Bin1_2016postVFP'
p161
ag161
aS'Trees/Opt_2016postVFP/2016PostVFP/Trees2WS_2016postVFP/WS/output_GluGluHToGGPlusTwoJets_MM_M125_TuneCP5_13TeV-amcatnlopowheg-minlo-pythia8_GG2HMf05ph0.root'
p162
aS'Trees/Opt_2016postVFP/2016PostVFP/Trees2WS_2016postVFP/WS/output_GluGluHToGGPlusTwoJets_CPodd_M125_TuneCP5_13TeV-amcatnlopowheg-minlo-pythia8_GG2HbsmM.root'
p163
aS'Trees/Opt_2016postVFP/2016PostVFP/Trees2WS_2016postVFP/WS/output_GluGluHToGGPlusTwoJets_SM_M125_TuneCP5_13TeV-amcatnlopowheg-minlo-pythia8_GG2Hsm.root'
p164
aS'Trees/Opt_2016postVFP/2016PostVFP/Trees2WS_2016postVFP/WS/output_ttHJetToGG_M125_TuneCP5_13TeV-amcatnloFXFX-madspin-pythia8_TTHsm.root'
p165
aS'Trees/Opt_2016postVFP/2016PostVFP/Trees2WS_2016postVFP/WS/output_VBFHiggs0Mf05ph0ToGG_M125_TuneCP5_13TeV-JHUGenV7011-pythia8_VBFMf05ph0.root'
p166
aS'Trees/Opt_2016postVFP/2016PostVFP/Trees2WS_2016postVFP/WS/output_VBFHiggs0MToGG_M125_TuneCP5_13TeV-JHUGenV7011-pythia8_VBFbsmM.root'
p167
aS'Trees/Opt_2016postVFP/2016PostVFP/Trees2WS_2016postVFP/WS/output_VBFHToGG_M125_TuneCP5_13TeV-amcatnlo-pythia8_VBFsm.root'
p168
aS'Trees/Opt_2016postVFP/2016PostVFP/Trees2WS_2016postVFP/WS/output_WHiggs0Mf05ph0ToGG_M125_TuneCP5_13TeV-JHUGenV7011-pythia8_WHMf05ph0.root'
p169
aS'Trees/Opt_2016postVFP/2016PostVFP/Trees2WS_2016postVFP/WS/output_WHiggs0MToGG_M125_TuneCP5_13TeV-JHUGenV7011-pythia8_WHbsmM.root'
p170
aS'Trees/Opt_2016postVFP/2016PostVFP/Trees2WS_2016postVFP/WS/output_WHiggs0PMToGG_M125_TuneCP5_13TeV-JHUGenV7011-pythia8_WHsm.root'
p171
aS'Trees/Opt_2016postVFP/2016PostVFP/Trees2WS_2016postVFP/WS/output_ZHiggs0Mf05ph0ToGG_M125_TuneCP5_13TeV-JHUGenV7011-pythia8_ZHMf05ph0.root'
p172
aS'Trees/Opt_2016postVFP/2016PostVFP/Trees2WS_2016postVFP/WS/output_ZHiggs0MToGG_M125_TuneCP5_13TeV-JHUGenV7011-pythia8_ZHbsmM.root'
p173
aS'Trees/Opt_2016postVFP/2016PostVFP/Trees2WS_2016postVFP/WS/output_ZH_HToGG_ZToAll_M125_TuneCP5_13TeV-powheg-pythia8_ZHsm.root'
p174
ag147
ag147
aS'jjh0Mf05ph0_125_13TeV_AC_Bin1'
p175
aS'jjh0M_125_13TeV_AC_Bin1'
p176
aS'jjh0P_125_13TeV_AC_Bin1'
p177
aS'tth0P_125_13TeV_AC_Bin1'
p178
aS'vbf0Mf05ph0_125_13TeV_AC_Bin1'
p179
aS'vbf0M_125_13TeV_AC_Bin1'
p180
aS'vbf0P_125_13TeV_AC_Bin1'
p181
aS'wh0Mf05ph0_125_13TeV_AC_Bin1'
p182
aS'wh0M_125_13TeV_AC_Bin1'
p183
aS'wh0P_125_13TeV_AC_Bin1'
p184
aS'zh0Mf05ph0_125_13TeV_AC_Bin1'
p185
aS'zh0M_125_13TeV_AC_Bin1'
p186
aS'zh0P_125_13TeV_AC_Bin1'
p187
ag147
ag147
aS'./Models/signal/CMS-HGG_sigfit_packaged_AC_Bin1_2016postVFP.root'
p188
aS'./Models/signal/CMS-HGG_sigfit_packaged_AC_Bin1_2016postVFP.root'
p189
aS'./Models/signal/CMS-HGG_sigfit_packaged_AC_Bin1_2016postVFP.root'
p190
aS'./Models/signal/CMS-HGG_sigfit_packaged_AC_Bin1_2016postVFP.root'
p191
aS'./Models/signal/CMS-HGG_sigfit_packaged_AC_Bin1_2016postVFP.root'
p192
aS'./Models/signal/CMS-HGG_sigfit_packaged_AC_Bin1_2016postVFP.root'
p193
aS'./Models/signal/CMS-HGG_sigfit_packaged_AC_Bin1_2016postVFP.root'
p194
aS'./Models/signal/CMS-HGG_sigfit_packaged_AC_Bin1_2016postVFP.root'
p195
aS'./Models/signal/CMS-HGG_sigfit_packaged_AC_Bin1_2016postVFP.root'
p196
aS'./Models/signal/CMS-HGG_sigfit_packaged_AC_Bin1_2016postVFP.root'
p197
aS'./Models/signal/CMS-HGG_sigfit_packaged_AC_Bin1_2016postVFP.root'
p198
aS'./Models/signal/CMS-HGG_sigfit_packaged_AC_Bin1_2016postVFP.root'
p199
aS'./Models/signal/CMS-HGG_sigfit_packaged_AC_Bin1_2016postVFP.root'
p200
aS'./Models/background/CMS-HGG_multipdf_AC_Bin1_2016postVFP.root'
p201
ag201
aS'wsig_13TeV:hggpdfsmrel_GG2HMf05ph0_2016postVFP_AC_Bin1_13TeV'
p202
aS'wsig_13TeV:hggpdfsmrel_GG2HbsmM_2016postVFP_AC_Bin1_13TeV'
p203
aS'wsig_13TeV:hggpdfsmrel_GG2Hsm_2016postVFP_AC_Bin1_13TeV'
p204
aS'wsig_13TeV:hggpdfsmrel_TTHsm_2016postVFP_AC_Bin1_13TeV'
p205
aS'wsig_13TeV:hggpdfsmrel_VBFMf05ph0_2016postVFP_AC_Bin1_13TeV'
p206
aS'wsig_13TeV:hggpdfsmrel_VBFbsmM_2016postVFP_AC_Bin1_13TeV'
p207
aS'wsig_13TeV:hggpdfsmrel_VBFsm_2016postVFP_AC_Bin1_13TeV'
p208
aS'wsig_13TeV:hggpdfsmrel_WHMf05ph0_2016postVFP_AC_Bin1_13TeV'
p209
aS'wsig_13TeV:hggpdfsmrel_WHbsmM_2016postVFP_AC_Bin1_13TeV'
p210
aS'wsig_13TeV:hggpdfsmrel_WHsm_2016postVFP_AC_Bin1_13TeV'
p211
aS'wsig_13TeV:hggpdfsmrel_ZHMf05ph0_2016postVFP_AC_Bin1_13TeV'
p212
aS'wsig_13TeV:hggpdfsmrel_ZHbsmM_2016postVFP_AC_Bin1_13TeV'
p213
aS'wsig_13TeV:hggpdfsmrel_ZHsm_2016postVFP_AC_Bin1_13TeV'
p214
aS'multipdf:CMS_hgg_AC_Bin1_2016postVFP_13TeV_bkgshape'
p215
aS'multipdf:roohist_data_mass_AC_Bin1'
p216
aF0.028602705580624388
aF0.03769459522845864
aF0.028507386267392576
aF0.0008149459135893267
aF0.005610666230722927
aF0.0030959380010244786
aF0.016124988849583133
aF0.00013240687121651717
aF0.00015445683925463527
aF0.0010561739633203615
aF0.0005051420400832285
aF0.00032715417194140173
aF0.0008189965565179591
ag147
ag147
aF6.587348381161676e-07
aF8.819031303991136e-07
aF6.330714392227601e-07
aF1.342810475584333e-07
aF8.870654160792914e-08
aF3.537369071502795e-08
aF7.854892811758865e-07
aF2.296065674386109e-09
aF1.6827714601558856e-09
aF1.087872635480381e-08
aF3.4772617677772522e-09
aF2.3106845844793094e-09
aF1.3817412923438455e-08
ag147
ag147
aF0.029493650186856516
aF0.03886511568998981
aF0.029386450630339095
aF0.0008318260623301516
aF0.005758953955198197
aF0.003202450593051979
aF0.016481751162870054
aF0.00013504864298071427
aF0.0001623365421204323
aF0.0010815758998492181
aF0.0005144051369462811
aF0.00033337758325620596
aF0.0008444007218348336
ag147
ag147
aF0.028795316841166103
aF0.0379505086448616
aF0.02869927067197281
aF0.0008209928830757757
aF0.005647578322620014
aF0.0031162617870087654
aF0.016231755282883596
aF0.00013330911959928425
aF0.00015549294615631245
aF0.0010628720934012148
aF0.000508495677778536
aF0.0003292641267643358
aF0.0008245528178340769
ag147
ag147
aF0.028410742220796214
aF0.03743954836854915
aF0.02831614617811731
aF0.000808921257315821
aF0.005573875636876732
aF0.003075680735715771
aF0.016018576235134432
aF0.00013150766526207988
aF0.00015342412812722526
aF0.001049497471282322
aF0.0005017995254697831
aF0.00032505101701188574
aF0.0008134590203544098
ag147
ag147
aF0.029012509483824347
aF0.03823789594610628
aF0.028914233644801928
aF0.0008255877445375594
aF0.005696744622803069
aF0.003143130877825342
aF0.016363318797985762
aF0.0001341615437700015
aF0.00015680193011879257
aF0.0010698596370153437
aF0.0005120542945565882
aF0.0003319233022331928
aF0.0008320457011800223
ag147
ag147
aF0.02819572278559804
aF0.037154983388966716
aF0.02810311937060089
aF0.0008044517313219707
aF0.005525183650649349
aF0.003049048058552819
aF0.015888317333984305
aF0.00013066186018065578
aF0.00015212531199300234
aF0.0010425991961376937
aF0.0004982857931913653
aF0.00032241411588968444
aF0.000806043694566198
ag147
ag147
aF0.02866529498131501
aF0.037774162474833714
aF0.02856830947187782
aF0.0008160898252419487
aF0.005623779681612016
aF0.0031036635634283717
aF0.016162217630336977
aF0.00013264977003823696
aF0.0001548005793089386
aF0.0010586071785289321
aF0.0005062762248647655
aF0.000327899599473318
aF0.0008208666489319918
ag147
ag147
aF0.028540180707644153
aF0.03761510758018334
aF0.028446523974851333
aF0.0008138029888078815
aF0.005597566100345701
aF0.0030882210892500383
aF0.016087800268347593
aF0.00013216414989927197
aF0.00015411335736483935
aF0.0010537437582064698
aF0.0005040091582313166
aF0.0003264095146361394
aF0.0008171281547527976
ag147
ag147
aF0.02866571633158721
aF0.03778160051583739
aF0.028572496614896494
aF0.0008166459340501339
aF0.005622598226250757
aF0.0031035108351209636
aF0.01615741607912139
aF0.0001326791262413943
aF0.0001549459119204758
aF0.0010584682468870305
aF0.0005062004753142211
aF0.0003278288093025907
aF0.0008208145440900858
ag147
ag147
aF0.02853976432257984
aF0.037607692751804075
aF0.028442356684818718
aF0.0008132477219707007
aF0.005598746884389387
aF0.00308837412979372
aF0.016092592491971345
aF0.00013213489376061592
aF0.00015396843624288013
aF0.0010538821804935876
aF0.0005040847125684483
aF0.00032648023399680216
aF0.0008171805872718206
ag147
ag147
aF0.029703990259122293
aF0.03894346350807609
aF0.029084098416433335
aF0.0009834844931901898
aF0.005808120744404732
aF0.0034058973683386284
aF0.0181536093533623
aF0.0009116213084325864
aF0.00034958135597662476
aF0.0011263187735721658
aF0.0005465722160806763
aF0.0003624897268537097
aF0.0008235474824687117
ag147
ag147
aF0.027310547149227204
aF0.036162628089414284
aF0.027335226321611117
aF0.0005930109109613113
aF0.005327096824885302
aF0.002935914306817722
aF0.015652986000418423
aF0.0007809917385657172
aF0.0003486875891667296
aF0.0009954745679578991
aF0.0004812444052504361
aF0.00030884486625382124
aF0.0007759269058169593
ag147
ag147
aF0.029304505868367414
aF0.03800054033672495
aF0.029152557720408367
aF0.0009686344892543275
aF0.005497305584640344
aF0.0029769420348202402
aF0.01294590613008495
aF0.0008380066708468803
aF0.00034930893662021845
aF0.0010307738622259421
aF0.0004918838428693562
aF0.00034622669056716404
aF0.0009405864711879985
ag147
ag147
aF0.028232488053390625
aF0.03687646639491504
aF0.028257912079880043
aF0.0006737306393915787
aF0.005895339353742202
aF0.003080817863519769
aF0.013219216029256131
aF0.000793547447756282
aF0.0003594035747482849
aF0.0010357375026615045
aF0.000528035198044563
aF0.0003287521095671764
aF0.0008854275538396905
ag147
ag147
aF0.02900639776510161
aF0.03846106250603043
aF0.029058885912945698
aF0.0008149459135893267
aF0.0056903126776433055
aF0.0030959380010244786
aF0.016520815191370275
aF0.0008473838267946121
aF0.00033630183293098526
aF0.0010812179167487557
aF0.0005051420400832285
aF0.00032715417194140173
aF0.0008189965565179591
ag147
ag147
aF0.028239389522923375
aF0.03718705738310746
aF0.028244268155958707
aF0.0008149459135893267
aF0.0055529094295252435
aF0.00308552957358188
aF0.008618726880968097
aF0.0008332310742389382
aF0.0003212340727714036
aF0.0010484742002745406
aF0.0005051420400832285
aF0.00032715417194140173
aF0.0007874246812207275
ag147
ag147
aF0.0312155982448985
aF0.03947284388118533
aF0.03024408979490545
aF0.0007949531336635118
aF0.005350512339759916
aF0.0029530837678066746
aF0.008914530330571324
aF0.000857608884189176
aF0.00035525590169527277
aF0.0011426365043689657
aF0.0005136174696644957
aF0.0003311768990670316
aF0.0008832005005388055
ag147
ag147
aF0.026515263428109392
aF0.035223791250245995
aF0.026188771199258554
aF0.0008238584014179651
aF0.0052067725291635725
aF0.0031987982833925344
aF0.008494955360220047
aF0.0007743419071175595
aF0.00036008747838423005
aF0.0009502545829036535
aF0.0004232843329532443
aF0.00029186543736159365
aF0.000866114031964571
ag147
ag147
aF0.028994428231726488
aF0.03772008622627254
aF0.028830958928665495
aF0.0006822022369306069
aF0.005520766968174939
aF0.0031189581973194436
aF0.009002195069342633
aF0.0008603408466569817
aF0.00037438509730236547
aF0.0010980479075897165
aF0.00048479071290330467
aF0.000319178909535367
aF0.0008863416592248541
ag147
ag147
aF0.028397964017585764
aF0.037281914453160425
aF0.028297064500293345
aF0.0008883217269612942
aF0.005518473065194485
aF0.0030746535780963313
aF0.016466783314172062
aF0.0008004804301435797
aF0.00034786595347213733
aF0.0010651646613268895
aF0.0004866695320515646
aF0.0003226872414643367
aF0.0007816760335117579
ag147
ag147
aF0.028602705580624388
aF0.03769459522845864
aF0.028507386267392576
aF0.0008149459135893267
aF0.005610666230722927
aF0.0030959380010244786
aF0.016124988849583133
aF0.00013240687121651717
aF0.00015445683925463527
aF0.0010561739633203615
aF0.0005051420400832285
aF0.00032715417194140173
aF0.0008189965565179591
ag147
ag147
aF0.028602705580624388
aF0.03769459522845864
aF0.028507386267392576
aF0.0008149459135893267
aF0.005610666230722927
aF0.0030959380010244786
aF0.016124988849583133
aF0.00013240687121651717
aF0.00015445683925463527
aF0.0010561739633203615
aF0.0005051420400832285
aF0.00032715417194140173
aF0.0008189965565179591
ag147
ag147
atp217
ba(lp218
g15
(g16
(dp219
g18
g19
(g20
(I0
tp220
g22
tp221
Rp222
(I1
(I1
tp223
g29
I00
(lp224
g43
atp225
bsg68
Nstp226
Rp227
ag15
(g16
(dp228
g18
g19
(g20
(I0
tp229
g22
tp230
Rp231
(I1
(I33
tp232
g29
I00
(lp233
g33
ag34
ag35
ag36
ag37
ag38
ag39
ag40
ag41
ag42
ag44
ag45
ag46
ag47
ag48
ag49
ag50
ag51
ag52
ag53
ag54
ag55
ag56
ag57
ag58
ag59
ag60
ag61
ag62
ag63
ag64
ag65
ag66
atp234
bsg68
Nstp235
Rp236
a(dp237
S'0.14.1'
p238
(dp239
S'axes'
p240
g14
sS'blocks'
p241
(lp242
(dp243
S'mgr_locs'
p244
c__builtin__
slice
p245
(I10
I11
I1
tp246
Rp247
sS'values'
p248
g89
sa(dp249
g244
g19
(g20
(I0
tp250
g22
tp251
Rp252
(I1
(I33
tp253
g79
I00
S'\x00\x00\x00\x00\x00\x00\x00\x00\x01\x00\x00\x00\x00\x00\x00\x00\x02\x00\x00\x00\x00\x00\x00\x00\x03\x00\x00\x00\x00\x00\x00\x00\x04\x00\x00\x00\x00\x00\x00\x00\x05\x00\x00\x00\x00\x00\x00\x00\x06\x00\x00\x00\x00\x00\x00\x00\x07\x00\x00\x00\x00\x00\x00\x00\x08\x00\x00\x00\x00\x00\x00\x00\t\x00\x00\x00\x00\x00\x00\x00\x0b\x00\x00\x00\x00\x00\x00\x00\x0c\x00\x00\x00\x00\x00\x00\x00\r\x00\x00\x00\x00\x00\x00\x00\x0e\x00\x00\x00\x00\x00\x00\x00\x0f\x00\x00\x00\x00\x00\x00\x00\x10\x00\x00\x00\x00\x00\x00\x00\x11\x00\x00\x00\x00\x00\x00\x00\x12\x00\x00\x00\x00\x00\x00\x00\x13\x00\x00\x00\x00\x00\x00\x00\x14\x00\x00\x00\x00\x00\x00\x00\x15\x00\x00\x00\x00\x00\x00\x00\x16\x00\x00\x00\x00\x00\x00\x00\x17\x00\x00\x00\x00\x00\x00\x00\x18\x00\x00\x00\x00\x00\x00\x00\x19\x00\x00\x00\x00\x00\x00\x00\x1a\x00\x00\x00\x00\x00\x00\x00\x1b\x00\x00\x00\x00\x00\x00\x00\x1c\x00\x00\x00\x00\x00\x00\x00\x1d\x00\x00\x00\x00\x00\x00\x00\x1e\x00\x00\x00\x00\x00\x00\x00\x1f\x00\x00\x00\x00\x00\x00\x00 \x00\x00\x00\x00\x00\x00\x00!\x00\x00\x00\x00\x00\x00\x00'
p254
tp255
bsg248
g100
sasstp256
bsb.