ccopy_reg
_reconstructor
p0
(cpandas.core.frame
DataFrame
p1
c__builtin__
object
p2
Ntp3
Rp4
(dp5
S'_metadata'
p6
(lp7
sS'_typ'
p8
S'dataframe'
p9
sS'_data'
p10
g0
(cpandas.core.internals
BlockManager
p11
g2
Ntp12
Rp13
((lp14
cpandas.core.indexes.base
_new_Index
p15
(cpandas.core.indexes.base
Index
p16
(dp17
S'data'
p18
cnumpy.core.multiarray
_reconstruct
p19
(cnumpy
ndarray
p20
(I0
tp21
S'b'
p22
tp23
Rp24
(I1
(I32
tp25
cnumpy
dtype
p26
(S'O8'
p27
I0
I1
tp28
Rp29
(I3
S'|'
p30
NNNI-1
I-1
I63
tp31
bI00
(lp32
S'year'
p33
aS'type'
p34
aS'procOriginal'
p35
aS'proc'
p36
aS'proc_s0'
p37
aS'cat'
p38
aS'inputWSFile'
p39
aS'nominalDataName'
p40
aS'modelWSFile'
p41
aS'model'
p42
aS'rate'
p43
aS'nominal_yield'
p44
aS'sumw2'
p45
aS'nominal_yield_COWCorr'
p46
aS'LooseMvaSF_up_yield'
p47
aS'LooseMvaSF_down_yield'
p48
aS'PreselSF_up_yield'
p49
aS'PreselSF_down_yield'
p50
aS'electronVetoSF_up_yield'
p51
aS'electronVetoSF_down_yield'
p52
aS'TriggerWeight_up_yield'
p53
aS'TriggerWeight_down_yield'
p54
aS'SigmaEOverEShift_up_yield'
p55
aS'SigmaEOverEShift_down_yield'
p56
aS'MvaShift_up_yield'
p57
aS'MvaShift_down_yield'
p58
aS'PUJIDShift_up_yield'
p59
aS'PUJIDShift_down_yield'
p60
aS'JEC_up_yield'
p61
aS'JEC_down_yield'
p62
aS'JER_up_yield'
p63
aS'JER_down_yield'
p64
atp65
bsS'name'
p66
Nstp67
Rp68
ag15
(cpandas.core.indexes.numeric
Int64Index
p69
(dp70
g18
g19
(g20
(I0
tp71
g22
tp72
Rp73
(I1
(I15
tp74
g26
(S'i8'
p75
I0
I1
tp76
Rp77
(I3
S'<'
p78
NNNI-1
I-1
I0
tp79
bI00
S'\x00\x00\x00\x00\x00\x00\x00\x00\x01\x00\x00\x00\x00\x00\x00\x00\x02\x00\x00\x00\x00\x00\x00\x00\x03\x00\x00\x00\x00\x00\x00\x00\x04\x00\x00\x00\x00\x00\x00\x00\x05\x00\x00\x00\x00\x00\x00\x00\x06\x00\x00\x00\x00\x00\x00\x00\x07\x00\x00\x00\x00\x00\x00\x00\x08\x00\x00\x00\x00\x00\x00\x00\t\x00\x00\x00\x00\x00\x00\x00\n\x00\x00\x00\x00\x00\x00\x00\x0b\x00\x00\x00\x00\x00\x00\x00\x0c\x00\x00\x00\x00\x00\x00\x00\r\x00\x00\x00\x00\x00\x00\x00\x0e\x00\x00\x00\x00\x00\x00\x00'
p80
tp81
bsg66
Nstp82
Rp83
a(lp84
g19
(g20
(I0
tp85
g22
tp86
Rp87
(I1
(I1
I15
tp88
g26
(S'f8'
p89
I0
I1
tp90
Rp91
(I3
S'<'
p92
NNNI-1
I-1
I0
tp93
bI00
S'\x00\x00\x00\x00\x80j\xd0@\x00\x00\x00\x00\x80j\xd0@\x00\x00\x00\x00\x80j\xd0@\x00\x00\x00\x00\x80j\xd0@\x00\x00\x00\x00\x80j\xd0@\x00\x00\x00\x00\x80j\xd0@\x00\x00\x00\x00\x80j\xd0@\x00\x00\x00\x00\x80j\xd0@\x00\x00\x00\x00\x80j\xd0@\x00\x00\x00\x00\x80j\xd0@\x00\x00\x00\x00\x80j\xd0@\x00\x00\x00\x00\x80j\xd0@\x00\x00\x00\x00\x80j\xd0@\x00\x00\x00\x00\x00\x00\xf0?\x00\x00\x00\x00\x00\x00\xf0\xbf'
p94
tp95
bag19
(g20
(I0
tp96
g22
tp97
Rp98
(I1
(I31
I15
tp99
g29
I00
(lp100
S'2016postVFP'
p101
ag101
ag101
ag101
ag101
ag101
ag101
ag101
ag101
ag101
ag101
ag101
ag101
ag33
ag33
aS'sig'
p102
ag102
ag102
ag102
ag102
ag102
ag102
ag102
ag102
ag102
ag102
ag102
ag102
aS'bkg'
p103
ag18
aS'GG2HMf05ph0'
p104
aS'GG2HbsmM'
p105
aS'GG2Hsm'
p106
aS'TTHsm'
p107
aS'VBFMf05ph0'
p108
aS'VBFbsmM'
p109
aS'VBFsm'
p110
aS'WHMf05ph0'
p111
aS'WHbsmM'
p112
aS'WHsm'
p113
aS'ZHMf05ph0'
p114
aS'ZHbsmM'
p115
aS'ZHsm'
p116
aS'bkg_mass'
p117
aS'data_obs'
p118
aS'GG2HMf05ph0_2016postVFP_hgg'
p119
aS'GG2HbsmM_2016postVFP_hgg'
p120
aS'GG2Hsm_2016postVFP_hgg'
p121
aS'tth0P_2016postVFP_hgg'
p122
aS'vbf0Mf05ph0_2016postVFP_hgg'
p123
aS'vbf0M_2016postVFP_hgg'
p124
aS'vbf0P_2016postVFP_hgg'
p125
aS'wh0Mf05ph0_2016postVFP_hgg'
p126
aS'wh0M_2016postVFP_hgg'
p127
aS'wh0P_2016postVFP_hgg'
p128
aS'zh0Mf05ph0_2016postVFP_hgg'
p129
aS'zh0M_2016postVFP_hgg'
p130
aS'zh0P_2016postVFP_hgg'
p131
ag117
ag118
aS'jjh0Mf05ph0'
p132
aS'jjh0M'
p133
aS'jjh0P'
p134
aS'tth0P'
p135
aS'vbf0Mf05ph0'
p136
aS'vbf0M'
p137
aS'vbf0P'
p138
aS'wh0Mf05ph0'
p139
aS'wh0M'
p140
aS'wh0P'
p141
aS'zh0Mf05ph0'
p142
aS'zh0M'
p143
aS'zh0P'
p144
aS'-'
p145
ag145
aS'AC_Bin0_2016postVFP'
p146
aS'AC_Bin0_2016postVFP'
p147
aS'AC_Bin0_2016postVFP'
p148
aS'AC_Bin0_2016postVFP'
p149
aS'AC_Bin0_2016postVFP'
p150
aS'AC_Bin0_2016postVFP'
p151
aS'AC_Bin0_2016postVFP'
p152
aS'AC_Bin0_2016postVFP'
p153
aS'AC_Bin0_2016postVFP'
p154
aS'AC_Bin0_2016postVFP'
p155
aS'AC_Bin0_2016postVFP'
p156
aS'AC_Bin0_2016postVFP'
p157
aS'AC_Bin0_2016postVFP'
p158
aS'AC_Bin0_2016postVFP'
p159
ag159
aS'Trees/Opt_2016postVFP/2016PostVFP/Trees2WS_2016postVFP/WS/output_GluGluHToGGPlusTwoJets_MM_M125_TuneCP5_13TeV-amcatnlopowheg-minlo-pythia8_GG2HMf05ph0.root'
p160
aS'Trees/Opt_2016postVFP/2016PostVFP/Trees2WS_2016postVFP/WS/output_GluGluHToGGPlusTwoJets_CPodd_M125_TuneCP5_13TeV-amcatnlopowheg-minlo-pythia8_GG2HbsmM.root'
p161
aS'Trees/Opt_2016postVFP/2016PostVFP/Trees2WS_2016postVFP/WS/output_GluGluHToGGPlusTwoJets_SM_M125_TuneCP5_13TeV-amcatnlopowheg-minlo-pythia8_GG2Hsm.root'
p162
aS'Trees/Opt_2016postVFP/2016PostVFP/Trees2WS_2016postVFP/WS/output_ttHJetToGG_M125_TuneCP5_13TeV-amcatnloFXFX-madspin-pythia8_TTHsm.root'
p163
aS'Trees/Opt_2016postVFP/2016PostVFP/Trees2WS_2016postVFP/WS/output_VBFHiggs0Mf05ph0ToGG_M125_TuneCP5_13TeV-JHUGenV7011-pythia8_VBFMf05ph0.root'
p164
aS'Trees/Opt_2016postVFP/2016PostVFP/Trees2WS_2016postVFP/WS/output_VBFHiggs0MToGG_M125_TuneCP5_13TeV-JHUGenV7011-pythia8_VBFbsmM.root'
p165
aS'Trees/Opt_2016postVFP/2016PostVFP/Trees2WS_2016postVFP/WS/output_VBFHToGG_M125_TuneCP5_13TeV-amcatnlo-pythia8_VBFsm.root'
p166
aS'Trees/Opt_2016postVFP/2016PostVFP/Trees2WS_2016postVFP/WS/output_WHiggs0Mf05ph0ToGG_M125_TuneCP5_13TeV-JHUGenV7011-pythia8_WHMf05ph0.root'
p167
aS'Trees/Opt_2016postVFP/2016PostVFP/Trees2WS_2016postVFP/WS/output_WHiggs0MToGG_M125_TuneCP5_13TeV-JHUGenV7011-pythia8_WHbsmM.root'
p168
aS'Trees/Opt_2016postVFP/2016PostVFP/Trees2WS_2016postVFP/WS/output_WHiggs0PMToGG_M125_TuneCP5_13TeV-JHUGenV7011-pythia8_WHsm.root'
p169
aS'Trees/Opt_2016postVFP/2016PostVFP/Trees2WS_2016postVFP/WS/output_ZHiggs0Mf05ph0ToGG_M125_TuneCP5_13TeV-JHUGenV7011-pythia8_ZHMf05ph0.root'
p170
aS'Trees/Opt_2016postVFP/2016PostVFP/Trees2WS_2016postVFP/WS/output_ZHiggs0MToGG_M125_TuneCP5_13TeV-JHUGenV7011-pythia8_ZHbsmM.root'
p171
aS'Trees/Opt_2016postVFP/2016PostVFP/Trees2WS_2016postVFP/WS/output_ZH_HToGG_ZToAll_M125_TuneCP5_13TeV-powheg-pythia8_ZHsm.root'
p172
ag145
ag145
aS'jjh0Mf05ph0_125_13TeV_AC_Bin0'
p173
aS'jjh0M_125_13TeV_AC_Bin0'
p174
aS'jjh0P_125_13TeV_AC_Bin0'
p175
aS'tth0P_125_13TeV_AC_Bin0'
p176
aS'vbf0Mf05ph0_125_13TeV_AC_Bin0'
p177
aS'vbf0M_125_13TeV_AC_Bin0'
p178
aS'vbf0P_125_13TeV_AC_Bin0'
p179
aS'wh0Mf05ph0_125_13TeV_AC_Bin0'
p180
aS'wh0M_125_13TeV_AC_Bin0'
p181
aS'wh0P_125_13TeV_AC_Bin0'
p182
aS'zh0Mf05ph0_125_13TeV_AC_Bin0'
p183
aS'zh0M_125_13TeV_AC_Bin0'
p184
aS'zh0P_125_13TeV_AC_Bin0'
p185
ag145
ag145
aS'./Models/signal/CMS-HGG_sigfit_packaged_AC_Bin0_2016postVFP.root'
p186
aS'./Models/signal/CMS-HGG_sigfit_packaged_AC_Bin0_2016postVFP.root'
p187
aS'./Models/signal/CMS-HGG_sigfit_packaged_AC_Bin0_2016postVFP.root'
p188
aS'./Models/signal/CMS-HGG_sigfit_packaged_AC_Bin0_2016postVFP.root'
p189
aS'./Models/signal/CMS-HGG_sigfit_packaged_AC_Bin0_2016postVFP.root'
p190
aS'./Models/signal/CMS-HGG_sigfit_packaged_AC_Bin0_2016postVFP.root'
p191
aS'./Models/signal/CMS-HGG_sigfit_packaged_AC_Bin0_2016postVFP.root'
p192
aS'./Models/signal/CMS-HGG_sigfit_packaged_AC_Bin0_2016postVFP.root'
p193
aS'./Models/signal/CMS-HGG_sigfit_packaged_AC_Bin0_2016postVFP.root'
p194
aS'./Models/signal/CMS-HGG_sigfit_packaged_AC_Bin0_2016postVFP.root'
p195
aS'./Models/signal/CMS-HGG_sigfit_packaged_AC_Bin0_2016postVFP.root'
p196
aS'./Models/signal/CMS-HGG_sigfit_packaged_AC_Bin0_2016postVFP.root'
p197
aS'./Models/signal/CMS-HGG_sigfit_packaged_AC_Bin0_2016postVFP.root'
p198
aS'./Models/background/CMS-HGG_multipdf_AC_Bin0_2016postVFP.root'
p199
ag199
aS'wsig_13TeV:hggpdfsmrel_GG2HMf05ph0_2016postVFP_AC_Bin0_13TeV'
p200
aS'wsig_13TeV:hggpdfsmrel_GG2HbsmM_2016postVFP_AC_Bin0_13TeV'
p201
aS'wsig_13TeV:hggpdfsmrel_GG2Hsm_2016postVFP_AC_Bin0_13TeV'
p202
aS'wsig_13TeV:hggpdfsmrel_TTHsm_2016postVFP_AC_Bin0_13TeV'
p203
aS'wsig_13TeV:hggpdfsmrel_VBFMf05ph0_2016postVFP_AC_Bin0_13TeV'
p204
aS'wsig_13TeV:hggpdfsmrel_VBFbsmM_2016postVFP_AC_Bin0_13TeV'
p205
aS'wsig_13TeV:hggpdfsmrel_VBFsm_2016postVFP_AC_Bin0_13TeV'
p206
aS'wsig_13TeV:hggpdfsmrel_WHMf05ph0_2016postVFP_AC_Bin0_13TeV'
p207
aS'wsig_13TeV:hggpdfsmrel_WHbsmM_2016postVFP_AC_Bin0_13TeV'
p208
aS'wsig_13TeV:hggpdfsmrel_WHsm_2016postVFP_AC_Bin0_13TeV'
p209
aS'wsig_13TeV:hggpdfsmrel_ZHMf05ph0_2016postVFP_AC_Bin0_13TeV'
p210
aS'wsig_13TeV:hggpdfsmrel_ZHbsmM_2016postVFP_AC_Bin0_13TeV'
p211
aS'wsig_13TeV:hggpdfsmrel_ZHsm_2016postVFP_AC_Bin0_13TeV'
p212
aS'multipdf:CMS_hgg_AC_Bin0_2016postVFP_13TeV_bkgshape'
p213
aS'multipdf:roohist_data_mass_AC_Bin0'
p214
aF0.020941904962455737
aF0.031380223339965596
aF0.016044157939404613
aF-2.3020274966256693e-05
aF0.006182337827510764
aF0.0036041388221974557
aF0.024288207012773455
aF6.3445627347391564e-06
aF0.0001575829689954844
aF0.0003621698313054367
aF0.00011462654333627142
aF9.885140889309696e-05
aF0.00024481220316374674
ag145
ag145
aF4.763752405511174e-07
aF7.169994112537917e-07
aF3.6803218259159647e-07
aF8.02776981288019e-08
aF7.77799824416769e-08
aF4.359202307816053e-08
aF1.2779035534176967e-06
aF4.0253476295040804e-11
aF1.7511725995435025e-09
aF3.579108366349017e-09
aF7.095283314410549e-10
aF6.841823668473916e-10
aF3.1514265166236518e-09
ag145
ag145
aF0.021516128175246244
aF0.03236821796183177
aF0.016515717819080372
aF-2.519622225851905e-05
aF0.006362648754073654
aF0.0037483272702629983
aF0.024928067740881188
aF6.476826972686144e-06
aF0.00017063983519565866
aF0.0003719909285276769
aF0.00011655373806465528
aF0.00010048499776748145
aF0.00025651598387948235
ag145
ag145
aF0.021082024938905035
aF0.03159165315830997
aF0.01615218381516744
aF-2.358848306454158e-05
aF0.006223062842743233
aF0.0036277389624509698
aF0.024447906878275926
aF6.392916526501143e-06
aF0.00015864695673647574
aF0.0003645356066233144
aF0.00011536528415233532
aF9.946587097382759e-05
aF0.0002464436489404486
ag145
ag145
aF0.020802252291281208
aF0.031169504386596825
aF0.015936495642913266
aF-2.245561629849557e-05
aF0.006141746871694825
aF0.003580615319669649
aF0.024129030357400643
aF6.296392702287356e-06
aF0.0001565225495551841
aF0.0003598118940426616
aF0.00011389017166745602
aF9.823890266052345e-05
aF0.00024318614421135867
ag145
ag145
aF0.021223200822203005
aF0.031822216292841744
aF0.01626575536256386
aF-1.9638265874390596e-05
aF0.006268467781315786
aF0.003656524540848251
aF0.0246295551696419
aF6.3942565024794095e-06
aF0.0001592193934513054
aF0.00036716310290713425
aF0.00011598876292121546
aF9.99858881472161e-05
aF0.0002480433374300738
ag145
ag145
aF0.020662474152607704
aF0.03094123711362885
aF0.015823914112645342
aF-2.626719225320664e-05
aF0.006096768168770764
aF0.0035520880897767807
aF0.023948917981809183
aF6.295063149631306e-06
aF0.0001559545321569623
aF0.00035720516387157644
aF0.00011327757239654322
aF9.772249269871556e-05
aF0.00024159648431118353
ag145
ag145
aF0.020987058205999345
aF0.031447096854498854
aF0.016078079900861512
aF-2.2594157917989064e-05
aF0.006196794208209041
aF0.0036128601450896246
aF0.02434460612767089
aF6.350924049682942e-06
aF0.00015799521198978848
aF0.0003631058232860699
aF0.00011485802109683133
aF9.910434977188963e-05
aF0.0002453461435317961
ag145
ag145
aF0.02089679700684913
aF0.03131341946260803
aF0.016010272781676656
aF-2.3445366000701253e-05
aF0.0061678976033929115
aF0.0035954262007173664
aF0.02423186773370896
aF6.3382037360891965e-06
aF0.0001571710724768154
aF0.0003612356574905208
aF0.00011439531097149526
aF9.85988317545882e-05
aF0.0002442787804432037
ag145
ag145
aF0.020988828923640172
aF0.03145369566266016
aF0.016080511468776648
aF-2.305464917225271e-05
aF0.006197213228393737
aF0.0036128940448464245
aF0.024344743193979914
aF6.357318950887202e-06
aF0.00015826249638452902
aF0.00036292931287306644
aF0.0001148647316352475
aF9.905120715318871e-05
aF0.00024550017850907845
ag145
ag145
aF0.02089503331626115
aF0.03130683569745032
aF0.016007845915416107
aF-2.298592261846722e-05
aF0.006167479894616849
aF0.003595395394737538
aF0.024231735415333074
aF6.331818872158181e-06
aF0.00015690448531360804
aF0.0003614111465852044
aF0.00011438860369339274
aF9.865181273828631e-05
aF0.00024412511466550272
ag145
ag145
aF0.021325178339111517
aF0.03265186403336884
aF0.016630152833158718
aF-2.3020274966256693e-05
aF0.006559679690951725
aF0.003755520083927877
aF0.019908010249196195
aF0.00028146948670837446
aF0.0003750522794234712
aF0.000400855106590825
aF0.00012638079147109238
aF9.885140889309696e-05
aF0.0002666919131115719
ag145
ag145
aF0.02060076422799284
aF0.030359845220118586
aF0.015457017008884577
aF-2.3020274966256693e-05
aF0.005872362539946607
aF0.003308998449142564
aF0.02308239677211077
aF0.0002818257480612374
aF0.0003128892069526046
aF0.0003537500458605791
aF0.00011008161550307705
aF0.00010448285956954351
aF0.00023312587472901214
ag145
ag145
aF0.02164109960949645
aF0.03157645616352056
aF0.016531807266574106
aF-6.276568456087261e-07
aF0.006072959886353146
aF0.003466510801899858
aF0.020445716042331696
aF0.00030667077726320713
aF0.0003147999875636742
aF0.0003705267206441931
aF0.00012401542494444584
aF0.00010372931410529418
aF0.00026896606095760944
ag145
ag145
aF0.02059722314152168
aF0.0305560076801612
aF0.015463859524970758
aF1.09344364318531e-05
aF0.0060004026119599985
aF0.0037391174565755136
aF0.02319025694123411
aF0.0003445752467996499
aF0.0002824735149715707
aF0.00034121500334549637
aF0.00011780767704294703
aF0.00010523480023039156
aF0.00026466974122740794
ag145
ag145
aF0.021271154945225135
aF0.03247380414404688
aF0.016609029265282516
aF-2.3020274966256693e-05
aF0.006280691742347244
aF0.0036153047868765498
aF0.025091292731303838
aF0.0003205092748430616
aF0.00032183814823838475
aF0.00036996060566707456
aF0.00011462654333627142
aF0.0001085446879187657
aF0.0002755543464445509
ag145
ag145
aF0.020367395414268685
aF0.030743643227197026
aF0.015628236375277993
aF-2.3020274966256693e-05
aF0.006148206242130527
aF0.003551531089783566
aF0.024347486274109542
aF0.00030667077726320713
aF0.0003128892069526046
aF0.0003621698313054367
aF0.00011462654333627142
aF9.885140889309696e-05
aF0.00024481220316374674
ag145
ag145
aF0.02292676271736127
aF0.03358180599366278
aF0.017759792639253646
aF-2.3020274966256693e-05
aF0.006484961651779031
aF0.0036386709813314155
aF0.018914024720857014
aF0.0003659523094938777
aF0.0003108496919139725
aF0.0004481670703171403
aF0.0001645326879042841
aF0.00013148151037967182
aF0.0002386059795753681
ag145
ag145
aF0.019042815593820706
aF0.02816141943094408
aF0.01421439072009889
aF4.497185364016332e-05
aF0.006159173671846929
aF0.0035509088169192182
aF0.02366676918200028
aF0.00029648120698766434
aF0.00028170009295536147
aF0.00031339389488493907
aF0.0001092976947347779
aF8.392064069084881e-05
aF0.00020975625727714942
ag145
ag145
aF0.021169702428323944
aF0.03173431401069138
aF0.01646547287168687
aF4.497185364016332e-05
aF0.006294525033183618
aF0.00358168858940644
aF0.018170885979316154
aF0.0003357090431563847
aF0.00029089366603329836
aF0.0003747182786355552
aF0.00012428915579221211
aF0.00010371670896347496
aF0.00024481220316374674
ag145
ag145
aF0.020758770738893872
aF0.030923346009331
aF0.015562084889779726
aF-2.3020274966256693e-05
aF0.006207872992206376
aF0.0036389366083540153
aF0.02511233306631766
aF0.000273885253136541
aF0.00027959052272308327
aF0.0003335215922106727
aF0.00012846868708038528
aF8.953644555731444e-05
aF0.000268616065113747
ag145
ag145
atp215
ba(lp216
g15
(g16
(dp217
g18
g19
(g20
(I0
tp218
g22
tp219
Rp220
(I1
(I1
tp221
g29
I00
(lp222
g43
atp223
bsg66
Nstp224
Rp225
ag15
(g16
(dp226
g18
g19
(g20
(I0
tp227
g22
tp228
Rp229
(I1
(I31
tp230
g29
I00
(lp231
g33
ag34
ag35
ag36
ag37
ag38
ag39
ag40
ag41
ag42
ag44
ag45
ag46
ag47
ag48
ag49
ag50
ag51
ag52
ag53
ag54
ag55
ag56
ag57
ag58
ag59
ag60
ag61
ag62
ag63
ag64
atp232
bsg66
Nstp233
Rp234
a(dp235
S'0.14.1'
p236
(dp237
S'axes'
p238
g14
sS'blocks'
p239
(lp240
(dp241
S'mgr_locs'
p242
c__builtin__
slice
p243
(I10
I11
I1
tp244
Rp245
sS'values'
p246
g87
sa(dp247
g242
g19
(g20
(I0
tp248
g22
tp249
Rp250
(I1
(I31
tp251
g77
I00
S'\x00\x00\x00\x00\x00\x00\x00\x00\x01\x00\x00\x00\x00\x00\x00\x00\x02\x00\x00\x00\x00\x00\x00\x00\x03\x00\x00\x00\x00\x00\x00\x00\x04\x00\x00\x00\x00\x00\x00\x00\x05\x00\x00\x00\x00\x00\x00\x00\x06\x00\x00\x00\x00\x00\x00\x00\x07\x00\x00\x00\x00\x00\x00\x00\x08\x00\x00\x00\x00\x00\x00\x00\t\x00\x00\x00\x00\x00\x00\x00\x0b\x00\x00\x00\x00\x00\x00\x00\x0c\x00\x00\x00\x00\x00\x00\x00\r\x00\x00\x00\x00\x00\x00\x00\x0e\x00\x00\x00\x00\x00\x00\x00\x0f\x00\x00\x00\x00\x00\x00\x00\x10\x00\x00\x00\x00\x00\x00\x00\x11\x00\x00\x00\x00\x00\x00\x00\x12\x00\x00\x00\x00\x00\x00\x00\x13\x00\x00\x00\x00\x00\x00\x00\x14\x00\x00\x00\x00\x00\x00\x00\x15\x00\x00\x00\x00\x00\x00\x00\x16\x00\x00\x00\x00\x00\x00\x00\x17\x00\x00\x00\x00\x00\x00\x00\x18\x00\x00\x00\x00\x00\x00\x00\x19\x00\x00\x00\x00\x00\x00\x00\x1a\x00\x00\x00\x00\x00\x00\x00\x1b\x00\x00\x00\x00\x00\x00\x00\x1c\x00\x00\x00\x00\x00\x00\x00\x1d\x00\x00\x00\x00\x00\x00\x00\x1e\x00\x00\x00\x00\x00\x00\x00\x1f\x00\x00\x00\x00\x00\x00\x00'
p252
tp253
bsg246
g98
sasstp254
bsb.