ccopy_reg
_reconstructor
p0
(cpandas.core.frame
DataFrame
p1
c__builtin__
object
p2
Ntp3
Rp4
(dp5
S'_metadata'
p6
(lp7
sS'_typ'
p8
S'dataframe'
p9
sS'_data'
p10
g0
(cpandas.core.internals
BlockManager
p11
g2
Ntp12
Rp13
((lp14
cpandas.core.indexes.base
_new_Index
p15
(cpandas.core.indexes.base
Index
p16
(dp17
S'data'
p18
cnumpy.core.multiarray
_reconstruct
p19
(cnumpy
ndarray
p20
(I0
tp21
S'b'
p22
tp23
Rp24
(I1
(I34
tp25
cnumpy
dtype
p26
(S'O8'
p27
I0
I1
tp28
Rp29
(I3
S'|'
p30
NNNI-1
I-1
I63
tp31
bI00
(lp32
S'year'
p33
aS'type'
p34
aS'procOriginal'
p35
aS'proc'
p36
aS'proc_s0'
p37
aS'cat'
p38
aS'inputWSFile'
p39
aS'nominalDataName'
p40
aS'modelWSFile'
p41
aS'model'
p42
aS'rate'
p43
aS'nominal_yield'
p44
aS'sumw2'
p45
aS'nominal_yield_COWCorr'
p46
aS'LooseMvaSF_up_yield'
p47
aS'LooseMvaSF_down_yield'
p48
aS'PreselSF_up_yield'
p49
aS'PreselSF_down_yield'
p50
aS'electronVetoSF_up_yield'
p51
aS'electronVetoSF_down_yield'
p52
aS'TriggerWeight_up_yield'
p53
aS'TriggerWeight_down_yield'
p54
aS'SigmaEOverEShift_up_yield'
p55
aS'SigmaEOverEShift_down_yield'
p56
aS'MvaShift_up_yield'
p57
aS'MvaShift_down_yield'
p58
aS'PUJIDShift_up_yield'
p59
aS'PUJIDShift_down_yield'
p60
aS'JEC_up_yield'
p61
aS'JEC_down_yield'
p62
aS'JER_up_yield'
p63
aS'JER_down_yield'
p64
aS'JetHEM_up_yield'
p65
aS'JetHEM_down_yield'
p66
atp67
bsS'name'
p68
Nstp69
Rp70
ag15
(cpandas.core.indexes.numeric
Int64Index
p71
(dp72
g18
g19
(g20
(I0
tp73
g22
tp74
Rp75
(I1
(I15
tp76
g26
(S'i8'
p77
I0
I1
tp78
Rp79
(I3
S'<'
p80
NNNI-1
I-1
I0
tp81
bI00
S'\x00\x00\x00\x00\x00\x00\x00\x00\x01\x00\x00\x00\x00\x00\x00\x00\x02\x00\x00\x00\x00\x00\x00\x00\x03\x00\x00\x00\x00\x00\x00\x00\x04\x00\x00\x00\x00\x00\x00\x00\x05\x00\x00\x00\x00\x00\x00\x00\x06\x00\x00\x00\x00\x00\x00\x00\x07\x00\x00\x00\x00\x00\x00\x00\x08\x00\x00\x00\x00\x00\x00\x00\t\x00\x00\x00\x00\x00\x00\x00\n\x00\x00\x00\x00\x00\x00\x00\x0b\x00\x00\x00\x00\x00\x00\x00\x0c\x00\x00\x00\x00\x00\x00\x00\r\x00\x00\x00\x00\x00\x00\x00\x0e\x00\x00\x00\x00\x00\x00\x00'
p82
tp83
bsg68
Nstp84
Rp85
a(lp86
g19
(g20
(I0
tp87
g22
tp88
Rp89
(I1
(I1
I15
tp90
g26
(S'f8'
p91
I0
I1
tp92
Rp93
(I3
S'<'
p94
NNNI-1
I-1
I0
tp95
bI00
S'\x00\x00\x00\x00\x80j\xd0@\x00\x00\x00\x00\x80j\xd0@\x00\x00\x00\x00\x80j\xd0@\x00\x00\x00\x00\x80j\xd0@\x00\x00\x00\x00\x80j\xd0@\x00\x00\x00\x00\x80j\xd0@\x00\x00\x00\x00\x80j\xd0@\x00\x00\x00\x00\x80j\xd0@\x00\x00\x00\x00\x80j\xd0@\x00\x00\x00\x00\x80j\xd0@\x00\x00\x00\x00\x80j\xd0@\x00\x00\x00\x00\x80j\xd0@\x00\x00\x00\x00\x80j\xd0@\x00\x00\x00\x00\x00\x00\xf0?\x00\x00\x00\x00\x00\x00\xf0\xbf'
p96
tp97
bag19
(g20
(I0
tp98
g22
tp99
Rp100
(I1
(I33
I15
tp101
g29
I00
(lp102
S'2016postVFP'
p103
ag103
ag103
ag103
ag103
ag103
ag103
ag103
ag103
ag103
ag103
ag103
ag103
ag33
ag33
aS'sig'
p104
ag104
ag104
ag104
ag104
ag104
ag104
ag104
ag104
ag104
ag104
ag104
ag104
aS'bkg'
p105
ag18
aS'GG2HMf05ph0'
p106
aS'GG2HbsmM'
p107
aS'GG2Hsm'
p108
aS'TTHsm'
p109
aS'VBFMf05ph0'
p110
aS'VBFbsmM'
p111
aS'VBFsm'
p112
aS'WHMf05ph0'
p113
aS'WHbsmM'
p114
aS'WHsm'
p115
aS'ZHMf05ph0'
p116
aS'ZHbsmM'
p117
aS'ZHsm'
p118
aS'bkg_mass'
p119
aS'data_obs'
p120
aS'GG2HMf05ph0_2016postVFP_hgg'
p121
aS'GG2HbsmM_2016postVFP_hgg'
p122
aS'GG2Hsm_2016postVFP_hgg'
p123
aS'tth0P_2016postVFP_hgg'
p124
aS'vbf0Mf05ph0_2016postVFP_hgg'
p125
aS'vbf0M_2016postVFP_hgg'
p126
aS'vbf0P_2016postVFP_hgg'
p127
aS'wh0Mf05ph0_2016postVFP_hgg'
p128
aS'wh0M_2016postVFP_hgg'
p129
aS'wh0P_2016postVFP_hgg'
p130
aS'zh0Mf05ph0_2016postVFP_hgg'
p131
aS'zh0M_2016postVFP_hgg'
p132
aS'zh0P_2016postVFP_hgg'
p133
ag119
ag120
aS'jjh0Mf05ph0'
p134
aS'jjh0M'
p135
aS'jjh0P'
p136
aS'tth0P'
p137
aS'vbf0Mf05ph0'
p138
aS'vbf0M'
p139
aS'vbf0P'
p140
aS'wh0Mf05ph0'
p141
aS'wh0M'
p142
aS'wh0P'
p143
aS'zh0Mf05ph0'
p144
aS'zh0M'
p145
aS'zh0P'
p146
aS'-'
p147
ag147
aS'AC_Bin4_2016postVFP'
p148
aS'AC_Bin4_2016postVFP'
p149
aS'AC_Bin4_2016postVFP'
p150
aS'AC_Bin4_2016postVFP'
p151
aS'AC_Bin4_2016postVFP'
p152
aS'AC_Bin4_2016postVFP'
p153
aS'AC_Bin4_2016postVFP'
p154
aS'AC_Bin4_2016postVFP'
p155
aS'AC_Bin4_2016postVFP'
p156
aS'AC_Bin4_2016postVFP'
p157
aS'AC_Bin4_2016postVFP'
p158
aS'AC_Bin4_2016postVFP'
p159
aS'AC_Bin4_2016postVFP'
p160
aS'AC_Bin4_2016postVFP'
p161
ag161
aS'Trees/Opt_2016postVFP/2016PostVFP/Trees2WS_2016postVFP/WS/output_GluGluHToGGPlusTwoJets_MM_M125_TuneCP5_13TeV-amcatnlopowheg-minlo-pythia8_GG2HMf05ph0.root'
p162
aS'Trees/Opt_2016postVFP/2016PostVFP/Trees2WS_2016postVFP/WS/output_GluGluHToGGPlusTwoJets_CPodd_M125_TuneCP5_13TeV-amcatnlopowheg-minlo-pythia8_GG2HbsmM.root'
p163
aS'Trees/Opt_2016postVFP/2016PostVFP/Trees2WS_2016postVFP/WS/output_GluGluHToGGPlusTwoJets_SM_M125_TuneCP5_13TeV-amcatnlopowheg-minlo-pythia8_GG2Hsm.root'
p164
aS'Trees/Opt_2016postVFP/2016PostVFP/Trees2WS_2016postVFP/WS/output_ttHJetToGG_M125_TuneCP5_13TeV-amcatnloFXFX-madspin-pythia8_TTHsm.root'
p165
aS'Trees/Opt_2016postVFP/2016PostVFP/Trees2WS_2016postVFP/WS/output_VBFHiggs0Mf05ph0ToGG_M125_TuneCP5_13TeV-JHUGenV7011-pythia8_VBFMf05ph0.root'
p166
aS'Trees/Opt_2016postVFP/2016PostVFP/Trees2WS_2016postVFP/WS/output_VBFHiggs0MToGG_M125_TuneCP5_13TeV-JHUGenV7011-pythia8_VBFbsmM.root'
p167
aS'Trees/Opt_2016postVFP/2016PostVFP/Trees2WS_2016postVFP/WS/output_VBFHToGG_M125_TuneCP5_13TeV-amcatnlo-pythia8_VBFsm.root'
p168
aS'Trees/Opt_2016postVFP/2016PostVFP/Trees2WS_2016postVFP/WS/output_WHiggs0Mf05ph0ToGG_M125_TuneCP5_13TeV-JHUGenV7011-pythia8_WHMf05ph0.root'
p169
aS'Trees/Opt_2016postVFP/2016PostVFP/Trees2WS_2016postVFP/WS/output_WHiggs0MToGG_M125_TuneCP5_13TeV-JHUGenV7011-pythia8_WHbsmM.root'
p170
aS'Trees/Opt_2016postVFP/2016PostVFP/Trees2WS_2016postVFP/WS/output_WHiggs0PMToGG_M125_TuneCP5_13TeV-JHUGenV7011-pythia8_WHsm.root'
p171
aS'Trees/Opt_2016postVFP/2016PostVFP/Trees2WS_2016postVFP/WS/output_ZHiggs0Mf05ph0ToGG_M125_TuneCP5_13TeV-JHUGenV7011-pythia8_ZHMf05ph0.root'
p172
aS'Trees/Opt_2016postVFP/2016PostVFP/Trees2WS_2016postVFP/WS/output_ZHiggs0MToGG_M125_TuneCP5_13TeV-JHUGenV7011-pythia8_ZHbsmM.root'
p173
aS'Trees/Opt_2016postVFP/2016PostVFP/Trees2WS_2016postVFP/WS/output_ZH_HToGG_ZToAll_M125_TuneCP5_13TeV-powheg-pythia8_ZHsm.root'
p174
ag147
ag147
aS'jjh0Mf05ph0_125_13TeV_AC_Bin4'
p175
aS'jjh0M_125_13TeV_AC_Bin4'
p176
aS'jjh0P_125_13TeV_AC_Bin4'
p177
aS'tth0P_125_13TeV_AC_Bin4'
p178
aS'vbf0Mf05ph0_125_13TeV_AC_Bin4'
p179
aS'vbf0M_125_13TeV_AC_Bin4'
p180
aS'vbf0P_125_13TeV_AC_Bin4'
p181
aS'wh0Mf05ph0_125_13TeV_AC_Bin4'
p182
aS'wh0M_125_13TeV_AC_Bin4'
p183
aS'wh0P_125_13TeV_AC_Bin4'
p184
aS'zh0Mf05ph0_125_13TeV_AC_Bin4'
p185
aS'zh0M_125_13TeV_AC_Bin4'
p186
aS'zh0P_125_13TeV_AC_Bin4'
p187
ag147
ag147
aS'./Models/signal/CMS-HGG_sigfit_packaged_AC_Bin4_2016postVFP.root'
p188
aS'./Models/signal/CMS-HGG_sigfit_packaged_AC_Bin4_2016postVFP.root'
p189
aS'./Models/signal/CMS-HGG_sigfit_packaged_AC_Bin4_2016postVFP.root'
p190
aS'./Models/signal/CMS-HGG_sigfit_packaged_AC_Bin4_2016postVFP.root'
p191
aS'./Models/signal/CMS-HGG_sigfit_packaged_AC_Bin4_2016postVFP.root'
p192
aS'./Models/signal/CMS-HGG_sigfit_packaged_AC_Bin4_2016postVFP.root'
p193
aS'./Models/signal/CMS-HGG_sigfit_packaged_AC_Bin4_2016postVFP.root'
p194
aS'./Models/signal/CMS-HGG_sigfit_packaged_AC_Bin4_2016postVFP.root'
p195
aS'./Models/signal/CMS-HGG_sigfit_packaged_AC_Bin4_2016postVFP.root'
p196
aS'./Models/signal/CMS-HGG_sigfit_packaged_AC_Bin4_2016postVFP.root'
p197
aS'./Models/signal/CMS-HGG_sigfit_packaged_AC_Bin4_2016postVFP.root'
p198
aS'./Models/signal/CMS-HGG_sigfit_packaged_AC_Bin4_2016postVFP.root'
p199
aS'./Models/signal/CMS-HGG_sigfit_packaged_AC_Bin4_2016postVFP.root'
p200
aS'./Models/background/CMS-HGG_multipdf_AC_Bin4_2016postVFP.root'
p201
ag201
aS'wsig_13TeV:hggpdfsmrel_GG2HMf05ph0_2016postVFP_AC_Bin4_13TeV'
p202
aS'wsig_13TeV:hggpdfsmrel_GG2HbsmM_2016postVFP_AC_Bin4_13TeV'
p203
aS'wsig_13TeV:hggpdfsmrel_GG2Hsm_2016postVFP_AC_Bin4_13TeV'
p204
aS'wsig_13TeV:hggpdfsmrel_TTHsm_2016postVFP_AC_Bin4_13TeV'
p205
aS'wsig_13TeV:hggpdfsmrel_VBFMf05ph0_2016postVFP_AC_Bin4_13TeV'
p206
aS'wsig_13TeV:hggpdfsmrel_VBFbsmM_2016postVFP_AC_Bin4_13TeV'
p207
aS'wsig_13TeV:hggpdfsmrel_VBFsm_2016postVFP_AC_Bin4_13TeV'
p208
aS'wsig_13TeV:hggpdfsmrel_WHMf05ph0_2016postVFP_AC_Bin4_13TeV'
p209
aS'wsig_13TeV:hggpdfsmrel_WHbsmM_2016postVFP_AC_Bin4_13TeV'
p210
aS'wsig_13TeV:hggpdfsmrel_WHsm_2016postVFP_AC_Bin4_13TeV'
p211
aS'wsig_13TeV:hggpdfsmrel_ZHMf05ph0_2016postVFP_AC_Bin4_13TeV'
p212
aS'wsig_13TeV:hggpdfsmrel_ZHbsmM_2016postVFP_AC_Bin4_13TeV'
p213
aS'wsig_13TeV:hggpdfsmrel_ZHsm_2016postVFP_AC_Bin4_13TeV'
p214
aS'multipdf:CMS_hgg_AC_Bin4_2016postVFP_13TeV_bkgshape'
p215
aS'multipdf:roohist_data_mass_AC_Bin4'
p216
aF0.013136764632463382
aF0.010596876555609924
aF0.016808742654347952
aF6.037619823473506e-05
aF0.002858366344867136
aF0.00020666974160121754
aF0.009198359575520954
aF4.000705848739017e-05
aF4.6579250920331106e-05
aF0.0002257698523635554
aF0.00013817930812365375
aF7.545628955085704e-05
aF0.00019038506252400111
ag147
ag147
aF3.062875247962978e-07
aF2.70622808675956e-07
aF3.767812182828588e-07
aF8.550896117556197e-09
aF4.635142163226591e-08
aF2.6925918937659685e-09
aF4.4970452863008253e-07
aF8.010375784342604e-10
aF4.697230592259214e-10
aF1.88850208771571e-09
aF1.0854593866997595e-09
aF4.944506072922579e-10
aF3.308034136162925e-09
ag147
ag147
aF0.013556661223790194
aF0.010945871135973704
aF0.017518412916188483
aF6.186952170602808e-05
aF0.0029459685140508472
aF0.00021003132668455753
aF0.009570303092632649
aF4.065344718984275e-05
aF4.795867441560846e-05
aF0.00023190962938498947
aF0.00014089220716881565
aF7.662548851376954e-05
aF0.00019343960033138207
ag147
ag147
aF0.013225035920425902
aF0.010668465577243914
aF0.016921712119148113
aF6.057909116927437e-05
aF0.002877077756530511
aF0.0002079736367746724
aF0.009257004405682683
aF4.0276686754619805e-05
aF4.6891719632375956e-05
aF0.00022722844504788215
aF0.0001390921139765716
aF7.590666410120763e-05
aF0.0001915841783393468
ag147
ag147
aF0.013048790074352364
aF0.010525529700463613
aF0.01669615300874306
aF6.017340056642183e-05
aF0.002839715964150469
aF0.0002053699082097888
aF0.009139901480251213
aF3.973832092560555e-05
aF4.626781329755829e-05
aF0.00022431603643701634
aF0.00013726954699723988
aF7.500729246700781e-05
aF0.00018918979483719057
ag147
ag147
aF0.01332553205272203
aF0.010745969581621304
aF0.01704957289264669
aF6.239636701286296e-05
aF0.0029007233401783968
aF0.00020972278461587677
aF0.00935053491784033
aF4.0288947102588146e-05
aF4.8102557878127464e-05
aF0.00022889134508826165
aF0.0001398819817839027
aF7.650767965231859e-05
aF0.00019165157435405071
ag147
ag147
aF0.01294937037761476
aF0.010448759867250287
aF0.016569594265173616
aF5.83668100171764e-05
aF0.002816297281642915
aF0.00020363949646593085
aF0.009047379642128558
aF3.9726148407581545e-05
aF4.507409039324768e-05
aF0.00022267206907434912
aF0.000136484779582401
aF7.441005197077718e-05
aF0.00018912281703853647
ag147
ag147
aF0.013166429711227034
aF0.01061970454140922
aF0.01684608623764008
aF6.124815651511954e-05
aF0.0028651961358073614
aF0.0002071368220425141
aF0.0092233080460262
aF4.006993483728055e-05
aF4.6749919347214665e-05
aF0.00022630593635782789
aF0.00013844625032892225
aF7.566422057020708e-05
aF0.00019073860847326958
ag147
ag147
aF0.013107133240514351
aF0.01057407160948253
aF0.016771439279293306
aF5.950609302769437e-05
aF0.0028515438616636903
aF0.00020620312024151482
aF0.009173442577160367
aF3.994422274949848e-05
aF4.640877087650647e-05
aF0.00022523443372116474
aF0.00013791263775114645
aF7.524861724964236e-05
aF0.00019003186790137578
ag147
ag147
aF0.013167156732212167
aF0.010622457157441994
aF0.01684925821942966
aF6.0501010894929506e-05
aF0.002865253354678855
aF0.0002070948012604946
aF0.009222195633673031
aF4.0095972331551213e-05
aF4.667560893650523e-05
aF0.00022633838637969937
aF0.00013846213250319876
aF7.561029237204788e-05
aF0.00019076813796258164
ag147
ag147
aF0.013106407975116703
aF0.010571326479060377
aF0.01676827522916089
aF6.025151824124949e-05
aF0.0028514874560310387
aF0.0002062451171513997
aF0.00917455310527436
aF3.9918244522499254e-05
aF4.648299202598591e-05
aF0.00022520201435626458
aF0.00013789677159029004
aF7.530244557864799e-05
aF0.00019000237383987037
ag147
ag147
aF0.013472119359221324
aF0.010904663480232557
aF0.017371212773696243
aF6.037619823473506e-05
aF0.002956419402494248
aF0.00020666974160121754
aF0.007431600089375934
aF0.00018475441356713418
aF0.00015714117057541444
aF0.00025965042266307137
aF0.00013817930812365375
aF8.467385555377405e-05
aF0.00020098253844480496
ag147
ag147
aF0.01270339872439763
aF0.009976880297017487
aF0.016006761811922843
aF6.037619823473506e-05
aF0.0026884496352295173
aF0.00018107692721969215
aF0.01833275476894869
aF0.00015065974184835795
aF0.00015714117057541444
aF0.00022849451568163204
aF0.00012926092131237965
aF6.536539058288326e-05
aF0.00019038506252400111
ag147
ag147
aF0.013042950075941917
aF0.010580801352944036
aF0.016677718574328537
aF4.751794404000975e-05
aF0.0028936521890727818
aF0.00018897089671554568
aF0.0069970295369330415
aF0.00018848067156795878
aF0.00015757197593302408
aF0.0002175916901023811
aF0.00013334182540347683
aF7.094507486726798e-05
aF0.00020567608135024784
ag147
ag147
aF0.012854782634121875
aF0.010543268594574329
aF0.016742769893198783
aF0.00010847481098608114
aF0.002929116339942084
aF0.00023225724385156354
aF0.022558245915774933
aF0.00021015229503973387
aF0.0001420426431195665
aF0.00024477964041125233
aF0.00013130655088389176
aF8.137081704262528e-05
aF0.0002214006399299251
ag147
ag147
aF0.01359142493561194
aF0.010879720872253529
aF0.017148948271596964
aF6.037619823473506e-05
aF0.0028719892367234934
aF0.00020666974160121754
aF0.023830567964182592
aF0.00016551430053368676
aF0.00015714117057541444
aF0.0002257698523635554
aF0.00015533404575762688
aF7.545628955085704e-05
aF0.00019038506252400111
ag147
ag147
aF0.012738820669028428
aF0.01026914838985249
aF0.01628856485626784
aF6.037619823473506e-05
aF0.0027682041214802666
aF0.00020666974160121754
aF0.006892358929007969
aF0.00016551430053368676
aF0.00016559977689212246
aF0.00019201874090413185
aF0.00013817930812365375
aF7.545628955085704e-05
aF0.00019038506252400111
ag147
ag147
aF0.014819982192193493
aF0.011886063179190387
aF0.01859046941399356
aF6.037619823473506e-05
aF0.002919315262829514
aF0.0002408374330116203
aF0.0072570740139781265
aF0.00022568786607735092
aF0.00016650973589094065
aF0.00026969721227487753
aF0.00015929253345348116
aF7.545628955085704e-05
aF0.00018877333332056878
ag147
ag147
aF0.01187264184977721
aF0.008923496658553631
aF0.015483764272630651
aF6.037619823473506e-05
aF0.0027884042248160767
aF0.0002145839744116529
aF0.0216054741708831
aF0.00014958894007577328
aF0.00014238790276976943
aF0.00018487593786176149
aF0.0001225793585035717
aF8.741753094909654e-05
aF0.00018299354815098923
ag147
ag147
aF0.013530558822139938
aF0.01100138521860572
aF0.01699664915372523
aF6.037619823473506e-05
aF0.002865245529051208
aF0.00021651586848747684
aF0.0068205692890614955
aF0.0001448962739232229
aF0.00016441748016404745
aF0.00025172960056352167
aF0.00014364175012815394
aF7.545628955085704e-05
aF0.00018057907072943635
ag147
ag147
aF0.012986307910750838
aF0.010116272888808453
aF0.0171737587259031
aF6.037619823473506e-05
aF0.0028453792150457957
aF0.0001867657861112093
aF0.015752559267866673
aF0.00016551430053368676
aF0.00015085984318830015
aF0.00023314352972647612
aF0.00014573971293430077
aF7.76979838974512e-05
aF0.00018059264675684972
ag147
ag147
aF0.013136764632463382
aF0.010596876555609924
aF0.016808742654347952
aF6.037619823473506e-05
aF0.002858366344867136
aF0.00020666974160121754
aF0.009198359575520954
aF4.000705848739017e-05
aF4.6579250920331106e-05
aF0.0002257698523635554
aF0.00013817930812365375
aF7.545628955085704e-05
aF0.00019038506252400111
ag147
ag147
aF0.013136764632463382
aF0.010596876555609924
aF0.016808742654347952
aF6.037619823473506e-05
aF0.002858366344867136
aF0.00020666974160121754
aF0.009198359575520954
aF4.000705848739017e-05
aF4.6579250920331106e-05
aF0.0002257698523635554
aF0.00013817930812365375
aF7.545628955085704e-05
aF0.00019038506252400111
ag147
ag147
atp217
ba(lp218
g15
(g16
(dp219
g18
g19
(g20
(I0
tp220
g22
tp221
Rp222
(I1
(I1
tp223
g29
I00
(lp224
g43
atp225
bsg68
Nstp226
Rp227
ag15
(g16
(dp228
g18
g19
(g20
(I0
tp229
g22
tp230
Rp231
(I1
(I33
tp232
g29
I00
(lp233
g33
ag34
ag35
ag36
ag37
ag38
ag39
ag40
ag41
ag42
ag44
ag45
ag46
ag47
ag48
ag49
ag50
ag51
ag52
ag53
ag54
ag55
ag56
ag57
ag58
ag59
ag60
ag61
ag62
ag63
ag64
ag65
ag66
atp234
bsg68
Nstp235
Rp236
a(dp237
S'0.14.1'
p238
(dp239
S'axes'
p240
g14
sS'blocks'
p241
(lp242
(dp243
S'mgr_locs'
p244
c__builtin__
slice
p245
(I10
I11
I1
tp246
Rp247
sS'values'
p248
g89
sa(dp249
g244
g19
(g20
(I0
tp250
g22
tp251
Rp252
(I1
(I33
tp253
g79
I00
S'\x00\x00\x00\x00\x00\x00\x00\x00\x01\x00\x00\x00\x00\x00\x00\x00\x02\x00\x00\x00\x00\x00\x00\x00\x03\x00\x00\x00\x00\x00\x00\x00\x04\x00\x00\x00\x00\x00\x00\x00\x05\x00\x00\x00\x00\x00\x00\x00\x06\x00\x00\x00\x00\x00\x00\x00\x07\x00\x00\x00\x00\x00\x00\x00\x08\x00\x00\x00\x00\x00\x00\x00\t\x00\x00\x00\x00\x00\x00\x00\x0b\x00\x00\x00\x00\x00\x00\x00\x0c\x00\x00\x00\x00\x00\x00\x00\r\x00\x00\x00\x00\x00\x00\x00\x0e\x00\x00\x00\x00\x00\x00\x00\x0f\x00\x00\x00\x00\x00\x00\x00\x10\x00\x00\x00\x00\x00\x00\x00\x11\x00\x00\x00\x00\x00\x00\x00\x12\x00\x00\x00\x00\x00\x00\x00\x13\x00\x00\x00\x00\x00\x00\x00\x14\x00\x00\x00\x00\x00\x00\x00\x15\x00\x00\x00\x00\x00\x00\x00\x16\x00\x00\x00\x00\x00\x00\x00\x17\x00\x00\x00\x00\x00\x00\x00\x18\x00\x00\x00\x00\x00\x00\x00\x19\x00\x00\x00\x00\x00\x00\x00\x1a\x00\x00\x00\x00\x00\x00\x00\x1b\x00\x00\x00\x00\x00\x00\x00\x1c\x00\x00\x00\x00\x00\x00\x00\x1d\x00\x00\x00\x00\x00\x00\x00\x1e\x00\x00\x00\x00\x00\x00\x00\x1f\x00\x00\x00\x00\x00\x00\x00 \x00\x00\x00\x00\x00\x00\x00!\x00\x00\x00\x00\x00\x00\x00'
p254
tp255
bsg248
g100
sasstp256
bsb.