ccopy_reg
_reconstructor
p0
(cpandas.core.frame
DataFrame
p1
c__builtin__
object
p2
Ntp3
Rp4
(dp5
S'_metadata'
p6
(lp7
sS'_typ'
p8
S'dataframe'
p9
sS'_data'
p10
g0
(cpandas.core.internals
BlockManager
p11
g2
Ntp12
Rp13
((lp14
cpandas.core.indexes.base
_new_Index
p15
(cpandas.core.indexes.base
Index
p16
(dp17
S'data'
p18
cnumpy.core.multiarray
_reconstruct
p19
(cnumpy
ndarray
p20
(I0
tp21
S'b'
p22
tp23
Rp24
(I1
(I14
tp25
cnumpy
dtype
p26
(S'O8'
p27
I0
I1
tp28
Rp29
(I3
S'|'
p30
NNNI-1
I-1
I63
tp31
bI00
(lp32
S'year'
p33
aS'type'
p34
aS'procOriginal'
p35
aS'proc'
p36
aS'proc_s0'
p37
aS'cat'
p38
aS'inputWSFile'
p39
aS'nominalDataName'
p40
aS'modelWSFile'
p41
aS'model'
p42
aS'rate'
p43
aS'nominal_yield'
p44
aS'sumw2'
p45
aS'nominal_yield_COWCorr'
p46
atp47
bsS'name'
p48
Nstp49
Rp50
ag15
(cpandas.core.indexes.numeric
Int64Index
p51
(dp52
g18
g19
(g20
(I0
tp53
g22
tp54
Rp55
(I1
(I15
tp56
g26
(S'i8'
p57
I0
I1
tp58
Rp59
(I3
S'<'
p60
NNNI-1
I-1
I0
tp61
bI00
S'\x00\x00\x00\x00\x00\x00\x00\x00\x01\x00\x00\x00\x00\x00\x00\x00\x02\x00\x00\x00\x00\x00\x00\x00\x03\x00\x00\x00\x00\x00\x00\x00\x04\x00\x00\x00\x00\x00\x00\x00\x05\x00\x00\x00\x00\x00\x00\x00\x06\x00\x00\x00\x00\x00\x00\x00\x07\x00\x00\x00\x00\x00\x00\x00\x08\x00\x00\x00\x00\x00\x00\x00\t\x00\x00\x00\x00\x00\x00\x00\n\x00\x00\x00\x00\x00\x00\x00\x0b\x00\x00\x00\x00\x00\x00\x00\x0c\x00\x00\x00\x00\x00\x00\x00\r\x00\x00\x00\x00\x00\x00\x00\x0e\x00\x00\x00\x00\x00\x00\x00'
p62
tp63
bsg48
Nstp64
Rp65
a(lp66
g19
(g20
(I0
tp67
g22
tp68
Rp69
(I1
(I1
I15
tp70
g26
(S'f8'
p71
I0
I1
tp72
Rp73
(I3
S'<'
p74
NNNI-1
I-1
I0
tp75
bI00
S'\x00\x00\x00\x00\x80j\xd0@\x00\x00\x00\x00\x80j\xd0@\x00\x00\x00\x00\x80j\xd0@\x00\x00\x00\x00\x80j\xd0@\x00\x00\x00\x00\x80j\xd0@\x00\x00\x00\x00\x80j\xd0@\x00\x00\x00\x00\x80j\xd0@\x00\x00\x00\x00\x80j\xd0@\x00\x00\x00\x00\x80j\xd0@\x00\x00\x00\x00\x80j\xd0@\x00\x00\x00\x00\x80j\xd0@\x00\x00\x00\x00\x80j\xd0@\x00\x00\x00\x00\x80j\xd0@\x00\x00\x00\x00\x00\x00\xf0?\x00\x00\x00\x00\x00\x00\xf0\xbf'
p76
tp77
bag19
(g20
(I0
tp78
g22
tp79
Rp80
(I1
(I13
I15
tp81
g29
I00
(lp82
S'2016PostVFP'
p83
ag83
ag83
ag83
ag83
ag83
ag83
ag83
ag83
ag83
ag83
ag83
ag83
ag33
ag33
aS'sig'
p84
ag84
ag84
ag84
ag84
ag84
ag84
ag84
ag84
ag84
ag84
ag84
ag84
aS'bkg'
p85
ag18
aS'GG2HMf05ph0'
p86
aS'GG2HbsmM'
p87
aS'GG2Hsm'
p88
aS'TTHsm'
p89
aS'VBFMf05ph0'
p90
aS'VBFbsmM'
p91
aS'VBFsm'
p92
aS'WHMf05ph0'
p93
aS'WHbsmM'
p94
aS'WHsm'
p95
aS'ZHMf05ph0'
p96
aS'ZHbsmM'
p97
aS'ZHsm'
p98
aS'bkg_mass'
p99
aS'data_obs'
p100
aS'jjh0Mf05ph0_2016PostVFP_hgg'
p101
aS'jjh0M_2016PostVFP_hgg'
p102
aS'jjh0P_2016PostVFP_hgg'
p103
aS'tth0P_2016PostVFP_hgg'
p104
aS'vbf0Mf05ph0_2016PostVFP_hgg'
p105
aS'vbf0M_2016PostVFP_hgg'
p106
aS'vbf0P_2016PostVFP_hgg'
p107
aS'wh0Mf05ph0_2016PostVFP_hgg'
p108
aS'wh0M_2016PostVFP_hgg'
p109
aS'wh0P_2016PostVFP_hgg'
p110
aS'zh0Mf05ph0_2016PostVFP_hgg'
p111
aS'zh0M_2016PostVFP_hgg'
p112
aS'zh0P_2016PostVFP_hgg'
p113
ag99
ag100
aS'jjh0Mf05ph0'
p114
aS'jjh0M'
p115
aS'jjh0P'
p116
aS'tth0P'
p117
aS'vbf0Mf05ph0'
p118
aS'vbf0M'
p119
aS'vbf0P'
p120
aS'wh0Mf05ph0'
p121
aS'wh0M'
p122
aS'wh0P'
p123
aS'zh0Mf05ph0'
p124
aS'zh0M'
p125
aS'zh0P'
p126
aS'-'
p127
ag127
aS'AC_Bin15_2016PostVFP'
p128
aS'AC_Bin15_2016PostVFP'
p129
aS'AC_Bin15_2016PostVFP'
p130
aS'AC_Bin15_2016PostVFP'
p131
aS'AC_Bin15_2016PostVFP'
p132
aS'AC_Bin15_2016PostVFP'
p133
aS'AC_Bin15_2016PostVFP'
p134
aS'AC_Bin15_2016PostVFP'
p135
aS'AC_Bin15_2016PostVFP'
p136
aS'AC_Bin15_2016PostVFP'
p137
aS'AC_Bin15_2016PostVFP'
p138
aS'AC_Bin15_2016PostVFP'
p139
aS'AC_Bin15_2016PostVFP'
p140
aS'AC_Bin15_2016PostVFP'
p141
ag141
aS'Trees/Opt_2016PostVFP/3D_DCP_CPodd_p25_Bkg_p60_2016PostVFP/Trees2WS_2016PostVFP/WS/output_GluGluHToGGPlusTwoJets_MM_M125_TuneCP5_13TeV-amcatnlopowheg-minlo-pythia8_GG2HMf05ph0.root'
p142
aS'Trees/Opt_2016PostVFP/3D_DCP_CPodd_p25_Bkg_p60_2016PostVFP/Trees2WS_2016PostVFP/WS/output_GluGluHToGGPlusTwoJets_CPodd_M125_TuneCP5_13TeV-amcatnlopowheg-minlo-pythia8_GG2HbsmM.root'
p143
aS'Trees/Opt_2016PostVFP/3D_DCP_CPodd_p25_Bkg_p60_2016PostVFP/Trees2WS_2016PostVFP/WS/output_GluGluHToGGPlusTwoJets_SM_M125_TuneCP5_13TeV-amcatnlopowheg-minlo-pythia8_GG2Hsm.root'
p144
aS'Trees/Opt_2016PostVFP/3D_DCP_CPodd_p25_Bkg_p60_2016PostVFP/Trees2WS_2016PostVFP/WS/output_ttHJetToGG_M125_TuneCP5_13TeV-amcatnloFXFX-madspin-pythia8_TTHsm.root'
p145
aS'Trees/Opt_2016PostVFP/3D_DCP_CPodd_p25_Bkg_p60_2016PostVFP/Trees2WS_2016PostVFP/WS/output_VBFHiggs0Mf05ph0ToGG_M125_TuneCP5_13TeV-JHUGenV7011-pythia8_VBFMf05ph0.root'
p146
aS'Trees/Opt_2016PostVFP/3D_DCP_CPodd_p25_Bkg_p60_2016PostVFP/Trees2WS_2016PostVFP/WS/output_VBFHiggs0MToGG_M125_TuneCP5_13TeV-JHUGenV7011-pythia8_VBFbsmM.root'
p147
aS'Trees/Opt_2016PostVFP/3D_DCP_CPodd_p25_Bkg_p60_2016PostVFP/Trees2WS_2016PostVFP/WS/output_VBFHToGG_M125_TuneCP5_13TeV-amcatnlo-pythia8_VBFsm.root'
p148
aS'Trees/Opt_2016PostVFP/3D_DCP_CPodd_p25_Bkg_p60_2016PostVFP/Trees2WS_2016PostVFP/WS/output_WHiggs0Mf05ph0ToGG_M125_TuneCP5_13TeV-JHUGenV7011-pythia8_WHMf05ph0.root'
p149
aS'Trees/Opt_2016PostVFP/3D_DCP_CPodd_p25_Bkg_p60_2016PostVFP/Trees2WS_2016PostVFP/WS/output_WHiggs0MToGG_M125_TuneCP5_13TeV-JHUGenV7011-pythia8_WHbsmM.root'
p150
aS'Trees/Opt_2016PostVFP/3D_DCP_CPodd_p25_Bkg_p60_2016PostVFP/Trees2WS_2016PostVFP/WS/output_WHiggs0PMToGG_M125_TuneCP5_13TeV-JHUGenV7011-pythia8_WHsm.root'
p151
aS'Trees/Opt_2016PostVFP/3D_DCP_CPodd_p25_Bkg_p60_2016PostVFP/Trees2WS_2016PostVFP/WS/output_ZHiggs0Mf05ph0ToGG_M125_TuneCP5_13TeV-JHUGenV7011-pythia8_ZHMf05ph0.root'
p152
aS'Trees/Opt_2016PostVFP/3D_DCP_CPodd_p25_Bkg_p60_2016PostVFP/Trees2WS_2016PostVFP/WS/output_ZHiggs0MToGG_M125_TuneCP5_13TeV-JHUGenV7011-pythia8_ZHbsmM.root'
p153
aS'Trees/Opt_2016PostVFP/3D_DCP_CPodd_p25_Bkg_p60_2016PostVFP/Trees2WS_2016PostVFP/WS/output_ZH_HToGG_ZToAll_M125_TuneCP5_13TeV-powheg-pythia8_ZHsm.root'
p154
ag127
ag127
aS'jjh0Mf05ph0_125_13TeV_AC_Bin15'
p155
aS'jjh0M_125_13TeV_AC_Bin15'
p156
aS'jjh0P_125_13TeV_AC_Bin15'
p157
aS'tth0P_125_13TeV_AC_Bin15'
p158
aS'vbf0Mf05ph0_125_13TeV_AC_Bin15'
p159
aS'vbf0M_125_13TeV_AC_Bin15'
p160
aS'vbf0P_125_13TeV_AC_Bin15'
p161
aS'wh0Mf05ph0_125_13TeV_AC_Bin15'
p162
aS'wh0M_125_13TeV_AC_Bin15'
p163
aS'wh0P_125_13TeV_AC_Bin15'
p164
aS'zh0Mf05ph0_125_13TeV_AC_Bin15'
p165
aS'zh0M_125_13TeV_AC_Bin15'
p166
aS'zh0P_125_13TeV_AC_Bin15'
p167
ag127
ag127
aS'./Models/signal/CMS-HGG_sigfit_packaged_AC_Bin15_2016PostVFP.root'
p168
aS'./Models/signal/CMS-HGG_sigfit_packaged_AC_Bin15_2016PostVFP.root'
p169
aS'./Models/signal/CMS-HGG_sigfit_packaged_AC_Bin15_2016PostVFP.root'
p170
aS'./Models/signal/CMS-HGG_sigfit_packaged_AC_Bin15_2016PostVFP.root'
p171
aS'./Models/signal/CMS-HGG_sigfit_packaged_AC_Bin15_2016PostVFP.root'
p172
aS'./Models/signal/CMS-HGG_sigfit_packaged_AC_Bin15_2016PostVFP.root'
p173
aS'./Models/signal/CMS-HGG_sigfit_packaged_AC_Bin15_2016PostVFP.root'
p174
aS'./Models/signal/CMS-HGG_sigfit_packaged_AC_Bin15_2016PostVFP.root'
p175
aS'./Models/signal/CMS-HGG_sigfit_packaged_AC_Bin15_2016PostVFP.root'
p176
aS'./Models/signal/CMS-HGG_sigfit_packaged_AC_Bin15_2016PostVFP.root'
p177
aS'./Models/signal/CMS-HGG_sigfit_packaged_AC_Bin15_2016PostVFP.root'
p178
aS'./Models/signal/CMS-HGG_sigfit_packaged_AC_Bin15_2016PostVFP.root'
p179
aS'./Models/signal/CMS-HGG_sigfit_packaged_AC_Bin15_2016PostVFP.root'
p180
aS'./Models/background/CMS-HGG_multipdf_AC_Bin15_2016PostVFP.root'
p181
ag181
aS'wsig_13TeV:hggpdfsmrel_GG2HMf05ph0_2016PostVFP_AC_Bin15_13TeV'
p182
aS'wsig_13TeV:hggpdfsmrel_GG2HbsmM_2016PostVFP_AC_Bin15_13TeV'
p183
aS'wsig_13TeV:hggpdfsmrel_GG2Hsm_2016PostVFP_AC_Bin15_13TeV'
p184
aS'wsig_13TeV:hggpdfsmrel_TTHsm_2016PostVFP_AC_Bin15_13TeV'
p185
aS'wsig_13TeV:hggpdfsmrel_VBFMf05ph0_2016PostVFP_AC_Bin15_13TeV'
p186
aS'wsig_13TeV:hggpdfsmrel_VBFbsmM_2016PostVFP_AC_Bin15_13TeV'
p187
aS'wsig_13TeV:hggpdfsmrel_VBFsm_2016PostVFP_AC_Bin15_13TeV'
p188
aS'wsig_13TeV:hggpdfsmrel_WHMf05ph0_2016PostVFP_AC_Bin15_13TeV'
p189
aS'wsig_13TeV:hggpdfsmrel_WHbsmM_2016PostVFP_AC_Bin15_13TeV'
p190
aS'wsig_13TeV:hggpdfsmrel_WHsm_2016PostVFP_AC_Bin15_13TeV'
p191
aS'wsig_13TeV:hggpdfsmrel_ZHMf05ph0_2016PostVFP_AC_Bin15_13TeV'
p192
aS'wsig_13TeV:hggpdfsmrel_ZHbsmM_2016PostVFP_AC_Bin15_13TeV'
p193
aS'wsig_13TeV:hggpdfsmrel_ZHsm_2016PostVFP_AC_Bin15_13TeV'
p194
aS'multipdf:CMS_hgg_AC_Bin15_2016PostVFP_13TeV_bkgshape'
p195
aS'multipdf:roohist_data_mass_AC_Bin15'
p196
aF0.45486198796061217
aF0.518547186295109
aF0.26538710992463166
aF0.005335657042451203
aF0.1933367268939037
aF0.06049228176379984
aF0.43240988360958
aF0.0010051033896161243
aF0.0011189335054950789
aF0.004932517478664522
aF0.002708663079829421
aF0.001470325791160576
aF0.00691919122436957
ag127
ag127
aF0.00017370005624544417
aF0.0001989512566054193
aF9.921976794678535e-05
aF3.298261086027259e-05
aF5.0097500208808366e-05
aF1.1989862703271511e-05
aF0.0003593900794446316
aF2.6989961381713536e-07
aF1.892838005702042e-07
aF8.594127703735231e-07
aF3.14471741242531e-07
aF1.886177003951139e-07
aF1.7426100908371947e-06
ag127
ag127
aF0.46756825943835534
aF0.5353477465006863
aF0.27335095341006854
aF0.005448583580259512
aF0.19956963764991717
aF0.06240272893378975
aF0.4436709478611936
aF0.0010302883864028813
aF0.0011373303238284116
aF0.005153315205217867
aF0.002751938214560448
aF0.0014998771274914134
aF0.007061038151761512
ag127
ag127
atp197
ba(lp198
g15
(g16
(dp199
g18
g19
(g20
(I0
tp200
g22
tp201
Rp202
(I1
(I1
tp203
g29
I00
(lp204
g43
atp205
bsg48
Nstp206
Rp207
ag15
(g16
(dp208
g18
g19
(g20
(I0
tp209
g22
tp210
Rp211
(I1
(I13
tp212
g29
I00
(lp213
g33
ag34
ag35
ag36
ag37
ag38
ag39
ag40
ag41
ag42
ag44
ag45
ag46
atp214
bsg48
Nstp215
Rp216
a(dp217
S'0.14.1'
p218
(dp219
S'axes'
p220
g14
sS'blocks'
p221
(lp222
(dp223
S'mgr_locs'
p224
c__builtin__
slice
p225
(I10
I11
I1
tp226
Rp227
sS'values'
p228
g69
sa(dp229
g224
g19
(g20
(I0
tp230
g22
tp231
Rp232
(I1
(I13
tp233
g59
I00
S'\x00\x00\x00\x00\x00\x00\x00\x00\x01\x00\x00\x00\x00\x00\x00\x00\x02\x00\x00\x00\x00\x00\x00\x00\x03\x00\x00\x00\x00\x00\x00\x00\x04\x00\x00\x00\x00\x00\x00\x00\x05\x00\x00\x00\x00\x00\x00\x00\x06\x00\x00\x00\x00\x00\x00\x00\x07\x00\x00\x00\x00\x00\x00\x00\x08\x00\x00\x00\x00\x00\x00\x00\t\x00\x00\x00\x00\x00\x00\x00\x0b\x00\x00\x00\x00\x00\x00\x00\x0c\x00\x00\x00\x00\x00\x00\x00\r\x00\x00\x00\x00\x00\x00\x00'
p234
tp235
bsg228
g80
sasstp236
bsb.