ccopy_reg
_reconstructor
p0
(cpandas.core.frame
DataFrame
p1
c__builtin__
object
p2
Ntp3
Rp4
(dp5
S'_metadata'
p6
(lp7
sS'_typ'
p8
S'dataframe'
p9
sS'_data'
p10
g0
(cpandas.core.internals
BlockManager
p11
g2
Ntp12
Rp13
((lp14
cpandas.core.indexes.base
_new_Index
p15
(cpandas.core.indexes.base
Index
p16
(dp17
S'data'
p18
cnumpy.core.multiarray
_reconstruct
p19
(cnumpy
ndarray
p20
(I0
tp21
S'b'
p22
tp23
Rp24
(I1
(I32
tp25
cnumpy
dtype
p26
(S'O8'
p27
I0
I1
tp28
Rp29
(I3
S'|'
p30
NNNI-1
I-1
I63
tp31
bI00
(lp32
S'year'
p33
aS'type'
p34
aS'procOriginal'
p35
aS'proc'
p36
aS'proc_s0'
p37
aS'cat'
p38
aS'inputWSFile'
p39
aS'nominalDataName'
p40
aS'modelWSFile'
p41
aS'model'
p42
aS'rate'
p43
aS'nominal_yield'
p44
aS'sumw2'
p45
aS'nominal_yield_COWCorr'
p46
aS'LooseMvaSF_up_yield'
p47
aS'LooseMvaSF_down_yield'
p48
aS'PreselSF_up_yield'
p49
aS'PreselSF_down_yield'
p50
aS'electronVetoSF_up_yield'
p51
aS'electronVetoSF_down_yield'
p52
aS'TriggerWeight_up_yield'
p53
aS'TriggerWeight_down_yield'
p54
aS'SigmaEOverEShift_up_yield'
p55
aS'SigmaEOverEShift_down_yield'
p56
aS'MvaShift_up_yield'
p57
aS'MvaShift_down_yield'
p58
aS'PUJIDShift_up_yield'
p59
aS'PUJIDShift_down_yield'
p60
aS'JEC_up_yield'
p61
aS'JEC_down_yield'
p62
aS'JER_up_yield'
p63
aS'JER_down_yield'
p64
atp65
bsS'name'
p66
Nstp67
Rp68
ag15
(cpandas.core.indexes.numeric
Int64Index
p69
(dp70
g18
g19
(g20
(I0
tp71
g22
tp72
Rp73
(I1
(I15
tp74
g26
(S'i8'
p75
I0
I1
tp76
Rp77
(I3
S'<'
p78
NNNI-1
I-1
I0
tp79
bI00
S'\x00\x00\x00\x00\x00\x00\x00\x00\x01\x00\x00\x00\x00\x00\x00\x00\x02\x00\x00\x00\x00\x00\x00\x00\x03\x00\x00\x00\x00\x00\x00\x00\x04\x00\x00\x00\x00\x00\x00\x00\x05\x00\x00\x00\x00\x00\x00\x00\x06\x00\x00\x00\x00\x00\x00\x00\x07\x00\x00\x00\x00\x00\x00\x00\x08\x00\x00\x00\x00\x00\x00\x00\t\x00\x00\x00\x00\x00\x00\x00\n\x00\x00\x00\x00\x00\x00\x00\x0b\x00\x00\x00\x00\x00\x00\x00\x0c\x00\x00\x00\x00\x00\x00\x00\r\x00\x00\x00\x00\x00\x00\x00\x0e\x00\x00\x00\x00\x00\x00\x00'
p80
tp81
bsg66
Nstp82
Rp83
a(lp84
g19
(g20
(I0
tp85
g22
tp86
Rp87
(I1
(I1
I15
tp88
g26
(S'f8'
p89
I0
I1
tp90
Rp91
(I3
S'<'
p92
NNNI-1
I-1
I0
tp93
bI00
S'\x00\x00\x00\x00\x80j\xd0@\x00\x00\x00\x00\x80j\xd0@\x00\x00\x00\x00\x80j\xd0@\x00\x00\x00\x00\x80j\xd0@\x00\x00\x00\x00\x80j\xd0@\x00\x00\x00\x00\x80j\xd0@\x00\x00\x00\x00\x80j\xd0@\x00\x00\x00\x00\x80j\xd0@\x00\x00\x00\x00\x80j\xd0@\x00\x00\x00\x00\x80j\xd0@\x00\x00\x00\x00\x80j\xd0@\x00\x00\x00\x00\x80j\xd0@\x00\x00\x00\x00\x80j\xd0@\x00\x00\x00\x00\x00\x00\xf0?\x00\x00\x00\x00\x00\x00\xf0\xbf'
p94
tp95
bag19
(g20
(I0
tp96
g22
tp97
Rp98
(I1
(I31
I15
tp99
g29
I00
(lp100
S'2016postVFP'
p101
ag101
ag101
ag101
ag101
ag101
ag101
ag101
ag101
ag101
ag101
ag101
ag101
ag33
ag33
aS'sig'
p102
ag102
ag102
ag102
ag102
ag102
ag102
ag102
ag102
ag102
ag102
ag102
ag102
aS'bkg'
p103
ag18
aS'GG2HMf05ph0'
p104
aS'GG2HbsmM'
p105
aS'GG2Hsm'
p106
aS'TTHsm'
p107
aS'VBFMf05ph0'
p108
aS'VBFbsmM'
p109
aS'VBFsm'
p110
aS'WHMf05ph0'
p111
aS'WHbsmM'
p112
aS'WHsm'
p113
aS'ZHMf05ph0'
p114
aS'ZHbsmM'
p115
aS'ZHsm'
p116
aS'bkg_mass'
p117
aS'data_obs'
p118
aS'GG2HMf05ph0_2016postVFP_hgg'
p119
aS'GG2HbsmM_2016postVFP_hgg'
p120
aS'GG2Hsm_2016postVFP_hgg'
p121
aS'tth0P_2016postVFP_hgg'
p122
aS'vbf0Mf05ph0_2016postVFP_hgg'
p123
aS'vbf0M_2016postVFP_hgg'
p124
aS'vbf0P_2016postVFP_hgg'
p125
aS'wh0Mf05ph0_2016postVFP_hgg'
p126
aS'wh0M_2016postVFP_hgg'
p127
aS'wh0P_2016postVFP_hgg'
p128
aS'zh0Mf05ph0_2016postVFP_hgg'
p129
aS'zh0M_2016postVFP_hgg'
p130
aS'zh0P_2016postVFP_hgg'
p131
ag117
ag118
aS'jjh0Mf05ph0'
p132
aS'jjh0M'
p133
aS'jjh0P'
p134
aS'tth0P'
p135
aS'vbf0Mf05ph0'
p136
aS'vbf0M'
p137
aS'vbf0P'
p138
aS'wh0Mf05ph0'
p139
aS'wh0M'
p140
aS'wh0P'
p141
aS'zh0Mf05ph0'
p142
aS'zh0M'
p143
aS'zh0P'
p144
aS'-'
p145
ag145
aS'AC_Bin29_2016postVFP'
p146
aS'AC_Bin29_2016postVFP'
p147
aS'AC_Bin29_2016postVFP'
p148
aS'AC_Bin29_2016postVFP'
p149
aS'AC_Bin29_2016postVFP'
p150
aS'AC_Bin29_2016postVFP'
p151
aS'AC_Bin29_2016postVFP'
p152
aS'AC_Bin29_2016postVFP'
p153
aS'AC_Bin29_2016postVFP'
p154
aS'AC_Bin29_2016postVFP'
p155
aS'AC_Bin29_2016postVFP'
p156
aS'AC_Bin29_2016postVFP'
p157
aS'AC_Bin29_2016postVFP'
p158
aS'AC_Bin29_2016postVFP'
p159
ag159
aS'Trees/Opt_2016postVFP/2016PostVFP/Trees2WS_2016postVFP/WS/output_GluGluHToGGPlusTwoJets_MM_M125_TuneCP5_13TeV-amcatnlopowheg-minlo-pythia8_GG2HMf05ph0.root'
p160
aS'Trees/Opt_2016postVFP/2016PostVFP/Trees2WS_2016postVFP/WS/output_GluGluHToGGPlusTwoJets_CPodd_M125_TuneCP5_13TeV-amcatnlopowheg-minlo-pythia8_GG2HbsmM.root'
p161
aS'Trees/Opt_2016postVFP/2016PostVFP/Trees2WS_2016postVFP/WS/output_GluGluHToGGPlusTwoJets_SM_M125_TuneCP5_13TeV-amcatnlopowheg-minlo-pythia8_GG2Hsm.root'
p162
aS'Trees/Opt_2016postVFP/2016PostVFP/Trees2WS_2016postVFP/WS/output_ttHJetToGG_M125_TuneCP5_13TeV-amcatnloFXFX-madspin-pythia8_TTHsm.root'
p163
aS'Trees/Opt_2016postVFP/2016PostVFP/Trees2WS_2016postVFP/WS/output_VBFHiggs0Mf05ph0ToGG_M125_TuneCP5_13TeV-JHUGenV7011-pythia8_VBFMf05ph0.root'
p164
aS'Trees/Opt_2016postVFP/2016PostVFP/Trees2WS_2016postVFP/WS/output_VBFHiggs0MToGG_M125_TuneCP5_13TeV-JHUGenV7011-pythia8_VBFbsmM.root'
p165
aS'Trees/Opt_2016postVFP/2016PostVFP/Trees2WS_2016postVFP/WS/output_VBFHToGG_M125_TuneCP5_13TeV-amcatnlo-pythia8_VBFsm.root'
p166
aS'Trees/Opt_2016postVFP/2016PostVFP/Trees2WS_2016postVFP/WS/output_WHiggs0Mf05ph0ToGG_M125_TuneCP5_13TeV-JHUGenV7011-pythia8_WHMf05ph0.root'
p167
aS'Trees/Opt_2016postVFP/2016PostVFP/Trees2WS_2016postVFP/WS/output_WHiggs0MToGG_M125_TuneCP5_13TeV-JHUGenV7011-pythia8_WHbsmM.root'
p168
aS'Trees/Opt_2016postVFP/2016PostVFP/Trees2WS_2016postVFP/WS/output_WHiggs0PMToGG_M125_TuneCP5_13TeV-JHUGenV7011-pythia8_WHsm.root'
p169
aS'Trees/Opt_2016postVFP/2016PostVFP/Trees2WS_2016postVFP/WS/output_ZHiggs0Mf05ph0ToGG_M125_TuneCP5_13TeV-JHUGenV7011-pythia8_ZHMf05ph0.root'
p170
aS'Trees/Opt_2016postVFP/2016PostVFP/Trees2WS_2016postVFP/WS/output_ZHiggs0MToGG_M125_TuneCP5_13TeV-JHUGenV7011-pythia8_ZHbsmM.root'
p171
aS'Trees/Opt_2016postVFP/2016PostVFP/Trees2WS_2016postVFP/WS/output_ZH_HToGG_ZToAll_M125_TuneCP5_13TeV-powheg-pythia8_ZHsm.root'
p172
ag145
ag145
aS'jjh0Mf05ph0_125_13TeV_AC_Bin29'
p173
aS'jjh0M_125_13TeV_AC_Bin29'
p174
aS'jjh0P_125_13TeV_AC_Bin29'
p175
aS'tth0P_125_13TeV_AC_Bin29'
p176
aS'vbf0Mf05ph0_125_13TeV_AC_Bin29'
p177
aS'vbf0M_125_13TeV_AC_Bin29'
p178
aS'vbf0P_125_13TeV_AC_Bin29'
p179
aS'wh0Mf05ph0_125_13TeV_AC_Bin29'
p180
aS'wh0M_125_13TeV_AC_Bin29'
p181
aS'wh0P_125_13TeV_AC_Bin29'
p182
aS'zh0Mf05ph0_125_13TeV_AC_Bin29'
p183
aS'zh0M_125_13TeV_AC_Bin29'
p184
aS'zh0P_125_13TeV_AC_Bin29'
p185
ag145
ag145
aS'./Models/signal/CMS-HGG_sigfit_packaged_AC_Bin29_2016postVFP.root'
p186
aS'./Models/signal/CMS-HGG_sigfit_packaged_AC_Bin29_2016postVFP.root'
p187
aS'./Models/signal/CMS-HGG_sigfit_packaged_AC_Bin29_2016postVFP.root'
p188
aS'./Models/signal/CMS-HGG_sigfit_packaged_AC_Bin29_2016postVFP.root'
p189
aS'./Models/signal/CMS-HGG_sigfit_packaged_AC_Bin29_2016postVFP.root'
p190
aS'./Models/signal/CMS-HGG_sigfit_packaged_AC_Bin29_2016postVFP.root'
p191
aS'./Models/signal/CMS-HGG_sigfit_packaged_AC_Bin29_2016postVFP.root'
p192
aS'./Models/signal/CMS-HGG_sigfit_packaged_AC_Bin29_2016postVFP.root'
p193
aS'./Models/signal/CMS-HGG_sigfit_packaged_AC_Bin29_2016postVFP.root'
p194
aS'./Models/signal/CMS-HGG_sigfit_packaged_AC_Bin29_2016postVFP.root'
p195
aS'./Models/signal/CMS-HGG_sigfit_packaged_AC_Bin29_2016postVFP.root'
p196
aS'./Models/signal/CMS-HGG_sigfit_packaged_AC_Bin29_2016postVFP.root'
p197
aS'./Models/signal/CMS-HGG_sigfit_packaged_AC_Bin29_2016postVFP.root'
p198
aS'./Models/background/CMS-HGG_multipdf_AC_Bin29_2016postVFP.root'
p199
ag199
aS'wsig_13TeV:hggpdfsmrel_GG2HMf05ph0_2016postVFP_AC_Bin29_13TeV'
p200
aS'wsig_13TeV:hggpdfsmrel_GG2HbsmM_2016postVFP_AC_Bin29_13TeV'
p201
aS'wsig_13TeV:hggpdfsmrel_GG2Hsm_2016postVFP_AC_Bin29_13TeV'
p202
aS'wsig_13TeV:hggpdfsmrel_TTHsm_2016postVFP_AC_Bin29_13TeV'
p203
aS'wsig_13TeV:hggpdfsmrel_VBFMf05ph0_2016postVFP_AC_Bin29_13TeV'
p204
aS'wsig_13TeV:hggpdfsmrel_VBFbsmM_2016postVFP_AC_Bin29_13TeV'
p205
aS'wsig_13TeV:hggpdfsmrel_VBFsm_2016postVFP_AC_Bin29_13TeV'
p206
aS'wsig_13TeV:hggpdfsmrel_WHMf05ph0_2016postVFP_AC_Bin29_13TeV'
p207
aS'wsig_13TeV:hggpdfsmrel_WHbsmM_2016postVFP_AC_Bin29_13TeV'
p208
aS'wsig_13TeV:hggpdfsmrel_WHsm_2016postVFP_AC_Bin29_13TeV'
p209
aS'wsig_13TeV:hggpdfsmrel_ZHMf05ph0_2016postVFP_AC_Bin29_13TeV'
p210
aS'wsig_13TeV:hggpdfsmrel_ZHbsmM_2016postVFP_AC_Bin29_13TeV'
p211
aS'wsig_13TeV:hggpdfsmrel_ZHsm_2016postVFP_AC_Bin29_13TeV'
p212
aS'multipdf:CMS_hgg_AC_Bin29_2016postVFP_13TeV_bkgshape'
p213
aS'multipdf:roohist_data_mass_AC_Bin29'
p214
aF0.03103231838827014
aF0.015302663193779154
aF0.0365921089648964
aF0.00403411084516847
aF0.016866606609937662
aF0.018239227612298237
aF0.036345456901358375
aF8.619292020739522e-05
aF0.0005990657811025812
aF0.00024690221607670537
aF0.00042018819260647433
aF0.000565698816103577
aF0.0007426468127960106
ag145
ag145
aF7.09446787454018e-07
aF3.638848857694924e-07
aF8.165010099241677e-07
aF1.1760178569064964e-06
aF2.1265769214847465e-07
aF2.268917928272456e-07
aF1.9220502474409893e-06
aF2.3286867266927163e-09
aF6.267941861538585e-09
aF2.5357731845685e-09
aF2.895957374333495e-09
aF4.121240621368371e-09
aF1.1838625799112714e-08
ag145
ag145
aF0.031640203184791715
aF0.015603649988707708
aF0.037328060450533315
aF0.004132251421040141
aF0.017199159375558742
aF0.018581695753892666
aF0.03709582343295586
aF8.773721328833008e-05
aF0.0006097681827558677
aF0.000251057549989116
aF0.0004277438097680253
aF0.0005777968741136733
aF0.000761210638084376
ag145
ag145
aF0.0312551264769219
aF0.015412124153516452
aF0.03685570007299058
aF0.004065537819769396
aF0.016987743856151816
aF0.018371123309896993
aF0.036605192527129675
aF8.682136266899313e-05
aF0.0006033741615886853
aF0.00024858462473193734
aF0.0004231737247516138
aF0.0005697592930356885
aF0.0007479260557049757
ag145
ag145
aF0.030810313084785785
aF0.015193594558512885
aF0.03632946958547195
aF0.004002804774211843
aF0.016745905865746008
aF0.018107811203804287
aF0.03608665191490907
aF8.55667565825412e-05
aF0.0005947729709912498
aF0.0002452255652195914
aF0.0004172132911275786
aF0.0005616528647259368
aF0.0007373865081555074
ag145
ag145
aF0.03136442311406952
aF0.015473543659617754
aF0.036993591754993546
aF0.004072529834928019
aF0.01704617055406525
aF0.018419683708897325
aF0.03673372697928303
aF8.684264337109138e-05
aF0.0006051329943171435
aF0.0002500210337827684
aF0.0004246878239288383
aF0.000571743158747948
aF0.0007504456415449136
ag145
ag145
aF0.030702018097249387
aF0.015132696106694741
aF0.03619273720160546
aF0.003995870287160052
aF0.01668800833213884
aF0.018059630218232488
aF0.03595914380942568
aF8.554563706674324e-05
aF0.0005930261237787086
aF0.00024379923220143966
aF0.00041571092483734366
aF0.0005596837741317017
aF0.0007348847048365087
ag145
ag145
aF0.031079363982429033
aF0.015327242343029577
aF0.036647896689005637
aF0.0040383024525160825
aF0.01689248200756005
aF0.018265783029449183
aF0.0364024936283666
aF8.629770650306572e-05
aF0.0005999632212976147
aF0.00024734751932687813
aF0.00042084810937234374
aF0.0005665435314087522
aF0.0007439301321894074
ag145
ag145
aF0.03098530956307256
aF0.015278104217163498
aF0.03653636459704427
aF0.00402992114132979
aF0.016840752087453743
aF0.01821269443699342
aF0.03628846726874912
aF8.608818958361563e-05
aF0.000598169140805731
aF0.0002464573154312221
aF0.0004195287519310177
aF0.0005648547248740757
aF0.0007413646862742647
ag145
ag145
aF0.031098795296385474
aF0.015335990780650803
aF0.03667258673187971
aF0.004044035910427972
aF0.016902931161909253
aF0.018277292236135702
aF0.036425580133395266
aF8.636610733156567e-05
aF0.0006002714580622849
aF0.0002473994559470638
aF0.000421036309434027
aF0.0005669331032692154
aF0.000744337840392433
ag145
ag145
aF0.030965912627005588
aF0.015269371644268781
aF0.0365117191033098
aF0.004024197206568212
aF0.016830320890537397
aF0.01820120247837266
aF0.036265404928889605
aF8.601990485573112e-05
aF0.000597861316041612
aF0.000246405479315227
aF0.00041934092127262685
aF0.000564465869618581
aF0.0007409576516484214
ag145
ag145
aF0.03053932696980155
aF0.015036780697755603
aF0.03629548058029286
aF0.0039210384547914146
aF0.016710556274347255
aF0.018191790907053473
aF0.03596211808417138
aF0.0010568730579052499
aF0.0010935975174106716
aF0.00024690221607670537
aF0.0004109439561261752
aF0.000565698816103577
aF0.0007426468127960106
ag145
ag145
aF0.03138876099069421
aF0.01571150910740471
aF0.03716611518461832
aF0.00403411084516847
aF0.017093624070980695
aF0.018363337155619774
aF0.03744579536146375
aF0.0010711547513437836
aF0.001134356683905935
aF0.00025272036873502657
aF0.00042018819260647433
aF0.0005743335879060396
aF0.0007426468127960106
ag145
ag145
aF0.031463467910498366
aF0.0156277695054996
aF0.0371476477782835
aF0.003789527463595732
aF0.01701216716514864
aF0.018453574136287898
aF0.03690928628975598
aF0.0010568730579052499
aF0.0011365882112386316
aF0.00024690221607670537
aF0.00041162363197599916
aF0.0005852492273561438
aF0.0007559123678220203
ag145
ag145
aF0.030711002292491685
aF0.015015587322068313
aF0.0360200977063414
aF0.003957230879677809
aF0.016514738163323273
aF0.01804508360271484
aF0.03583930271963709
aF0.0010425912998925924
aF0.0011218842764719739
aF0.00024690221607670537
aF0.00040041761224074435
aF0.0005496657917092307
aF0.0007218865657705464
ag145
ag145
aF0.031491491544102246
aF0.015478249051284365
aF0.036984933338999326
aF0.00403411084516847
aF0.016911503496203295
aF0.01827123096370542
aF0.03651121999598672
aF0.0010762731674276438
aF0.0011438748515502084
aF0.0002586612567938573
aF0.0004256457378915002
aF0.0005763376549339227
aF0.0007426468127960106
ag145
ag145
aF0.030783856160951473
aF0.015101669329624201
aF0.03619747390393968
aF0.00403411084516847
aF0.016729588834778042
aF0.018157436357682855
aF0.03610318021230796
aF0.0010270679306358943
aF0.0010949375860036525
aF0.00022886243505126913
aF0.00041179232823651546
aF0.0005549990797817372
aF0.0007426468127960106
ag145
ag145
aF0.032344565030825834
aF0.015920387880669296
aF0.038394473996731904
aF0.0043247977937426185
aF0.017425069527121195
aF0.01861508328011041
aF0.03706811387132802
aF0.0011207960926640226
aF0.0013394899433478713
aF0.00030302691311590024
aF0.0004314259871307513
aF0.00066248767518573
aF0.0007711956068305881
ag145
ag145
aF0.02951781061483416
aF0.014808925387114868
aF0.03508650912954181
aF0.003701800991620985
aF0.016327770427892574
aF0.017731973076820395
aF0.035468934686377906
aF0.0010311802122942026
aF0.0009982456203943002
aF0.00022212918838704354
aF0.0003652960857607468
aF0.00048439963359214744
aF0.0007062460999804898
ag145
ag145
aF0.031115581152107552
aF0.015658699503546814
aF0.036665564001850726
aF0.0042001017045549816
aF0.016858915906709626
aF0.018216394894238874
aF0.03723681263988965
aF0.0011042795397315786
aF0.0012136239115534408
aF0.00027140410975334817
aF0.0004090746180054339
aF0.0005938159032439216
aF0.0007552749530077563
ag145
ag145
aF0.031113380601937024
aF0.015058859041346295
aF0.036493238391130944
aF0.003927165487766615
aF0.016824116115344623
aF0.018193507365936057
aF0.03657643951180489
aF0.001077677178045633
aF0.0010941192986138049
aF0.00023108568029783783
aF0.0004035338653238796
aF0.0005675810613183785
aF0.000731551852368284
ag145
ag145
atp215
ba(lp216
g15
(g16
(dp217
g18
g19
(g20
(I0
tp218
g22
tp219
Rp220
(I1
(I1
tp221
g29
I00
(lp222
g43
atp223
bsg66
Nstp224
Rp225
ag15
(g16
(dp226
g18
g19
(g20
(I0
tp227
g22
tp228
Rp229
(I1
(I31
tp230
g29
I00
(lp231
g33
ag34
ag35
ag36
ag37
ag38
ag39
ag40
ag41
ag42
ag44
ag45
ag46
ag47
ag48
ag49
ag50
ag51
ag52
ag53
ag54
ag55
ag56
ag57
ag58
ag59
ag60
ag61
ag62
ag63
ag64
atp232
bsg66
Nstp233
Rp234
a(dp235
S'0.14.1'
p236
(dp237
S'axes'
p238
g14
sS'blocks'
p239
(lp240
(dp241
S'mgr_locs'
p242
c__builtin__
slice
p243
(I10
I11
I1
tp244
Rp245
sS'values'
p246
g87
sa(dp247
g242
g19
(g20
(I0
tp248
g22
tp249
Rp250
(I1
(I31
tp251
g77
I00
S'\x00\x00\x00\x00\x00\x00\x00\x00\x01\x00\x00\x00\x00\x00\x00\x00\x02\x00\x00\x00\x00\x00\x00\x00\x03\x00\x00\x00\x00\x00\x00\x00\x04\x00\x00\x00\x00\x00\x00\x00\x05\x00\x00\x00\x00\x00\x00\x00\x06\x00\x00\x00\x00\x00\x00\x00\x07\x00\x00\x00\x00\x00\x00\x00\x08\x00\x00\x00\x00\x00\x00\x00\t\x00\x00\x00\x00\x00\x00\x00\x0b\x00\x00\x00\x00\x00\x00\x00\x0c\x00\x00\x00\x00\x00\x00\x00\r\x00\x00\x00\x00\x00\x00\x00\x0e\x00\x00\x00\x00\x00\x00\x00\x0f\x00\x00\x00\x00\x00\x00\x00\x10\x00\x00\x00\x00\x00\x00\x00\x11\x00\x00\x00\x00\x00\x00\x00\x12\x00\x00\x00\x00\x00\x00\x00\x13\x00\x00\x00\x00\x00\x00\x00\x14\x00\x00\x00\x00\x00\x00\x00\x15\x00\x00\x00\x00\x00\x00\x00\x16\x00\x00\x00\x00\x00\x00\x00\x17\x00\x00\x00\x00\x00\x00\x00\x18\x00\x00\x00\x00\x00\x00\x00\x19\x00\x00\x00\x00\x00\x00\x00\x1a\x00\x00\x00\x00\x00\x00\x00\x1b\x00\x00\x00\x00\x00\x00\x00\x1c\x00\x00\x00\x00\x00\x00\x00\x1d\x00\x00\x00\x00\x00\x00\x00\x1e\x00\x00\x00\x00\x00\x00\x00\x1f\x00\x00\x00\x00\x00\x00\x00'
p252
tp253
bsg246
g98
sasstp254
bsb.