ccopy_reg
_reconstructor
p0
(cpandas.core.frame
DataFrame
p1
c__builtin__
object
p2
Ntp3
Rp4
(dp5
S'_metadata'
p6
(lp7
sS'_typ'
p8
S'dataframe'
p9
sS'_data'
p10
g0
(cpandas.core.internals
BlockManager
p11
g2
Ntp12
Rp13
((lp14
cpandas.core.indexes.base
_new_Index
p15
(cpandas.core.indexes.base
Index
p16
(dp17
S'data'
p18
cnumpy.core.multiarray
_reconstruct
p19
(cnumpy
ndarray
p20
(I0
tp21
S'b'
p22
tp23
Rp24
(I1
(I34
tp25
cnumpy
dtype
p26
(S'O8'
p27
I0
I1
tp28
Rp29
(I3
S'|'
p30
NNNI-1
I-1
I63
tp31
bI00
(lp32
S'year'
p33
aS'type'
p34
aS'procOriginal'
p35
aS'proc'
p36
aS'proc_s0'
p37
aS'cat'
p38
aS'inputWSFile'
p39
aS'nominalDataName'
p40
aS'modelWSFile'
p41
aS'model'
p42
aS'rate'
p43
aS'nominal_yield'
p44
aS'sumw2'
p45
aS'nominal_yield_COWCorr'
p46
aS'LooseMvaSF_up_yield'
p47
aS'LooseMvaSF_down_yield'
p48
aS'PreselSF_up_yield'
p49
aS'PreselSF_down_yield'
p50
aS'electronVetoSF_up_yield'
p51
aS'electronVetoSF_down_yield'
p52
aS'TriggerWeight_up_yield'
p53
aS'TriggerWeight_down_yield'
p54
aS'SigmaEOverEShift_up_yield'
p55
aS'SigmaEOverEShift_down_yield'
p56
aS'MvaShift_up_yield'
p57
aS'MvaShift_down_yield'
p58
aS'PUJIDShift_up_yield'
p59
aS'PUJIDShift_down_yield'
p60
aS'JEC_up_yield'
p61
aS'JEC_down_yield'
p62
aS'JER_up_yield'
p63
aS'JER_down_yield'
p64
aS'JetHEM_up_yield'
p65
aS'JetHEM_down_yield'
p66
atp67
bsS'name'
p68
Nstp69
Rp70
ag15
(cpandas.core.indexes.numeric
Int64Index
p71
(dp72
g18
g19
(g20
(I0
tp73
g22
tp74
Rp75
(I1
(I15
tp76
g26
(S'i8'
p77
I0
I1
tp78
Rp79
(I3
S'<'
p80
NNNI-1
I-1
I0
tp81
bI00
S'\x00\x00\x00\x00\x00\x00\x00\x00\x01\x00\x00\x00\x00\x00\x00\x00\x02\x00\x00\x00\x00\x00\x00\x00\x03\x00\x00\x00\x00\x00\x00\x00\x04\x00\x00\x00\x00\x00\x00\x00\x05\x00\x00\x00\x00\x00\x00\x00\x06\x00\x00\x00\x00\x00\x00\x00\x07\x00\x00\x00\x00\x00\x00\x00\x08\x00\x00\x00\x00\x00\x00\x00\t\x00\x00\x00\x00\x00\x00\x00\n\x00\x00\x00\x00\x00\x00\x00\x0b\x00\x00\x00\x00\x00\x00\x00\x0c\x00\x00\x00\x00\x00\x00\x00\r\x00\x00\x00\x00\x00\x00\x00\x0e\x00\x00\x00\x00\x00\x00\x00'
p82
tp83
bsg68
Nstp84
Rp85
a(lp86
g19
(g20
(I0
tp87
g22
tp88
Rp89
(I1
(I1
I15
tp90
g26
(S'f8'
p91
I0
I1
tp92
Rp93
(I3
S'<'
p94
NNNI-1
I-1
I0
tp95
bI00
S'\x00\x00\x00\x00\x00\x10\xd3@\x00\x00\x00\x00\x00\x10\xd3@\x00\x00\x00\x00\x00\x10\xd3@\x00\x00\x00\x00\x00\x10\xd3@\x00\x00\x00\x00\x00\x10\xd3@\x00\x00\x00\x00\x00\x10\xd3@\x00\x00\x00\x00\x00\x10\xd3@\x00\x00\x00\x00\x00\x10\xd3@\x00\x00\x00\x00\x00\x10\xd3@\x00\x00\x00\x00\x00\x10\xd3@\x00\x00\x00\x00\x00\x10\xd3@\x00\x00\x00\x00\x00\x10\xd3@\x00\x00\x00\x00\x00\x10\xd3@\x00\x00\x00\x00\x00\x00\xf0?\x00\x00\x00\x00\x00\x00\xf0\xbf'
p96
tp97
bag19
(g20
(I0
tp98
g22
tp99
Rp100
(I1
(I33
I15
tp101
g29
I00
(lp102
S'2016preVFP'
p103
ag103
ag103
ag103
ag103
ag103
ag103
ag103
ag103
ag103
ag103
ag103
ag103
ag33
ag33
aS'sig'
p104
ag104
ag104
ag104
ag104
ag104
ag104
ag104
ag104
ag104
ag104
ag104
ag104
aS'bkg'
p105
ag18
aS'GG2HMf05ph0'
p106
aS'GG2HbsmM'
p107
aS'GG2Hsm'
p108
aS'TTHsm'
p109
aS'VBFMf05ph0'
p110
aS'VBFbsmM'
p111
aS'VBFsm'
p112
aS'WHMf05ph0'
p113
aS'WHbsmM'
p114
aS'WHsm'
p115
aS'ZHMf05ph0'
p116
aS'ZHbsmM'
p117
aS'ZHsm'
p118
aS'bkg_mass'
p119
aS'data_obs'
p120
aS'GG2HMf05ph0_2016preVFP_hgg'
p121
aS'GG2HbsmM_2016preVFP_hgg'
p122
aS'GG2Hsm_2016preVFP_hgg'
p123
aS'tth0P_2016preVFP_hgg'
p124
aS'vbf0Mf05ph0_2016preVFP_hgg'
p125
aS'vbf0M_2016preVFP_hgg'
p126
aS'vbf0P_2016preVFP_hgg'
p127
aS'wh0Mf05ph0_2016preVFP_hgg'
p128
aS'wh0M_2016preVFP_hgg'
p129
aS'wh0P_2016preVFP_hgg'
p130
aS'zh0Mf05ph0_2016preVFP_hgg'
p131
aS'zh0M_2016preVFP_hgg'
p132
aS'zh0P_2016preVFP_hgg'
p133
ag119
ag120
aS'jjh0Mf05ph0'
p134
aS'jjh0M'
p135
aS'jjh0P'
p136
aS'tth0P'
p137
aS'vbf0Mf05ph0'
p138
aS'vbf0M'
p139
aS'vbf0P'
p140
aS'wh0Mf05ph0'
p141
aS'wh0M'
p142
aS'wh0P'
p143
aS'zh0Mf05ph0'
p144
aS'zh0M'
p145
aS'zh0P'
p146
aS'-'
p147
ag147
aS'AC_Bin8_2016preVFP'
p148
aS'AC_Bin8_2016preVFP'
p149
aS'AC_Bin8_2016preVFP'
p150
aS'AC_Bin8_2016preVFP'
p151
aS'AC_Bin8_2016preVFP'
p152
aS'AC_Bin8_2016preVFP'
p153
aS'AC_Bin8_2016preVFP'
p154
aS'AC_Bin8_2016preVFP'
p155
aS'AC_Bin8_2016preVFP'
p156
aS'AC_Bin8_2016preVFP'
p157
aS'AC_Bin8_2016preVFP'
p158
aS'AC_Bin8_2016preVFP'
p159
aS'AC_Bin8_2016preVFP'
p160
aS'AC_Bin8_2016preVFP'
p161
ag161
aS'Trees/Opt_2016preVFP/2016PreVFP/Trees2WS_2016preVFP/WS/output_GluGluHToGGPlusTwoJets_MM_M125_TuneCP5_13TeV-amcatnlopowheg-minlo-pythia8_GG2HMf05ph0.root'
p162
aS'Trees/Opt_2016preVFP/2016PreVFP/Trees2WS_2016preVFP/WS/output_GluGluHToGGPlusTwoJets_CPodd_M125_TuneCP5_13TeV-amcatnlopowheg-minlo-pythia8_GG2HbsmM.root'
p163
aS'Trees/Opt_2016preVFP/2016PreVFP/Trees2WS_2016preVFP/WS/output_GluGluHToGGPlusTwoJets_SM_M125_TuneCP5_13TeV-amcatnlopowheg-minlo-pythia8_GG2Hsm.root'
p164
aS'Trees/Opt_2016preVFP/2016PreVFP/Trees2WS_2016preVFP/WS/output_ttHJetToGG_M125_TuneCP5_13TeV-amcatnloFXFX-madspin-pythia8_TTHsm.root'
p165
aS'Trees/Opt_2016preVFP/2016PreVFP/Trees2WS_2016preVFP/WS/output_VBFHiggs0Mf05ph0ToGG_M125_TuneCP5_13TeV-JHUGenV7011-pythia8_VBFMf05ph0.root'
p166
aS'Trees/Opt_2016preVFP/2016PreVFP/Trees2WS_2016preVFP/WS/output_VBFHiggs0MToGG_M125_TuneCP5_13TeV-JHUGenV7011-pythia8_VBFbsmM.root'
p167
aS'Trees/Opt_2016preVFP/2016PreVFP/Trees2WS_2016preVFP/WS/output_VBFHToGG_M125_TuneCP5_13TeV-amcatnlo-pythia8_VBFsm.root'
p168
aS'Trees/Opt_2016preVFP/2016PreVFP/Trees2WS_2016preVFP/WS/output_WHiggs0Mf05ph0ToGG_M125_TuneCP5_13TeV-JHUGenV7011-pythia8_WHMf05ph0.root'
p169
aS'Trees/Opt_2016preVFP/2016PreVFP/Trees2WS_2016preVFP/WS/output_WHiggs0MToGG_M125_TuneCP5_13TeV-JHUGenV7011-pythia8_WHbsmM.root'
p170
aS'Trees/Opt_2016preVFP/2016PreVFP/Trees2WS_2016preVFP/WS/output_WHiggs0PMToGG_M125_TuneCP5_13TeV-JHUGenV7011-pythia8_WHsm.root'
p171
aS'Trees/Opt_2016preVFP/2016PreVFP/Trees2WS_2016preVFP/WS/output_ZHiggs0Mf05ph0ToGG_M125_TuneCP5_13TeV-JHUGenV7011-pythia8_ZHMf05ph0.root'
p172
aS'Trees/Opt_2016preVFP/2016PreVFP/Trees2WS_2016preVFP/WS/output_ZHiggs0MToGG_M125_TuneCP5_13TeV-JHUGenV7011-pythia8_ZHbsmM.root'
p173
aS'Trees/Opt_2016preVFP/2016PreVFP/Trees2WS_2016preVFP/WS/output_ZH_HToGG_ZToAll_M125_TuneCP5_13TeV-powheg-pythia8_ZHsm.root'
p174
ag147
ag147
aS'jjh0Mf05ph0_125_13TeV_AC_Bin8'
p175
aS'jjh0M_125_13TeV_AC_Bin8'
p176
aS'jjh0P_125_13TeV_AC_Bin8'
p177
aS'tth0P_125_13TeV_AC_Bin8'
p178
aS'vbf0Mf05ph0_125_13TeV_AC_Bin8'
p179
aS'vbf0M_125_13TeV_AC_Bin8'
p180
aS'vbf0P_125_13TeV_AC_Bin8'
p181
aS'wh0Mf05ph0_125_13TeV_AC_Bin8'
p182
aS'wh0M_125_13TeV_AC_Bin8'
p183
aS'wh0P_125_13TeV_AC_Bin8'
p184
aS'zh0Mf05ph0_125_13TeV_AC_Bin8'
p185
aS'zh0M_125_13TeV_AC_Bin8'
p186
aS'zh0P_125_13TeV_AC_Bin8'
p187
ag147
ag147
aS'./Models/signal/CMS-HGG_sigfit_packaged_AC_Bin8_2016preVFP.root'
p188
aS'./Models/signal/CMS-HGG_sigfit_packaged_AC_Bin8_2016preVFP.root'
p189
aS'./Models/signal/CMS-HGG_sigfit_packaged_AC_Bin8_2016preVFP.root'
p190
aS'./Models/signal/CMS-HGG_sigfit_packaged_AC_Bin8_2016preVFP.root'
p191
aS'./Models/signal/CMS-HGG_sigfit_packaged_AC_Bin8_2016preVFP.root'
p192
aS'./Models/signal/CMS-HGG_sigfit_packaged_AC_Bin8_2016preVFP.root'
p193
aS'./Models/signal/CMS-HGG_sigfit_packaged_AC_Bin8_2016preVFP.root'
p194
aS'./Models/signal/CMS-HGG_sigfit_packaged_AC_Bin8_2016preVFP.root'
p195
aS'./Models/signal/CMS-HGG_sigfit_packaged_AC_Bin8_2016preVFP.root'
p196
aS'./Models/signal/CMS-HGG_sigfit_packaged_AC_Bin8_2016preVFP.root'
p197
aS'./Models/signal/CMS-HGG_sigfit_packaged_AC_Bin8_2016preVFP.root'
p198
aS'./Models/signal/CMS-HGG_sigfit_packaged_AC_Bin8_2016preVFP.root'
p199
aS'./Models/signal/CMS-HGG_sigfit_packaged_AC_Bin8_2016preVFP.root'
p200
aS'./Models/background/CMS-HGG_multipdf_AC_Bin8_2016preVFP.root'
p201
ag201
aS'wsig_13TeV:hggpdfsmrel_GG2HMf05ph0_2016preVFP_AC_Bin8_13TeV'
p202
aS'wsig_13TeV:hggpdfsmrel_GG2HbsmM_2016preVFP_AC_Bin8_13TeV'
p203
aS'wsig_13TeV:hggpdfsmrel_GG2Hsm_2016preVFP_AC_Bin8_13TeV'
p204
aS'wsig_13TeV:hggpdfsmrel_TTHsm_2016preVFP_AC_Bin8_13TeV'
p205
aS'wsig_13TeV:hggpdfsmrel_VBFMf05ph0_2016preVFP_AC_Bin8_13TeV'
p206
aS'wsig_13TeV:hggpdfsmrel_VBFbsmM_2016preVFP_AC_Bin8_13TeV'
p207
aS'wsig_13TeV:hggpdfsmrel_VBFsm_2016preVFP_AC_Bin8_13TeV'
p208
aS'wsig_13TeV:hggpdfsmrel_WHMf05ph0_2016preVFP_AC_Bin8_13TeV'
p209
aS'wsig_13TeV:hggpdfsmrel_WHbsmM_2016preVFP_AC_Bin8_13TeV'
p210
aS'wsig_13TeV:hggpdfsmrel_WHsm_2016preVFP_AC_Bin8_13TeV'
p211
aS'wsig_13TeV:hggpdfsmrel_ZHMf05ph0_2016preVFP_AC_Bin8_13TeV'
p212
aS'wsig_13TeV:hggpdfsmrel_ZHbsmM_2016preVFP_AC_Bin8_13TeV'
p213
aS'wsig_13TeV:hggpdfsmrel_ZHsm_2016preVFP_AC_Bin8_13TeV'
p214
aS'multipdf:CMS_hgg_AC_Bin8_2016preVFP_13TeV_bkgshape'
p215
aS'multipdf:roohist_data_mass_AC_Bin8'
p216
aF0.06253858619970742
aF0.05984268380575486
aF0.07893297751434147
aF0.0037172864849708276
aF0.013215660576179289
aF0.004138528012390452
aF0.021961159671604946
aF0.002077589338512098
aF0.001547557346270878
aF0.0023749556931420557
aF0.0019604223653004738
aF0.0005901534495933447
aF0.002376495448515925
ag147
ag147
aF7.992048601158172e-06
aF1.0656945484626522e-05
aF2.2237112610063866e-05
aF3.0151763750502605e-07
aF2.8951372016034845e-06
aF1.9449074753374773e-07
aF1.9897519824617114e-05
aF1.3033694069470562e-07
aF1.1124749496909403e-07
aF9.591998404114307e-08
aF9.229552979243679e-07
aF4.7974664739169724e-08
aF9.794837803923445e-08
ag147
ag147
aF0.06422564282081716
aF0.06112879272657609
aF0.08127042256515286
aF0.003835204610886587
aF0.01353018978795293
aF0.004240177507859559
aF0.02265172472311129
aF0.002134073247569208
aF0.001589595233129737
aF0.0024433068889103495
aF0.0020157045280331004
aF0.0006408903640336598
aF0.0024388318281053653
ag147
ag147
aF0.06294554435674646
aF0.060230468924556475
aF0.07944847825408693
aF0.0037410821990896425
aF0.01330188920666644
aF0.004165362423465128
aF0.02210221881655445
aF0.0020910266652469874
aF0.0015575441107787288
aF0.0023902645262529965
aF0.0019729752325231857
aF0.0005938093591567571
aF0.002391656333516511
ag147
ag147
aF0.062132949855562655
aF0.059456152051154836
aF0.07841915698604884
aF0.003693566621345936
aF0.013129712750682757
aF0.004111780469816332
aF0.021820552109871327
aF0.0020641954280147066
aF0.0015376027511618412
aF0.0023596961361490704
aF0.0019479094287545953
aF0.0005865087625958644
aF0.002361382808799961
ag147
ag147
aF0.06358553862458015
aF0.060919937684744775
aF0.08028788943307055
aF0.0037948365454472505
aF0.013426186577083695
aF0.00421323453225582
aF0.02241306279133399
aF0.002115706315133489
aF0.001574865317304864
aF0.0024116820218554632
aF0.002008361180898068
aF0.0006023465884091044
aF0.0024197715437814793
ag147
ag147
aF0.06150034903437046
aF0.05877445412153318
aF0.07758965895991274
aF0.0036404438648146077
aF0.013006734261430042
aF0.004064463973369322
aF0.02151329374434263
aF0.0020398333164280877
aF0.0015205215995672417
aF0.0023385046925523192
aF0.0019129061735197541
aF0.0005780572155330813
aF0.0023336301603580963
ag147
ag147
aF0.06264828908467804
aF0.059946110365235575
aF0.07906650084338249
aF0.003724121048184812
aF0.013238797159338619
aF0.0041458782529711635
aF0.022007204403718294
aF0.002081221964602225
aF0.0015504195832368058
aF0.0023799214789873646
aF0.001963834238560306
aF0.0005917141686639269
aF0.002381467111468434
ag147
ag147
aF0.06242898395379486
aF0.05973934472575953
aF0.07879956957553379
aF0.0037104575435931856
aF0.013192544397541544
aF0.004131183992051939
aF0.02191515423979823
aF0.002073960066044674
aF0.0015446981441214775
aF0.002369994792327462
aF0.0019570128168344457
aF0.0005885940896069038
aF0.0023715291424566735
ag147
ag147
aF0.06268489360551344
aF0.059973512741864465
aF0.07910243121416716
aF0.003725581259053526
aF0.013243378542882355
aF0.004147191032725218
aF0.022011724430258433
aF0.0020821161704485157
aF0.0015510013472882533
aF0.002380804272360312
aF0.0019643851431283936
aF0.0005919063053773035
aF0.002381751640752468
ag147
ag147
aF0.06239244959078093
aF0.05971199903452648
aF0.07876370811625508
aF0.003709000965245644
aF0.013187972107131268
aF0.004129874171036501
aF0.021910652136959554
aF0.0020730674972819696
aF0.0015441172127946981
aF0.0023691141458690233
aF0.001956463630128575
aF0.0005884029480626449
aF0.002371245108965934
ag147
ag147
aF0.06206557896098275
aF0.0594729612384981
aF0.07886568696972063
aF0.003938433323924073
aF0.013261644307362985
aF0.00421396752938108
aF0.017182487135301017
aF0.002062761426088855
aF0.0015543207003929638
aF0.002354706475500734
aF0.0019604223653004738
aF0.0005901534495933447
aF0.00237348273481075
ag147
ag147
aF0.06437349906286727
aF0.05974442669480595
aF0.07930039311122528
aF0.0033054386675530623
aF0.013130317543755154
aF0.003945269888390612
aF0.01691462900123497
aF0.002105020443934791
aF0.0015306110889241609
aF0.002398509788179126
aF0.0019604223653004738
aF0.0005901534495933447
aF0.00237912252418937
ag147
ag147
aF0.0637203823227992
aF0.061943103771454844
aF0.08135046426605186
aF0.0041209843964225
aF0.011785417198780124
aF0.0042245481608915725
aF0.03173534802908762
aF0.002168816221058023
aF0.0015753375708982276
aF0.0024537182292192483
aF0.0019077122142334701
aF0.0005901534495933447
aF0.002377635647690113
ag147
ag147
aF0.060845686543189004
aF0.05815422242449131
aF0.07681445499406436
aF0.003428043710300699
aF0.01297261551712836
aF0.004223408084612856
aF0.03114387874586555
aF0.0018354497047425866
aF0.0015202349828769002
aF0.002324691559522307
aF0.0019604223653004738
aF0.0005901534495933447
aF0.0022873998780141847
ag147
ag147
aF0.06409912401204565
aF0.06098002688395354
aF0.08015431858098054
aF0.003720474667943563
aF0.013375401339771997
aF0.004165598194504128
aF0.019657156287962607
aF0.0022631075483445784
aF0.0015537724831347077
aF0.002416103191592356
aF0.0019604223653004738
aF0.0005901534495933447
aF0.002376495448515925
ag147
ag147
aF0.060298923867776466
aF0.058716162008295214
aF0.07587084319652604
aF0.0037138193962391597
aF0.013159726663616311
aF0.004138528012390452
aF0.020495851566806778
aF0.0020667824041424865
aF0.0015413218803814743
aF0.002201317609490161
aF0.0019604223653004738
aF0.0005901534495933447
aF0.0023748480507492786
ag147
ag147
aF0.06679861392080966
aF0.06396458619224177
aF0.0873449111049922
aF0.003638217354136941
aF0.012900769273528567
aF0.004096879001508569
aF0.0160195900330109
aF0.0023869593549648016
aF0.0016684450653201566
aF0.002557507510175583
aF0.002069850592306466
aF0.0006676224984403234
aF0.0035903942580262083
ag147
ag147
aF0.05888080327736134
aF0.05617162111593643
aF0.07538734121794732
aF0.00355401590911697
aF0.013123944443464097
aF0.004282617586454762
aF0.0220428085989397
aF0.0019393968441931975
aF0.00153586955116225
aF0.0021434343503301534
aF0.0013934528560639592
aF0.0005901534495933447
aF0.0021388091663538944
ag147
ag147
aF0.06342109868114676
aF0.06029215988655778
aF0.08067240285026855
aF0.0036239717894659407
aF0.01291050009558603
aF0.004176454697130794
aF0.01712336550872351
aF0.002276483862999612
aF0.0015853590451797572
aF0.0023651388926850814
aF0.0019930654470954323
aF0.0006676224984403234
aF0.0034659150123843574
ag147
ag147
aF0.06160376958951019
aF0.059371714326971414
aF0.07881316686371065
aF0.0037382961037337736
aF0.013160724990029848
aF0.004151799403302903
aF0.017029857632337553
aF0.002029849281314
aF0.0015122227673600719
aF0.0023699365949028106
aF0.0019604223653004738
aF0.0005901534495933447
aF0.002325325755691665
ag147
ag147
aF0.06253858619970742
aF0.05984268380575486
aF0.07893297751434147
aF0.0037172864849708276
aF0.013215660576179289
aF0.004138528012390452
aF0.021961159671604946
aF0.002077589338512098
aF0.001547557346270878
aF0.0023749556931420557
aF0.0019604223653004738
aF0.0005901534495933447
aF0.002376495448515925
ag147
ag147
aF0.06253858619970742
aF0.05984268380575486
aF0.07893297751434147
aF0.0037172864849708276
aF0.013215660576179289
aF0.004138528012390452
aF0.021961159671604946
aF0.002077589338512098
aF0.001547557346270878
aF0.0023749556931420557
aF0.0019604223653004738
aF0.0005901534495933447
aF0.002376495448515925
ag147
ag147
atp217
ba(lp218
g15
(g16
(dp219
g18
g19
(g20
(I0
tp220
g22
tp221
Rp222
(I1
(I1
tp223
g29
I00
(lp224
g43
atp225
bsg68
Nstp226
Rp227
ag15
(g16
(dp228
g18
g19
(g20
(I0
tp229
g22
tp230
Rp231
(I1
(I33
tp232
g29
I00
(lp233
g33
ag34
ag35
ag36
ag37
ag38
ag39
ag40
ag41
ag42
ag44
ag45
ag46
ag47
ag48
ag49
ag50
ag51
ag52
ag53
ag54
ag55
ag56
ag57
ag58
ag59
ag60
ag61
ag62
ag63
ag64
ag65
ag66
atp234
bsg68
Nstp235
Rp236
a(dp237
S'0.14.1'
p238
(dp239
S'axes'
p240
g14
sS'blocks'
p241
(lp242
(dp243
S'mgr_locs'
p244
c__builtin__
slice
p245
(I10
I11
I1
tp246
Rp247
sS'values'
p248
g89
sa(dp249
g244
g19
(g20
(I0
tp250
g22
tp251
Rp252
(I1
(I33
tp253
g79
I00
S'\x00\x00\x00\x00\x00\x00\x00\x00\x01\x00\x00\x00\x00\x00\x00\x00\x02\x00\x00\x00\x00\x00\x00\x00\x03\x00\x00\x00\x00\x00\x00\x00\x04\x00\x00\x00\x00\x00\x00\x00\x05\x00\x00\x00\x00\x00\x00\x00\x06\x00\x00\x00\x00\x00\x00\x00\x07\x00\x00\x00\x00\x00\x00\x00\x08\x00\x00\x00\x00\x00\x00\x00\t\x00\x00\x00\x00\x00\x00\x00\x0b\x00\x00\x00\x00\x00\x00\x00\x0c\x00\x00\x00\x00\x00\x00\x00\r\x00\x00\x00\x00\x00\x00\x00\x0e\x00\x00\x00\x00\x00\x00\x00\x0f\x00\x00\x00\x00\x00\x00\x00\x10\x00\x00\x00\x00\x00\x00\x00\x11\x00\x00\x00\x00\x00\x00\x00\x12\x00\x00\x00\x00\x00\x00\x00\x13\x00\x00\x00\x00\x00\x00\x00\x14\x00\x00\x00\x00\x00\x00\x00\x15\x00\x00\x00\x00\x00\x00\x00\x16\x00\x00\x00\x00\x00\x00\x00\x17\x00\x00\x00\x00\x00\x00\x00\x18\x00\x00\x00\x00\x00\x00\x00\x19\x00\x00\x00\x00\x00\x00\x00\x1a\x00\x00\x00\x00\x00\x00\x00\x1b\x00\x00\x00\x00\x00\x00\x00\x1c\x00\x00\x00\x00\x00\x00\x00\x1d\x00\x00\x00\x00\x00\x00\x00\x1e\x00\x00\x00\x00\x00\x00\x00\x1f\x00\x00\x00\x00\x00\x00\x00 \x00\x00\x00\x00\x00\x00\x00!\x00\x00\x00\x00\x00\x00\x00'
p254
tp255
bsg248
g100
sasstp256
bsb.