ccopy_reg
_reconstructor
p0
(cpandas.core.frame
DataFrame
p1
c__builtin__
object
p2
Ntp3
Rp4
(dp5
S'_metadata'
p6
(lp7
sS'_typ'
p8
S'dataframe'
p9
sS'_data'
p10
g0
(cpandas.core.internals
BlockManager
p11
g2
Ntp12
Rp13
((lp14
cpandas.core.indexes.base
_new_Index
p15
(cpandas.core.indexes.base
Index
p16
(dp17
S'data'
p18
cnumpy.core.multiarray
_reconstruct
p19
(cnumpy
ndarray
p20
(I0
tp21
S'b'
p22
tp23
Rp24
(I1
(I34
tp25
cnumpy
dtype
p26
(S'O8'
p27
I0
I1
tp28
Rp29
(I3
S'|'
p30
NNNI-1
I-1
I63
tp31
bI00
(lp32
S'year'
p33
aS'type'
p34
aS'procOriginal'
p35
aS'proc'
p36
aS'proc_s0'
p37
aS'cat'
p38
aS'inputWSFile'
p39
aS'nominalDataName'
p40
aS'modelWSFile'
p41
aS'model'
p42
aS'rate'
p43
aS'nominal_yield'
p44
aS'sumw2'
p45
aS'nominal_yield_COWCorr'
p46
aS'LooseMvaSF_up_yield'
p47
aS'LooseMvaSF_down_yield'
p48
aS'PreselSF_up_yield'
p49
aS'PreselSF_down_yield'
p50
aS'electronVetoSF_up_yield'
p51
aS'electronVetoSF_down_yield'
p52
aS'TriggerWeight_up_yield'
p53
aS'TriggerWeight_down_yield'
p54
aS'SigmaEOverEShift_up_yield'
p55
aS'SigmaEOverEShift_down_yield'
p56
aS'MvaShift_up_yield'
p57
aS'MvaShift_down_yield'
p58
aS'PUJIDShift_up_yield'
p59
aS'PUJIDShift_down_yield'
p60
aS'JEC_up_yield'
p61
aS'JEC_down_yield'
p62
aS'JER_up_yield'
p63
aS'JER_down_yield'
p64
aS'JetHEM_up_yield'
p65
aS'JetHEM_down_yield'
p66
atp67
bsS'name'
p68
Nstp69
Rp70
ag15
(cpandas.core.indexes.numeric
Int64Index
p71
(dp72
g18
g19
(g20
(I0
tp73
g22
tp74
Rp75
(I1
(I15
tp76
g26
(S'i8'
p77
I0
I1
tp78
Rp79
(I3
S'<'
p80
NNNI-1
I-1
I0
tp81
bI00
S'\x00\x00\x00\x00\x00\x00\x00\x00\x01\x00\x00\x00\x00\x00\x00\x00\x02\x00\x00\x00\x00\x00\x00\x00\x03\x00\x00\x00\x00\x00\x00\x00\x04\x00\x00\x00\x00\x00\x00\x00\x05\x00\x00\x00\x00\x00\x00\x00\x06\x00\x00\x00\x00\x00\x00\x00\x07\x00\x00\x00\x00\x00\x00\x00\x08\x00\x00\x00\x00\x00\x00\x00\t\x00\x00\x00\x00\x00\x00\x00\n\x00\x00\x00\x00\x00\x00\x00\x0b\x00\x00\x00\x00\x00\x00\x00\x0c\x00\x00\x00\x00\x00\x00\x00\r\x00\x00\x00\x00\x00\x00\x00\x0e\x00\x00\x00\x00\x00\x00\x00'
p82
tp83
bsg68
Nstp84
Rp85
a(lp86
g19
(g20
(I0
tp87
g22
tp88
Rp89
(I1
(I1
I15
tp90
g26
(S'f8'
p91
I0
I1
tp92
Rp93
(I3
S'<'
p94
NNNI-1
I-1
I0
tp95
bI00
S'\x00\x00\x00\x00\x00\x10\xd3@\x00\x00\x00\x00\x00\x10\xd3@\x00\x00\x00\x00\x00\x10\xd3@\x00\x00\x00\x00\x00\x10\xd3@\x00\x00\x00\x00\x00\x10\xd3@\x00\x00\x00\x00\x00\x10\xd3@\x00\x00\x00\x00\x00\x10\xd3@\x00\x00\x00\x00\x00\x10\xd3@\x00\x00\x00\x00\x00\x10\xd3@\x00\x00\x00\x00\x00\x10\xd3@\x00\x00\x00\x00\x00\x10\xd3@\x00\x00\x00\x00\x00\x10\xd3@\x00\x00\x00\x00\x00\x10\xd3@\x00\x00\x00\x00\x00\x00\xf0?\x00\x00\x00\x00\x00\x00\xf0\xbf'
p96
tp97
bag19
(g20
(I0
tp98
g22
tp99
Rp100
(I1
(I33
I15
tp101
g29
I00
(lp102
S'2016preVFP'
p103
ag103
ag103
ag103
ag103
ag103
ag103
ag103
ag103
ag103
ag103
ag103
ag103
ag33
ag33
aS'sig'
p104
ag104
ag104
ag104
ag104
ag104
ag104
ag104
ag104
ag104
ag104
ag104
ag104
aS'bkg'
p105
ag18
aS'GG2HMf05ph0'
p106
aS'GG2HbsmM'
p107
aS'GG2Hsm'
p108
aS'TTHsm'
p109
aS'VBFMf05ph0'
p110
aS'VBFbsmM'
p111
aS'VBFsm'
p112
aS'WHMf05ph0'
p113
aS'WHbsmM'
p114
aS'WHsm'
p115
aS'ZHMf05ph0'
p116
aS'ZHbsmM'
p117
aS'ZHsm'
p118
aS'bkg_mass'
p119
aS'data_obs'
p120
aS'GG2HMf05ph0_2016preVFP_hgg'
p121
aS'GG2HbsmM_2016preVFP_hgg'
p122
aS'GG2Hsm_2016preVFP_hgg'
p123
aS'tth0P_2016preVFP_hgg'
p124
aS'vbf0Mf05ph0_2016preVFP_hgg'
p125
aS'vbf0M_2016preVFP_hgg'
p126
aS'vbf0P_2016preVFP_hgg'
p127
aS'wh0Mf05ph0_2016preVFP_hgg'
p128
aS'wh0M_2016preVFP_hgg'
p129
aS'wh0P_2016preVFP_hgg'
p130
aS'zh0Mf05ph0_2016preVFP_hgg'
p131
aS'zh0M_2016preVFP_hgg'
p132
aS'zh0P_2016preVFP_hgg'
p133
ag119
ag120
aS'jjh0Mf05ph0'
p134
aS'jjh0M'
p135
aS'jjh0P'
p136
aS'tth0P'
p137
aS'vbf0Mf05ph0'
p138
aS'vbf0M'
p139
aS'vbf0P'
p140
aS'wh0Mf05ph0'
p141
aS'wh0M'
p142
aS'wh0P'
p143
aS'zh0Mf05ph0'
p144
aS'zh0M'
p145
aS'zh0P'
p146
aS'-'
p147
ag147
aS'AC_Bin18_2016preVFP'
p148
aS'AC_Bin18_2016preVFP'
p149
aS'AC_Bin18_2016preVFP'
p150
aS'AC_Bin18_2016preVFP'
p151
aS'AC_Bin18_2016preVFP'
p152
aS'AC_Bin18_2016preVFP'
p153
aS'AC_Bin18_2016preVFP'
p154
aS'AC_Bin18_2016preVFP'
p155
aS'AC_Bin18_2016preVFP'
p156
aS'AC_Bin18_2016preVFP'
p157
aS'AC_Bin18_2016preVFP'
p158
aS'AC_Bin18_2016preVFP'
p159
aS'AC_Bin18_2016preVFP'
p160
aS'AC_Bin18_2016preVFP'
p161
ag161
aS'Trees/Opt_2016preVFP/2016PreVFP/Trees2WS_2016preVFP/WS/output_GluGluHToGGPlusTwoJets_MM_M125_TuneCP5_13TeV-amcatnlopowheg-minlo-pythia8_GG2HMf05ph0.root'
p162
aS'Trees/Opt_2016preVFP/2016PreVFP/Trees2WS_2016preVFP/WS/output_GluGluHToGGPlusTwoJets_CPodd_M125_TuneCP5_13TeV-amcatnlopowheg-minlo-pythia8_GG2HbsmM.root'
p163
aS'Trees/Opt_2016preVFP/2016PreVFP/Trees2WS_2016preVFP/WS/output_GluGluHToGGPlusTwoJets_SM_M125_TuneCP5_13TeV-amcatnlopowheg-minlo-pythia8_GG2Hsm.root'
p164
aS'Trees/Opt_2016preVFP/2016PreVFP/Trees2WS_2016preVFP/WS/output_ttHJetToGG_M125_TuneCP5_13TeV-amcatnloFXFX-madspin-pythia8_TTHsm.root'
p165
aS'Trees/Opt_2016preVFP/2016PreVFP/Trees2WS_2016preVFP/WS/output_VBFHiggs0Mf05ph0ToGG_M125_TuneCP5_13TeV-JHUGenV7011-pythia8_VBFMf05ph0.root'
p166
aS'Trees/Opt_2016preVFP/2016PreVFP/Trees2WS_2016preVFP/WS/output_VBFHiggs0MToGG_M125_TuneCP5_13TeV-JHUGenV7011-pythia8_VBFbsmM.root'
p167
aS'Trees/Opt_2016preVFP/2016PreVFP/Trees2WS_2016preVFP/WS/output_VBFHToGG_M125_TuneCP5_13TeV-amcatnlo-pythia8_VBFsm.root'
p168
aS'Trees/Opt_2016preVFP/2016PreVFP/Trees2WS_2016preVFP/WS/output_WHiggs0Mf05ph0ToGG_M125_TuneCP5_13TeV-JHUGenV7011-pythia8_WHMf05ph0.root'
p169
aS'Trees/Opt_2016preVFP/2016PreVFP/Trees2WS_2016preVFP/WS/output_WHiggs0MToGG_M125_TuneCP5_13TeV-JHUGenV7011-pythia8_WHbsmM.root'
p170
aS'Trees/Opt_2016preVFP/2016PreVFP/Trees2WS_2016preVFP/WS/output_WHiggs0PMToGG_M125_TuneCP5_13TeV-JHUGenV7011-pythia8_WHsm.root'
p171
aS'Trees/Opt_2016preVFP/2016PreVFP/Trees2WS_2016preVFP/WS/output_ZHiggs0Mf05ph0ToGG_M125_TuneCP5_13TeV-JHUGenV7011-pythia8_ZHMf05ph0.root'
p172
aS'Trees/Opt_2016preVFP/2016PreVFP/Trees2WS_2016preVFP/WS/output_ZHiggs0MToGG_M125_TuneCP5_13TeV-JHUGenV7011-pythia8_ZHbsmM.root'
p173
aS'Trees/Opt_2016preVFP/2016PreVFP/Trees2WS_2016preVFP/WS/output_ZH_HToGG_ZToAll_M125_TuneCP5_13TeV-powheg-pythia8_ZHsm.root'
p174
ag147
ag147
aS'jjh0Mf05ph0_125_13TeV_AC_Bin18'
p175
aS'jjh0M_125_13TeV_AC_Bin18'
p176
aS'jjh0P_125_13TeV_AC_Bin18'
p177
aS'tth0P_125_13TeV_AC_Bin18'
p178
aS'vbf0Mf05ph0_125_13TeV_AC_Bin18'
p179
aS'vbf0M_125_13TeV_AC_Bin18'
p180
aS'vbf0P_125_13TeV_AC_Bin18'
p181
aS'wh0Mf05ph0_125_13TeV_AC_Bin18'
p182
aS'wh0M_125_13TeV_AC_Bin18'
p183
aS'wh0P_125_13TeV_AC_Bin18'
p184
aS'zh0Mf05ph0_125_13TeV_AC_Bin18'
p185
aS'zh0M_125_13TeV_AC_Bin18'
p186
aS'zh0P_125_13TeV_AC_Bin18'
p187
ag147
ag147
aS'./Models/signal/CMS-HGG_sigfit_packaged_AC_Bin18_2016preVFP.root'
p188
aS'./Models/signal/CMS-HGG_sigfit_packaged_AC_Bin18_2016preVFP.root'
p189
aS'./Models/signal/CMS-HGG_sigfit_packaged_AC_Bin18_2016preVFP.root'
p190
aS'./Models/signal/CMS-HGG_sigfit_packaged_AC_Bin18_2016preVFP.root'
p191
aS'./Models/signal/CMS-HGG_sigfit_packaged_AC_Bin18_2016preVFP.root'
p192
aS'./Models/signal/CMS-HGG_sigfit_packaged_AC_Bin18_2016preVFP.root'
p193
aS'./Models/signal/CMS-HGG_sigfit_packaged_AC_Bin18_2016preVFP.root'
p194
aS'./Models/signal/CMS-HGG_sigfit_packaged_AC_Bin18_2016preVFP.root'
p195
aS'./Models/signal/CMS-HGG_sigfit_packaged_AC_Bin18_2016preVFP.root'
p196
aS'./Models/signal/CMS-HGG_sigfit_packaged_AC_Bin18_2016preVFP.root'
p197
aS'./Models/signal/CMS-HGG_sigfit_packaged_AC_Bin18_2016preVFP.root'
p198
aS'./Models/signal/CMS-HGG_sigfit_packaged_AC_Bin18_2016preVFP.root'
p199
aS'./Models/signal/CMS-HGG_sigfit_packaged_AC_Bin18_2016preVFP.root'
p200
aS'./Models/background/CMS-HGG_multipdf_AC_Bin18_2016preVFP.root'
p201
ag201
aS'wsig_13TeV:hggpdfsmrel_GG2HMf05ph0_2016preVFP_AC_Bin18_13TeV'
p202
aS'wsig_13TeV:hggpdfsmrel_GG2HbsmM_2016preVFP_AC_Bin18_13TeV'
p203
aS'wsig_13TeV:hggpdfsmrel_GG2Hsm_2016preVFP_AC_Bin18_13TeV'
p204
aS'wsig_13TeV:hggpdfsmrel_TTHsm_2016preVFP_AC_Bin18_13TeV'
p205
aS'wsig_13TeV:hggpdfsmrel_VBFMf05ph0_2016preVFP_AC_Bin18_13TeV'
p206
aS'wsig_13TeV:hggpdfsmrel_VBFbsmM_2016preVFP_AC_Bin18_13TeV'
p207
aS'wsig_13TeV:hggpdfsmrel_VBFsm_2016preVFP_AC_Bin18_13TeV'
p208
aS'wsig_13TeV:hggpdfsmrel_WHMf05ph0_2016preVFP_AC_Bin18_13TeV'
p209
aS'wsig_13TeV:hggpdfsmrel_WHbsmM_2016preVFP_AC_Bin18_13TeV'
p210
aS'wsig_13TeV:hggpdfsmrel_WHsm_2016preVFP_AC_Bin18_13TeV'
p211
aS'wsig_13TeV:hggpdfsmrel_ZHMf05ph0_2016preVFP_AC_Bin18_13TeV'
p212
aS'wsig_13TeV:hggpdfsmrel_ZHbsmM_2016preVFP_AC_Bin18_13TeV'
p213
aS'wsig_13TeV:hggpdfsmrel_ZHsm_2016preVFP_AC_Bin18_13TeV'
p214
aS'multipdf:CMS_hgg_AC_Bin18_2016preVFP_13TeV_bkgshape'
p215
aS'multipdf:roohist_data_mass_AC_Bin18'
p216
aF0.029181041990455014
aF0.019464181510215894
aF0.025788351502342266
aF0.0006468863030022476
aF0.0029795037611393127
aF0.0004920349437043114
aF0.006467085547797069
aF0.00044177504537401546
aF0.0004504688489532782
aF0.0007636464312099633
aF0.0001392631784256082
aF0.00036011956035508774
aF0.0009318253382843977
ag147
ag147
aF1.8276524154954736e-05
aF1.7133669746351924e-06
aF6.3367000158024015e-06
aF3.128815197725261e-08
aF1.2611146559452025e-07
aF5.65769993229532e-08
aF1.7494570893294884e-06
aF6.134807866161877e-09
aF2.7672089381322414e-08
aF2.388063535262062e-08
aF1.0971895092585734e-08
aF7.548286317419614e-08
aF1.436571864010233e-07
ag147
ag147
aF0.029966079169121685
aF0.019947263681684875
aF0.02630821701836757
aF0.0006664444749980904
aF0.0030709237111975077
aF0.0005088203605574865
aF0.0067553453955793985
aF0.0004534957529350165
aF0.00046533507300527125
aF0.0007968891390737811
aF0.00014385209732866076
aF0.00036999936170516564
aF0.0010274560236711193
ag147
ag147
aF0.029366836775057404
aF0.01958744149906101
aF0.025953460727644654
aF0.0006510875751968304
aF0.002998212693820405
aF0.0004952512818471472
aF0.00650681509529908
aF0.00044454365478426174
aF0.0004533945472039476
aF0.0007685003008845711
aF0.00014017267119127472
aF0.0003625233606916143
aF0.000937595164316555
ag147
ag147
aF0.028995836096828743
aF0.019341310802247203
aF0.025623769974274225
aF0.000642698646592622
aF0.0029608534364275463
aF0.0004888291205286519
aF0.006427478117815217
aF0.00043901509046925704
aF0.0004475526050321033
aF0.0007588079773146773
aF0.00013835664277375606
aF0.0003577237454400397
aF0.0009260732009979399
ag147
ag147
aF0.02982215728140719
aF0.01986111103703665
aF0.02626153682913176
aF0.0006577419166807358
aF0.0030428588536798268
aF0.0005003081480893791
aF0.006624481916089709
aF0.0004497415210465631
aF0.00045913881276921727
aF0.0007795334942521866
aF0.00014214492076636387
aF0.00036594617553946363
aF0.0009580574136237121
ag147
ag147
aF0.028545609125223182
aF0.019071626502629977
aF0.025319655194422464
aF0.0006361181504820195
aF0.00291673351552218
aF0.0004838366843652098
aF0.006311222540227859
aF0.00043389485575739907
aF0.0004418682698436889
aF0.0007479561707067876
aF0.000136405397188675
aF0.00035433608979322257
aF0.0009058545875117329
ag147
ag147
aF0.029240139735563046
aF0.019507251199202286
aF0.025841579618641346
aF0.0006479326208948704
aF0.0029864302387286037
aF0.0004929215448202882
aF0.006486430083565739
aF0.00044290872575897776
aF0.0004511921005768919
aF0.0007659577796101367
aF0.000139473772397461
aF0.00036057233302254647
aF0.0009345747245442568
ag147
ag147
aF0.029121998702521926
aF0.019421155981369592
aF0.025735180128348727
aF0.0006458406490962151
aF0.0029725850749319615
aF0.0004911493275733101
aF0.006447768587043216
aF0.00044064270954670274
aF0.0004497461122994171
aF0.0007613379458209146
aF0.00013905271615120618
aF0.0003596670204957001
aF0.0009290785801482056
ag147
ag147
aF0.02925254458139295
aF0.019509033284539293
aF0.025845366478776156
aF0.0006481822362617206
aF0.0029860092793561133
aF0.0004931971440248539
aF0.0064832114763363185
aF0.00044282278600943223
aF0.0004514200607953637
aF0.0007657304393794246
aF0.0001395444633447029
aF0.00036085465105441635
aF0.0009444706868050445
ag147
ag147
aF0.029109625181454112
aF0.01941938566376001
aF0.025731400143477762
aF0.0006455916863952444
aF0.0029730053535101746
aF0.0004908740970031105
aF0.006450979289827391
aF0.0004407285313985716
aF0.0004495186520374095
aF0.0007615652099091095
aF0.00013898219084854035
aF0.00035938523702438475
aF0.0009192034157458596
ag147
ag147
aF0.030035946134262304
aF0.020025220496449947
aF0.02668425925662632
aF0.000664473723759329
aF0.003022013142185642
aF0.0005725859372205377
aF0.005701584775238189
aF0.00047985732862798613
aF0.0004541788731557972
aF0.0008589286867390911
aF0.00023453699759556912
aF0.00036011956035508774
aF0.0009355979020710947
ag147
ag147
aF0.02597345481933644
aF0.018644529392418008
aF0.02519549054250092
aF0.0006680845101527666
aF0.0029079991758180768
aF0.00048134260919141525
aF0.00542183603772628
aF0.0004417583222675603
aF0.00045094255631283886
aF0.0007361340199167898
aF0.0001392631784256082
aF0.00036011956035508774
aF0.0008878216976881959
ag147
ag147
aF0.028011759187961616
aF0.019041453081058535
aF0.025120845294622995
aF0.0006925936768311658
aF0.002956413788183454
aF0.0005643135942818844
aF0.00547784771742954
aF0.0004830082599482921
aF0.0003051849538451279
aF0.0007219737918831015
aF0.0001392631784256082
aF0.0003235451331420336
aF0.0008532655317594617
ag147
ag147
aF0.02789061684416083
aF0.019479520993286314
aF0.02522853651726109
aF0.0005275965335158617
aF0.0029047979154483983
aF0.0004867552084988347
aF0.005524535918198126
aF0.000506698583421894
aF0.00043462131213800603
aF0.0007709245212481619
aF0.00023453699759556912
aF9.393327854922973e-05
aF0.0010597090702049172
ag147
ag147
aF0.029776682429087487
aF0.01977869454719894
aF0.02636106178601949
aF0.0006462563435434276
aF0.003076880752018951
aF0.00048493862811938016
aF0.005373957190272449
aF0.00044177504537401546
aF0.0004602828697670702
aF0.0007693680769307321
aF0.0001392631784256082
aF0.00036011956035508774
aF0.0009289654167332628
ag147
ag147
aF0.028041955499361393
aF0.018861704215964892
aF0.02523119014222175
aF0.0006468863030022476
aF0.0029464760322071015
aF0.00047422042041489476
aF0.0038981446548405074
aF0.00044596885049941193
aF0.0004421869720090399
aF0.0007623002587706651
aF0.0001392631784256082
aF0.00036011956035508774
aF0.0009318253382843977
ag147
ag147
aF0.03153168298933906
aF0.02111419483969712
aF0.02737537784446431
aF0.0006130753670277045
aF0.0049539667664930676
aF0.000489726675368729
aF0.011627043396629233
aF0.00048527571982504014
aF0.0004671614249218692
aF0.0007976372004350196
aF0.0001392631784256082
aF0.00036011956035508774
aF0.0009230884334101574
ag147
ag147
aF0.027823964011872704
aF0.018587836022902593
aF0.022042440528821317
aF0.0005345169985275788
aF0.0027763324479792573
aF0.0004632063172493872
aF0.0052696667254394924
aF0.00037620568468810234
aF0.00032733443356391945
aF0.0006783097671814176
aF4.438501855474897e-05
aF0.0003235451331420336
aF0.0009205424416904862
ag147
ag147
aF0.029412296908617463
aF0.019350307962099578
aF0.025237018503958097
aF0.0006563433558994802
aF0.0030263466957194396
aF0.0005013613262008221
aF0.005116610071922878
aF0.0004541156350796882
aF0.0004479306207940681
aF0.0007452768754774297
aF0.0001392631784256082
aF0.00036011956035508774
aF0.0009305437558850826
ag147
ag147
aF0.029164360289200886
aF0.019634621430554944
aF0.025259717628159706
aF0.0006474360480979158
aF0.002889638491410551
aF0.0004693533606996425
aF0.005080420509443684
aF0.00038547907547581417
aF0.0004465282319188191
aF0.0007508809969749564
aF0.0001392631784256082
aF0.00036011956035508774
aF0.0009177059876037674
ag147
ag147
aF0.029181041990455014
aF0.019464181510215894
aF0.025788351502342266
aF0.0006468863030022476
aF0.0029795037611393127
aF0.0004920349437043114
aF0.006467085547797069
aF0.00044177504537401546
aF0.0004504688489532782
aF0.0007636464312099633
aF0.0001392631784256082
aF0.00036011956035508774
aF0.0009318253382843977
ag147
ag147
aF0.029181041990455014
aF0.019464181510215894
aF0.025788351502342266
aF0.0006468863030022476
aF0.0029795037611393127
aF0.0004920349437043114
aF0.006467085547797069
aF0.00044177504537401546
aF0.0004504688489532782
aF0.0007636464312099633
aF0.0001392631784256082
aF0.00036011956035508774
aF0.0009318253382843977
ag147
ag147
atp217
ba(lp218
g15
(g16
(dp219
g18
g19
(g20
(I0
tp220
g22
tp221
Rp222
(I1
(I1
tp223
g29
I00
(lp224
g43
atp225
bsg68
Nstp226
Rp227
ag15
(g16
(dp228
g18
g19
(g20
(I0
tp229
g22
tp230
Rp231
(I1
(I33
tp232
g29
I00
(lp233
g33
ag34
ag35
ag36
ag37
ag38
ag39
ag40
ag41
ag42
ag44
ag45
ag46
ag47
ag48
ag49
ag50
ag51
ag52
ag53
ag54
ag55
ag56
ag57
ag58
ag59
ag60
ag61
ag62
ag63
ag64
ag65
ag66
atp234
bsg68
Nstp235
Rp236
a(dp237
S'0.14.1'
p238
(dp239
S'axes'
p240
g14
sS'blocks'
p241
(lp242
(dp243
S'mgr_locs'
p244
c__builtin__
slice
p245
(I10
I11
I1
tp246
Rp247
sS'values'
p248
g89
sa(dp249
g244
g19
(g20
(I0
tp250
g22
tp251
Rp252
(I1
(I33
tp253
g79
I00
S'\x00\x00\x00\x00\x00\x00\x00\x00\x01\x00\x00\x00\x00\x00\x00\x00\x02\x00\x00\x00\x00\x00\x00\x00\x03\x00\x00\x00\x00\x00\x00\x00\x04\x00\x00\x00\x00\x00\x00\x00\x05\x00\x00\x00\x00\x00\x00\x00\x06\x00\x00\x00\x00\x00\x00\x00\x07\x00\x00\x00\x00\x00\x00\x00\x08\x00\x00\x00\x00\x00\x00\x00\t\x00\x00\x00\x00\x00\x00\x00\x0b\x00\x00\x00\x00\x00\x00\x00\x0c\x00\x00\x00\x00\x00\x00\x00\r\x00\x00\x00\x00\x00\x00\x00\x0e\x00\x00\x00\x00\x00\x00\x00\x0f\x00\x00\x00\x00\x00\x00\x00\x10\x00\x00\x00\x00\x00\x00\x00\x11\x00\x00\x00\x00\x00\x00\x00\x12\x00\x00\x00\x00\x00\x00\x00\x13\x00\x00\x00\x00\x00\x00\x00\x14\x00\x00\x00\x00\x00\x00\x00\x15\x00\x00\x00\x00\x00\x00\x00\x16\x00\x00\x00\x00\x00\x00\x00\x17\x00\x00\x00\x00\x00\x00\x00\x18\x00\x00\x00\x00\x00\x00\x00\x19\x00\x00\x00\x00\x00\x00\x00\x1a\x00\x00\x00\x00\x00\x00\x00\x1b\x00\x00\x00\x00\x00\x00\x00\x1c\x00\x00\x00\x00\x00\x00\x00\x1d\x00\x00\x00\x00\x00\x00\x00\x1e\x00\x00\x00\x00\x00\x00\x00\x1f\x00\x00\x00\x00\x00\x00\x00 \x00\x00\x00\x00\x00\x00\x00!\x00\x00\x00\x00\x00\x00\x00'
p254
tp255
bsg248
g100
sasstp256
bsb.