ccopy_reg
_reconstructor
p0
(cpandas.core.frame
DataFrame
p1
c__builtin__
object
p2
Ntp3
Rp4
(dp5
S'_metadata'
p6
(lp7
sS'_typ'
p8
S'dataframe'
p9
sS'_data'
p10
g0
(cpandas.core.internals
BlockManager
p11
g2
Ntp12
Rp13
((lp14
cpandas.core.indexes.base
_new_Index
p15
(cpandas.core.indexes.base
Index
p16
(dp17
S'data'
p18
cnumpy.core.multiarray
_reconstruct
p19
(cnumpy
ndarray
p20
(I0
tp21
S'b'
p22
tp23
Rp24
(I1
(I34
tp25
cnumpy
dtype
p26
(S'O8'
p27
I0
I1
tp28
Rp29
(I3
S'|'
p30
NNNI-1
I-1
I63
tp31
bI00
(lp32
S'year'
p33
aS'type'
p34
aS'procOriginal'
p35
aS'proc'
p36
aS'proc_s0'
p37
aS'cat'
p38
aS'inputWSFile'
p39
aS'nominalDataName'
p40
aS'modelWSFile'
p41
aS'model'
p42
aS'rate'
p43
aS'nominal_yield'
p44
aS'sumw2'
p45
aS'nominal_yield_COWCorr'
p46
aS'LooseMvaSF_up_yield'
p47
aS'LooseMvaSF_down_yield'
p48
aS'PreselSF_up_yield'
p49
aS'PreselSF_down_yield'
p50
aS'electronVetoSF_up_yield'
p51
aS'electronVetoSF_down_yield'
p52
aS'TriggerWeight_up_yield'
p53
aS'TriggerWeight_down_yield'
p54
aS'SigmaEOverEShift_up_yield'
p55
aS'SigmaEOverEShift_down_yield'
p56
aS'MvaShift_up_yield'
p57
aS'MvaShift_down_yield'
p58
aS'PUJIDShift_up_yield'
p59
aS'PUJIDShift_down_yield'
p60
aS'JEC_up_yield'
p61
aS'JEC_down_yield'
p62
aS'JER_up_yield'
p63
aS'JER_down_yield'
p64
aS'JetHEM_up_yield'
p65
aS'JetHEM_down_yield'
p66
atp67
bsS'name'
p68
Nstp69
Rp70
ag15
(cpandas.core.indexes.numeric
Int64Index
p71
(dp72
g18
g19
(g20
(I0
tp73
g22
tp74
Rp75
(I1
(I15
tp76
g26
(S'i8'
p77
I0
I1
tp78
Rp79
(I3
S'<'
p80
NNNI-1
I-1
I0
tp81
bI00
S'\x00\x00\x00\x00\x00\x00\x00\x00\x01\x00\x00\x00\x00\x00\x00\x00\x02\x00\x00\x00\x00\x00\x00\x00\x03\x00\x00\x00\x00\x00\x00\x00\x04\x00\x00\x00\x00\x00\x00\x00\x05\x00\x00\x00\x00\x00\x00\x00\x06\x00\x00\x00\x00\x00\x00\x00\x07\x00\x00\x00\x00\x00\x00\x00\x08\x00\x00\x00\x00\x00\x00\x00\t\x00\x00\x00\x00\x00\x00\x00\n\x00\x00\x00\x00\x00\x00\x00\x0b\x00\x00\x00\x00\x00\x00\x00\x0c\x00\x00\x00\x00\x00\x00\x00\r\x00\x00\x00\x00\x00\x00\x00\x0e\x00\x00\x00\x00\x00\x00\x00'
p82
tp83
bsg68
Nstp84
Rp85
a(lp86
g19
(g20
(I0
tp87
g22
tp88
Rp89
(I1
(I1
I15
tp90
g26
(S'f8'
p91
I0
I1
tp92
Rp93
(I3
S'<'
p94
NNNI-1
I-1
I0
tp95
bI00
S'\x00\x00\x00\x00\x00\x10\xd3@\x00\x00\x00\x00\x00\x10\xd3@\x00\x00\x00\x00\x00\x10\xd3@\x00\x00\x00\x00\x00\x10\xd3@\x00\x00\x00\x00\x00\x10\xd3@\x00\x00\x00\x00\x00\x10\xd3@\x00\x00\x00\x00\x00\x10\xd3@\x00\x00\x00\x00\x00\x10\xd3@\x00\x00\x00\x00\x00\x10\xd3@\x00\x00\x00\x00\x00\x10\xd3@\x00\x00\x00\x00\x00\x10\xd3@\x00\x00\x00\x00\x00\x10\xd3@\x00\x00\x00\x00\x00\x10\xd3@\x00\x00\x00\x00\x00\x00\xf0?\x00\x00\x00\x00\x00\x00\xf0\xbf'
p96
tp97
bag19
(g20
(I0
tp98
g22
tp99
Rp100
(I1
(I33
I15
tp101
g29
I00
(lp102
S'2016preVFP'
p103
ag103
ag103
ag103
ag103
ag103
ag103
ag103
ag103
ag103
ag103
ag103
ag103
ag33
ag33
aS'sig'
p104
ag104
ag104
ag104
ag104
ag104
ag104
ag104
ag104
ag104
ag104
ag104
ag104
aS'bkg'
p105
ag18
aS'GG2HMf05ph0'
p106
aS'GG2HbsmM'
p107
aS'GG2Hsm'
p108
aS'TTHsm'
p109
aS'VBFMf05ph0'
p110
aS'VBFbsmM'
p111
aS'VBFsm'
p112
aS'WHMf05ph0'
p113
aS'WHbsmM'
p114
aS'WHsm'
p115
aS'ZHMf05ph0'
p116
aS'ZHbsmM'
p117
aS'ZHsm'
p118
aS'bkg_mass'
p119
aS'data_obs'
p120
aS'GG2HMf05ph0_2016preVFP_hgg'
p121
aS'GG2HbsmM_2016preVFP_hgg'
p122
aS'GG2Hsm_2016preVFP_hgg'
p123
aS'tth0P_2016preVFP_hgg'
p124
aS'vbf0Mf05ph0_2016preVFP_hgg'
p125
aS'vbf0M_2016preVFP_hgg'
p126
aS'vbf0P_2016preVFP_hgg'
p127
aS'wh0Mf05ph0_2016preVFP_hgg'
p128
aS'wh0M_2016preVFP_hgg'
p129
aS'wh0P_2016preVFP_hgg'
p130
aS'zh0Mf05ph0_2016preVFP_hgg'
p131
aS'zh0M_2016preVFP_hgg'
p132
aS'zh0P_2016preVFP_hgg'
p133
ag119
ag120
aS'jjh0Mf05ph0'
p134
aS'jjh0M'
p135
aS'jjh0P'
p136
aS'tth0P'
p137
aS'vbf0Mf05ph0'
p138
aS'vbf0M'
p139
aS'vbf0P'
p140
aS'wh0Mf05ph0'
p141
aS'wh0M'
p142
aS'wh0P'
p143
aS'zh0Mf05ph0'
p144
aS'zh0M'
p145
aS'zh0P'
p146
aS'-'
p147
ag147
aS'AC_Bin7_2016preVFP'
p148
aS'AC_Bin7_2016preVFP'
p149
aS'AC_Bin7_2016preVFP'
p150
aS'AC_Bin7_2016preVFP'
p151
aS'AC_Bin7_2016preVFP'
p152
aS'AC_Bin7_2016preVFP'
p153
aS'AC_Bin7_2016preVFP'
p154
aS'AC_Bin7_2016preVFP'
p155
aS'AC_Bin7_2016preVFP'
p156
aS'AC_Bin7_2016preVFP'
p157
aS'AC_Bin7_2016preVFP'
p158
aS'AC_Bin7_2016preVFP'
p159
aS'AC_Bin7_2016preVFP'
p160
aS'AC_Bin7_2016preVFP'
p161
ag161
aS'Trees/Opt_2016preVFP/2016PreVFP/Trees2WS_2016preVFP/WS/output_GluGluHToGGPlusTwoJets_MM_M125_TuneCP5_13TeV-amcatnlopowheg-minlo-pythia8_GG2HMf05ph0.root'
p162
aS'Trees/Opt_2016preVFP/2016PreVFP/Trees2WS_2016preVFP/WS/output_GluGluHToGGPlusTwoJets_CPodd_M125_TuneCP5_13TeV-amcatnlopowheg-minlo-pythia8_GG2HbsmM.root'
p163
aS'Trees/Opt_2016preVFP/2016PreVFP/Trees2WS_2016preVFP/WS/output_GluGluHToGGPlusTwoJets_SM_M125_TuneCP5_13TeV-amcatnlopowheg-minlo-pythia8_GG2Hsm.root'
p164
aS'Trees/Opt_2016preVFP/2016PreVFP/Trees2WS_2016preVFP/WS/output_ttHJetToGG_M125_TuneCP5_13TeV-amcatnloFXFX-madspin-pythia8_TTHsm.root'
p165
aS'Trees/Opt_2016preVFP/2016PreVFP/Trees2WS_2016preVFP/WS/output_VBFHiggs0Mf05ph0ToGG_M125_TuneCP5_13TeV-JHUGenV7011-pythia8_VBFMf05ph0.root'
p166
aS'Trees/Opt_2016preVFP/2016PreVFP/Trees2WS_2016preVFP/WS/output_VBFHiggs0MToGG_M125_TuneCP5_13TeV-JHUGenV7011-pythia8_VBFbsmM.root'
p167
aS'Trees/Opt_2016preVFP/2016PreVFP/Trees2WS_2016preVFP/WS/output_VBFHToGG_M125_TuneCP5_13TeV-amcatnlo-pythia8_VBFsm.root'
p168
aS'Trees/Opt_2016preVFP/2016PreVFP/Trees2WS_2016preVFP/WS/output_WHiggs0Mf05ph0ToGG_M125_TuneCP5_13TeV-JHUGenV7011-pythia8_WHMf05ph0.root'
p169
aS'Trees/Opt_2016preVFP/2016PreVFP/Trees2WS_2016preVFP/WS/output_WHiggs0MToGG_M125_TuneCP5_13TeV-JHUGenV7011-pythia8_WHbsmM.root'
p170
aS'Trees/Opt_2016preVFP/2016PreVFP/Trees2WS_2016preVFP/WS/output_WHiggs0PMToGG_M125_TuneCP5_13TeV-JHUGenV7011-pythia8_WHsm.root'
p171
aS'Trees/Opt_2016preVFP/2016PreVFP/Trees2WS_2016preVFP/WS/output_ZHiggs0Mf05ph0ToGG_M125_TuneCP5_13TeV-JHUGenV7011-pythia8_ZHMf05ph0.root'
p172
aS'Trees/Opt_2016preVFP/2016PreVFP/Trees2WS_2016preVFP/WS/output_ZHiggs0MToGG_M125_TuneCP5_13TeV-JHUGenV7011-pythia8_ZHbsmM.root'
p173
aS'Trees/Opt_2016preVFP/2016PreVFP/Trees2WS_2016preVFP/WS/output_ZH_HToGG_ZToAll_M125_TuneCP5_13TeV-powheg-pythia8_ZHsm.root'
p174
ag147
ag147
aS'jjh0Mf05ph0_125_13TeV_AC_Bin7'
p175
aS'jjh0M_125_13TeV_AC_Bin7'
p176
aS'jjh0P_125_13TeV_AC_Bin7'
p177
aS'tth0P_125_13TeV_AC_Bin7'
p178
aS'vbf0Mf05ph0_125_13TeV_AC_Bin7'
p179
aS'vbf0M_125_13TeV_AC_Bin7'
p180
aS'vbf0P_125_13TeV_AC_Bin7'
p181
aS'wh0Mf05ph0_125_13TeV_AC_Bin7'
p182
aS'wh0M_125_13TeV_AC_Bin7'
p183
aS'wh0P_125_13TeV_AC_Bin7'
p184
aS'zh0Mf05ph0_125_13TeV_AC_Bin7'
p185
aS'zh0M_125_13TeV_AC_Bin7'
p186
aS'zh0P_125_13TeV_AC_Bin7'
p187
ag147
ag147
aS'./Models/signal/CMS-HGG_sigfit_packaged_AC_Bin7_2016preVFP.root'
p188
aS'./Models/signal/CMS-HGG_sigfit_packaged_AC_Bin7_2016preVFP.root'
p189
aS'./Models/signal/CMS-HGG_sigfit_packaged_AC_Bin7_2016preVFP.root'
p190
aS'./Models/signal/CMS-HGG_sigfit_packaged_AC_Bin7_2016preVFP.root'
p191
aS'./Models/signal/CMS-HGG_sigfit_packaged_AC_Bin7_2016preVFP.root'
p192
aS'./Models/signal/CMS-HGG_sigfit_packaged_AC_Bin7_2016preVFP.root'
p193
aS'./Models/signal/CMS-HGG_sigfit_packaged_AC_Bin7_2016preVFP.root'
p194
aS'./Models/signal/CMS-HGG_sigfit_packaged_AC_Bin7_2016preVFP.root'
p195
aS'./Models/signal/CMS-HGG_sigfit_packaged_AC_Bin7_2016preVFP.root'
p196
aS'./Models/signal/CMS-HGG_sigfit_packaged_AC_Bin7_2016preVFP.root'
p197
aS'./Models/signal/CMS-HGG_sigfit_packaged_AC_Bin7_2016preVFP.root'
p198
aS'./Models/signal/CMS-HGG_sigfit_packaged_AC_Bin7_2016preVFP.root'
p199
aS'./Models/signal/CMS-HGG_sigfit_packaged_AC_Bin7_2016preVFP.root'
p200
aS'./Models/background/CMS-HGG_multipdf_AC_Bin7_2016preVFP.root'
p201
ag201
aS'wsig_13TeV:hggpdfsmrel_GG2HMf05ph0_2016preVFP_AC_Bin7_13TeV'
p202
aS'wsig_13TeV:hggpdfsmrel_GG2HbsmM_2016preVFP_AC_Bin7_13TeV'
p203
aS'wsig_13TeV:hggpdfsmrel_GG2Hsm_2016preVFP_AC_Bin7_13TeV'
p204
aS'wsig_13TeV:hggpdfsmrel_TTHsm_2016preVFP_AC_Bin7_13TeV'
p205
aS'wsig_13TeV:hggpdfsmrel_VBFMf05ph0_2016preVFP_AC_Bin7_13TeV'
p206
aS'wsig_13TeV:hggpdfsmrel_VBFbsmM_2016preVFP_AC_Bin7_13TeV'
p207
aS'wsig_13TeV:hggpdfsmrel_VBFsm_2016preVFP_AC_Bin7_13TeV'
p208
aS'wsig_13TeV:hggpdfsmrel_WHMf05ph0_2016preVFP_AC_Bin7_13TeV'
p209
aS'wsig_13TeV:hggpdfsmrel_WHbsmM_2016preVFP_AC_Bin7_13TeV'
p210
aS'wsig_13TeV:hggpdfsmrel_WHsm_2016preVFP_AC_Bin7_13TeV'
p211
aS'wsig_13TeV:hggpdfsmrel_ZHMf05ph0_2016preVFP_AC_Bin7_13TeV'
p212
aS'wsig_13TeV:hggpdfsmrel_ZHbsmM_2016preVFP_AC_Bin7_13TeV'
p213
aS'wsig_13TeV:hggpdfsmrel_ZHsm_2016preVFP_AC_Bin7_13TeV'
p214
aS'multipdf:CMS_hgg_AC_Bin7_2016preVFP_13TeV_bkgshape'
p215
aS'multipdf:roohist_data_mass_AC_Bin7'
p216
aF0.5737964160135789
aF0.634235076839218
aF0.6153694297648826
aF0.030144172329357843
aF0.053927767225218304
aF0.04097380203211287
aF0.07648361794178982
aF0.04316732794791278
aF0.04886102719859764
aF0.049020823959608606
aF0.038410549159380025
aF0.07493133728348766
aF0.03531792194496575
ag147
ag147
aF0.00014415137764495252
aF0.00042198144857464524
aF0.0003107565768144002
aF3.833372026681344e-05
aF3.4221907509482226e-06
aF1.4651532983230766e-05
aF3.6659734797981605e-05
aF3.975491577539322e-06
aF5.530932870285034e-06
aF4.9080994134043896e-06
aF2.1943978641286752e-05
aF0.001060732835800788
aF3.431132699000393e-06
ag147
ag147
aF0.5890674725655903
aF0.6519928565877222
aF0.6321750281360058
aF0.03099669824798849
aF0.055323019986153084
aF0.04207180924149145
aF0.07853201247626834
aF0.044294674628768016
aF0.0500794552007256
aF0.050184358885931646
aF0.039311979100285104
aF0.07652349501791143
aF0.036249929929977845
ag147
ag147
aF0.5775062110557234
aF0.6383361912951327
aF0.6193457366675114
aF0.03034002727276505
aF0.05427484086796236
aF0.04123980048071587
aF0.07698002569536753
aF0.04344430808752066
aF0.04917501063745772
aF0.04933658722712844
aF0.03865695512925854
aF0.07542589848512854
aF0.035545344386011896
ag147
ag147
aF0.5700985941443537
aF0.6301471993573609
aF0.6114059448656344
aF0.029948952408646933
aF0.05358180846766792
aF0.04070866562665145
aF0.0759888182990517
aF0.042891234473574125
aF0.048548050615272745
aF0.04870607595628014
aF0.03816493412167543
aF0.07443840692702293
aF0.03509123020565655
ag147
ag147
aF0.5834705627470269
aF0.6450568075008623
aF0.6259755206138282
aF0.030690085435804672
aF0.05483644077152879
aF0.041628166935330356
aF0.07780123832711357
aF0.04393643829019583
aF0.04966817111835395
aF0.04983699430404686
aF0.03904286711344011
aF0.07596598349265524
aF0.03593594080124012
ag147
ag147
aF0.5642023241741152
aF0.6235057542073322
aF0.6048503228805828
aF0.02960325642611519
aF0.05302641856936262
aF0.040324438201282446
aF0.07517676266752488
aF0.04240481493662652
aF0.04806056181977552
aF0.04821120681468072
aF0.037782627714684325
aF0.07390319540259535
aF0.0347049221543266
ag147
ag147
aF0.5748657374941601
aF0.6354151554151247
aF0.6165206075462706
aF0.03019610933216874
aF0.05403411820394408
aF0.04104984724658259
aF0.07662434245302718
aF0.04325432570003102
aF0.04895957564687379
aF0.04911623690886051
aF0.03848900404364268
aF0.07504374877789437
aF0.035384664368663485
ag147
ag147
aF0.5727281231895058
aF0.6330561560439603
aF0.6142193778569911
aF0.03009228375417055
aF0.05382152010208602
aF0.040897826965462805
aF0.0763430283789198
aF0.04308041736290927
aF0.048762580321058964
aF0.048925507794405076
aF0.03833218566618763
aF0.07481901839742834
aF0.0352512419406609
ag147
ag147
aF0.5750602525962384
aF0.6356642762330763
aF0.6167616900126297
aF0.03021172060400757
aF0.054047408182298605
aF0.041061660600151074
aF0.07665174402922728
aF0.04326334664793744
aF0.04896999681016114
aF0.04912726953786509
aF0.038491872009757955
aF0.07508503929552297
aF0.03539764905350995
ag147
ag147
aF0.5725339881785654
aF0.6328074934549881
aF0.6139787491270967
aF0.03007670090407351
aF0.05380825959794304
aF0.040886038444877225
aF0.07631567726738492
aF0.043071419028058444
aF0.048752182416286524
aF0.04891449487439639
aF0.03832931350058466
aF0.07477779579512074
aF0.03523828491317554
ag147
ag147
aF0.5684469766982829
aF0.6287882562293134
aF0.6154450551811124
aF0.03072153928468424
aF0.05514417838105601
aF0.042151897899543656
aF0.06783397562765003
aF0.043092770075190856
aF0.04897957723125046
aF0.04903746593015512
aF0.03972895156221057
aF0.07453337300103158
aF0.03601226356238385
ag147
ag147
aF0.5769417576658498
aF0.6349516468684442
aF0.6167086802407766
aF0.02951086189631269
aF0.052725925441677646
aF0.040628820455935966
aF0.062021618630524245
aF0.04212917804977678
aF0.04858832603514429
aF0.049076749034611566
aF0.038230680549531826
aF0.0740412933373591
aF0.03543385236332597
ag147
ag147
aF0.5850878877793093
aF0.6442867785466433
aF0.6353628639341196
aF0.03131298411648231
aF0.053873189806949995
aF0.04110320079405483
aF0.06256699098253193
aF0.0434580494822967
aF0.04932792049959289
aF0.05070040123234776
aF0.03955421981481777
aF0.07592359484624467
aF0.03631782391960314
ag147
ag147
aF0.5591771137858359
aF0.6222646770673919
aF0.6035512074628286
aF0.03148105824453751
aF0.053439086595631125
aF0.040634037093923325
aF0.060566074781263524
aF0.04227669730175876
aF0.04735687876342354
aF0.0482520676622471
aF0.03755293674475979
aF0.0767816418192524
aF0.03497130335313159
ag147
ag147
aF0.5834310645499272
aF0.6415910963836495
aF0.6227419507464447
aF0.03014721082814731
aF0.05486568667527081
aF0.04103907576893562
aF0.07554643625178414
aF0.04334877201017662
aF0.04913089973507567
aF0.04932207633021335
aF0.03859318686409097
aF0.07493133728348766
aF0.03536682843912331
ag147
ag147
aF0.5636476476857979
aF0.6252149663069986
aF0.6067488127854404
aF0.030103725510400636
aF0.05349495577104335
aF0.04094194863864686
aF0.06027903633139431
aF0.0427394650801034
aF0.04864958689807963
aF0.04860287016504117
aF0.038410549159380025
aF0.07481664708029712
aF0.03527219177169627
ag147
ag147
aF0.5995743544739298
aF0.6604748323337617
aF0.6415746738440475
aF0.029239199201526844
aF0.05467521804905573
aF0.04127333597239158
aF0.06450984425430306
aF0.04480488615985223
aF0.04977537434780288
aF0.050396364232028645
aF0.03800488864908402
aF0.07548653693447704
aF0.03566405242224846
ag147
ag147
aF0.5508490291266526
aF0.5978744547472843
aF0.5815385530810318
aF0.03156992316399965
aF0.05299511813268509
aF0.040963560879276883
aF0.05907317252251687
aF0.04173823083692696
aF0.04770630179910995
aF0.04678502981380461
aF0.03598825738663436
aF0.07180417244308046
aF0.03432448583009773
ag147
ag147
aF0.5764237270508374
aF0.6263289510073946
aF0.6181960001158586
aF0.03037645112789278
aF0.054417563565152705
aF0.04107950669731508
aF0.061426631857671055
aF0.04324752721004188
aF0.04883495812867977
aF0.04920041305740597
aF0.038336582629199256
aF0.07499930846461211
aF0.03480296528357485
ag147
ag147
aF0.5731879124556372
aF0.6315648811768142
aF0.6132686372105809
aF0.030788165465253314
aF0.0534695124819109
aF0.04109920675239209
aF0.06436599673668297
aF0.04316532780228499
aF0.04886700463356419
aF0.04893281199656485
aF0.03643096040286764
aF0.07499558837298537
aF0.0350796013086665
ag147
ag147
aF0.5737964160135789
aF0.634235076839218
aF0.6153694297648826
aF0.030144172329357843
aF0.053927767225218304
aF0.04097380203211287
aF0.07648361794178982
aF0.04316732794791278
aF0.04886102719859764
aF0.049020823959608606
aF0.038410549159380025
aF0.07493133728348766
aF0.03531792194496575
ag147
ag147
aF0.5737964160135789
aF0.634235076839218
aF0.6153694297648826
aF0.030144172329357843
aF0.053927767225218304
aF0.04097380203211287
aF0.07648361794178982
aF0.04316732794791278
aF0.04886102719859764
aF0.049020823959608606
aF0.038410549159380025
aF0.07493133728348766
aF0.03531792194496575
ag147
ag147
atp217
ba(lp218
g15
(g16
(dp219
g18
g19
(g20
(I0
tp220
g22
tp221
Rp222
(I1
(I1
tp223
g29
I00
(lp224
g43
atp225
bsg68
Nstp226
Rp227
ag15
(g16
(dp228
g18
g19
(g20
(I0
tp229
g22
tp230
Rp231
(I1
(I33
tp232
g29
I00
(lp233
g33
ag34
ag35
ag36
ag37
ag38
ag39
ag40
ag41
ag42
ag44
ag45
ag46
ag47
ag48
ag49
ag50
ag51
ag52
ag53
ag54
ag55
ag56
ag57
ag58
ag59
ag60
ag61
ag62
ag63
ag64
ag65
ag66
atp234
bsg68
Nstp235
Rp236
a(dp237
S'0.14.1'
p238
(dp239
S'axes'
p240
g14
sS'blocks'
p241
(lp242
(dp243
S'mgr_locs'
p244
c__builtin__
slice
p245
(I10
I11
I1
tp246
Rp247
sS'values'
p248
g89
sa(dp249
g244
g19
(g20
(I0
tp250
g22
tp251
Rp252
(I1
(I33
tp253
g79
I00
S'\x00\x00\x00\x00\x00\x00\x00\x00\x01\x00\x00\x00\x00\x00\x00\x00\x02\x00\x00\x00\x00\x00\x00\x00\x03\x00\x00\x00\x00\x00\x00\x00\x04\x00\x00\x00\x00\x00\x00\x00\x05\x00\x00\x00\x00\x00\x00\x00\x06\x00\x00\x00\x00\x00\x00\x00\x07\x00\x00\x00\x00\x00\x00\x00\x08\x00\x00\x00\x00\x00\x00\x00\t\x00\x00\x00\x00\x00\x00\x00\x0b\x00\x00\x00\x00\x00\x00\x00\x0c\x00\x00\x00\x00\x00\x00\x00\r\x00\x00\x00\x00\x00\x00\x00\x0e\x00\x00\x00\x00\x00\x00\x00\x0f\x00\x00\x00\x00\x00\x00\x00\x10\x00\x00\x00\x00\x00\x00\x00\x11\x00\x00\x00\x00\x00\x00\x00\x12\x00\x00\x00\x00\x00\x00\x00\x13\x00\x00\x00\x00\x00\x00\x00\x14\x00\x00\x00\x00\x00\x00\x00\x15\x00\x00\x00\x00\x00\x00\x00\x16\x00\x00\x00\x00\x00\x00\x00\x17\x00\x00\x00\x00\x00\x00\x00\x18\x00\x00\x00\x00\x00\x00\x00\x19\x00\x00\x00\x00\x00\x00\x00\x1a\x00\x00\x00\x00\x00\x00\x00\x1b\x00\x00\x00\x00\x00\x00\x00\x1c\x00\x00\x00\x00\x00\x00\x00\x1d\x00\x00\x00\x00\x00\x00\x00\x1e\x00\x00\x00\x00\x00\x00\x00\x1f\x00\x00\x00\x00\x00\x00\x00 \x00\x00\x00\x00\x00\x00\x00!\x00\x00\x00\x00\x00\x00\x00'
p254
tp255
bsg248
g100
sasstp256
bsb.