ccopy_reg
_reconstructor
p0
(cpandas.core.frame
DataFrame
p1
c__builtin__
object
p2
Ntp3
Rp4
(dp5
S'_metadata'
p6
(lp7
sS'_typ'
p8
S'dataframe'
p9
sS'_data'
p10
g0
(cpandas.core.internals
BlockManager
p11
g2
Ntp12
Rp13
((lp14
cpandas.core.indexes.base
_new_Index
p15
(cpandas.core.indexes.base
Index
p16
(dp17
S'data'
p18
cnumpy.core.multiarray
_reconstruct
p19
(cnumpy
ndarray
p20
(I0
tp21
S'b'
p22
tp23
Rp24
(I1
(I32
tp25
cnumpy
dtype
p26
(S'O8'
p27
I0
I1
tp28
Rp29
(I3
S'|'
p30
NNNI-1
I-1
I63
tp31
bI00
(lp32
S'year'
p33
aS'type'
p34
aS'procOriginal'
p35
aS'proc'
p36
aS'proc_s0'
p37
aS'cat'
p38
aS'inputWSFile'
p39
aS'nominalDataName'
p40
aS'modelWSFile'
p41
aS'model'
p42
aS'rate'
p43
aS'nominal_yield'
p44
aS'sumw2'
p45
aS'nominal_yield_COWCorr'
p46
aS'LooseMvaSF_up_yield'
p47
aS'LooseMvaSF_down_yield'
p48
aS'PreselSF_up_yield'
p49
aS'PreselSF_down_yield'
p50
aS'electronVetoSF_up_yield'
p51
aS'electronVetoSF_down_yield'
p52
aS'TriggerWeight_up_yield'
p53
aS'TriggerWeight_down_yield'
p54
aS'SigmaEOverEShift_up_yield'
p55
aS'SigmaEOverEShift_down_yield'
p56
aS'MvaShift_up_yield'
p57
aS'MvaShift_down_yield'
p58
aS'PUJIDShift_up_yield'
p59
aS'PUJIDShift_down_yield'
p60
aS'JEC_up_yield'
p61
aS'JEC_down_yield'
p62
aS'JER_up_yield'
p63
aS'JER_down_yield'
p64
atp65
bsS'name'
p66
Nstp67
Rp68
ag15
(cpandas.core.indexes.numeric
Int64Index
p69
(dp70
g18
g19
(g20
(I0
tp71
g22
tp72
Rp73
(I1
(I15
tp74
g26
(S'i8'
p75
I0
I1
tp76
Rp77
(I3
S'<'
p78
NNNI-1
I-1
I0
tp79
bI00
S'\x00\x00\x00\x00\x00\x00\x00\x00\x01\x00\x00\x00\x00\x00\x00\x00\x02\x00\x00\x00\x00\x00\x00\x00\x03\x00\x00\x00\x00\x00\x00\x00\x04\x00\x00\x00\x00\x00\x00\x00\x05\x00\x00\x00\x00\x00\x00\x00\x06\x00\x00\x00\x00\x00\x00\x00\x07\x00\x00\x00\x00\x00\x00\x00\x08\x00\x00\x00\x00\x00\x00\x00\t\x00\x00\x00\x00\x00\x00\x00\n\x00\x00\x00\x00\x00\x00\x00\x0b\x00\x00\x00\x00\x00\x00\x00\x0c\x00\x00\x00\x00\x00\x00\x00\r\x00\x00\x00\x00\x00\x00\x00\x0e\x00\x00\x00\x00\x00\x00\x00'
p80
tp81
bsg66
Nstp82
Rp83
a(lp84
g19
(g20
(I0
tp85
g22
tp86
Rp87
(I1
(I1
I15
tp88
g26
(S'f8'
p89
I0
I1
tp90
Rp91
(I3
S'<'
p92
NNNI-1
I-1
I0
tp93
bI00
S'\x00\x00\x00\x00\x00\x10\xd3@\x00\x00\x00\x00\x00\x10\xd3@\x00\x00\x00\x00\x00\x10\xd3@\x00\x00\x00\x00\x00\x10\xd3@\x00\x00\x00\x00\x00\x10\xd3@\x00\x00\x00\x00\x00\x10\xd3@\x00\x00\x00\x00\x00\x10\xd3@\x00\x00\x00\x00\x00\x10\xd3@\x00\x00\x00\x00\x00\x10\xd3@\x00\x00\x00\x00\x00\x10\xd3@\x00\x00\x00\x00\x00\x10\xd3@\x00\x00\x00\x00\x00\x10\xd3@\x00\x00\x00\x00\x00\x10\xd3@\x00\x00\x00\x00\x00\x00\xf0?\x00\x00\x00\x00\x00\x00\xf0\xbf'
p94
tp95
bag19
(g20
(I0
tp96
g22
tp97
Rp98
(I1
(I31
I15
tp99
g29
I00
(lp100
S'2016preVFP'
p101
ag101
ag101
ag101
ag101
ag101
ag101
ag101
ag101
ag101
ag101
ag101
ag101
ag33
ag33
aS'sig'
p102
ag102
ag102
ag102
ag102
ag102
ag102
ag102
ag102
ag102
ag102
ag102
ag102
aS'bkg'
p103
ag18
aS'GG2HMf05ph0'
p104
aS'GG2HbsmM'
p105
aS'GG2Hsm'
p106
aS'TTHsm'
p107
aS'VBFMf05ph0'
p108
aS'VBFbsmM'
p109
aS'VBFsm'
p110
aS'WHMf05ph0'
p111
aS'WHbsmM'
p112
aS'WHsm'
p113
aS'ZHMf05ph0'
p114
aS'ZHbsmM'
p115
aS'ZHsm'
p116
aS'bkg_mass'
p117
aS'data_obs'
p118
aS'GG2HMf05ph0_2016preVFP_hgg'
p119
aS'GG2HbsmM_2016preVFP_hgg'
p120
aS'GG2Hsm_2016preVFP_hgg'
p121
aS'tth0P_2016preVFP_hgg'
p122
aS'vbf0Mf05ph0_2016preVFP_hgg'
p123
aS'vbf0M_2016preVFP_hgg'
p124
aS'vbf0P_2016preVFP_hgg'
p125
aS'wh0Mf05ph0_2016preVFP_hgg'
p126
aS'wh0M_2016preVFP_hgg'
p127
aS'wh0P_2016preVFP_hgg'
p128
aS'zh0Mf05ph0_2016preVFP_hgg'
p129
aS'zh0M_2016preVFP_hgg'
p130
aS'zh0P_2016preVFP_hgg'
p131
ag117
ag118
aS'jjh0Mf05ph0'
p132
aS'jjh0M'
p133
aS'jjh0P'
p134
aS'tth0P'
p135
aS'vbf0Mf05ph0'
p136
aS'vbf0M'
p137
aS'vbf0P'
p138
aS'wh0Mf05ph0'
p139
aS'wh0M'
p140
aS'wh0P'
p141
aS'zh0Mf05ph0'
p142
aS'zh0M'
p143
aS'zh0P'
p144
aS'-'
p145
ag145
aS'AC_Bin15_2016preVFP'
p146
aS'AC_Bin15_2016preVFP'
p147
aS'AC_Bin15_2016preVFP'
p148
aS'AC_Bin15_2016preVFP'
p149
aS'AC_Bin15_2016preVFP'
p150
aS'AC_Bin15_2016preVFP'
p151
aS'AC_Bin15_2016preVFP'
p152
aS'AC_Bin15_2016preVFP'
p153
aS'AC_Bin15_2016preVFP'
p154
aS'AC_Bin15_2016preVFP'
p155
aS'AC_Bin15_2016preVFP'
p156
aS'AC_Bin15_2016preVFP'
p157
aS'AC_Bin15_2016preVFP'
p158
aS'AC_Bin15_2016preVFP'
p159
ag159
aS'Trees/Opt_2016preVFP/2016PreVFP/Trees2WS_2016preVFP/WS/output_GluGluHToGGPlusTwoJets_MM_M125_TuneCP5_13TeV-amcatnlopowheg-minlo-pythia8_GG2HMf05ph0.root'
p160
aS'Trees/Opt_2016preVFP/2016PreVFP/Trees2WS_2016preVFP/WS/output_GluGluHToGGPlusTwoJets_CPodd_M125_TuneCP5_13TeV-amcatnlopowheg-minlo-pythia8_GG2HbsmM.root'
p161
aS'Trees/Opt_2016preVFP/2016PreVFP/Trees2WS_2016preVFP/WS/output_GluGluHToGGPlusTwoJets_SM_M125_TuneCP5_13TeV-amcatnlopowheg-minlo-pythia8_GG2Hsm.root'
p162
aS'Trees/Opt_2016preVFP/2016PreVFP/Trees2WS_2016preVFP/WS/output_ttHJetToGG_M125_TuneCP5_13TeV-amcatnloFXFX-madspin-pythia8_TTHsm.root'
p163
aS'Trees/Opt_2016preVFP/2016PreVFP/Trees2WS_2016preVFP/WS/output_VBFHiggs0Mf05ph0ToGG_M125_TuneCP5_13TeV-JHUGenV7011-pythia8_VBFMf05ph0.root'
p164
aS'Trees/Opt_2016preVFP/2016PreVFP/Trees2WS_2016preVFP/WS/output_VBFHiggs0MToGG_M125_TuneCP5_13TeV-JHUGenV7011-pythia8_VBFbsmM.root'
p165
aS'Trees/Opt_2016preVFP/2016PreVFP/Trees2WS_2016preVFP/WS/output_VBFHToGG_M125_TuneCP5_13TeV-amcatnlo-pythia8_VBFsm.root'
p166
aS'Trees/Opt_2016preVFP/2016PreVFP/Trees2WS_2016preVFP/WS/output_WHiggs0Mf05ph0ToGG_M125_TuneCP5_13TeV-JHUGenV7011-pythia8_WHMf05ph0.root'
p167
aS'Trees/Opt_2016preVFP/2016PreVFP/Trees2WS_2016preVFP/WS/output_WHiggs0MToGG_M125_TuneCP5_13TeV-JHUGenV7011-pythia8_WHbsmM.root'
p168
aS'Trees/Opt_2016preVFP/2016PreVFP/Trees2WS_2016preVFP/WS/output_WHiggs0PMToGG_M125_TuneCP5_13TeV-JHUGenV7011-pythia8_WHsm.root'
p169
aS'Trees/Opt_2016preVFP/2016PreVFP/Trees2WS_2016preVFP/WS/output_ZHiggs0Mf05ph0ToGG_M125_TuneCP5_13TeV-JHUGenV7011-pythia8_ZHMf05ph0.root'
p170
aS'Trees/Opt_2016preVFP/2016PreVFP/Trees2WS_2016preVFP/WS/output_ZHiggs0MToGG_M125_TuneCP5_13TeV-JHUGenV7011-pythia8_ZHbsmM.root'
p171
aS'Trees/Opt_2016preVFP/2016PreVFP/Trees2WS_2016preVFP/WS/output_ZH_HToGG_ZToAll_M125_TuneCP5_13TeV-powheg-pythia8_ZHsm.root'
p172
ag145
ag145
aS'jjh0Mf05ph0_125_13TeV_AC_Bin15'
p173
aS'jjh0M_125_13TeV_AC_Bin15'
p174
aS'jjh0P_125_13TeV_AC_Bin15'
p175
aS'tth0P_125_13TeV_AC_Bin15'
p176
aS'vbf0Mf05ph0_125_13TeV_AC_Bin15'
p177
aS'vbf0M_125_13TeV_AC_Bin15'
p178
aS'vbf0P_125_13TeV_AC_Bin15'
p179
aS'wh0Mf05ph0_125_13TeV_AC_Bin15'
p180
aS'wh0M_125_13TeV_AC_Bin15'
p181
aS'wh0P_125_13TeV_AC_Bin15'
p182
aS'zh0Mf05ph0_125_13TeV_AC_Bin15'
p183
aS'zh0M_125_13TeV_AC_Bin15'
p184
aS'zh0P_125_13TeV_AC_Bin15'
p185
ag145
ag145
aS'./Models/signal/CMS-HGG_sigfit_packaged_AC_Bin15_2016preVFP.root'
p186
aS'./Models/signal/CMS-HGG_sigfit_packaged_AC_Bin15_2016preVFP.root'
p187
aS'./Models/signal/CMS-HGG_sigfit_packaged_AC_Bin15_2016preVFP.root'
p188
aS'./Models/signal/CMS-HGG_sigfit_packaged_AC_Bin15_2016preVFP.root'
p189
aS'./Models/signal/CMS-HGG_sigfit_packaged_AC_Bin15_2016preVFP.root'
p190
aS'./Models/signal/CMS-HGG_sigfit_packaged_AC_Bin15_2016preVFP.root'
p191
aS'./Models/signal/CMS-HGG_sigfit_packaged_AC_Bin15_2016preVFP.root'
p192
aS'./Models/signal/CMS-HGG_sigfit_packaged_AC_Bin15_2016preVFP.root'
p193
aS'./Models/signal/CMS-HGG_sigfit_packaged_AC_Bin15_2016preVFP.root'
p194
aS'./Models/signal/CMS-HGG_sigfit_packaged_AC_Bin15_2016preVFP.root'
p195
aS'./Models/signal/CMS-HGG_sigfit_packaged_AC_Bin15_2016preVFP.root'
p196
aS'./Models/signal/CMS-HGG_sigfit_packaged_AC_Bin15_2016preVFP.root'
p197
aS'./Models/signal/CMS-HGG_sigfit_packaged_AC_Bin15_2016preVFP.root'
p198
aS'./Models/background/CMS-HGG_multipdf_AC_Bin15_2016preVFP.root'
p199
ag199
aS'wsig_13TeV:hggpdfsmrel_GG2HMf05ph0_2016preVFP_AC_Bin15_13TeV'
p200
aS'wsig_13TeV:hggpdfsmrel_GG2HbsmM_2016preVFP_AC_Bin15_13TeV'
p201
aS'wsig_13TeV:hggpdfsmrel_GG2Hsm_2016preVFP_AC_Bin15_13TeV'
p202
aS'wsig_13TeV:hggpdfsmrel_TTHsm_2016preVFP_AC_Bin15_13TeV'
p203
aS'wsig_13TeV:hggpdfsmrel_VBFMf05ph0_2016preVFP_AC_Bin15_13TeV'
p204
aS'wsig_13TeV:hggpdfsmrel_VBFbsmM_2016preVFP_AC_Bin15_13TeV'
p205
aS'wsig_13TeV:hggpdfsmrel_VBFsm_2016preVFP_AC_Bin15_13TeV'
p206
aS'wsig_13TeV:hggpdfsmrel_WHMf05ph0_2016preVFP_AC_Bin15_13TeV'
p207
aS'wsig_13TeV:hggpdfsmrel_WHbsmM_2016preVFP_AC_Bin15_13TeV'
p208
aS'wsig_13TeV:hggpdfsmrel_WHsm_2016preVFP_AC_Bin15_13TeV'
p209
aS'wsig_13TeV:hggpdfsmrel_ZHMf05ph0_2016preVFP_AC_Bin15_13TeV'
p210
aS'wsig_13TeV:hggpdfsmrel_ZHbsmM_2016preVFP_AC_Bin15_13TeV'
p211
aS'wsig_13TeV:hggpdfsmrel_ZHsm_2016preVFP_AC_Bin15_13TeV'
p212
aS'multipdf:CMS_hgg_AC_Bin15_2016preVFP_13TeV_bkgshape'
p213
aS'multipdf:roohist_data_mass_AC_Bin15'
p214
aF0.02378374948466444
aF0.02899900961131152
aF0.015148410293022607
aF0.0003646959308412079
aF0.007388343224647542
aF0.002378011756036358
aF0.02268004339532581
aF0.0002372963710968179
aF0.0002802513224651193
aF0.00021935208985723875
aF8.633638572064228e-05
aF0.00036562087188940495
aF0.00047100375536501815
ag145
ag145
aF4.892752887771187e-06
aF7.416111759349663e-06
aF2.212024646230518e-06
aF1.6386476269073262e-08
aF3.038441431241568e-07
aF1.3597872522848381e-07
aF6.631407504348206e-06
aF4.785229548801458e-09
aF6.75665056100679e-09
aF2.960631854309745e-09
aF4.358391168628028e-09
aF8.142136218873944e-08
aF4.5476654393387346e-08
ag145
ag145
aF0.02493377444138139
aF0.02967603422663828
aF0.015571374298442344
aF0.0003758225699869639
aF0.007661869228658782
aF0.002448493788410445
aF0.02339487832121776
aF0.0002723398872420227
aF0.0002871318141211869
aF0.00022523023117045068
aF8.7635290601304e-05
aF0.00037404078241359736
aF0.0004788578093834354
ag145
ag145
aF0.023934533645102497
aF0.029184661673364063
aF0.015244813192637863
aF0.000367126108201304
aF0.007434888955299579
aF0.002393222121624504
aF0.022824479585947022
aF0.00023876706535995107
aF0.0002820881977447919
aF0.00022077046144943039
aF8.686849056945135e-05
aF0.0003676474311681282
aF0.0004738642556334328
ag145
ag145
aF0.02363344176421067
aF0.02881395098613995
aF0.015052313914671472
aF0.00036227385809017393
aF0.007341943399421598
aF0.0023628498930225294
aF0.022536066356127572
aF0.00023583023372276138
aF0.00027842046132288975
aF0.00021793829772383128
aF8.580591177771347e-05
aF0.0003635998850124801
aF0.00046815191342399273
ag145
ag145
aF0.02428654343063929
aF0.02954449634562814
aF0.01545310717456495
aF0.0003685759741278229
aF0.007539997998698894
aF0.00242294328226057
aF0.023091596753605618
aF0.00024353719059251497
aF0.00028404586803693017
aF0.00022292387187453633
aF8.710417000320263e-05
aF0.00037964545659067875
aF0.0004780660521750702
ag145
ag145
aF0.023285281529388753
aF0.028458932240600084
aF0.014847069614445627
aF0.0003608394941336425
aF0.007238083890880713
aF0.0023334324153679743
aF0.022272423005672715
aF0.0002311623905422138
aF0.0002764847996100404
aF0.0002158058144090902
aF8.557189005423525e-05
aF0.00035170187694015065
aF0.00046400955155025293
ag145
ag145
aF0.023837670115478476
aF0.02905762141565669
aF0.015180334786754358
aF0.000365191003125056
aF0.007405399051594658
aF0.0023831059132900607
aF0.022734994138966798
aF0.00023833635245648575
aF0.0002807267101566032
aF0.00021975331526202942
aF8.654634186612671e-05
aF0.00036686856379368433
aF0.0004722342844979173
ag145
ag145
aF0.023729880489241267
aF0.02894046299924615
aF0.015116519884110323
aF0.0003642013823533194
aF0.007371304779728921
aF0.0023729222710448103
aF0.022625157151805624
aF0.00023625807038801574
aF0.0002797763306859298
aF0.00021895121513936197
aF8.612665417926475e-05
aF0.000364375176992549
aF0.0004697747750878601
ag145
ag145
aF0.02383940523704876
aF0.02905973018844766
aF0.015182439357944319
aF0.0003654977170682182
aF0.007405573911984564
aF0.0023834387316175897
aF0.022733091255694622
aF0.00023819863192062183
aF0.00028083078302153556
aF0.00021981641257395434
aF8.651026068881435e-05
aF0.0003663577494539264
aF0.0004719749383942304
ag145
ag145
aF0.02372815811171503
aF0.02893835331677582
aF0.015114420597549428
aF0.00036389502216437107
aF0.007371132415289459
aF0.002372590916692582
aF0.022627056908495275
aF0.00023639544814433526
aF0.00027967247393174613
aF0.00021888827040144205
aF8.616268902470652e-05
aF0.0003648847523401944
aF0.000470033554565164
ag145
ag145
aF0.024639726526856975
aF0.029612262027399083
aF0.01572221571314003
aF0.0003645254722073332
aF0.00768599502350753
aF0.0024290327095286557
aF0.017880462757034365
aF0.0002475880791052987
aF0.00028530362010315
aF0.0002250609178418017
aF8.633638572064228e-05
aF0.00036562087188940495
aF0.00047945843994057213
ag145
ag145
aF0.02290583392800727
aF0.02841181507130841
aF0.014786242761829271
aF0.0003552507201334265
aF0.006976263768933677
aF0.0021721935466985087
aF0.022118527068300864
aF0.00023935234798955207
aF0.0002817668305397092
aF0.00021279568011323136
aF8.633638572064228e-05
aF9.74229333223775e-05
aF0.0004443574814558815
ag145
ag145
aF0.02395279488359847
aF0.029811175665258816
aF0.01616378708990851
aF0.0003599634952138331
aF0.007216407005557812
aF0.002567661046214198
aF0.021534843133736103
aF0.0002469047163913274
aF0.00027337410097061365
aF0.00022321093581467721
aF6.0936217778362334e-05
aF0.0005435538696474396
aF0.00041945497173401236
ag145
ag145
aF0.02284302290377127
aF0.02832303567595318
aF0.01587094945739409
aF0.00021428526400768533
aF0.007455881774376394
aF0.002376141273430221
aF0.01695210831087479
aF0.00023726180040739564
aF0.0002773839253222832
aF0.00021915816284945322
aF8.633638572064228e-05
aF9.74229333223775e-05
aF0.000448226068783697
ag145
ag145
aF0.027462301919285892
aF0.029652814271571515
aF0.01554998206165692
aF0.0003566582086591552
aF0.007480951534716951
aF0.002382874507247834
aF0.017480929621115138
aF0.0002372963710968179
aF0.0002810122996379505
aF0.00022456446083651826
aF8.633638572064228e-05
aF0.00036562087188940495
aF0.00047100375536501815
ag145
ag145
aF0.02322835005793422
aF0.026703096168944285
aF0.014592869112220797
aF0.0003646959308412079
aF0.007351188722509505
aF0.0023751497462853877
aF0.016845693910340742
aF0.00020717469965347846
aF0.0002802513224651193
aF0.00021935208985723875
aF8.633638572064228e-05
aF0.00036562087188940495
aF0.00044801789931625535
ag145
ag145
aF0.025992651740352812
aF0.030997989248476188
aF0.01569985847982025
aF0.00038990831143337346
aF0.00791547268170234
aF0.0024177429576184295
aF0.031415217606536316
aF0.000323034264170019
aF0.00032184086978759296
aF0.00024939486377206777
aF0.0001322632197116036
aF0.00036562087188940495
aF0.0004842087162160169
ag145
ag145
aF0.023170837624320484
aF0.029747195405093407
aF0.013154302994962563
aF0.00034734440583861215
aF0.007288874963364833
aF0.002411485198081209
aF0.01713199351422645
aF0.00020069174411219137
aF0.00025335736222587
aF0.00020818521079490893
aF8.633638572064228e-05
aF0.00036562087188940495
aF0.00035122841359225276
ag145
ag145
aF0.024172100078658332
aF0.029581565826788392
aF0.015694418064413185
aF0.00037284104888613
aF0.007361104116171191
aF0.0024033975007569097
aF0.01750585025320106
aF0.00024191122315642133
aF0.00033611622745866043
aF0.0002182831452728351
aF8.633638572064228e-05
aF0.00036562087188940495
aF0.00047100375536501815
ag145
ag145
aF0.02362717085247823
aF0.029033977249014242
aF0.014605417199618387
aF0.000375544313158116
aF0.007487494760084701
aF0.002388043765677139
aF0.02272750327972517
aF0.0002482992035766074
aF0.00027707628441930865
aF0.00021152461965812108
aF8.633638572064228e-05
aF0.00036562087188940495
aF0.00046846684949741757
ag145
ag145
atp215
ba(lp216
g15
(g16
(dp217
g18
g19
(g20
(I0
tp218
g22
tp219
Rp220
(I1
(I1
tp221
g29
I00
(lp222
g43
atp223
bsg66
Nstp224
Rp225
ag15
(g16
(dp226
g18
g19
(g20
(I0
tp227
g22
tp228
Rp229
(I1
(I31
tp230
g29
I00
(lp231
g33
ag34
ag35
ag36
ag37
ag38
ag39
ag40
ag41
ag42
ag44
ag45
ag46
ag47
ag48
ag49
ag50
ag51
ag52
ag53
ag54
ag55
ag56
ag57
ag58
ag59
ag60
ag61
ag62
ag63
ag64
atp232
bsg66
Nstp233
Rp234
a(dp235
S'0.14.1'
p236
(dp237
S'axes'
p238
g14
sS'blocks'
p239
(lp240
(dp241
S'mgr_locs'
p242
c__builtin__
slice
p243
(I10
I11
I1
tp244
Rp245
sS'values'
p246
g87
sa(dp247
g242
g19
(g20
(I0
tp248
g22
tp249
Rp250
(I1
(I31
tp251
g77
I00
S'\x00\x00\x00\x00\x00\x00\x00\x00\x01\x00\x00\x00\x00\x00\x00\x00\x02\x00\x00\x00\x00\x00\x00\x00\x03\x00\x00\x00\x00\x00\x00\x00\x04\x00\x00\x00\x00\x00\x00\x00\x05\x00\x00\x00\x00\x00\x00\x00\x06\x00\x00\x00\x00\x00\x00\x00\x07\x00\x00\x00\x00\x00\x00\x00\x08\x00\x00\x00\x00\x00\x00\x00\t\x00\x00\x00\x00\x00\x00\x00\x0b\x00\x00\x00\x00\x00\x00\x00\x0c\x00\x00\x00\x00\x00\x00\x00\r\x00\x00\x00\x00\x00\x00\x00\x0e\x00\x00\x00\x00\x00\x00\x00\x0f\x00\x00\x00\x00\x00\x00\x00\x10\x00\x00\x00\x00\x00\x00\x00\x11\x00\x00\x00\x00\x00\x00\x00\x12\x00\x00\x00\x00\x00\x00\x00\x13\x00\x00\x00\x00\x00\x00\x00\x14\x00\x00\x00\x00\x00\x00\x00\x15\x00\x00\x00\x00\x00\x00\x00\x16\x00\x00\x00\x00\x00\x00\x00\x17\x00\x00\x00\x00\x00\x00\x00\x18\x00\x00\x00\x00\x00\x00\x00\x19\x00\x00\x00\x00\x00\x00\x00\x1a\x00\x00\x00\x00\x00\x00\x00\x1b\x00\x00\x00\x00\x00\x00\x00\x1c\x00\x00\x00\x00\x00\x00\x00\x1d\x00\x00\x00\x00\x00\x00\x00\x1e\x00\x00\x00\x00\x00\x00\x00\x1f\x00\x00\x00\x00\x00\x00\x00'
p252
tp253
bsg246
g98
sasstp254
bsb.