ccopy_reg
_reconstructor
p0
(cpandas.core.frame
DataFrame
p1
c__builtin__
object
p2
Ntp3
Rp4
(dp5
S'_metadata'
p6
(lp7
sS'_typ'
p8
S'dataframe'
p9
sS'_data'
p10
g0
(cpandas.core.internals
BlockManager
p11
g2
Ntp12
Rp13
((lp14
cpandas.core.indexes.base
_new_Index
p15
(cpandas.core.indexes.base
Index
p16
(dp17
S'data'
p18
cnumpy.core.multiarray
_reconstruct
p19
(cnumpy
ndarray
p20
(I0
tp21
S'b'
p22
tp23
Rp24
(I1
(I32
tp25
cnumpy
dtype
p26
(S'O8'
p27
I0
I1
tp28
Rp29
(I3
S'|'
p30
NNNI-1
I-1
I63
tp31
bI00
(lp32
S'year'
p33
aS'type'
p34
aS'procOriginal'
p35
aS'proc'
p36
aS'proc_s0'
p37
aS'cat'
p38
aS'inputWSFile'
p39
aS'nominalDataName'
p40
aS'modelWSFile'
p41
aS'model'
p42
aS'rate'
p43
aS'nominal_yield'
p44
aS'sumw2'
p45
aS'nominal_yield_COWCorr'
p46
aS'LooseMvaSF_up_yield'
p47
aS'LooseMvaSF_down_yield'
p48
aS'PreselSF_up_yield'
p49
aS'PreselSF_down_yield'
p50
aS'electronVetoSF_up_yield'
p51
aS'electronVetoSF_down_yield'
p52
aS'TriggerWeight_up_yield'
p53
aS'TriggerWeight_down_yield'
p54
aS'SigmaEOverEShift_up_yield'
p55
aS'SigmaEOverEShift_down_yield'
p56
aS'MvaShift_up_yield'
p57
aS'MvaShift_down_yield'
p58
aS'PUJIDShift_up_yield'
p59
aS'PUJIDShift_down_yield'
p60
aS'JEC_up_yield'
p61
aS'JEC_down_yield'
p62
aS'JER_up_yield'
p63
aS'JER_down_yield'
p64
atp65
bsS'name'
p66
Nstp67
Rp68
ag15
(cpandas.core.indexes.numeric
Int64Index
p69
(dp70
g18
g19
(g20
(I0
tp71
g22
tp72
Rp73
(I1
(I15
tp74
g26
(S'i8'
p75
I0
I1
tp76
Rp77
(I3
S'<'
p78
NNNI-1
I-1
I0
tp79
bI00
S'\x00\x00\x00\x00\x00\x00\x00\x00\x01\x00\x00\x00\x00\x00\x00\x00\x02\x00\x00\x00\x00\x00\x00\x00\x03\x00\x00\x00\x00\x00\x00\x00\x04\x00\x00\x00\x00\x00\x00\x00\x05\x00\x00\x00\x00\x00\x00\x00\x06\x00\x00\x00\x00\x00\x00\x00\x07\x00\x00\x00\x00\x00\x00\x00\x08\x00\x00\x00\x00\x00\x00\x00\t\x00\x00\x00\x00\x00\x00\x00\n\x00\x00\x00\x00\x00\x00\x00\x0b\x00\x00\x00\x00\x00\x00\x00\x0c\x00\x00\x00\x00\x00\x00\x00\r\x00\x00\x00\x00\x00\x00\x00\x0e\x00\x00\x00\x00\x00\x00\x00'
p80
tp81
bsg66
Nstp82
Rp83
a(lp84
g19
(g20
(I0
tp85
g22
tp86
Rp87
(I1
(I1
I15
tp88
g26
(S'f8'
p89
I0
I1
tp90
Rp91
(I3
S'<'
p92
NNNI-1
I-1
I0
tp93
bI00
S'\x00\x00\x00\x00\x00\x10\xd3@\x00\x00\x00\x00\x00\x10\xd3@\x00\x00\x00\x00\x00\x10\xd3@\x00\x00\x00\x00\x00\x10\xd3@\x00\x00\x00\x00\x00\x10\xd3@\x00\x00\x00\x00\x00\x10\xd3@\x00\x00\x00\x00\x00\x10\xd3@\x00\x00\x00\x00\x00\x10\xd3@\x00\x00\x00\x00\x00\x10\xd3@\x00\x00\x00\x00\x00\x10\xd3@\x00\x00\x00\x00\x00\x10\xd3@\x00\x00\x00\x00\x00\x10\xd3@\x00\x00\x00\x00\x00\x10\xd3@\x00\x00\x00\x00\x00\x00\xf0?\x00\x00\x00\x00\x00\x00\xf0\xbf'
p94
tp95
bag19
(g20
(I0
tp96
g22
tp97
Rp98
(I1
(I31
I15
tp99
g29
I00
(lp100
S'2016preVFP'
p101
ag101
ag101
ag101
ag101
ag101
ag101
ag101
ag101
ag101
ag101
ag101
ag101
ag33
ag33
aS'sig'
p102
ag102
ag102
ag102
ag102
ag102
ag102
ag102
ag102
ag102
ag102
ag102
ag102
aS'bkg'
p103
ag18
aS'GG2HMf05ph0'
p104
aS'GG2HbsmM'
p105
aS'GG2Hsm'
p106
aS'TTHsm'
p107
aS'VBFMf05ph0'
p108
aS'VBFbsmM'
p109
aS'VBFsm'
p110
aS'WHMf05ph0'
p111
aS'WHbsmM'
p112
aS'WHsm'
p113
aS'ZHMf05ph0'
p114
aS'ZHbsmM'
p115
aS'ZHsm'
p116
aS'bkg_mass'
p117
aS'data_obs'
p118
aS'GG2HMf05ph0_2016preVFP_hgg'
p119
aS'GG2HbsmM_2016preVFP_hgg'
p120
aS'GG2Hsm_2016preVFP_hgg'
p121
aS'tth0P_2016preVFP_hgg'
p122
aS'vbf0Mf05ph0_2016preVFP_hgg'
p123
aS'vbf0M_2016preVFP_hgg'
p124
aS'vbf0P_2016preVFP_hgg'
p125
aS'wh0Mf05ph0_2016preVFP_hgg'
p126
aS'wh0M_2016preVFP_hgg'
p127
aS'wh0P_2016preVFP_hgg'
p128
aS'zh0Mf05ph0_2016preVFP_hgg'
p129
aS'zh0M_2016preVFP_hgg'
p130
aS'zh0P_2016preVFP_hgg'
p131
ag117
ag118
aS'jjh0Mf05ph0'
p132
aS'jjh0M'
p133
aS'jjh0P'
p134
aS'tth0P'
p135
aS'vbf0Mf05ph0'
p136
aS'vbf0M'
p137
aS'vbf0P'
p138
aS'wh0Mf05ph0'
p139
aS'wh0M'
p140
aS'wh0P'
p141
aS'zh0Mf05ph0'
p142
aS'zh0M'
p143
aS'zh0P'
p144
aS'-'
p145
ag145
aS'AC_Bin11_2016preVFP'
p146
aS'AC_Bin11_2016preVFP'
p147
aS'AC_Bin11_2016preVFP'
p148
aS'AC_Bin11_2016preVFP'
p149
aS'AC_Bin11_2016preVFP'
p150
aS'AC_Bin11_2016preVFP'
p151
aS'AC_Bin11_2016preVFP'
p152
aS'AC_Bin11_2016preVFP'
p153
aS'AC_Bin11_2016preVFP'
p154
aS'AC_Bin11_2016preVFP'
p155
aS'AC_Bin11_2016preVFP'
p156
aS'AC_Bin11_2016preVFP'
p157
aS'AC_Bin11_2016preVFP'
p158
aS'AC_Bin11_2016preVFP'
p159
ag159
aS'Trees/Opt_2016preVFP/2016PreVFP/Trees2WS_2016preVFP/WS/output_GluGluHToGGPlusTwoJets_MM_M125_TuneCP5_13TeV-amcatnlopowheg-minlo-pythia8_GG2HMf05ph0.root'
p160
aS'Trees/Opt_2016preVFP/2016PreVFP/Trees2WS_2016preVFP/WS/output_GluGluHToGGPlusTwoJets_CPodd_M125_TuneCP5_13TeV-amcatnlopowheg-minlo-pythia8_GG2HbsmM.root'
p161
aS'Trees/Opt_2016preVFP/2016PreVFP/Trees2WS_2016preVFP/WS/output_GluGluHToGGPlusTwoJets_SM_M125_TuneCP5_13TeV-amcatnlopowheg-minlo-pythia8_GG2Hsm.root'
p162
aS'Trees/Opt_2016preVFP/2016PreVFP/Trees2WS_2016preVFP/WS/output_ttHJetToGG_M125_TuneCP5_13TeV-amcatnloFXFX-madspin-pythia8_TTHsm.root'
p163
aS'Trees/Opt_2016preVFP/2016PreVFP/Trees2WS_2016preVFP/WS/output_VBFHiggs0Mf05ph0ToGG_M125_TuneCP5_13TeV-JHUGenV7011-pythia8_VBFMf05ph0.root'
p164
aS'Trees/Opt_2016preVFP/2016PreVFP/Trees2WS_2016preVFP/WS/output_VBFHiggs0MToGG_M125_TuneCP5_13TeV-JHUGenV7011-pythia8_VBFbsmM.root'
p165
aS'Trees/Opt_2016preVFP/2016PreVFP/Trees2WS_2016preVFP/WS/output_VBFHToGG_M125_TuneCP5_13TeV-amcatnlo-pythia8_VBFsm.root'
p166
aS'Trees/Opt_2016preVFP/2016PreVFP/Trees2WS_2016preVFP/WS/output_WHiggs0Mf05ph0ToGG_M125_TuneCP5_13TeV-JHUGenV7011-pythia8_WHMf05ph0.root'
p167
aS'Trees/Opt_2016preVFP/2016PreVFP/Trees2WS_2016preVFP/WS/output_WHiggs0MToGG_M125_TuneCP5_13TeV-JHUGenV7011-pythia8_WHbsmM.root'
p168
aS'Trees/Opt_2016preVFP/2016PreVFP/Trees2WS_2016preVFP/WS/output_WHiggs0PMToGG_M125_TuneCP5_13TeV-JHUGenV7011-pythia8_WHsm.root'
p169
aS'Trees/Opt_2016preVFP/2016PreVFP/Trees2WS_2016preVFP/WS/output_ZHiggs0Mf05ph0ToGG_M125_TuneCP5_13TeV-JHUGenV7011-pythia8_ZHMf05ph0.root'
p170
aS'Trees/Opt_2016preVFP/2016PreVFP/Trees2WS_2016preVFP/WS/output_ZHiggs0MToGG_M125_TuneCP5_13TeV-JHUGenV7011-pythia8_ZHbsmM.root'
p171
aS'Trees/Opt_2016preVFP/2016PreVFP/Trees2WS_2016preVFP/WS/output_ZH_HToGG_ZToAll_M125_TuneCP5_13TeV-powheg-pythia8_ZHsm.root'
p172
ag145
ag145
aS'jjh0Mf05ph0_125_13TeV_AC_Bin11'
p173
aS'jjh0M_125_13TeV_AC_Bin11'
p174
aS'jjh0P_125_13TeV_AC_Bin11'
p175
aS'tth0P_125_13TeV_AC_Bin11'
p176
aS'vbf0Mf05ph0_125_13TeV_AC_Bin11'
p177
aS'vbf0M_125_13TeV_AC_Bin11'
p178
aS'vbf0P_125_13TeV_AC_Bin11'
p179
aS'wh0Mf05ph0_125_13TeV_AC_Bin11'
p180
aS'wh0M_125_13TeV_AC_Bin11'
p181
aS'wh0P_125_13TeV_AC_Bin11'
p182
aS'zh0Mf05ph0_125_13TeV_AC_Bin11'
p183
aS'zh0M_125_13TeV_AC_Bin11'
p184
aS'zh0P_125_13TeV_AC_Bin11'
p185
ag145
ag145
aS'./Models/signal/CMS-HGG_sigfit_packaged_AC_Bin11_2016preVFP.root'
p186
aS'./Models/signal/CMS-HGG_sigfit_packaged_AC_Bin11_2016preVFP.root'
p187
aS'./Models/signal/CMS-HGG_sigfit_packaged_AC_Bin11_2016preVFP.root'
p188
aS'./Models/signal/CMS-HGG_sigfit_packaged_AC_Bin11_2016preVFP.root'
p189
aS'./Models/signal/CMS-HGG_sigfit_packaged_AC_Bin11_2016preVFP.root'
p190
aS'./Models/signal/CMS-HGG_sigfit_packaged_AC_Bin11_2016preVFP.root'
p191
aS'./Models/signal/CMS-HGG_sigfit_packaged_AC_Bin11_2016preVFP.root'
p192
aS'./Models/signal/CMS-HGG_sigfit_packaged_AC_Bin11_2016preVFP.root'
p193
aS'./Models/signal/CMS-HGG_sigfit_packaged_AC_Bin11_2016preVFP.root'
p194
aS'./Models/signal/CMS-HGG_sigfit_packaged_AC_Bin11_2016preVFP.root'
p195
aS'./Models/signal/CMS-HGG_sigfit_packaged_AC_Bin11_2016preVFP.root'
p196
aS'./Models/signal/CMS-HGG_sigfit_packaged_AC_Bin11_2016preVFP.root'
p197
aS'./Models/signal/CMS-HGG_sigfit_packaged_AC_Bin11_2016preVFP.root'
p198
aS'./Models/background/CMS-HGG_multipdf_AC_Bin11_2016preVFP.root'
p199
ag199
aS'wsig_13TeV:hggpdfsmrel_GG2HMf05ph0_2016preVFP_AC_Bin11_13TeV'
p200
aS'wsig_13TeV:hggpdfsmrel_GG2HbsmM_2016preVFP_AC_Bin11_13TeV'
p201
aS'wsig_13TeV:hggpdfsmrel_GG2Hsm_2016preVFP_AC_Bin11_13TeV'
p202
aS'wsig_13TeV:hggpdfsmrel_TTHsm_2016preVFP_AC_Bin11_13TeV'
p203
aS'wsig_13TeV:hggpdfsmrel_VBFMf05ph0_2016preVFP_AC_Bin11_13TeV'
p204
aS'wsig_13TeV:hggpdfsmrel_VBFbsmM_2016preVFP_AC_Bin11_13TeV'
p205
aS'wsig_13TeV:hggpdfsmrel_VBFsm_2016preVFP_AC_Bin11_13TeV'
p206
aS'wsig_13TeV:hggpdfsmrel_WHMf05ph0_2016preVFP_AC_Bin11_13TeV'
p207
aS'wsig_13TeV:hggpdfsmrel_WHbsmM_2016preVFP_AC_Bin11_13TeV'
p208
aS'wsig_13TeV:hggpdfsmrel_WHsm_2016preVFP_AC_Bin11_13TeV'
p209
aS'wsig_13TeV:hggpdfsmrel_ZHMf05ph0_2016preVFP_AC_Bin11_13TeV'
p210
aS'wsig_13TeV:hggpdfsmrel_ZHbsmM_2016preVFP_AC_Bin11_13TeV'
p211
aS'wsig_13TeV:hggpdfsmrel_ZHsm_2016preVFP_AC_Bin11_13TeV'
p212
aS'multipdf:CMS_hgg_AC_Bin11_2016preVFP_13TeV_bkgshape'
p213
aS'multipdf:roohist_data_mass_AC_Bin11'
p214
aF0.059054219545487285
aF0.07384886771842503
aF0.06356611973933468
aF0.007573627848159958
aF0.06793986393893192
aF0.0909045339626573
aF0.03392089801775455
aF0.0030576853333741383
aF0.0028232701062052
aF0.0008799643422889858
aF0.0018012470864050556
aF0.0007474749872926623
aF0.0022641813759491924
ag145
ag145
aF7.63164168832519e-06
aF8.264585310207075e-06
aF8.040573062425439e-05
aF1.302403817001724e-06
aF7.472273227020614e-06
aF1.8230024873099874e-05
aF1.8861648656232742e-05
aF1.028453613380008e-06
aF5.7114756970026374e-08
aF1.902252650390431e-08
aF6.88951652012543e-07
aF1.235238824134572e-07
aF7.378614753420352e-08
ag145
ag145
aF0.060370864859642444
aF0.07557366222315134
aF0.0650575627584294
aF0.00775841522883814
aF0.06936420786548798
aF0.09283323708333031
aF0.03462519634095738
aF0.003128158652624603
aF0.0028801280226153085
aF0.0008977552410871273
aF0.0018412630071424998
aF0.0007648006741966928
aF0.0023099764498582544
ag145
ag145
aF0.05944200689867299
aF0.07433477379928845
aF0.06398687160457732
aF0.007624060912547171
aF0.06838746552750334
aF0.09150522588470952
aF0.034143577209149525
aF0.003078107815989682
aF0.0028418568427615192
aF0.0008857353189828768
aF0.0018133296200277098
aF0.0007523732693661586
aF0.0022789651187319136
ag145
ag145
aF0.05866770324866011
aF0.07336455763150283
aF0.06314675749152077
aF0.0075233621938965755
aF0.06749373538518122
aF0.09030582260663977
aF0.0336989480214277
aF0.0030373309289169564
aF0.0028047444443406867
aF0.0008742122523736721
aF0.0017892049575979336
aF0.0007425927057432874
aF0.002249445771799237
ag145
ag145
aF0.05995267992947385
aF0.07497071671599663
aF0.0644959894691559
aF0.007671450017907301
aF0.06894349688876567
aF0.09224287475116127
aF0.03440350400607224
aF0.003099206178684709
aF0.002863760749896505
aF0.0008930671784049001
aF0.0018271256318603494
aF0.0007608198546187468
aF0.002299857344176478
ag145
ag145
aF0.058162530469406275
aF0.07273587659810511
aF0.0626428692895158
aF0.0074764556909970485
aF0.06694322690289738
aF0.0895756226611793
aF0.03344163335066815
aF0.003016445727626704
aF0.002783059864914532
aF0.0008669523514247347
aF0.0017755469182588017
aF0.0007342341823368075
aF0.002228769943380128
ag145
ag145
aF0.05914782614001073
aF0.07396817483993982
aF0.06366331689429945
aF0.007583693905288458
aF0.06804478062503312
aF0.09104257653514196
aF0.033984440303421175
aF0.0030616983223798124
aF0.0028277393240601317
aF0.0008813442677330069
aF0.0018034236335617787
aF0.0007485943426678473
aF0.0022681112819392694
ag145
ag145
aF0.05896069140526138
aF0.07372966598381067
aF0.06346899970657886
aF0.007563567593833664
aF0.06783503895454132
aF0.09076659654840424
aF0.03385741326995762
aF0.003053674820154408
aF0.0028188045366865115
aF0.0008785854929692279
aF0.0017990717413470547
aF0.000746356327919643
aF0.002260254883375325
ag145
ag145
aF0.059186160434494366
aF0.07400903313410985
aF0.06369998319117924
aF0.007590983170067937
aF0.06808069892974482
aF0.09109222754790726
aF0.03399167958065127
aF0.0030644417522640785
aF0.0028290515257755307
aF0.000881739735474071
aF0.001804867346786461
aF0.0007489783673080685
aF0.0022687804513843103
ag145
ag145
aF0.05892242468366717
aF0.07368887579647812
aF0.06343239737275415
aF0.007556292297529261
aF0.06779917713027392
aF0.09071704149368803
aF0.033850190751900475
aF0.0030509364350929102
aF0.0028174947124531688
aF0.0008781907661469586
aF0.001797630605713913
aF0.0007459731625383499
aF0.0022595870004375744
ag145
ag145
aF0.057951360101924365
aF0.07282300682140885
aF0.06306144399491131
aF0.007301035724708527
aF0.06750902187866359
aF0.09048806542887178
aF0.03289408473222011
aF0.0030456490586630025
aF0.0028057643577312774
aF0.0008859558568019565
aF0.0018012470864050556
aF0.0007474749872926623
aF0.002279768114703984
ag145
ag145
aF0.0595386200188841
aF0.07598361229702277
aF0.06424995600309558
aF0.007885483803875104
aF0.06832677769955353
aF0.09124897723211234
aF0.03401740178412638
aF0.003065495522719175
aF0.0028388526964135963
aF0.0009496033720779451
aF0.0018012470864050556
aF0.0007474749872926623
aF0.0022882236528403155
ag145
ag145
aF0.059852501416116866
aF0.07548031732039817
aF0.06459954886713604
aF0.0078009528866687106
aF0.06864297388665364
aF0.09204142560463424
aF0.033912464671288944
aF0.003131498887455564
aF0.0028622554488038077
aF0.0009119774639430034
aF0.0018619511138240341
aF0.0007474749872926623
aF0.0023087870883955475
ag145
ag145
aF0.05807686311732141
aF0.07291258443228799
aF0.06242173651230587
aF0.007394873980047123
aF0.06655739667769467
aF0.08853299043050811
aF0.030656970974519027
aF0.0030259520103754767
aF0.0027911742744208823
aF0.0008782119343777595
aF0.0018012470864050556
aF0.0007474749872926623
aF0.00226685949860439
ag145
ag145
aF0.059333823878887415
aF0.07427685966695208
aF0.06370343356502417
aF0.007573627848159958
aF0.06804103188426325
aF0.09104946553839
aF0.03431288384365416
aF0.0030718220035623744
aF0.0028863049675464936
aF0.0008832407476120352
aF0.0019359720645297784
aF0.0007474749872926623
aF0.0022872089450629574
ag145
ag145
aF0.05888887783498831
aF0.07324759088760402
aF0.06323752464709287
aF0.007573627848159958
aF0.0678506840844193
aF0.09076015570690288
aF0.03370349394060668
aF0.0030246415393548887
aF0.0027191267232637983
aF0.0008733752644047854
aF0.0018012470864050556
aF0.0007474749872926623
aF0.0022641813759491924
ag145
ag145
aF0.06067058626263133
aF0.07689480961357731
aF0.0649341076239125
aF0.007670106149589628
aF0.06852979158122707
aF0.09164631167982407
aF0.03313767893030217
aF0.0032027375091274735
aF0.00293742066185132
aF0.006321097706745604
aF0.0018702494962781202
aF0.0007474749872926623
aF0.0022864574948471272
ag145
ag145
aF0.05637788199328497
aF0.07497474506067192
aF0.06335792456479794
aF0.007346019640749546
aF0.06770186353935514
aF0.0904339036469537
aF0.03395647879960961
aF0.0029978131792631757
aF0.0026272341291360135
aF0.0008037379145662271
aF0.0016664893373672385
aF0.0007474749872926623
aF0.002180533074579216
ag145
ag145
aF0.059386693176520566
aF0.07412364638730651
aF0.06329505513349432
aF0.0076791606788901845
aF0.06787085438247686
aF0.09087483829114262
aF0.034050304457196034
aF0.003272149486406306
aF0.002864816684905236
aF0.000841904871663246
aF0.0018702494962781202
aF0.0007474749872926623
aF0.0022804559830547078
ag145
ag145
aF0.05893121391204659
aF0.07360524730756879
aF0.0632111019435797
aF0.0076440461177753605
aF0.06818348989452261
aF0.09092419201056146
aF0.03361915685070471
aF0.0031112736786553796
aF0.002750118967810522
aF0.0062841568337717035
aF0.0018012470864050556
aF0.0007474749872926623
aF0.0031802007431451784
ag145
ag145
atp215
ba(lp216
g15
(g16
(dp217
g18
g19
(g20
(I0
tp218
g22
tp219
Rp220
(I1
(I1
tp221
g29
I00
(lp222
g43
atp223
bsg66
Nstp224
Rp225
ag15
(g16
(dp226
g18
g19
(g20
(I0
tp227
g22
tp228
Rp229
(I1
(I31
tp230
g29
I00
(lp231
g33
ag34
ag35
ag36
ag37
ag38
ag39
ag40
ag41
ag42
ag44
ag45
ag46
ag47
ag48
ag49
ag50
ag51
ag52
ag53
ag54
ag55
ag56
ag57
ag58
ag59
ag60
ag61
ag62
ag63
ag64
atp232
bsg66
Nstp233
Rp234
a(dp235
S'0.14.1'
p236
(dp237
S'axes'
p238
g14
sS'blocks'
p239
(lp240
(dp241
S'mgr_locs'
p242
c__builtin__
slice
p243
(I10
I11
I1
tp244
Rp245
sS'values'
p246
g87
sa(dp247
g242
g19
(g20
(I0
tp248
g22
tp249
Rp250
(I1
(I31
tp251
g77
I00
S'\x00\x00\x00\x00\x00\x00\x00\x00\x01\x00\x00\x00\x00\x00\x00\x00\x02\x00\x00\x00\x00\x00\x00\x00\x03\x00\x00\x00\x00\x00\x00\x00\x04\x00\x00\x00\x00\x00\x00\x00\x05\x00\x00\x00\x00\x00\x00\x00\x06\x00\x00\x00\x00\x00\x00\x00\x07\x00\x00\x00\x00\x00\x00\x00\x08\x00\x00\x00\x00\x00\x00\x00\t\x00\x00\x00\x00\x00\x00\x00\x0b\x00\x00\x00\x00\x00\x00\x00\x0c\x00\x00\x00\x00\x00\x00\x00\r\x00\x00\x00\x00\x00\x00\x00\x0e\x00\x00\x00\x00\x00\x00\x00\x0f\x00\x00\x00\x00\x00\x00\x00\x10\x00\x00\x00\x00\x00\x00\x00\x11\x00\x00\x00\x00\x00\x00\x00\x12\x00\x00\x00\x00\x00\x00\x00\x13\x00\x00\x00\x00\x00\x00\x00\x14\x00\x00\x00\x00\x00\x00\x00\x15\x00\x00\x00\x00\x00\x00\x00\x16\x00\x00\x00\x00\x00\x00\x00\x17\x00\x00\x00\x00\x00\x00\x00\x18\x00\x00\x00\x00\x00\x00\x00\x19\x00\x00\x00\x00\x00\x00\x00\x1a\x00\x00\x00\x00\x00\x00\x00\x1b\x00\x00\x00\x00\x00\x00\x00\x1c\x00\x00\x00\x00\x00\x00\x00\x1d\x00\x00\x00\x00\x00\x00\x00\x1e\x00\x00\x00\x00\x00\x00\x00\x1f\x00\x00\x00\x00\x00\x00\x00'
p252
tp253
bsg246
g98
sasstp254
bsb.