ccopy_reg
_reconstructor
p0
(cpandas.core.frame
DataFrame
p1
c__builtin__
object
p2
Ntp3
Rp4
(dp5
S'_metadata'
p6
(lp7
sS'_typ'
p8
S'dataframe'
p9
sS'_data'
p10
g0
(cpandas.core.internals
BlockManager
p11
g2
Ntp12
Rp13
((lp14
cpandas.core.indexes.base
_new_Index
p15
(cpandas.core.indexes.base
Index
p16
(dp17
S'data'
p18
cnumpy.core.multiarray
_reconstruct
p19
(cnumpy
ndarray
p20
(I0
tp21
S'b'
p22
tp23
Rp24
(I1
(I34
tp25
cnumpy
dtype
p26
(S'O8'
p27
I0
I1
tp28
Rp29
(I3
S'|'
p30
NNNI-1
I-1
I63
tp31
bI00
(lp32
S'year'
p33
aS'type'
p34
aS'procOriginal'
p35
aS'proc'
p36
aS'proc_s0'
p37
aS'cat'
p38
aS'inputWSFile'
p39
aS'nominalDataName'
p40
aS'modelWSFile'
p41
aS'model'
p42
aS'rate'
p43
aS'nominal_yield'
p44
aS'sumw2'
p45
aS'nominal_yield_COWCorr'
p46
aS'LooseMvaSF_up_yield'
p47
aS'LooseMvaSF_down_yield'
p48
aS'PreselSF_up_yield'
p49
aS'PreselSF_down_yield'
p50
aS'electronVetoSF_up_yield'
p51
aS'electronVetoSF_down_yield'
p52
aS'TriggerWeight_up_yield'
p53
aS'TriggerWeight_down_yield'
p54
aS'SigmaEOverEShift_up_yield'
p55
aS'SigmaEOverEShift_down_yield'
p56
aS'MvaShift_up_yield'
p57
aS'MvaShift_down_yield'
p58
aS'PUJIDShift_up_yield'
p59
aS'PUJIDShift_down_yield'
p60
aS'JEC_up_yield'
p61
aS'JEC_down_yield'
p62
aS'JER_up_yield'
p63
aS'JER_down_yield'
p64
aS'JetHEM_up_yield'
p65
aS'JetHEM_down_yield'
p66
atp67
bsS'name'
p68
Nstp69
Rp70
ag15
(cpandas.core.indexes.numeric
Int64Index
p71
(dp72
g18
g19
(g20
(I0
tp73
g22
tp74
Rp75
(I1
(I15
tp76
g26
(S'i8'
p77
I0
I1
tp78
Rp79
(I3
S'<'
p80
NNNI-1
I-1
I0
tp81
bI00
S'\x00\x00\x00\x00\x00\x00\x00\x00\x01\x00\x00\x00\x00\x00\x00\x00\x02\x00\x00\x00\x00\x00\x00\x00\x03\x00\x00\x00\x00\x00\x00\x00\x04\x00\x00\x00\x00\x00\x00\x00\x05\x00\x00\x00\x00\x00\x00\x00\x06\x00\x00\x00\x00\x00\x00\x00\x07\x00\x00\x00\x00\x00\x00\x00\x08\x00\x00\x00\x00\x00\x00\x00\t\x00\x00\x00\x00\x00\x00\x00\n\x00\x00\x00\x00\x00\x00\x00\x0b\x00\x00\x00\x00\x00\x00\x00\x0c\x00\x00\x00\x00\x00\x00\x00\r\x00\x00\x00\x00\x00\x00\x00\x0e\x00\x00\x00\x00\x00\x00\x00'
p82
tp83
bsg68
Nstp84
Rp85
a(lp86
g19
(g20
(I0
tp87
g22
tp88
Rp89
(I1
(I1
I15
tp90
g26
(S'f8'
p91
I0
I1
tp92
Rp93
(I3
S'<'
p94
NNNI-1
I-1
I0
tp95
bI00
S'\x00\x00\x00\x00\x00\x10\xd3@\x00\x00\x00\x00\x00\x10\xd3@\x00\x00\x00\x00\x00\x10\xd3@\x00\x00\x00\x00\x00\x10\xd3@\x00\x00\x00\x00\x00\x10\xd3@\x00\x00\x00\x00\x00\x10\xd3@\x00\x00\x00\x00\x00\x10\xd3@\x00\x00\x00\x00\x00\x10\xd3@\x00\x00\x00\x00\x00\x10\xd3@\x00\x00\x00\x00\x00\x10\xd3@\x00\x00\x00\x00\x00\x10\xd3@\x00\x00\x00\x00\x00\x10\xd3@\x00\x00\x00\x00\x00\x10\xd3@\x00\x00\x00\x00\x00\x00\xf0?\x00\x00\x00\x00\x00\x00\xf0\xbf'
p96
tp97
bag19
(g20
(I0
tp98
g22
tp99
Rp100
(I1
(I33
I15
tp101
g29
I00
(lp102
S'2016preVFP'
p103
ag103
ag103
ag103
ag103
ag103
ag103
ag103
ag103
ag103
ag103
ag103
ag103
ag33
ag33
aS'sig'
p104
ag104
ag104
ag104
ag104
ag104
ag104
ag104
ag104
ag104
ag104
ag104
ag104
aS'bkg'
p105
ag18
aS'GG2HMf05ph0'
p106
aS'GG2HbsmM'
p107
aS'GG2Hsm'
p108
aS'TTHsm'
p109
aS'VBFMf05ph0'
p110
aS'VBFbsmM'
p111
aS'VBFsm'
p112
aS'WHMf05ph0'
p113
aS'WHbsmM'
p114
aS'WHsm'
p115
aS'ZHMf05ph0'
p116
aS'ZHbsmM'
p117
aS'ZHsm'
p118
aS'bkg_mass'
p119
aS'data_obs'
p120
aS'GG2HMf05ph0_2016preVFP_hgg'
p121
aS'GG2HbsmM_2016preVFP_hgg'
p122
aS'GG2Hsm_2016preVFP_hgg'
p123
aS'tth0P_2016preVFP_hgg'
p124
aS'vbf0Mf05ph0_2016preVFP_hgg'
p125
aS'vbf0M_2016preVFP_hgg'
p126
aS'vbf0P_2016preVFP_hgg'
p127
aS'wh0Mf05ph0_2016preVFP_hgg'
p128
aS'wh0M_2016preVFP_hgg'
p129
aS'wh0P_2016preVFP_hgg'
p130
aS'zh0Mf05ph0_2016preVFP_hgg'
p131
aS'zh0M_2016preVFP_hgg'
p132
aS'zh0P_2016preVFP_hgg'
p133
ag119
ag120
aS'jjh0Mf05ph0'
p134
aS'jjh0M'
p135
aS'jjh0P'
p136
aS'tth0P'
p137
aS'vbf0Mf05ph0'
p138
aS'vbf0M'
p139
aS'vbf0P'
p140
aS'wh0Mf05ph0'
p141
aS'wh0M'
p142
aS'wh0P'
p143
aS'zh0Mf05ph0'
p144
aS'zh0M'
p145
aS'zh0P'
p146
aS'-'
p147
ag147
aS'AC_Bin22_2016preVFP'
p148
aS'AC_Bin22_2016preVFP'
p149
aS'AC_Bin22_2016preVFP'
p150
aS'AC_Bin22_2016preVFP'
p151
aS'AC_Bin22_2016preVFP'
p152
aS'AC_Bin22_2016preVFP'
p153
aS'AC_Bin22_2016preVFP'
p154
aS'AC_Bin22_2016preVFP'
p155
aS'AC_Bin22_2016preVFP'
p156
aS'AC_Bin22_2016preVFP'
p157
aS'AC_Bin22_2016preVFP'
p158
aS'AC_Bin22_2016preVFP'
p159
aS'AC_Bin22_2016preVFP'
p160
aS'AC_Bin22_2016preVFP'
p161
ag161
aS'Trees/Opt_2016preVFP/2016PreVFP/Trees2WS_2016preVFP/WS/output_GluGluHToGGPlusTwoJets_MM_M125_TuneCP5_13TeV-amcatnlopowheg-minlo-pythia8_GG2HMf05ph0.root'
p162
aS'Trees/Opt_2016preVFP/2016PreVFP/Trees2WS_2016preVFP/WS/output_GluGluHToGGPlusTwoJets_CPodd_M125_TuneCP5_13TeV-amcatnlopowheg-minlo-pythia8_GG2HbsmM.root'
p163
aS'Trees/Opt_2016preVFP/2016PreVFP/Trees2WS_2016preVFP/WS/output_GluGluHToGGPlusTwoJets_SM_M125_TuneCP5_13TeV-amcatnlopowheg-minlo-pythia8_GG2Hsm.root'
p164
aS'Trees/Opt_2016preVFP/2016PreVFP/Trees2WS_2016preVFP/WS/output_ttHJetToGG_M125_TuneCP5_13TeV-amcatnloFXFX-madspin-pythia8_TTHsm.root'
p165
aS'Trees/Opt_2016preVFP/2016PreVFP/Trees2WS_2016preVFP/WS/output_VBFHiggs0Mf05ph0ToGG_M125_TuneCP5_13TeV-JHUGenV7011-pythia8_VBFMf05ph0.root'
p166
aS'Trees/Opt_2016preVFP/2016PreVFP/Trees2WS_2016preVFP/WS/output_VBFHiggs0MToGG_M125_TuneCP5_13TeV-JHUGenV7011-pythia8_VBFbsmM.root'
p167
aS'Trees/Opt_2016preVFP/2016PreVFP/Trees2WS_2016preVFP/WS/output_VBFHToGG_M125_TuneCP5_13TeV-amcatnlo-pythia8_VBFsm.root'
p168
aS'Trees/Opt_2016preVFP/2016PreVFP/Trees2WS_2016preVFP/WS/output_WHiggs0Mf05ph0ToGG_M125_TuneCP5_13TeV-JHUGenV7011-pythia8_WHMf05ph0.root'
p169
aS'Trees/Opt_2016preVFP/2016PreVFP/Trees2WS_2016preVFP/WS/output_WHiggs0MToGG_M125_TuneCP5_13TeV-JHUGenV7011-pythia8_WHbsmM.root'
p170
aS'Trees/Opt_2016preVFP/2016PreVFP/Trees2WS_2016preVFP/WS/output_WHiggs0PMToGG_M125_TuneCP5_13TeV-JHUGenV7011-pythia8_WHsm.root'
p171
aS'Trees/Opt_2016preVFP/2016PreVFP/Trees2WS_2016preVFP/WS/output_ZHiggs0Mf05ph0ToGG_M125_TuneCP5_13TeV-JHUGenV7011-pythia8_ZHMf05ph0.root'
p172
aS'Trees/Opt_2016preVFP/2016PreVFP/Trees2WS_2016preVFP/WS/output_ZHiggs0MToGG_M125_TuneCP5_13TeV-JHUGenV7011-pythia8_ZHbsmM.root'
p173
aS'Trees/Opt_2016preVFP/2016PreVFP/Trees2WS_2016preVFP/WS/output_ZH_HToGG_ZToAll_M125_TuneCP5_13TeV-powheg-pythia8_ZHsm.root'
p174
ag147
ag147
aS'jjh0Mf05ph0_125_13TeV_AC_Bin22'
p175
aS'jjh0M_125_13TeV_AC_Bin22'
p176
aS'jjh0P_125_13TeV_AC_Bin22'
p177
aS'tth0P_125_13TeV_AC_Bin22'
p178
aS'vbf0Mf05ph0_125_13TeV_AC_Bin22'
p179
aS'vbf0M_125_13TeV_AC_Bin22'
p180
aS'vbf0P_125_13TeV_AC_Bin22'
p181
aS'wh0Mf05ph0_125_13TeV_AC_Bin22'
p182
aS'wh0M_125_13TeV_AC_Bin22'
p183
aS'wh0P_125_13TeV_AC_Bin22'
p184
aS'zh0Mf05ph0_125_13TeV_AC_Bin22'
p185
aS'zh0M_125_13TeV_AC_Bin22'
p186
aS'zh0P_125_13TeV_AC_Bin22'
p187
ag147
ag147
aS'./Models/signal/CMS-HGG_sigfit_packaged_AC_Bin22_2016preVFP.root'
p188
aS'./Models/signal/CMS-HGG_sigfit_packaged_AC_Bin22_2016preVFP.root'
p189
aS'./Models/signal/CMS-HGG_sigfit_packaged_AC_Bin22_2016preVFP.root'
p190
aS'./Models/signal/CMS-HGG_sigfit_packaged_AC_Bin22_2016preVFP.root'
p191
aS'./Models/signal/CMS-HGG_sigfit_packaged_AC_Bin22_2016preVFP.root'
p192
aS'./Models/signal/CMS-HGG_sigfit_packaged_AC_Bin22_2016preVFP.root'
p193
aS'./Models/signal/CMS-HGG_sigfit_packaged_AC_Bin22_2016preVFP.root'
p194
aS'./Models/signal/CMS-HGG_sigfit_packaged_AC_Bin22_2016preVFP.root'
p195
aS'./Models/signal/CMS-HGG_sigfit_packaged_AC_Bin22_2016preVFP.root'
p196
aS'./Models/signal/CMS-HGG_sigfit_packaged_AC_Bin22_2016preVFP.root'
p197
aS'./Models/signal/CMS-HGG_sigfit_packaged_AC_Bin22_2016preVFP.root'
p198
aS'./Models/signal/CMS-HGG_sigfit_packaged_AC_Bin22_2016preVFP.root'
p199
aS'./Models/signal/CMS-HGG_sigfit_packaged_AC_Bin22_2016preVFP.root'
p200
aS'./Models/background/CMS-HGG_multipdf_AC_Bin22_2016preVFP.root'
p201
ag201
aS'wsig_13TeV:hggpdfsmrel_GG2HMf05ph0_2016preVFP_AC_Bin22_13TeV'
p202
aS'wsig_13TeV:hggpdfsmrel_GG2HbsmM_2016preVFP_AC_Bin22_13TeV'
p203
aS'wsig_13TeV:hggpdfsmrel_GG2Hsm_2016preVFP_AC_Bin22_13TeV'
p204
aS'wsig_13TeV:hggpdfsmrel_TTHsm_2016preVFP_AC_Bin22_13TeV'
p205
aS'wsig_13TeV:hggpdfsmrel_VBFMf05ph0_2016preVFP_AC_Bin22_13TeV'
p206
aS'wsig_13TeV:hggpdfsmrel_VBFbsmM_2016preVFP_AC_Bin22_13TeV'
p207
aS'wsig_13TeV:hggpdfsmrel_VBFsm_2016preVFP_AC_Bin22_13TeV'
p208
aS'wsig_13TeV:hggpdfsmrel_WHMf05ph0_2016preVFP_AC_Bin22_13TeV'
p209
aS'wsig_13TeV:hggpdfsmrel_WHbsmM_2016preVFP_AC_Bin22_13TeV'
p210
aS'wsig_13TeV:hggpdfsmrel_WHsm_2016preVFP_AC_Bin22_13TeV'
p211
aS'wsig_13TeV:hggpdfsmrel_ZHMf05ph0_2016preVFP_AC_Bin22_13TeV'
p212
aS'wsig_13TeV:hggpdfsmrel_ZHbsmM_2016preVFP_AC_Bin22_13TeV'
p213
aS'wsig_13TeV:hggpdfsmrel_ZHsm_2016preVFP_AC_Bin22_13TeV'
p214
aS'multipdf:CMS_hgg_AC_Bin22_2016preVFP_13TeV_bkgshape'
p215
aS'multipdf:roohist_data_mass_AC_Bin22'
p216
aF0.6149986783483428
aF0.5885139623085252
aF0.5906615187507214
aF0.019116027425127413
aF0.07020112655504818
aF0.04176374262158333
aF0.08801435782879707
aF0.04720768711428036
aF0.046565216250485264
aF0.047497904380861655
aF0.026041557186545106
aF0.02162869773565035
aF0.03505309325350936
ag147
ag147
aF0.00018751597507266646
aF0.00010605951410866864
aF0.0001019219470739614
aF4.966757868468628e-06
aF1.9806815326319798e-05
aF1.2562314171118248e-05
aF3.050909842257055e-05
aF2.646625167971711e-06
aF2.068734230609595e-06
aF2.2309353412138905e-06
aF6.681410483920714e-06
aF4.947278311787974e-06
aF6.05025348214666e-06
ag147
ag147
aF0.6319773495663078
aF0.605209774810261
aF0.6070721124307636
aF0.019638642022825583
aF0.07204091660229175
aF0.04275718292667581
aF0.09016771490490688
aF0.04835694608584759
aF0.047751858841750094
aF0.048740034740318725
aF0.02681985182464205
aF0.02212851272932149
aF0.03591182583095595
ag147
ag147
aF0.618967223319088
aF0.5923146068359936
aF0.5944792416931106
aF0.019238229943105627
aF0.07065531369557171
aF0.042031533237028906
aF0.08858090213223714
aF0.04750963299466506
aF0.04686377334291081
aF0.047802361594818384
aF0.026207880497492956
aF0.021768351873318752
aF0.03527910033391272
ag147
ag147
aF0.6110429154202113
aF0.5847255686596761
aF0.586856114795526
aF0.018994214908740602
aF0.06974840640126757
aF0.041496809616859406
aF0.08744963434078448
aF0.04690670540033517
aF0.046267614733865085
aF0.04719442121165583
aF0.02587576413528404
aF0.02148949358843201
aF0.03482781328849096
ag147
ag147
aF0.625694929838099
aF0.5986559689314631
aF0.6008791653347942
aF0.01950043208499283
aF0.07135889926292613
aF0.04249336539558991
aF0.08956347188012305
aF0.04799170291172579
aF0.047356573621118773
aF0.04830787882954708
aF0.026451263355464195
aF0.021955363347770037
aF0.03566008752367155
ag147
ag147
aF0.6043945385378575
aF0.5784584723277368
aF0.5805335617189451
aF0.01873488969440191
aF0.06905251041653789
aF0.04103987221771895
aF0.0864792999590224
aF0.046430049739242515
aF0.045780168723736005
aF0.04669447137045864
aF0.025634855733010584
aF0.021304265926235223
aF0.03445105601290691
ag147
ag147
aF0.6161591286159089
aF0.5896294698369015
aF0.5917845356310022
aF0.019153874004915757
aF0.07033278964065008
aF0.04185077055035539
aF0.0881852642709375
aF0.04730361126589971
aF0.046660029576897674
aF0.04759629523931267
aF0.026094159331776497
aF0.021671935912252444
aF0.035122207905446644
ag147
ag147
aF0.6138393598098159
aF0.5873995442269532
aF0.5895395965869856
aF0.01907821860393794
aF0.0700695931341772
aF0.04167681248852265
aF0.08784361826862719
aF0.047111864798105564
aF0.04647050278605751
aF0.04739961775951632
aF0.025989011624691805
aF0.021585503909457352
aF0.034984049534633514
ag147
ag147
aF0.6163630645620553
aF0.5898279561235721
aF0.5919638693952918
aF0.019157755636160612
aF0.0703633119756776
aF0.041853071947166635
aF0.08820991565569808
aF0.047312440496862715
aF0.04666920207577619
aF0.04760531456707483
aF0.026099855109492066
aF0.02167835223623484
aF0.03513027470238093
ag147
ag147
aF0.6136358198793925
aF0.587201450333303
aF0.589360617040638
aF0.01907434474356961
aF0.07003912813622404
aF0.04167450964055144
aF0.08781903517129167
aF0.04710305072191385
aF0.046461348764021144
aF0.047390616786548816
aF0.025983324415691927
aF0.021579099816312036
aF0.03497599705707368
ag147
ag147
aF0.61012966701594
aF0.5853323398055181
aF0.5905775021005866
aF0.0194283880302919
aF0.07050916474759106
aF0.04215796493701873
aF0.09193453650232186
aF0.04743995419204339
aF0.047337562055702165
aF0.047383800431703094
aF0.026118627116375137
aF0.021066593368232134
aF0.03523538706872387
ag147
ag147
aF0.6160838528743398
aF0.5882884015552463
aF0.592351123002345
aF0.019112415932625026
aF0.06991777875100524
aF0.040529056640025374
aF0.06388858856325896
aF0.04711866974145096
aF0.04545431010382117
aF0.04710212181782936
aF0.026307575728424126
aF0.0207869795467559
aF0.03515748049994727
ag147
ag147
aF0.6334475288704198
aF0.6034932335625172
aF0.6024067919840945
aF0.01866782478185769
aF0.07085896147032145
aF0.042361227929859524
aF0.09486184040611079
aF0.048095462132607736
aF0.04748886789212747
aF0.04865632893597649
aF0.026408466803331976
aF0.021486874475158402
aF0.03600404869052909
ag147
ag147
aF0.602204271118012
aF0.5760408081057449
aF0.5770272109762118
aF0.018829858870560656
aF0.06898829256283534
aF0.040273537953339655
aF0.06004818785459065
aF0.046497091203946184
aF0.04608560513446491
aF0.04638988874728511
aF0.025386215427715797
aF0.02370577600413526
aF0.03461391362407085
ag147
ag147
aF0.6272395120091687
aF0.5955115783219753
aF0.5997341602198958
aF0.019011162156914452
aF0.07046427678278633
aF0.041832671303382085
aF0.06483129077491867
aF0.04776721267654693
aF0.0468299746535763
aF0.04802392942724509
aF0.02622397787126829
aF0.02185965166972892
aF0.03521817949786055
ag147
ag147
aF0.6037961745893199
aF0.577422792465768
aF0.5811771983851486
aF0.019154106389976278
aF0.06973478314944259
aF0.041674214210502214
aF0.06103902757126889
aF0.04691344663541486
aF0.04632012750090553
aF0.04728722921140616
aF0.026041557186545106
aF0.021520621367017156
aF0.03494369095915317
ag147
ag147
aF0.6477992603699931
aF0.615103846537977
aF0.6194502101741364
aF0.01924068445106286
aF0.0697297781399584
aF0.04193224067489609
aF0.07030429263306814
aF0.048602854455168654
aF0.04962474858137966
aF0.04860801140887361
aF0.026807520083821146
aF0.02311274130079255
aF0.03539772924227691
ag147
ag147
aF0.5841010256862091
aF0.5626241379809471
aF0.5603589993565947
aF0.019584754456047904
aF0.06872775734973402
aF0.04087263248607087
aF0.07813453569463036
aF0.04571886452737317
aF0.04532223723271045
aF0.046600735079664446
aF0.02624683501016989
aF0.02129563590824546
aF0.03479127175182839
ag147
ag147
aF0.6154196699640124
aF0.5933263165277367
aF0.5936985799060039
aF0.018855605254486818
aF0.06966195859445179
aF0.04180744457732999
aF0.06374685265973312
aF0.047675273600873425
aF0.047018953690724175
aF0.04756037756283149
aF0.02575816974058398
aF0.021643381345711532
aF0.03515865085432779
ag147
ag147
aF0.6139421811222974
aF0.5831236023639121
aF0.5854897792046359
aF0.019206973664324778
aF0.07010422554981233
aF0.04155010773251888
aF0.06441843901154698
aF0.04757322716073986
aF0.04655671203710199
aF0.04737052547989151
aF0.025843844548944617
aF0.021316489328455646
aF0.03520786459739611
ag147
ag147
aF0.6149986783483428
aF0.5885139623085252
aF0.5906615187507214
aF0.019116027425127413
aF0.07020112655504818
aF0.04176374262158333
aF0.08801435782879707
aF0.04720768711428036
aF0.046565216250485264
aF0.047497904380861655
aF0.026041557186545106
aF0.02162869773565035
aF0.03505309325350936
ag147
ag147
aF0.6149986783483428
aF0.5885139623085252
aF0.5906615187507214
aF0.019116027425127413
aF0.07020112655504818
aF0.04176374262158333
aF0.08801435782879707
aF0.04720768711428036
aF0.046565216250485264
aF0.047497904380861655
aF0.026041557186545106
aF0.02162869773565035
aF0.03505309325350936
ag147
ag147
atp217
ba(lp218
g15
(g16
(dp219
g18
g19
(g20
(I0
tp220
g22
tp221
Rp222
(I1
(I1
tp223
g29
I00
(lp224
g43
atp225
bsg68
Nstp226
Rp227
ag15
(g16
(dp228
g18
g19
(g20
(I0
tp229
g22
tp230
Rp231
(I1
(I33
tp232
g29
I00
(lp233
g33
ag34
ag35
ag36
ag37
ag38
ag39
ag40
ag41
ag42
ag44
ag45
ag46
ag47
ag48
ag49
ag50
ag51
ag52
ag53
ag54
ag55
ag56
ag57
ag58
ag59
ag60
ag61
ag62
ag63
ag64
ag65
ag66
atp234
bsg68
Nstp235
Rp236
a(dp237
S'0.14.1'
p238
(dp239
S'axes'
p240
g14
sS'blocks'
p241
(lp242
(dp243
S'mgr_locs'
p244
c__builtin__
slice
p245
(I10
I11
I1
tp246
Rp247
sS'values'
p248
g89
sa(dp249
g244
g19
(g20
(I0
tp250
g22
tp251
Rp252
(I1
(I33
tp253
g79
I00
S'\x00\x00\x00\x00\x00\x00\x00\x00\x01\x00\x00\x00\x00\x00\x00\x00\x02\x00\x00\x00\x00\x00\x00\x00\x03\x00\x00\x00\x00\x00\x00\x00\x04\x00\x00\x00\x00\x00\x00\x00\x05\x00\x00\x00\x00\x00\x00\x00\x06\x00\x00\x00\x00\x00\x00\x00\x07\x00\x00\x00\x00\x00\x00\x00\x08\x00\x00\x00\x00\x00\x00\x00\t\x00\x00\x00\x00\x00\x00\x00\x0b\x00\x00\x00\x00\x00\x00\x00\x0c\x00\x00\x00\x00\x00\x00\x00\r\x00\x00\x00\x00\x00\x00\x00\x0e\x00\x00\x00\x00\x00\x00\x00\x0f\x00\x00\x00\x00\x00\x00\x00\x10\x00\x00\x00\x00\x00\x00\x00\x11\x00\x00\x00\x00\x00\x00\x00\x12\x00\x00\x00\x00\x00\x00\x00\x13\x00\x00\x00\x00\x00\x00\x00\x14\x00\x00\x00\x00\x00\x00\x00\x15\x00\x00\x00\x00\x00\x00\x00\x16\x00\x00\x00\x00\x00\x00\x00\x17\x00\x00\x00\x00\x00\x00\x00\x18\x00\x00\x00\x00\x00\x00\x00\x19\x00\x00\x00\x00\x00\x00\x00\x1a\x00\x00\x00\x00\x00\x00\x00\x1b\x00\x00\x00\x00\x00\x00\x00\x1c\x00\x00\x00\x00\x00\x00\x00\x1d\x00\x00\x00\x00\x00\x00\x00\x1e\x00\x00\x00\x00\x00\x00\x00\x1f\x00\x00\x00\x00\x00\x00\x00 \x00\x00\x00\x00\x00\x00\x00!\x00\x00\x00\x00\x00\x00\x00'
p254
tp255
bsg248
g100
sasstp256
bsb.