ccopy_reg
_reconstructor
p0
(cpandas.core.frame
DataFrame
p1
c__builtin__
object
p2
Ntp3
Rp4
(dp5
S'_metadata'
p6
(lp7
sS'_typ'
p8
S'dataframe'
p9
sS'_data'
p10
g0
(cpandas.core.internals
BlockManager
p11
g2
Ntp12
Rp13
((lp14
cpandas.core.indexes.base
_new_Index
p15
(cpandas.core.indexes.base
Index
p16
(dp17
S'data'
p18
cnumpy.core.multiarray
_reconstruct
p19
(cnumpy
ndarray
p20
(I0
tp21
S'b'
p22
tp23
Rp24
(I1
(I32
tp25
cnumpy
dtype
p26
(S'O8'
p27
I0
I1
tp28
Rp29
(I3
S'|'
p30
NNNI-1
I-1
I63
tp31
bI00
(lp32
S'year'
p33
aS'type'
p34
aS'procOriginal'
p35
aS'proc'
p36
aS'proc_s0'
p37
aS'cat'
p38
aS'inputWSFile'
p39
aS'nominalDataName'
p40
aS'modelWSFile'
p41
aS'model'
p42
aS'rate'
p43
aS'nominal_yield'
p44
aS'sumw2'
p45
aS'nominal_yield_COWCorr'
p46
aS'LooseMvaSF_up_yield'
p47
aS'LooseMvaSF_down_yield'
p48
aS'PreselSF_up_yield'
p49
aS'PreselSF_down_yield'
p50
aS'electronVetoSF_up_yield'
p51
aS'electronVetoSF_down_yield'
p52
aS'TriggerWeight_up_yield'
p53
aS'TriggerWeight_down_yield'
p54
aS'SigmaEOverEShift_up_yield'
p55
aS'SigmaEOverEShift_down_yield'
p56
aS'MvaShift_up_yield'
p57
aS'MvaShift_down_yield'
p58
aS'PUJIDShift_up_yield'
p59
aS'PUJIDShift_down_yield'
p60
aS'JEC_up_yield'
p61
aS'JEC_down_yield'
p62
aS'JER_up_yield'
p63
aS'JER_down_yield'
p64
atp65
bsS'name'
p66
Nstp67
Rp68
ag15
(cpandas.core.indexes.numeric
Int64Index
p69
(dp70
g18
g19
(g20
(I0
tp71
g22
tp72
Rp73
(I1
(I15
tp74
g26
(S'i8'
p75
I0
I1
tp76
Rp77
(I3
S'<'
p78
NNNI-1
I-1
I0
tp79
bI00
S'\x00\x00\x00\x00\x00\x00\x00\x00\x01\x00\x00\x00\x00\x00\x00\x00\x02\x00\x00\x00\x00\x00\x00\x00\x03\x00\x00\x00\x00\x00\x00\x00\x04\x00\x00\x00\x00\x00\x00\x00\x05\x00\x00\x00\x00\x00\x00\x00\x06\x00\x00\x00\x00\x00\x00\x00\x07\x00\x00\x00\x00\x00\x00\x00\x08\x00\x00\x00\x00\x00\x00\x00\t\x00\x00\x00\x00\x00\x00\x00\n\x00\x00\x00\x00\x00\x00\x00\x0b\x00\x00\x00\x00\x00\x00\x00\x0c\x00\x00\x00\x00\x00\x00\x00\r\x00\x00\x00\x00\x00\x00\x00\x0e\x00\x00\x00\x00\x00\x00\x00'
p80
tp81
bsg66
Nstp82
Rp83
a(lp84
g19
(g20
(I0
tp85
g22
tp86
Rp87
(I1
(I1
I15
tp88
g26
(S'f8'
p89
I0
I1
tp90
Rp91
(I3
S'<'
p92
NNNI-1
I-1
I0
tp93
bI00
S'\x00\x00\x00\x00\x00\x10\xd3@\x00\x00\x00\x00\x00\x10\xd3@\x00\x00\x00\x00\x00\x10\xd3@\x00\x00\x00\x00\x00\x10\xd3@\x00\x00\x00\x00\x00\x10\xd3@\x00\x00\x00\x00\x00\x10\xd3@\x00\x00\x00\x00\x00\x10\xd3@\x00\x00\x00\x00\x00\x10\xd3@\x00\x00\x00\x00\x00\x10\xd3@\x00\x00\x00\x00\x00\x10\xd3@\x00\x00\x00\x00\x00\x10\xd3@\x00\x00\x00\x00\x00\x10\xd3@\x00\x00\x00\x00\x00\x10\xd3@\x00\x00\x00\x00\x00\x00\xf0?\x00\x00\x00\x00\x00\x00\xf0\xbf'
p94
tp95
bag19
(g20
(I0
tp96
g22
tp97
Rp98
(I1
(I31
I15
tp99
g29
I00
(lp100
S'2016preVFP'
p101
ag101
ag101
ag101
ag101
ag101
ag101
ag101
ag101
ag101
ag101
ag101
ag101
ag33
ag33
aS'sig'
p102
ag102
ag102
ag102
ag102
ag102
ag102
ag102
ag102
ag102
ag102
ag102
ag102
aS'bkg'
p103
ag18
aS'GG2HMf05ph0'
p104
aS'GG2HbsmM'
p105
aS'GG2Hsm'
p106
aS'TTHsm'
p107
aS'VBFMf05ph0'
p108
aS'VBFbsmM'
p109
aS'VBFsm'
p110
aS'WHMf05ph0'
p111
aS'WHbsmM'
p112
aS'WHsm'
p113
aS'ZHMf05ph0'
p114
aS'ZHbsmM'
p115
aS'ZHsm'
p116
aS'bkg_mass'
p117
aS'data_obs'
p118
aS'GG2HMf05ph0_2016preVFP_hgg'
p119
aS'GG2HbsmM_2016preVFP_hgg'
p120
aS'GG2Hsm_2016preVFP_hgg'
p121
aS'tth0P_2016preVFP_hgg'
p122
aS'vbf0Mf05ph0_2016preVFP_hgg'
p123
aS'vbf0M_2016preVFP_hgg'
p124
aS'vbf0P_2016preVFP_hgg'
p125
aS'wh0Mf05ph0_2016preVFP_hgg'
p126
aS'wh0M_2016preVFP_hgg'
p127
aS'wh0P_2016preVFP_hgg'
p128
aS'zh0Mf05ph0_2016preVFP_hgg'
p129
aS'zh0M_2016preVFP_hgg'
p130
aS'zh0P_2016preVFP_hgg'
p131
ag117
ag118
aS'jjh0Mf05ph0'
p132
aS'jjh0M'
p133
aS'jjh0P'
p134
aS'tth0P'
p135
aS'vbf0Mf05ph0'
p136
aS'vbf0M'
p137
aS'vbf0P'
p138
aS'wh0Mf05ph0'
p139
aS'wh0M'
p140
aS'wh0P'
p141
aS'zh0Mf05ph0'
p142
aS'zh0M'
p143
aS'zh0P'
p144
aS'-'
p145
ag145
aS'AC_Bin20_2016preVFP'
p146
aS'AC_Bin20_2016preVFP'
p147
aS'AC_Bin20_2016preVFP'
p148
aS'AC_Bin20_2016preVFP'
p149
aS'AC_Bin20_2016preVFP'
p150
aS'AC_Bin20_2016preVFP'
p151
aS'AC_Bin20_2016preVFP'
p152
aS'AC_Bin20_2016preVFP'
p153
aS'AC_Bin20_2016preVFP'
p154
aS'AC_Bin20_2016preVFP'
p155
aS'AC_Bin20_2016preVFP'
p156
aS'AC_Bin20_2016preVFP'
p157
aS'AC_Bin20_2016preVFP'
p158
aS'AC_Bin20_2016preVFP'
p159
ag159
aS'Trees/Opt_2016preVFP/2016PreVFP/Trees2WS_2016preVFP/WS/output_GluGluHToGGPlusTwoJets_MM_M125_TuneCP5_13TeV-amcatnlopowheg-minlo-pythia8_GG2HMf05ph0.root'
p160
aS'Trees/Opt_2016preVFP/2016PreVFP/Trees2WS_2016preVFP/WS/output_GluGluHToGGPlusTwoJets_CPodd_M125_TuneCP5_13TeV-amcatnlopowheg-minlo-pythia8_GG2HbsmM.root'
p161
aS'Trees/Opt_2016preVFP/2016PreVFP/Trees2WS_2016preVFP/WS/output_GluGluHToGGPlusTwoJets_SM_M125_TuneCP5_13TeV-amcatnlopowheg-minlo-pythia8_GG2Hsm.root'
p162
aS'Trees/Opt_2016preVFP/2016PreVFP/Trees2WS_2016preVFP/WS/output_ttHJetToGG_M125_TuneCP5_13TeV-amcatnloFXFX-madspin-pythia8_TTHsm.root'
p163
aS'Trees/Opt_2016preVFP/2016PreVFP/Trees2WS_2016preVFP/WS/output_VBFHiggs0Mf05ph0ToGG_M125_TuneCP5_13TeV-JHUGenV7011-pythia8_VBFMf05ph0.root'
p164
aS'Trees/Opt_2016preVFP/2016PreVFP/Trees2WS_2016preVFP/WS/output_VBFHiggs0MToGG_M125_TuneCP5_13TeV-JHUGenV7011-pythia8_VBFbsmM.root'
p165
aS'Trees/Opt_2016preVFP/2016PreVFP/Trees2WS_2016preVFP/WS/output_VBFHToGG_M125_TuneCP5_13TeV-amcatnlo-pythia8_VBFsm.root'
p166
aS'Trees/Opt_2016preVFP/2016PreVFP/Trees2WS_2016preVFP/WS/output_WHiggs0Mf05ph0ToGG_M125_TuneCP5_13TeV-JHUGenV7011-pythia8_WHMf05ph0.root'
p167
aS'Trees/Opt_2016preVFP/2016PreVFP/Trees2WS_2016preVFP/WS/output_WHiggs0MToGG_M125_TuneCP5_13TeV-JHUGenV7011-pythia8_WHbsmM.root'
p168
aS'Trees/Opt_2016preVFP/2016PreVFP/Trees2WS_2016preVFP/WS/output_WHiggs0PMToGG_M125_TuneCP5_13TeV-JHUGenV7011-pythia8_WHsm.root'
p169
aS'Trees/Opt_2016preVFP/2016PreVFP/Trees2WS_2016preVFP/WS/output_ZHiggs0Mf05ph0ToGG_M125_TuneCP5_13TeV-JHUGenV7011-pythia8_ZHMf05ph0.root'
p170
aS'Trees/Opt_2016preVFP/2016PreVFP/Trees2WS_2016preVFP/WS/output_ZHiggs0MToGG_M125_TuneCP5_13TeV-JHUGenV7011-pythia8_ZHbsmM.root'
p171
aS'Trees/Opt_2016preVFP/2016PreVFP/Trees2WS_2016preVFP/WS/output_ZH_HToGG_ZToAll_M125_TuneCP5_13TeV-powheg-pythia8_ZHsm.root'
p172
ag145
ag145
aS'jjh0Mf05ph0_125_13TeV_AC_Bin20'
p173
aS'jjh0M_125_13TeV_AC_Bin20'
p174
aS'jjh0P_125_13TeV_AC_Bin20'
p175
aS'tth0P_125_13TeV_AC_Bin20'
p176
aS'vbf0Mf05ph0_125_13TeV_AC_Bin20'
p177
aS'vbf0M_125_13TeV_AC_Bin20'
p178
aS'vbf0P_125_13TeV_AC_Bin20'
p179
aS'wh0Mf05ph0_125_13TeV_AC_Bin20'
p180
aS'wh0M_125_13TeV_AC_Bin20'
p181
aS'wh0P_125_13TeV_AC_Bin20'
p182
aS'zh0Mf05ph0_125_13TeV_AC_Bin20'
p183
aS'zh0M_125_13TeV_AC_Bin20'
p184
aS'zh0P_125_13TeV_AC_Bin20'
p185
ag145
ag145
aS'./Models/signal/CMS-HGG_sigfit_packaged_AC_Bin20_2016preVFP.root'
p186
aS'./Models/signal/CMS-HGG_sigfit_packaged_AC_Bin20_2016preVFP.root'
p187
aS'./Models/signal/CMS-HGG_sigfit_packaged_AC_Bin20_2016preVFP.root'
p188
aS'./Models/signal/CMS-HGG_sigfit_packaged_AC_Bin20_2016preVFP.root'
p189
aS'./Models/signal/CMS-HGG_sigfit_packaged_AC_Bin20_2016preVFP.root'
p190
aS'./Models/signal/CMS-HGG_sigfit_packaged_AC_Bin20_2016preVFP.root'
p191
aS'./Models/signal/CMS-HGG_sigfit_packaged_AC_Bin20_2016preVFP.root'
p192
aS'./Models/signal/CMS-HGG_sigfit_packaged_AC_Bin20_2016preVFP.root'
p193
aS'./Models/signal/CMS-HGG_sigfit_packaged_AC_Bin20_2016preVFP.root'
p194
aS'./Models/signal/CMS-HGG_sigfit_packaged_AC_Bin20_2016preVFP.root'
p195
aS'./Models/signal/CMS-HGG_sigfit_packaged_AC_Bin20_2016preVFP.root'
p196
aS'./Models/signal/CMS-HGG_sigfit_packaged_AC_Bin20_2016preVFP.root'
p197
aS'./Models/signal/CMS-HGG_sigfit_packaged_AC_Bin20_2016preVFP.root'
p198
aS'./Models/background/CMS-HGG_multipdf_AC_Bin20_2016preVFP.root'
p199
ag199
aS'wsig_13TeV:hggpdfsmrel_GG2HMf05ph0_2016preVFP_AC_Bin20_13TeV'
p200
aS'wsig_13TeV:hggpdfsmrel_GG2HbsmM_2016preVFP_AC_Bin20_13TeV'
p201
aS'wsig_13TeV:hggpdfsmrel_GG2Hsm_2016preVFP_AC_Bin20_13TeV'
p202
aS'wsig_13TeV:hggpdfsmrel_TTHsm_2016preVFP_AC_Bin20_13TeV'
p203
aS'wsig_13TeV:hggpdfsmrel_VBFMf05ph0_2016preVFP_AC_Bin20_13TeV'
p204
aS'wsig_13TeV:hggpdfsmrel_VBFbsmM_2016preVFP_AC_Bin20_13TeV'
p205
aS'wsig_13TeV:hggpdfsmrel_VBFsm_2016preVFP_AC_Bin20_13TeV'
p206
aS'wsig_13TeV:hggpdfsmrel_WHMf05ph0_2016preVFP_AC_Bin20_13TeV'
p207
aS'wsig_13TeV:hggpdfsmrel_WHbsmM_2016preVFP_AC_Bin20_13TeV'
p208
aS'wsig_13TeV:hggpdfsmrel_WHsm_2016preVFP_AC_Bin20_13TeV'
p209
aS'wsig_13TeV:hggpdfsmrel_ZHMf05ph0_2016preVFP_AC_Bin20_13TeV'
p210
aS'wsig_13TeV:hggpdfsmrel_ZHbsmM_2016preVFP_AC_Bin20_13TeV'
p211
aS'wsig_13TeV:hggpdfsmrel_ZHsm_2016preVFP_AC_Bin20_13TeV'
p212
aS'multipdf:CMS_hgg_AC_Bin20_2016preVFP_13TeV_bkgshape'
p213
aS'multipdf:roohist_data_mass_AC_Bin20'
p214
aF0.04780646443487058
aF0.06123246820811801
aF0.04415677363863324
aF0.0007221022722205817
aF0.029233880269771362
aF0.019837271416236035
aF0.06633699927385805
aF0.000627885437097575
aF0.0006762365766235234
aF0.000553885042904767
aF9.627427061786875e-05
aF0.0003446916816756129
aF0.0010372563456257922
ag145
ag145
aF4.5285567171287e-06
aF1.4764137943963995e-05
aF0.00018047698296269456
aF7.783974742348312e-08
aF2.726688123787188e-06
aF1.4620310407089717e-06
aF6.260331861711388e-05
aF9.190520490338767e-09
aF2.4089450961162444e-08
aF5.828615473061865e-09
aF9.268735183002626e-09
aF4.761928842302462e-08
aF7.191932203821659e-08
ag145
ag145
aF0.04904943817265048
aF0.0629713547888878
aF0.04529849918505728
aF0.0007301195904532716
aF0.030025705873958024
aF0.020343809598202728
aF0.06782244002479748
aF0.000646964939358012
aF0.0006899087881750717
aF0.000566058680671534
aF9.760010121259065e-05
aF0.000352543916614816
aF0.0010665004603931008
ag145
ag145
aF0.048116024035876656
aF0.06162765758594092
aF0.04444679268846345
aF0.0007267721499287914
aF0.02942190086697699
aF0.019966320295611788
aF0.06676424879011415
aF0.0006319408020685885
aF0.0006806736216013969
aF0.000557361588910806
aF9.688197569676688e-05
aF0.0003470421721140812
aF0.0010437500928159355
ag145
ag145
aF0.04749790554663184
aF0.06083855106919576
aF0.04386770532845775
aF0.0007174474871202763
aF0.029046462801326407
aF0.01970864116191259
aF0.06591112218096519
aF0.0006238431495716046
aF0.0006718140643930409
aF0.0005504194058681311
aF9.566846783510228e-05
aF0.0003423491762740133
aF0.0010307830605219166
ag145
ag145
aF0.04861472458440987
aF0.06227796036953407
aF0.04486523799177192
aF0.0007327910357738064
aF0.029745082294442064
aF0.020159413529602672
aF0.0673533952808433
aF0.0006395583353671156
aF0.000685287535226207
aF0.0005643781400315511
aF9.719113081396514e-05
aF0.00034871459343763445
aF0.001060840660876552
ag145
ag145
aF0.04700506205544311
aF0.06019551339635183
aF0.04345406021954792
aF0.0007114898606481923
aF0.028726986058445713
aF0.01951757033238453
aF0.06532845150268056
aF0.0006163049499762957
aF0.0006672478074095268
aF0.0005434832728412753
aF9.536152333726187e-05
aF0.00034069208029175845
aF0.0010141124208242302
ag145
ag145
aF0.0478935381920841
aF0.06134946637187448
aF0.044227809850110975
aF0.0007235173607249483
aF0.029290757756489594
aF0.019873075886962396
aF0.06646680740390898
aF0.000629055235503455
aF0.0006773276700237296
aF0.0005551456690125561
aF9.647708912653405e-05
aF0.0003450372967210914
aF0.0010395499186086662
ag145
ag145
aF0.047719473815737545
aF0.061115579430647535
aF0.04408579837728718
aF0.0007206885950211277
aF0.02917705563889066
aF0.01980149833726922
aF0.06620731335272674
aF0.0006267167304808022
aF0.0006751463438639407
aF0.0005526259912945835
aF9.607160336210687e-05
aF0.00034434621372291885
aF0.0010349661366073296
ag145
ag145
aF0.04790966535734813
aF0.061370871542042786
aF0.044251850389966894
aF0.000723399577169084
aF0.029297616707321363
aF0.019879286627735953
aF0.06648120792713784
aF0.0006293959274977266
aF0.0006776090983718331
aF0.0005550631189643815
aF9.646778125555355e-05
aF0.0003453845089405306
aF0.0010394720433101327
ag145
ag145
aF0.0477033782807951
aF0.06109422094527802
aF0.04406180096340828
aF0.0007208061313674032
aF0.02917021387550278
aF0.01979530107151284
aF0.06619294893396316
aF0.0006263767320826533
aF0.0006748654687855483
aF0.0005527082355271716
aF9.608094613760355e-05
aF0.0003439995780919352
aF0.0010350430391414345
ag145
ag145
aF0.04719668281518352
aF0.06105082634667269
aF0.04396981466834404
aF0.0007451240920772761
aF0.02962528775537976
aF0.020475977909200083
aF0.06258754606517414
aF0.0006390379134018076
aF0.0006795099860710252
aF0.0005481762149202041
aF9.627427061786875e-05
aF0.0003446916816756129
aF0.0010458384558660327
ag145
ag145
aF0.04782539025131882
aF0.06174377694651412
aF0.044422841118148426
aF0.0007252970984836793
aF0.029090801949109846
aF0.01947492986062116
aF0.0652867559316519
aF0.0006094020222917607
aF0.0006762302944025578
aF0.0005588783346865966
aF9.627427061786875e-05
aF0.0006128896202426404
aF0.0010470048791830777
ag145
ag145
aF0.04880451601661662
aF0.06290674769797988
aF0.044754750807214805
aF0.0007713822964205974
aF0.029738064720845614
aF0.01987484690960173
aF0.062299248984800215
aF0.0006286121159746472
aF0.0006946638208091827
aF0.0005777838174481076
aF0.0001216744385601487
aF0.0003446916816756129
aF0.001082141423921712
ag145
ag145
aF0.04645905095640046
aF0.059161616160508856
aF0.042202222520927535
aF0.0008477326625779824
aF0.02875572183438635
aF0.01922091292033201
aF0.05990983706146835
aF0.0006166036164358957
aF0.0006885689272166928
aF0.0005293525151728318
aF9.627427061786875e-05
aF0.0006128896202426404
aF0.001039041601416102
ag145
ag145
aF0.048558889967353025
aF0.06233890072212489
aF0.04503078186144194
aF0.0007279057138021017
aF0.029418027721362705
aF0.019854491517435235
aF0.06406398242359046
aF0.0007183012735367811
aF0.0006776528200589382
aF0.000560769529784011
aF9.627427061786875e-05
aF0.0003446916816756129
aF0.0010439031630085083
ag145
ag145
aF0.046968270287152336
aF0.05956887927391108
aF0.04360649348654988
aF0.0007221022722205817
aF0.02916330759092034
aF0.01982680969467765
aF0.06607607301305052
aF0.0005827281856909394
aF0.000674818681659417
aF0.0005501677907204794
aF9.627427061786875e-05
aF0.0003446916816756129
aF0.0010288016610502382
ag145
ag145
aF0.0524140392890331
aF0.06485270351072359
aF0.04613878095756263
aF0.0007217884837018573
aF0.03093912625649864
aF0.0200550990219881
aF0.06626482475303419
aF0.000620630839534897
aF0.000750132623807076
aF0.0005992419183940001
aF0.0
aF0.0003446916816756129
aF0.0010679313261334755
ag145
ag145
aF0.04461863784990783
aF0.05636419048710195
aF0.028942987094524142
aF0.0006846166091918349
aF0.028173631869776727
aF0.019526194539594144
aF0.061210118987901296
aF0.0005916389166031877
aF0.0005841015538408101
aF0.00056034372596514
aF9.627427061786875e-05
aF0.00030262496147770435
aF0.000913226258717259
ag145
ag145
aF0.047897370001919626
aF0.06144350224212758
aF0.04448025155511459
aF0.0007304513305825822
aF0.029599240300399288
aF0.01992803236146301
aF0.06657779239310457
aF0.0006847177355666645
aF0.0006816655604779953
aF0.0005649580381259511
aF9.627427061786875e-05
aF0.00019335538672748953
aF0.0010419210871077667
ag145
ag145
aF0.047963312595584284
aF0.061377088562494464
aF0.03062059133844741
aF0.0007386330412373354
aF0.029184884811115808
aF0.019952976255922295
aF0.061472067335330394
aF0.000583768452656841
aF0.0006777300939120323
aF0.0005390926568225041
aF9.627427061786875e-05
aF0.0003446916816756129
aF0.0010352113049520995
ag145
ag145
atp215
ba(lp216
g15
(g16
(dp217
g18
g19
(g20
(I0
tp218
g22
tp219
Rp220
(I1
(I1
tp221
g29
I00
(lp222
g43
atp223
bsg66
Nstp224
Rp225
ag15
(g16
(dp226
g18
g19
(g20
(I0
tp227
g22
tp228
Rp229
(I1
(I31
tp230
g29
I00
(lp231
g33
ag34
ag35
ag36
ag37
ag38
ag39
ag40
ag41
ag42
ag44
ag45
ag46
ag47
ag48
ag49
ag50
ag51
ag52
ag53
ag54
ag55
ag56
ag57
ag58
ag59
ag60
ag61
ag62
ag63
ag64
atp232
bsg66
Nstp233
Rp234
a(dp235
S'0.14.1'
p236
(dp237
S'axes'
p238
g14
sS'blocks'
p239
(lp240
(dp241
S'mgr_locs'
p242
c__builtin__
slice
p243
(I10
I11
I1
tp244
Rp245
sS'values'
p246
g87
sa(dp247
g242
g19
(g20
(I0
tp248
g22
tp249
Rp250
(I1
(I31
tp251
g77
I00
S'\x00\x00\x00\x00\x00\x00\x00\x00\x01\x00\x00\x00\x00\x00\x00\x00\x02\x00\x00\x00\x00\x00\x00\x00\x03\x00\x00\x00\x00\x00\x00\x00\x04\x00\x00\x00\x00\x00\x00\x00\x05\x00\x00\x00\x00\x00\x00\x00\x06\x00\x00\x00\x00\x00\x00\x00\x07\x00\x00\x00\x00\x00\x00\x00\x08\x00\x00\x00\x00\x00\x00\x00\t\x00\x00\x00\x00\x00\x00\x00\x0b\x00\x00\x00\x00\x00\x00\x00\x0c\x00\x00\x00\x00\x00\x00\x00\r\x00\x00\x00\x00\x00\x00\x00\x0e\x00\x00\x00\x00\x00\x00\x00\x0f\x00\x00\x00\x00\x00\x00\x00\x10\x00\x00\x00\x00\x00\x00\x00\x11\x00\x00\x00\x00\x00\x00\x00\x12\x00\x00\x00\x00\x00\x00\x00\x13\x00\x00\x00\x00\x00\x00\x00\x14\x00\x00\x00\x00\x00\x00\x00\x15\x00\x00\x00\x00\x00\x00\x00\x16\x00\x00\x00\x00\x00\x00\x00\x17\x00\x00\x00\x00\x00\x00\x00\x18\x00\x00\x00\x00\x00\x00\x00\x19\x00\x00\x00\x00\x00\x00\x00\x1a\x00\x00\x00\x00\x00\x00\x00\x1b\x00\x00\x00\x00\x00\x00\x00\x1c\x00\x00\x00\x00\x00\x00\x00\x1d\x00\x00\x00\x00\x00\x00\x00\x1e\x00\x00\x00\x00\x00\x00\x00\x1f\x00\x00\x00\x00\x00\x00\x00'
p252
tp253
bsg246
g98
sasstp254
bsb.