ccopy_reg
_reconstructor
p0
(cpandas.core.frame
DataFrame
p1
c__builtin__
object
p2
Ntp3
Rp4
(dp5
S'_metadata'
p6
(lp7
sS'_typ'
p8
S'dataframe'
p9
sS'_data'
p10
g0
(cpandas.core.internals
BlockManager
p11
g2
Ntp12
Rp13
((lp14
cpandas.core.indexes.base
_new_Index
p15
(cpandas.core.indexes.base
Index
p16
(dp17
S'data'
p18
cnumpy.core.multiarray
_reconstruct
p19
(cnumpy
ndarray
p20
(I0
tp21
S'b'
p22
tp23
Rp24
(I1
(I34
tp25
cnumpy
dtype
p26
(S'O8'
p27
I0
I1
tp28
Rp29
(I3
S'|'
p30
NNNI-1
I-1
I63
tp31
bI00
(lp32
S'year'
p33
aS'type'
p34
aS'procOriginal'
p35
aS'proc'
p36
aS'proc_s0'
p37
aS'cat'
p38
aS'inputWSFile'
p39
aS'nominalDataName'
p40
aS'modelWSFile'
p41
aS'model'
p42
aS'rate'
p43
aS'nominal_yield'
p44
aS'sumw2'
p45
aS'nominal_yield_COWCorr'
p46
aS'LooseMvaSF_up_yield'
p47
aS'LooseMvaSF_down_yield'
p48
aS'PreselSF_up_yield'
p49
aS'PreselSF_down_yield'
p50
aS'electronVetoSF_up_yield'
p51
aS'electronVetoSF_down_yield'
p52
aS'TriggerWeight_up_yield'
p53
aS'TriggerWeight_down_yield'
p54
aS'SigmaEOverEShift_up_yield'
p55
aS'SigmaEOverEShift_down_yield'
p56
aS'MvaShift_up_yield'
p57
aS'MvaShift_down_yield'
p58
aS'PUJIDShift_up_yield'
p59
aS'PUJIDShift_down_yield'
p60
aS'JEC_up_yield'
p61
aS'JEC_down_yield'
p62
aS'JER_up_yield'
p63
aS'JER_down_yield'
p64
aS'JetHEM_up_yield'
p65
aS'JetHEM_down_yield'
p66
atp67
bsS'name'
p68
Nstp69
Rp70
ag15
(cpandas.core.indexes.numeric
Int64Index
p71
(dp72
g18
g19
(g20
(I0
tp73
g22
tp74
Rp75
(I1
(I15
tp76
g26
(S'i8'
p77
I0
I1
tp78
Rp79
(I3
S'<'
p80
NNNI-1
I-1
I0
tp81
bI00
S'\x00\x00\x00\x00\x00\x00\x00\x00\x01\x00\x00\x00\x00\x00\x00\x00\x02\x00\x00\x00\x00\x00\x00\x00\x03\x00\x00\x00\x00\x00\x00\x00\x04\x00\x00\x00\x00\x00\x00\x00\x05\x00\x00\x00\x00\x00\x00\x00\x06\x00\x00\x00\x00\x00\x00\x00\x07\x00\x00\x00\x00\x00\x00\x00\x08\x00\x00\x00\x00\x00\x00\x00\t\x00\x00\x00\x00\x00\x00\x00\n\x00\x00\x00\x00\x00\x00\x00\x0b\x00\x00\x00\x00\x00\x00\x00\x0c\x00\x00\x00\x00\x00\x00\x00\r\x00\x00\x00\x00\x00\x00\x00\x0e\x00\x00\x00\x00\x00\x00\x00'
p82
tp83
bsg68
Nstp84
Rp85
a(lp86
g19
(g20
(I0
tp87
g22
tp88
Rp89
(I1
(I1
I15
tp90
g26
(S'f8'
p91
I0
I1
tp92
Rp93
(I3
S'<'
p94
NNNI-1
I-1
I0
tp95
bI00
S'\x00\x00\x00\x00\x00\x10\xd3@\x00\x00\x00\x00\x00\x10\xd3@\x00\x00\x00\x00\x00\x10\xd3@\x00\x00\x00\x00\x00\x10\xd3@\x00\x00\x00\x00\x00\x10\xd3@\x00\x00\x00\x00\x00\x10\xd3@\x00\x00\x00\x00\x00\x10\xd3@\x00\x00\x00\x00\x00\x10\xd3@\x00\x00\x00\x00\x00\x10\xd3@\x00\x00\x00\x00\x00\x10\xd3@\x00\x00\x00\x00\x00\x10\xd3@\x00\x00\x00\x00\x00\x10\xd3@\x00\x00\x00\x00\x00\x10\xd3@\x00\x00\x00\x00\x00\x00\xf0?\x00\x00\x00\x00\x00\x00\xf0\xbf'
p96
tp97
bag19
(g20
(I0
tp98
g22
tp99
Rp100
(I1
(I33
I15
tp101
g29
I00
(lp102
S'2016preVFP'
p103
ag103
ag103
ag103
ag103
ag103
ag103
ag103
ag103
ag103
ag103
ag103
ag103
ag33
ag33
aS'sig'
p104
ag104
ag104
ag104
ag104
ag104
ag104
ag104
ag104
ag104
ag104
ag104
ag104
aS'bkg'
p105
ag18
aS'GG2HMf05ph0'
p106
aS'GG2HbsmM'
p107
aS'GG2Hsm'
p108
aS'TTHsm'
p109
aS'VBFMf05ph0'
p110
aS'VBFbsmM'
p111
aS'VBFsm'
p112
aS'WHMf05ph0'
p113
aS'WHbsmM'
p114
aS'WHsm'
p115
aS'ZHMf05ph0'
p116
aS'ZHbsmM'
p117
aS'ZHsm'
p118
aS'bkg_mass'
p119
aS'data_obs'
p120
aS'GG2HMf05ph0_2016preVFP_hgg'
p121
aS'GG2HbsmM_2016preVFP_hgg'
p122
aS'GG2Hsm_2016preVFP_hgg'
p123
aS'tth0P_2016preVFP_hgg'
p124
aS'vbf0Mf05ph0_2016preVFP_hgg'
p125
aS'vbf0M_2016preVFP_hgg'
p126
aS'vbf0P_2016preVFP_hgg'
p127
aS'wh0Mf05ph0_2016preVFP_hgg'
p128
aS'wh0M_2016preVFP_hgg'
p129
aS'wh0P_2016preVFP_hgg'
p130
aS'zh0Mf05ph0_2016preVFP_hgg'
p131
aS'zh0M_2016preVFP_hgg'
p132
aS'zh0P_2016preVFP_hgg'
p133
ag119
ag120
aS'jjh0Mf05ph0'
p134
aS'jjh0M'
p135
aS'jjh0P'
p136
aS'tth0P'
p137
aS'vbf0Mf05ph0'
p138
aS'vbf0M'
p139
aS'vbf0P'
p140
aS'wh0Mf05ph0'
p141
aS'wh0M'
p142
aS'wh0P'
p143
aS'zh0Mf05ph0'
p144
aS'zh0M'
p145
aS'zh0P'
p146
aS'-'
p147
ag147
aS'AC_Bin19_2016preVFP'
p148
aS'AC_Bin19_2016preVFP'
p149
aS'AC_Bin19_2016preVFP'
p150
aS'AC_Bin19_2016preVFP'
p151
aS'AC_Bin19_2016preVFP'
p152
aS'AC_Bin19_2016preVFP'
p153
aS'AC_Bin19_2016preVFP'
p154
aS'AC_Bin19_2016preVFP'
p155
aS'AC_Bin19_2016preVFP'
p156
aS'AC_Bin19_2016preVFP'
p157
aS'AC_Bin19_2016preVFP'
p158
aS'AC_Bin19_2016preVFP'
p159
aS'AC_Bin19_2016preVFP'
p160
aS'AC_Bin19_2016preVFP'
p161
ag161
aS'Trees/Opt_2016preVFP/2016PreVFP/Trees2WS_2016preVFP/WS/output_GluGluHToGGPlusTwoJets_MM_M125_TuneCP5_13TeV-amcatnlopowheg-minlo-pythia8_GG2HMf05ph0.root'
p162
aS'Trees/Opt_2016preVFP/2016PreVFP/Trees2WS_2016preVFP/WS/output_GluGluHToGGPlusTwoJets_CPodd_M125_TuneCP5_13TeV-amcatnlopowheg-minlo-pythia8_GG2HbsmM.root'
p163
aS'Trees/Opt_2016preVFP/2016PreVFP/Trees2WS_2016preVFP/WS/output_GluGluHToGGPlusTwoJets_SM_M125_TuneCP5_13TeV-amcatnlopowheg-minlo-pythia8_GG2Hsm.root'
p164
aS'Trees/Opt_2016preVFP/2016PreVFP/Trees2WS_2016preVFP/WS/output_ttHJetToGG_M125_TuneCP5_13TeV-amcatnloFXFX-madspin-pythia8_TTHsm.root'
p165
aS'Trees/Opt_2016preVFP/2016PreVFP/Trees2WS_2016preVFP/WS/output_VBFHiggs0Mf05ph0ToGG_M125_TuneCP5_13TeV-JHUGenV7011-pythia8_VBFMf05ph0.root'
p166
aS'Trees/Opt_2016preVFP/2016PreVFP/Trees2WS_2016preVFP/WS/output_VBFHiggs0MToGG_M125_TuneCP5_13TeV-JHUGenV7011-pythia8_VBFbsmM.root'
p167
aS'Trees/Opt_2016preVFP/2016PreVFP/Trees2WS_2016preVFP/WS/output_VBFHToGG_M125_TuneCP5_13TeV-amcatnlo-pythia8_VBFsm.root'
p168
aS'Trees/Opt_2016preVFP/2016PreVFP/Trees2WS_2016preVFP/WS/output_WHiggs0Mf05ph0ToGG_M125_TuneCP5_13TeV-JHUGenV7011-pythia8_WHMf05ph0.root'
p169
aS'Trees/Opt_2016preVFP/2016PreVFP/Trees2WS_2016preVFP/WS/output_WHiggs0MToGG_M125_TuneCP5_13TeV-JHUGenV7011-pythia8_WHbsmM.root'
p170
aS'Trees/Opt_2016preVFP/2016PreVFP/Trees2WS_2016preVFP/WS/output_WHiggs0PMToGG_M125_TuneCP5_13TeV-JHUGenV7011-pythia8_WHsm.root'
p171
aS'Trees/Opt_2016preVFP/2016PreVFP/Trees2WS_2016preVFP/WS/output_ZHiggs0Mf05ph0ToGG_M125_TuneCP5_13TeV-JHUGenV7011-pythia8_ZHMf05ph0.root'
p172
aS'Trees/Opt_2016preVFP/2016PreVFP/Trees2WS_2016preVFP/WS/output_ZHiggs0MToGG_M125_TuneCP5_13TeV-JHUGenV7011-pythia8_ZHbsmM.root'
p173
aS'Trees/Opt_2016preVFP/2016PreVFP/Trees2WS_2016preVFP/WS/output_ZH_HToGG_ZToAll_M125_TuneCP5_13TeV-powheg-pythia8_ZHsm.root'
p174
ag147
ag147
aS'jjh0Mf05ph0_125_13TeV_AC_Bin19'
p175
aS'jjh0M_125_13TeV_AC_Bin19'
p176
aS'jjh0P_125_13TeV_AC_Bin19'
p177
aS'tth0P_125_13TeV_AC_Bin19'
p178
aS'vbf0Mf05ph0_125_13TeV_AC_Bin19'
p179
aS'vbf0M_125_13TeV_AC_Bin19'
p180
aS'vbf0P_125_13TeV_AC_Bin19'
p181
aS'wh0Mf05ph0_125_13TeV_AC_Bin19'
p182
aS'wh0M_125_13TeV_AC_Bin19'
p183
aS'wh0P_125_13TeV_AC_Bin19'
p184
aS'zh0Mf05ph0_125_13TeV_AC_Bin19'
p185
aS'zh0M_125_13TeV_AC_Bin19'
p186
aS'zh0P_125_13TeV_AC_Bin19'
p187
ag147
ag147
aS'./Models/signal/CMS-HGG_sigfit_packaged_AC_Bin19_2016preVFP.root'
p188
aS'./Models/signal/CMS-HGG_sigfit_packaged_AC_Bin19_2016preVFP.root'
p189
aS'./Models/signal/CMS-HGG_sigfit_packaged_AC_Bin19_2016preVFP.root'
p190
aS'./Models/signal/CMS-HGG_sigfit_packaged_AC_Bin19_2016preVFP.root'
p191
aS'./Models/signal/CMS-HGG_sigfit_packaged_AC_Bin19_2016preVFP.root'
p192
aS'./Models/signal/CMS-HGG_sigfit_packaged_AC_Bin19_2016preVFP.root'
p193
aS'./Models/signal/CMS-HGG_sigfit_packaged_AC_Bin19_2016preVFP.root'
p194
aS'./Models/signal/CMS-HGG_sigfit_packaged_AC_Bin19_2016preVFP.root'
p195
aS'./Models/signal/CMS-HGG_sigfit_packaged_AC_Bin19_2016preVFP.root'
p196
aS'./Models/signal/CMS-HGG_sigfit_packaged_AC_Bin19_2016preVFP.root'
p197
aS'./Models/signal/CMS-HGG_sigfit_packaged_AC_Bin19_2016preVFP.root'
p198
aS'./Models/signal/CMS-HGG_sigfit_packaged_AC_Bin19_2016preVFP.root'
p199
aS'./Models/signal/CMS-HGG_sigfit_packaged_AC_Bin19_2016preVFP.root'
p200
aS'./Models/background/CMS-HGG_multipdf_AC_Bin19_2016preVFP.root'
p201
ag201
aS'wsig_13TeV:hggpdfsmrel_GG2HMf05ph0_2016preVFP_AC_Bin19_13TeV'
p202
aS'wsig_13TeV:hggpdfsmrel_GG2HbsmM_2016preVFP_AC_Bin19_13TeV'
p203
aS'wsig_13TeV:hggpdfsmrel_GG2Hsm_2016preVFP_AC_Bin19_13TeV'
p204
aS'wsig_13TeV:hggpdfsmrel_TTHsm_2016preVFP_AC_Bin19_13TeV'
p205
aS'wsig_13TeV:hggpdfsmrel_VBFMf05ph0_2016preVFP_AC_Bin19_13TeV'
p206
aS'wsig_13TeV:hggpdfsmrel_VBFbsmM_2016preVFP_AC_Bin19_13TeV'
p207
aS'wsig_13TeV:hggpdfsmrel_VBFsm_2016preVFP_AC_Bin19_13TeV'
p208
aS'wsig_13TeV:hggpdfsmrel_WHMf05ph0_2016preVFP_AC_Bin19_13TeV'
p209
aS'wsig_13TeV:hggpdfsmrel_WHbsmM_2016preVFP_AC_Bin19_13TeV'
p210
aS'wsig_13TeV:hggpdfsmrel_WHsm_2016preVFP_AC_Bin19_13TeV'
p211
aS'wsig_13TeV:hggpdfsmrel_ZHMf05ph0_2016preVFP_AC_Bin19_13TeV'
p212
aS'wsig_13TeV:hggpdfsmrel_ZHbsmM_2016preVFP_AC_Bin19_13TeV'
p213
aS'wsig_13TeV:hggpdfsmrel_ZHsm_2016preVFP_AC_Bin19_13TeV'
p214
aS'multipdf:CMS_hgg_AC_Bin19_2016preVFP_13TeV_bkgshape'
p215
aS'multipdf:roohist_data_mass_AC_Bin19'
p216
aF0.012523816451903258
aF0.008059970383555992
aF0.014760916671093582
aF0.0002257328674204473
aF0.001850533006859223
aF0.0001382813667305527
aF0.007198936906661402
aF0.0001964592623835415
aF6.377989382144733e-05
aF9.193515359129378e-05
aI0
aI0
aF0.00013020746200709254
ag147
ag147
aF1.7877219948316074e-06
aF4.750459459369592e-07
aF1.3205239201056285e-06
aF1.0693532554572829e-08
aF2.906207788966508e-08
aF1.7435849406177668e-09
aF1.6874197312912527e-06
aF6.244300512934519e-09
aF3.5187618839618015e-10
aF4.6184844217492076e-10
aI0
aI0
aF1.7946988495816533e-09
ag147
ag147
aF0.013036983532412378
aF0.008287656007925234
aF0.015315777269773328
aF0.0002340496519303331
aF0.001901728895433533
aF0.00014360445729747205
aF0.007369205639189596
aF0.00020204460314430882
aF6.810189661791737e-05
aF9.453242879782628e-05
aI0
aI0
aF0.00013278253466339525
ag147
ag147
aF0.012602051105865293
aF0.008111285846356318
aF0.014854539885790875
aF0.0002271470133877905
aF0.0018621754619091713
aF0.00013914726026899128
aF0.007244067406760005
aF0.00019769410904891264
aF6.419455782726203e-05
aF9.251015525893049e-05
aI0
aI0
aF0.00013106284923937502
ag147
ag147
aF0.012445826280941562
aF0.008008817915036383
aF0.014667589916107992
aF0.0002243231166009003
aF0.0018389271070305105
aF0.0001374181836094023
aF0.007153947615413891
aF0.0001952282705086658
aF6.336657288838783e-05
aF9.136195047486115e-05
aI0
aI0
aF0.00012935487427709263
ag147
ag147
aF0.012834913919163268
aF0.008215111614491344
aF0.015055880259797667
aF0.000232092016037191
aF0.0018853792263067905
aF0.00014088354271053833
aF0.007352182158030514
aF0.00020079180918946264
aF6.510418840827744e-05
aF9.394173806807164e-05
aI0
aI0
aF0.00013195273491599466
ag147
ag147
aF0.01221718235808249
aF0.007906283258046218
aF0.014469139600397501
aF0.00021944141381945005
aF0.0018159925070345897
aF0.00013570821145926994
aF0.007047181530601779
aF0.00019216537691544254
aF6.246644009447742e-05
aF8.99526017373869e-05
aI0
aI0
aF0.00012847360440485363
ag147
ag147
aF0.012552088024741555
aF0.008077608611152316
aF0.0147932450921734
aF0.0002261826454552844
aF0.0018549770787207498
aF0.0001385998027527636
aF0.007216007289482503
aF0.00019692645770532226
aF6.388026726935265e-05
aF9.217307428361154e-05
aI0
aI0
aF0.00013048279388451739
ag147
ag147
aF0.01249557721133553
aF0.008042353932511119
aF0.014728624115330024
aF0.0002252834606915918
aF0.001846093957595663
aF0.00013796334580133224
aF0.0071818889128248495
aF0.00019599266461975387
aF6.367959065693392e-05
aF9.169750946777815e-05
aI0
aI0
aF0.0001299323325950778
ag147
ag147
aF0.012552662867378583
aF0.008080306797041643
aF0.0147945763102212
aF0.00022621391988797087
aF0.0018545175928264257
aF0.0001386019104879948
aF0.007213916932729765
aF0.00019694148595434565
aF6.39438854725819e-05
aF9.21555838515851e-05
aI0
aI0
aF0.00013051281646263654
ag147
ag147
aF0.0124950030832303
aF0.008039658885863225
aF0.014727295669267126
aF0.00022525232772185365
aF0.0018465527543662893
aF0.0001379611867395701
aF0.0071839728712765364
aF0.00019597762241382476
aF6.36161039344258e-05
aF9.171498399859502e-05
aI0
aI0
aF0.0001299024629983714
ag147
ag147
aF0.013239857821645273
aF0.008224169564755357
aF0.015112250178617614
aF0.0002378413953465497
aF0.002006171372272547
aF0.0001382813667305527
aF0.017179647803118314
aF0.00019518297426657227
aF6.377989382144733e-05
aF8.817398554583633e-05
aF0.0
aF0.0
aF0.00013740279723606363
ag147
ag147
aF0.01196111537797151
aF0.007876997922494411
aF0.014272942628394958
aF0.00024837564581048355
aF0.0018114607397592408
aF0.00012846007450662
aF0.004702007331388813
aF0.00015581098557504447
aF5.866982553470734e-05
aF9.667890890341369e-05
aF0.0
aF0.0
aF0.00013020746200709254
ag147
ag147
aF0.012014423110940697
aF0.008360749704934278
aF0.014459098702218398
aF0.0002521944659292785
aF0.0018268098025373547
aF7.197876027476013e-05
aF0.0036871210439812785
aF0.00019972503082499315
aF8.260917036295723e-05
aF8.616726313448453e-05
aF0.0
aF0.0
aF0.00015367984019576397
ag147
ag147
aF0.01249032782516224
aF0.0077751795136009605
aF0.014927718573289894
aF0.00023707416039542295
aF0.002040698844552935
aF0.00013693471578335448
aF0.0051495462505499745
aF0.00033352966829625075
aF4.657980559841235e-05
aF7.918895357761357e-05
aF0.0
aF0.0
aF0.00013708353048969002
ag147
ag147
aF0.013082014682368026
aF0.009305463129066993
aF0.014875560727432457
aF0.0002257328674204473
aF0.0018861058866832536
aF0.00013602357182662672
aF0.0050125133695928525
aF0.0001964592623835415
aF6.377989382144733e-05
aF0.00016317905590312876
aF0.0
aF0.0
aF0.00013020746200709254
ag147
ag147
aF0.011939797859895407
aF0.007726506007657008
aF0.014044870429415823
aF0.0002257328674204473
aF0.0017669215391151738
aF0.0001382813667305527
aF0.004849939182349772
aF0.0001964592623835415
aF6.377688339398446e-05
aF8.694852647295193e-05
aF0.0
aF0.0
aF0.00013020746200709254
ag147
ag147
aF0.012920833885345928
aF0.00882206872279312
aF0.015826441847821116
aF0.00020084369066353247
aF0.001861414055269961
aF0.00015127542974369135
aF0.006715372736834979
aF0.00019523760852280247
aF8.801264380053908e-05
aF9.997551455853682e-05
aF0.0
aF0.0
aF0.00014620470778936578
ag147
ag147
aF0.011701765579346102
aF0.007832121219962573
aF0.013692999730892552
aF0.00022229725630040775
aF0.001766003297120733
aF0.00014890845488935156
aF0.004951248370844041
aF0.00019992839861515677
aF5.3928310990158934e-05
aF7.692728297570284e-05
aF0.0
aF0.0
aF0.000132061199792588
ag147
ag147
aF0.011592701821427909
aF0.008155335448236656
aF0.014667774328927408
aF0.00023078314779922948
aF0.001879249666103533
aF0.0001382813667305527
aF0.0047614572142720135
aF0.0001964592623835415
aF6.74040190915548e-05
aF8.987223111489584e-05
aF0.0
aF0.0
aF0.00013292372773321404
ag147
ag147
aF0.012545873073804614
aF0.00824584613155821
aF0.01471865548705864
aF0.0002205062410212122
aF0.0018679063742865765
aF0.00014640977371982444
aF0.005005331196798579
aF0.0001964592623835415
aF6.508409785510594e-05
aF9.193515359129378e-05
aF0.0
aF0.0
aF0.00013176479251342244
ag147
ag147
aF0.012523816451903258
aF0.008059970383555992
aF0.014760916671093582
aF0.0002257328674204473
aF0.001850533006859223
aF0.0001382813667305527
aF0.007198936906661402
aF0.0001964592623835415
aF6.377989382144733e-05
aF9.193515359129378e-05
aF0.0
aF0.0
aF0.00013020746200709254
ag147
ag147
aF0.012523816451903258
aF0.008059970383555992
aF0.014760916671093582
aF0.0002257328674204473
aF0.001850533006859223
aF0.0001382813667305527
aF0.007198936906661402
aF0.0001964592623835415
aF6.377989382144733e-05
aF9.193515359129378e-05
aF0.0
aF0.0
aF0.00013020746200709254
ag147
ag147
atp217
ba(lp218
g15
(g16
(dp219
g18
g19
(g20
(I0
tp220
g22
tp221
Rp222
(I1
(I1
tp223
g29
I00
(lp224
g43
atp225
bsg68
Nstp226
Rp227
ag15
(g16
(dp228
g18
g19
(g20
(I0
tp229
g22
tp230
Rp231
(I1
(I33
tp232
g29
I00
(lp233
g33
ag34
ag35
ag36
ag37
ag38
ag39
ag40
ag41
ag42
ag44
ag45
ag46
ag47
ag48
ag49
ag50
ag51
ag52
ag53
ag54
ag55
ag56
ag57
ag58
ag59
ag60
ag61
ag62
ag63
ag64
ag65
ag66
atp234
bsg68
Nstp235
Rp236
a(dp237
S'0.14.1'
p238
(dp239
S'axes'
p240
g14
sS'blocks'
p241
(lp242
(dp243
S'mgr_locs'
p244
c__builtin__
slice
p245
(I10
I11
I1
tp246
Rp247
sS'values'
p248
g89
sa(dp249
g244
g19
(g20
(I0
tp250
g22
tp251
Rp252
(I1
(I33
tp253
g79
I00
S'\x00\x00\x00\x00\x00\x00\x00\x00\x01\x00\x00\x00\x00\x00\x00\x00\x02\x00\x00\x00\x00\x00\x00\x00\x03\x00\x00\x00\x00\x00\x00\x00\x04\x00\x00\x00\x00\x00\x00\x00\x05\x00\x00\x00\x00\x00\x00\x00\x06\x00\x00\x00\x00\x00\x00\x00\x07\x00\x00\x00\x00\x00\x00\x00\x08\x00\x00\x00\x00\x00\x00\x00\t\x00\x00\x00\x00\x00\x00\x00\x0b\x00\x00\x00\x00\x00\x00\x00\x0c\x00\x00\x00\x00\x00\x00\x00\r\x00\x00\x00\x00\x00\x00\x00\x0e\x00\x00\x00\x00\x00\x00\x00\x0f\x00\x00\x00\x00\x00\x00\x00\x10\x00\x00\x00\x00\x00\x00\x00\x11\x00\x00\x00\x00\x00\x00\x00\x12\x00\x00\x00\x00\x00\x00\x00\x13\x00\x00\x00\x00\x00\x00\x00\x14\x00\x00\x00\x00\x00\x00\x00\x15\x00\x00\x00\x00\x00\x00\x00\x16\x00\x00\x00\x00\x00\x00\x00\x17\x00\x00\x00\x00\x00\x00\x00\x18\x00\x00\x00\x00\x00\x00\x00\x19\x00\x00\x00\x00\x00\x00\x00\x1a\x00\x00\x00\x00\x00\x00\x00\x1b\x00\x00\x00\x00\x00\x00\x00\x1c\x00\x00\x00\x00\x00\x00\x00\x1d\x00\x00\x00\x00\x00\x00\x00\x1e\x00\x00\x00\x00\x00\x00\x00\x1f\x00\x00\x00\x00\x00\x00\x00 \x00\x00\x00\x00\x00\x00\x00!\x00\x00\x00\x00\x00\x00\x00'
p254
tp255
bsg248
g100
sasstp256
bsb.