ccopy_reg
_reconstructor
p0
(cpandas.core.frame
DataFrame
p1
c__builtin__
object
p2
Ntp3
Rp4
(dp5
S'_metadata'
p6
(lp7
sS'_typ'
p8
S'dataframe'
p9
sS'_data'
p10
g0
(cpandas.core.internals
BlockManager
p11
g2
Ntp12
Rp13
((lp14
cpandas.core.indexes.base
_new_Index
p15
(cpandas.core.indexes.base
Index
p16
(dp17
S'data'
p18
cnumpy.core.multiarray
_reconstruct
p19
(cnumpy
ndarray
p20
(I0
tp21
S'b'
p22
tp23
Rp24
(I1
(I34
tp25
cnumpy
dtype
p26
(S'O8'
p27
I0
I1
tp28
Rp29
(I3
S'|'
p30
NNNI-1
I-1
I63
tp31
bI00
(lp32
S'year'
p33
aS'type'
p34
aS'procOriginal'
p35
aS'proc'
p36
aS'proc_s0'
p37
aS'cat'
p38
aS'inputWSFile'
p39
aS'nominalDataName'
p40
aS'modelWSFile'
p41
aS'model'
p42
aS'rate'
p43
aS'nominal_yield'
p44
aS'sumw2'
p45
aS'nominal_yield_COWCorr'
p46
aS'LooseMvaSF_up_yield'
p47
aS'LooseMvaSF_down_yield'
p48
aS'PreselSF_up_yield'
p49
aS'PreselSF_down_yield'
p50
aS'electronVetoSF_up_yield'
p51
aS'electronVetoSF_down_yield'
p52
aS'TriggerWeight_up_yield'
p53
aS'TriggerWeight_down_yield'
p54
aS'SigmaEOverEShift_up_yield'
p55
aS'SigmaEOverEShift_down_yield'
p56
aS'MvaShift_up_yield'
p57
aS'MvaShift_down_yield'
p58
aS'PUJIDShift_up_yield'
p59
aS'PUJIDShift_down_yield'
p60
aS'JEC_up_yield'
p61
aS'JEC_down_yield'
p62
aS'JER_up_yield'
p63
aS'JER_down_yield'
p64
aS'JetHEM_up_yield'
p65
aS'JetHEM_down_yield'
p66
atp67
bsS'name'
p68
Nstp69
Rp70
ag15
(cpandas.core.indexes.numeric
Int64Index
p71
(dp72
g18
g19
(g20
(I0
tp73
g22
tp74
Rp75
(I1
(I15
tp76
g26
(S'i8'
p77
I0
I1
tp78
Rp79
(I3
S'<'
p80
NNNI-1
I-1
I0
tp81
bI00
S'\x00\x00\x00\x00\x00\x00\x00\x00\x01\x00\x00\x00\x00\x00\x00\x00\x02\x00\x00\x00\x00\x00\x00\x00\x03\x00\x00\x00\x00\x00\x00\x00\x04\x00\x00\x00\x00\x00\x00\x00\x05\x00\x00\x00\x00\x00\x00\x00\x06\x00\x00\x00\x00\x00\x00\x00\x07\x00\x00\x00\x00\x00\x00\x00\x08\x00\x00\x00\x00\x00\x00\x00\t\x00\x00\x00\x00\x00\x00\x00\n\x00\x00\x00\x00\x00\x00\x00\x0b\x00\x00\x00\x00\x00\x00\x00\x0c\x00\x00\x00\x00\x00\x00\x00\r\x00\x00\x00\x00\x00\x00\x00\x0e\x00\x00\x00\x00\x00\x00\x00'
p82
tp83
bsg68
Nstp84
Rp85
a(lp86
g19
(g20
(I0
tp87
g22
tp88
Rp89
(I1
(I1
I15
tp90
g26
(S'f8'
p91
I0
I1
tp92
Rp93
(I3
S'<'
p94
NNNI-1
I-1
I0
tp95
bI00
S'\x00\x00\x00\x00\x00\x10\xd3@\x00\x00\x00\x00\x00\x10\xd3@\x00\x00\x00\x00\x00\x10\xd3@\x00\x00\x00\x00\x00\x10\xd3@\x00\x00\x00\x00\x00\x10\xd3@\x00\x00\x00\x00\x00\x10\xd3@\x00\x00\x00\x00\x00\x10\xd3@\x00\x00\x00\x00\x00\x10\xd3@\x00\x00\x00\x00\x00\x10\xd3@\x00\x00\x00\x00\x00\x10\xd3@\x00\x00\x00\x00\x00\x10\xd3@\x00\x00\x00\x00\x00\x10\xd3@\x00\x00\x00\x00\x00\x10\xd3@\x00\x00\x00\x00\x00\x00\xf0?\x00\x00\x00\x00\x00\x00\xf0\xbf'
p96
tp97
bag19
(g20
(I0
tp98
g22
tp99
Rp100
(I1
(I33
I15
tp101
g29
I00
(lp102
S'2016preVFP'
p103
ag103
ag103
ag103
ag103
ag103
ag103
ag103
ag103
ag103
ag103
ag103
ag103
ag33
ag33
aS'sig'
p104
ag104
ag104
ag104
ag104
ag104
ag104
ag104
ag104
ag104
ag104
ag104
ag104
aS'bkg'
p105
ag18
aS'GG2HMf05ph0'
p106
aS'GG2HbsmM'
p107
aS'GG2Hsm'
p108
aS'TTHsm'
p109
aS'VBFMf05ph0'
p110
aS'VBFbsmM'
p111
aS'VBFsm'
p112
aS'WHMf05ph0'
p113
aS'WHbsmM'
p114
aS'WHsm'
p115
aS'ZHMf05ph0'
p116
aS'ZHbsmM'
p117
aS'ZHsm'
p118
aS'bkg_mass'
p119
aS'data_obs'
p120
aS'GG2HMf05ph0_2016preVFP_hgg'
p121
aS'GG2HbsmM_2016preVFP_hgg'
p122
aS'GG2Hsm_2016preVFP_hgg'
p123
aS'tth0P_2016preVFP_hgg'
p124
aS'vbf0Mf05ph0_2016preVFP_hgg'
p125
aS'vbf0M_2016preVFP_hgg'
p126
aS'vbf0P_2016preVFP_hgg'
p127
aS'wh0Mf05ph0_2016preVFP_hgg'
p128
aS'wh0M_2016preVFP_hgg'
p129
aS'wh0P_2016preVFP_hgg'
p130
aS'zh0Mf05ph0_2016preVFP_hgg'
p131
aS'zh0M_2016preVFP_hgg'
p132
aS'zh0P_2016preVFP_hgg'
p133
ag119
ag120
aS'jjh0Mf05ph0'
p134
aS'jjh0M'
p135
aS'jjh0P'
p136
aS'tth0P'
p137
aS'vbf0Mf05ph0'
p138
aS'vbf0M'
p139
aS'vbf0P'
p140
aS'wh0Mf05ph0'
p141
aS'wh0M'
p142
aS'wh0P'
p143
aS'zh0Mf05ph0'
p144
aS'zh0M'
p145
aS'zh0P'
p146
aS'-'
p147
ag147
aS'AC_Bin13_2016preVFP'
p148
aS'AC_Bin13_2016preVFP'
p149
aS'AC_Bin13_2016preVFP'
p150
aS'AC_Bin13_2016preVFP'
p151
aS'AC_Bin13_2016preVFP'
p152
aS'AC_Bin13_2016preVFP'
p153
aS'AC_Bin13_2016preVFP'
p154
aS'AC_Bin13_2016preVFP'
p155
aS'AC_Bin13_2016preVFP'
p156
aS'AC_Bin13_2016preVFP'
p157
aS'AC_Bin13_2016preVFP'
p158
aS'AC_Bin13_2016preVFP'
p159
aS'AC_Bin13_2016preVFP'
p160
aS'AC_Bin13_2016preVFP'
p161
ag161
aS'Trees/Opt_2016preVFP/2016PreVFP/Trees2WS_2016preVFP/WS/output_GluGluHToGGPlusTwoJets_MM_M125_TuneCP5_13TeV-amcatnlopowheg-minlo-pythia8_GG2HMf05ph0.root'
p162
aS'Trees/Opt_2016preVFP/2016PreVFP/Trees2WS_2016preVFP/WS/output_GluGluHToGGPlusTwoJets_CPodd_M125_TuneCP5_13TeV-amcatnlopowheg-minlo-pythia8_GG2HbsmM.root'
p163
aS'Trees/Opt_2016preVFP/2016PreVFP/Trees2WS_2016preVFP/WS/output_GluGluHToGGPlusTwoJets_SM_M125_TuneCP5_13TeV-amcatnlopowheg-minlo-pythia8_GG2Hsm.root'
p164
aS'Trees/Opt_2016preVFP/2016PreVFP/Trees2WS_2016preVFP/WS/output_ttHJetToGG_M125_TuneCP5_13TeV-amcatnloFXFX-madspin-pythia8_TTHsm.root'
p165
aS'Trees/Opt_2016preVFP/2016PreVFP/Trees2WS_2016preVFP/WS/output_VBFHiggs0Mf05ph0ToGG_M125_TuneCP5_13TeV-JHUGenV7011-pythia8_VBFMf05ph0.root'
p166
aS'Trees/Opt_2016preVFP/2016PreVFP/Trees2WS_2016preVFP/WS/output_VBFHiggs0MToGG_M125_TuneCP5_13TeV-JHUGenV7011-pythia8_VBFbsmM.root'
p167
aS'Trees/Opt_2016preVFP/2016PreVFP/Trees2WS_2016preVFP/WS/output_VBFHToGG_M125_TuneCP5_13TeV-amcatnlo-pythia8_VBFsm.root'
p168
aS'Trees/Opt_2016preVFP/2016PreVFP/Trees2WS_2016preVFP/WS/output_WHiggs0Mf05ph0ToGG_M125_TuneCP5_13TeV-JHUGenV7011-pythia8_WHMf05ph0.root'
p169
aS'Trees/Opt_2016preVFP/2016PreVFP/Trees2WS_2016preVFP/WS/output_WHiggs0MToGG_M125_TuneCP5_13TeV-JHUGenV7011-pythia8_WHbsmM.root'
p170
aS'Trees/Opt_2016preVFP/2016PreVFP/Trees2WS_2016preVFP/WS/output_WHiggs0PMToGG_M125_TuneCP5_13TeV-JHUGenV7011-pythia8_WHsm.root'
p171
aS'Trees/Opt_2016preVFP/2016PreVFP/Trees2WS_2016preVFP/WS/output_ZHiggs0Mf05ph0ToGG_M125_TuneCP5_13TeV-JHUGenV7011-pythia8_ZHMf05ph0.root'
p172
aS'Trees/Opt_2016preVFP/2016PreVFP/Trees2WS_2016preVFP/WS/output_ZHiggs0MToGG_M125_TuneCP5_13TeV-JHUGenV7011-pythia8_ZHbsmM.root'
p173
aS'Trees/Opt_2016preVFP/2016PreVFP/Trees2WS_2016preVFP/WS/output_ZH_HToGG_ZToAll_M125_TuneCP5_13TeV-powheg-pythia8_ZHsm.root'
p174
ag147
ag147
aS'jjh0Mf05ph0_125_13TeV_AC_Bin13'
p175
aS'jjh0M_125_13TeV_AC_Bin13'
p176
aS'jjh0P_125_13TeV_AC_Bin13'
p177
aS'tth0P_125_13TeV_AC_Bin13'
p178
aS'vbf0Mf05ph0_125_13TeV_AC_Bin13'
p179
aS'vbf0M_125_13TeV_AC_Bin13'
p180
aS'vbf0P_125_13TeV_AC_Bin13'
p181
aS'wh0Mf05ph0_125_13TeV_AC_Bin13'
p182
aS'wh0M_125_13TeV_AC_Bin13'
p183
aS'wh0P_125_13TeV_AC_Bin13'
p184
aS'zh0Mf05ph0_125_13TeV_AC_Bin13'
p185
aS'zh0M_125_13TeV_AC_Bin13'
p186
aS'zh0P_125_13TeV_AC_Bin13'
p187
ag147
ag147
aS'./Models/signal/CMS-HGG_sigfit_packaged_AC_Bin13_2016preVFP.root'
p188
aS'./Models/signal/CMS-HGG_sigfit_packaged_AC_Bin13_2016preVFP.root'
p189
aS'./Models/signal/CMS-HGG_sigfit_packaged_AC_Bin13_2016preVFP.root'
p190
aS'./Models/signal/CMS-HGG_sigfit_packaged_AC_Bin13_2016preVFP.root'
p191
aS'./Models/signal/CMS-HGG_sigfit_packaged_AC_Bin13_2016preVFP.root'
p192
aS'./Models/signal/CMS-HGG_sigfit_packaged_AC_Bin13_2016preVFP.root'
p193
aS'./Models/signal/CMS-HGG_sigfit_packaged_AC_Bin13_2016preVFP.root'
p194
aS'./Models/signal/CMS-HGG_sigfit_packaged_AC_Bin13_2016preVFP.root'
p195
aS'./Models/signal/CMS-HGG_sigfit_packaged_AC_Bin13_2016preVFP.root'
p196
aS'./Models/signal/CMS-HGG_sigfit_packaged_AC_Bin13_2016preVFP.root'
p197
aS'./Models/signal/CMS-HGG_sigfit_packaged_AC_Bin13_2016preVFP.root'
p198
aS'./Models/signal/CMS-HGG_sigfit_packaged_AC_Bin13_2016preVFP.root'
p199
aS'./Models/signal/CMS-HGG_sigfit_packaged_AC_Bin13_2016preVFP.root'
p200
aS'./Models/background/CMS-HGG_multipdf_AC_Bin13_2016preVFP.root'
p201
ag201
aS'wsig_13TeV:hggpdfsmrel_GG2HMf05ph0_2016preVFP_AC_Bin13_13TeV'
p202
aS'wsig_13TeV:hggpdfsmrel_GG2HbsmM_2016preVFP_AC_Bin13_13TeV'
p203
aS'wsig_13TeV:hggpdfsmrel_GG2Hsm_2016preVFP_AC_Bin13_13TeV'
p204
aS'wsig_13TeV:hggpdfsmrel_TTHsm_2016preVFP_AC_Bin13_13TeV'
p205
aS'wsig_13TeV:hggpdfsmrel_VBFMf05ph0_2016preVFP_AC_Bin13_13TeV'
p206
aS'wsig_13TeV:hggpdfsmrel_VBFbsmM_2016preVFP_AC_Bin13_13TeV'
p207
aS'wsig_13TeV:hggpdfsmrel_VBFsm_2016preVFP_AC_Bin13_13TeV'
p208
aS'wsig_13TeV:hggpdfsmrel_WHMf05ph0_2016preVFP_AC_Bin13_13TeV'
p209
aS'wsig_13TeV:hggpdfsmrel_WHbsmM_2016preVFP_AC_Bin13_13TeV'
p210
aS'wsig_13TeV:hggpdfsmrel_WHsm_2016preVFP_AC_Bin13_13TeV'
p211
aS'wsig_13TeV:hggpdfsmrel_ZHMf05ph0_2016preVFP_AC_Bin13_13TeV'
p212
aS'wsig_13TeV:hggpdfsmrel_ZHbsmM_2016preVFP_AC_Bin13_13TeV'
p213
aS'wsig_13TeV:hggpdfsmrel_ZHsm_2016preVFP_AC_Bin13_13TeV'
p214
aS'multipdf:CMS_hgg_AC_Bin13_2016preVFP_13TeV_bkgshape'
p215
aS'multipdf:roohist_data_mass_AC_Bin13'
p216
aF0.041045897500453066
aF0.043783061179510696
aF0.05393179473458076
aF0.006022584440984247
aF0.039945638081803736
aF0.028650024492549164
aF0.015044758589056073
aF0.0022765188942912573
aF0.00270839236094389
aF0.0009476121928173598
aF0.0012203210699226474
aF0.0014349206103361212
aF0.0029113676578162995
ag147
ag147
aF1.3962881470649821e-05
aF1.6300795602184956e-05
aF8.982267279487149e-06
aF1.4152462210650698e-06
aF1.840115505029026e-05
aF3.7091444244205226e-06
aF4.790339351196533e-05
aF1.3919057635890617e-07
aF4.310014735595843e-08
aF3.1141033138103046e-08
aF1.8108682814072195e-07
aF2.9730973891831676e-07
aF9.417306000246136e-07
ag147
ag147
aF0.04194539610556861
aF0.0447155255738794
aF0.05512676807461972
aF0.006173416293896519
aF0.04078344577331608
aF0.02925591921564893
aF0.01544171475807094
aF0.002324281725528754
aF0.002774352865556276
aF0.0009688837940102549
aF0.0012432324061813344
aF0.0014638927794116887
aF0.0029735224569411487
ag147
ag147
aF0.041315824445028224
aF0.04407032596696722
aF0.054287835145432346
aF0.006063110022334687
aF0.04021111827336214
aF0.02884025519007325
aF0.015141107920694575
aF0.002291407405842463
aF0.002726109873015012
aF0.0009537830233965002
aF0.001228455947302769
aF0.0014445983104047304
aF0.002930667318751243
ag147
ag147
aF0.04077685631040807
aF0.04349673662721144
aF0.05357692770129502
aF0.00598219473481357
aF0.03968103856018819
aF0.028460424085851945
aF0.014948717100196594
aF0.002261678943753686
aF0.0026907327141588947
aF0.0009414614029243328
aF0.0012122132448036931
aF0.001425275475164134
aF0.002892131745846927
ag147
ag147
aF0.0416401207947152
aF0.04444220738885146
aF0.054725785025285766
aF0.006117013992657704
aF0.040499096072224794
aF0.029067328917084623
aF0.015296754296176973
aF0.002314703077878221
aF0.002749581077639744
aF0.0009634597803829791
aF0.0012343144713324269
aF0.0014512133324610563
aF0.002955669195378565
ag147
ag147
aF0.040455860073212876
aF0.04312868632625398
aF0.05314371992824965
aF0.005928883254660662
aF0.03939606492659235
aF0.028235604316997006
aF0.014794854333335527
aF0.0022386258237913786
aF0.002667492315376859
aF0.0009318904176167638
aF0.001206408100577102
aF0.0014187196710497708
aF0.0028673806614323795
ag147
ag147
aF0.04111033930433747
aF0.043857136839213176
aF0.054016562956280594
aF0.006030254004495229
aF0.040002088146747036
aF0.028690716752870563
aF0.015078846513581231
aF0.0022803120334832882
aF0.002712795363621924
aF0.0009491338325578018
aF0.001222403157043456
aF0.0014365928733207428
aF0.0029153741164514653
ag147
ag147
aF0.04098150709493102
aF0.043709053107088745
aF0.05384709272280945
aF0.006014920233818626
aF0.03988922891002519
aF0.028609361748064
aF0.015010704793285852
aF0.0022727289109136213
aF0.0027039931495054944
aF0.0009460917547513025
aF0.0012182405333821468
aF0.001433249130642776
aF0.0029073637978817304
ag147
ag147
aF0.041133642743981444
aF0.04387666335725638
aF0.054046235964479036
aF0.006035412542683877
aF0.04002818956490154
aF0.0287083373599083
aF0.015085594355959166
aF0.0022813296566602265
aF0.0027153232360836
aF0.000949654369520386
aF0.001222860275602203
aF0.0014378032457077225
aF0.002917248288950822
ag147
ag147
aF0.04095824671785536
aF0.04368955925387166
aF0.053817474904383385
aF0.006009770172362663
aF0.03986317322751352
aF0.028591772094519526
aF0.015003975060419552
aF0.0022717132794265265
aF0.002701470003309028
aF0.0009455722215293731
aF0.0012177844663541816
aF0.0014320409436664075
aF0.002905493157792639
ag147
ag147
aF0.04071758718578167
aF0.04306234007162857
aF0.05319558869359753
aF0.005808436322013222
aF0.03984084229784912
aF0.028544698119731038
aF0.014965321574209156
aF0.0022765188942912573
aF0.00269322456330201
aF0.0009447793407844074
aF0.0012203210699226474
aF0.0014349206103361212
aF0.002904973526028698
ag147
ag147
aF0.041673906802770944
aF0.044280105838197414
aF0.05470063642405876
aF0.006457606480012146
aF0.0400914125240206
aF0.028851191744820426
aF0.015206331150011465
aF0.0022826181408390767
aF0.002742906915216281
aF0.000958658018589631
aF0.0012203210699226474
aF0.0014349206103361212
aF0.002917317435503719
ag147
ag147
aF0.04151320076334741
aF0.044244647386221914
aF0.05488515223532886
aF0.00632629416668351
aF0.042149023320689594
aF0.029067178557966145
aF0.014650813192815804
aF0.00232151502166289
aF0.002716575003262278
aF0.0009537310222640372
aF0.001273031220989651
aF0.0014349206103361212
aF0.0029269519054651028
ag147
ag147
aF0.04045575979057503
aF0.04266210036530538
aF0.05319590259728102
aF0.005497902868341953
aF0.03897813002674866
aF0.028159909561509266
aF0.013965664614602247
aF0.0022693463519090074
aF0.0026623314153653155
aF0.0009443518912348736
aF0.00119318977885996
aF0.0014349206103361212
aF0.002894541376917914
ag147
ag147
aF0.041126356346239845
aF0.04391869447795216
aF0.05427735201146788
aF0.0060357676849207564
aF0.039977619211072124
aF0.028715237896904
aF0.015458359848935288
aF0.0024092545132816667
aF0.0027741532654204093
aF0.0009721044494881426
aF0.0012452259798010346
aF0.0014349206103361212
aF0.002953068535134662
ag147
ag147
aF0.04050650822159696
aF0.043495428705909944
aF0.053455287436236176
aF0.006035264155002551
aF0.03991150274021038
aF0.028574215375670065
aF0.01404578805068013
aF0.0022633249626551333
aF0.0026278812570694754
aF0.0009296170575225915
aF0.0012203210699226474
aF0.0014349206103361212
aF0.0029113676578162995
ag147
ag147
aF0.04237987497776885
aF0.045416567344773284
aF0.055995828056893515
aF0.0059583615155816005
aF0.04025511925703995
aF0.029162691782744332
aF0.014281802776054064
aF0.00245110586820374
aF0.003005529858285172
aF0.0009827399100004186
aF0.0018635154538060306
aF0.0016603475778538268
aF0.0028932455311405647
ag147
ag147
aF0.03978504559290741
aF0.04307420511190685
aF0.05278951313971447
aF0.0059317178207720644
aF0.03954107455422218
aF0.02804672598324487
aF0.013913020812424293
aF0.002137509204658272
aF0.002639407675644634
aF0.0009979296321489528
aF0.00119318977885996
aF0.0010178312913922127
aF0.0028717163413602975
ag147
ag147
aF0.041106571513182644
aF0.044046749984545386
aF0.054518944577466755
aF0.00602938094266392
aF0.040426477453024745
aF0.02819842590645294
aF0.014253579569640351
aF0.002352267122205376
aF0.002744458983841014
aF0.0009753321677408167
aF0.0012203210699226474
aF0.0014349206103361212
aF0.0028914244353472895
ag147
ag147
aF0.040700844454704566
aF0.04371624341160896
aF0.05377432840759866
aF0.005926445917793899
aF0.03983819621942075
aF0.028518597349830088
aF0.014528415553286322
aF0.0022764859277231153
aF0.0028779668073752873
aF0.0009427284484218035
aF0.001270498596568359
aF0.0010514520909055136
aF0.001997069444087174
ag147
ag147
aF0.041045897500453066
aF0.043783061179510696
aF0.05393179473458076
aF0.006022584440984247
aF0.039945638081803736
aF0.028650024492549164
aF0.015044758589056073
aF0.0022765188942912573
aF0.00270839236094389
aF0.0009476121928173598
aF0.0012203210699226474
aF0.0014349206103361212
aF0.0029113676578162995
ag147
ag147
aF0.041045897500453066
aF0.043783061179510696
aF0.05393179473458076
aF0.006022584440984247
aF0.039945638081803736
aF0.028650024492549164
aF0.015044758589056073
aF0.0022765188942912573
aF0.00270839236094389
aF0.0009476121928173598
aF0.0012203210699226474
aF0.0014349206103361212
aF0.0029113676578162995
ag147
ag147
atp217
ba(lp218
g15
(g16
(dp219
g18
g19
(g20
(I0
tp220
g22
tp221
Rp222
(I1
(I1
tp223
g29
I00
(lp224
g43
atp225
bsg68
Nstp226
Rp227
ag15
(g16
(dp228
g18
g19
(g20
(I0
tp229
g22
tp230
Rp231
(I1
(I33
tp232
g29
I00
(lp233
g33
ag34
ag35
ag36
ag37
ag38
ag39
ag40
ag41
ag42
ag44
ag45
ag46
ag47
ag48
ag49
ag50
ag51
ag52
ag53
ag54
ag55
ag56
ag57
ag58
ag59
ag60
ag61
ag62
ag63
ag64
ag65
ag66
atp234
bsg68
Nstp235
Rp236
a(dp237
S'0.14.1'
p238
(dp239
S'axes'
p240
g14
sS'blocks'
p241
(lp242
(dp243
S'mgr_locs'
p244
c__builtin__
slice
p245
(I10
I11
I1
tp246
Rp247
sS'values'
p248
g89
sa(dp249
g244
g19
(g20
(I0
tp250
g22
tp251
Rp252
(I1
(I33
tp253
g79
I00
S'\x00\x00\x00\x00\x00\x00\x00\x00\x01\x00\x00\x00\x00\x00\x00\x00\x02\x00\x00\x00\x00\x00\x00\x00\x03\x00\x00\x00\x00\x00\x00\x00\x04\x00\x00\x00\x00\x00\x00\x00\x05\x00\x00\x00\x00\x00\x00\x00\x06\x00\x00\x00\x00\x00\x00\x00\x07\x00\x00\x00\x00\x00\x00\x00\x08\x00\x00\x00\x00\x00\x00\x00\t\x00\x00\x00\x00\x00\x00\x00\x0b\x00\x00\x00\x00\x00\x00\x00\x0c\x00\x00\x00\x00\x00\x00\x00\r\x00\x00\x00\x00\x00\x00\x00\x0e\x00\x00\x00\x00\x00\x00\x00\x0f\x00\x00\x00\x00\x00\x00\x00\x10\x00\x00\x00\x00\x00\x00\x00\x11\x00\x00\x00\x00\x00\x00\x00\x12\x00\x00\x00\x00\x00\x00\x00\x13\x00\x00\x00\x00\x00\x00\x00\x14\x00\x00\x00\x00\x00\x00\x00\x15\x00\x00\x00\x00\x00\x00\x00\x16\x00\x00\x00\x00\x00\x00\x00\x17\x00\x00\x00\x00\x00\x00\x00\x18\x00\x00\x00\x00\x00\x00\x00\x19\x00\x00\x00\x00\x00\x00\x00\x1a\x00\x00\x00\x00\x00\x00\x00\x1b\x00\x00\x00\x00\x00\x00\x00\x1c\x00\x00\x00\x00\x00\x00\x00\x1d\x00\x00\x00\x00\x00\x00\x00\x1e\x00\x00\x00\x00\x00\x00\x00\x1f\x00\x00\x00\x00\x00\x00\x00 \x00\x00\x00\x00\x00\x00\x00!\x00\x00\x00\x00\x00\x00\x00'
p254
tp255
bsg248
g100
sasstp256
bsb.