ccopy_reg
_reconstructor
p0
(cpandas.core.frame
DataFrame
p1
c__builtin__
object
p2
Ntp3
Rp4
(dp5
S'_metadata'
p6
(lp7
sS'_typ'
p8
S'dataframe'
p9
sS'_data'
p10
g0
(cpandas.core.internals
BlockManager
p11
g2
Ntp12
Rp13
((lp14
cpandas.core.indexes.base
_new_Index
p15
(cpandas.core.indexes.base
Index
p16
(dp17
S'data'
p18
cnumpy.core.multiarray
_reconstruct
p19
(cnumpy
ndarray
p20
(I0
tp21
S'b'
p22
tp23
Rp24
(I1
(I34
tp25
cnumpy
dtype
p26
(S'O8'
p27
I0
I1
tp28
Rp29
(I3
S'|'
p30
NNNI-1
I-1
I63
tp31
bI00
(lp32
S'year'
p33
aS'type'
p34
aS'procOriginal'
p35
aS'proc'
p36
aS'proc_s0'
p37
aS'cat'
p38
aS'inputWSFile'
p39
aS'nominalDataName'
p40
aS'modelWSFile'
p41
aS'model'
p42
aS'rate'
p43
aS'nominal_yield'
p44
aS'sumw2'
p45
aS'nominal_yield_COWCorr'
p46
aS'LooseMvaSF_up_yield'
p47
aS'LooseMvaSF_down_yield'
p48
aS'PreselSF_up_yield'
p49
aS'PreselSF_down_yield'
p50
aS'electronVetoSF_up_yield'
p51
aS'electronVetoSF_down_yield'
p52
aS'TriggerWeight_up_yield'
p53
aS'TriggerWeight_down_yield'
p54
aS'SigmaEOverEShift_up_yield'
p55
aS'SigmaEOverEShift_down_yield'
p56
aS'MvaShift_up_yield'
p57
aS'MvaShift_down_yield'
p58
aS'PUJIDShift_up_yield'
p59
aS'PUJIDShift_down_yield'
p60
aS'JEC_up_yield'
p61
aS'JEC_down_yield'
p62
aS'JER_up_yield'
p63
aS'JER_down_yield'
p64
aS'JetHEM_up_yield'
p65
aS'JetHEM_down_yield'
p66
atp67
bsS'name'
p68
Nstp69
Rp70
ag15
(cpandas.core.indexes.numeric
Int64Index
p71
(dp72
g18
g19
(g20
(I0
tp73
g22
tp74
Rp75
(I1
(I15
tp76
g26
(S'i8'
p77
I0
I1
tp78
Rp79
(I3
S'<'
p80
NNNI-1
I-1
I0
tp81
bI00
S'\x00\x00\x00\x00\x00\x00\x00\x00\x01\x00\x00\x00\x00\x00\x00\x00\x02\x00\x00\x00\x00\x00\x00\x00\x03\x00\x00\x00\x00\x00\x00\x00\x04\x00\x00\x00\x00\x00\x00\x00\x05\x00\x00\x00\x00\x00\x00\x00\x06\x00\x00\x00\x00\x00\x00\x00\x07\x00\x00\x00\x00\x00\x00\x00\x08\x00\x00\x00\x00\x00\x00\x00\t\x00\x00\x00\x00\x00\x00\x00\n\x00\x00\x00\x00\x00\x00\x00\x0b\x00\x00\x00\x00\x00\x00\x00\x0c\x00\x00\x00\x00\x00\x00\x00\r\x00\x00\x00\x00\x00\x00\x00\x0e\x00\x00\x00\x00\x00\x00\x00'
p82
tp83
bsg68
Nstp84
Rp85
a(lp86
g19
(g20
(I0
tp87
g22
tp88
Rp89
(I1
(I1
I15
tp90
g26
(S'f8'
p91
I0
I1
tp92
Rp93
(I3
S'<'
p94
NNNI-1
I-1
I0
tp95
bI00
S'\x00\x00\x00\x00\x00\x10\xd3@\x00\x00\x00\x00\x00\x10\xd3@\x00\x00\x00\x00\x00\x10\xd3@\x00\x00\x00\x00\x00\x10\xd3@\x00\x00\x00\x00\x00\x10\xd3@\x00\x00\x00\x00\x00\x10\xd3@\x00\x00\x00\x00\x00\x10\xd3@\x00\x00\x00\x00\x00\x10\xd3@\x00\x00\x00\x00\x00\x10\xd3@\x00\x00\x00\x00\x00\x10\xd3@\x00\x00\x00\x00\x00\x10\xd3@\x00\x00\x00\x00\x00\x10\xd3@\x00\x00\x00\x00\x00\x10\xd3@\x00\x00\x00\x00\x00\x00\xf0?\x00\x00\x00\x00\x00\x00\xf0\xbf'
p96
tp97
bag19
(g20
(I0
tp98
g22
tp99
Rp100
(I1
(I33
I15
tp101
g29
I00
(lp102
S'2016preVFP'
p103
ag103
ag103
ag103
ag103
ag103
ag103
ag103
ag103
ag103
ag103
ag103
ag103
ag33
ag33
aS'sig'
p104
ag104
ag104
ag104
ag104
ag104
ag104
ag104
ag104
ag104
ag104
ag104
ag104
aS'bkg'
p105
ag18
aS'GG2HMf05ph0'
p106
aS'GG2HbsmM'
p107
aS'GG2Hsm'
p108
aS'TTHsm'
p109
aS'VBFMf05ph0'
p110
aS'VBFbsmM'
p111
aS'VBFsm'
p112
aS'WHMf05ph0'
p113
aS'WHbsmM'
p114
aS'WHsm'
p115
aS'ZHMf05ph0'
p116
aS'ZHbsmM'
p117
aS'ZHsm'
p118
aS'bkg_mass'
p119
aS'data_obs'
p120
aS'GG2HMf05ph0_2016preVFP_hgg'
p121
aS'GG2HbsmM_2016preVFP_hgg'
p122
aS'GG2Hsm_2016preVFP_hgg'
p123
aS'tth0P_2016preVFP_hgg'
p124
aS'vbf0Mf05ph0_2016preVFP_hgg'
p125
aS'vbf0M_2016preVFP_hgg'
p126
aS'vbf0P_2016preVFP_hgg'
p127
aS'wh0Mf05ph0_2016preVFP_hgg'
p128
aS'wh0M_2016preVFP_hgg'
p129
aS'wh0P_2016preVFP_hgg'
p130
aS'zh0Mf05ph0_2016preVFP_hgg'
p131
aS'zh0M_2016preVFP_hgg'
p132
aS'zh0P_2016preVFP_hgg'
p133
ag119
ag120
aS'jjh0Mf05ph0'
p134
aS'jjh0M'
p135
aS'jjh0P'
p136
aS'tth0P'
p137
aS'vbf0Mf05ph0'
p138
aS'vbf0M'
p139
aS'vbf0P'
p140
aS'wh0Mf05ph0'
p141
aS'wh0M'
p142
aS'wh0P'
p143
aS'zh0Mf05ph0'
p144
aS'zh0M'
p145
aS'zh0P'
p146
aS'-'
p147
ag147
aS'AC_Bin9_2016preVFP'
p148
aS'AC_Bin9_2016preVFP'
p149
aS'AC_Bin9_2016preVFP'
p150
aS'AC_Bin9_2016preVFP'
p151
aS'AC_Bin9_2016preVFP'
p152
aS'AC_Bin9_2016preVFP'
p153
aS'AC_Bin9_2016preVFP'
p154
aS'AC_Bin9_2016preVFP'
p155
aS'AC_Bin9_2016preVFP'
p156
aS'AC_Bin9_2016preVFP'
p157
aS'AC_Bin9_2016preVFP'
p158
aS'AC_Bin9_2016preVFP'
p159
aS'AC_Bin9_2016preVFP'
p160
aS'AC_Bin9_2016preVFP'
p161
ag161
aS'Trees/Opt_2016preVFP/2016PreVFP/Trees2WS_2016preVFP/WS/output_GluGluHToGGPlusTwoJets_MM_M125_TuneCP5_13TeV-amcatnlopowheg-minlo-pythia8_GG2HMf05ph0.root'
p162
aS'Trees/Opt_2016preVFP/2016PreVFP/Trees2WS_2016preVFP/WS/output_GluGluHToGGPlusTwoJets_CPodd_M125_TuneCP5_13TeV-amcatnlopowheg-minlo-pythia8_GG2HbsmM.root'
p163
aS'Trees/Opt_2016preVFP/2016PreVFP/Trees2WS_2016preVFP/WS/output_GluGluHToGGPlusTwoJets_SM_M125_TuneCP5_13TeV-amcatnlopowheg-minlo-pythia8_GG2Hsm.root'
p164
aS'Trees/Opt_2016preVFP/2016PreVFP/Trees2WS_2016preVFP/WS/output_ttHJetToGG_M125_TuneCP5_13TeV-amcatnloFXFX-madspin-pythia8_TTHsm.root'
p165
aS'Trees/Opt_2016preVFP/2016PreVFP/Trees2WS_2016preVFP/WS/output_VBFHiggs0Mf05ph0ToGG_M125_TuneCP5_13TeV-JHUGenV7011-pythia8_VBFMf05ph0.root'
p166
aS'Trees/Opt_2016preVFP/2016PreVFP/Trees2WS_2016preVFP/WS/output_VBFHiggs0MToGG_M125_TuneCP5_13TeV-JHUGenV7011-pythia8_VBFbsmM.root'
p167
aS'Trees/Opt_2016preVFP/2016PreVFP/Trees2WS_2016preVFP/WS/output_VBFHToGG_M125_TuneCP5_13TeV-amcatnlo-pythia8_VBFsm.root'
p168
aS'Trees/Opt_2016preVFP/2016PreVFP/Trees2WS_2016preVFP/WS/output_WHiggs0Mf05ph0ToGG_M125_TuneCP5_13TeV-JHUGenV7011-pythia8_WHMf05ph0.root'
p169
aS'Trees/Opt_2016preVFP/2016PreVFP/Trees2WS_2016preVFP/WS/output_WHiggs0MToGG_M125_TuneCP5_13TeV-JHUGenV7011-pythia8_WHbsmM.root'
p170
aS'Trees/Opt_2016preVFP/2016PreVFP/Trees2WS_2016preVFP/WS/output_WHiggs0PMToGG_M125_TuneCP5_13TeV-JHUGenV7011-pythia8_WHsm.root'
p171
aS'Trees/Opt_2016preVFP/2016PreVFP/Trees2WS_2016preVFP/WS/output_ZHiggs0Mf05ph0ToGG_M125_TuneCP5_13TeV-JHUGenV7011-pythia8_ZHMf05ph0.root'
p172
aS'Trees/Opt_2016preVFP/2016PreVFP/Trees2WS_2016preVFP/WS/output_ZHiggs0MToGG_M125_TuneCP5_13TeV-JHUGenV7011-pythia8_ZHbsmM.root'
p173
aS'Trees/Opt_2016preVFP/2016PreVFP/Trees2WS_2016preVFP/WS/output_ZH_HToGG_ZToAll_M125_TuneCP5_13TeV-powheg-pythia8_ZHsm.root'
p174
ag147
ag147
aS'jjh0Mf05ph0_125_13TeV_AC_Bin9'
p175
aS'jjh0M_125_13TeV_AC_Bin9'
p176
aS'jjh0P_125_13TeV_AC_Bin9'
p177
aS'tth0P_125_13TeV_AC_Bin9'
p178
aS'vbf0Mf05ph0_125_13TeV_AC_Bin9'
p179
aS'vbf0M_125_13TeV_AC_Bin9'
p180
aS'vbf0P_125_13TeV_AC_Bin9'
p181
aS'wh0Mf05ph0_125_13TeV_AC_Bin9'
p182
aS'wh0M_125_13TeV_AC_Bin9'
p183
aS'wh0P_125_13TeV_AC_Bin9'
p184
aS'zh0Mf05ph0_125_13TeV_AC_Bin9'
p185
aS'zh0M_125_13TeV_AC_Bin9'
p186
aS'zh0P_125_13TeV_AC_Bin9'
p187
ag147
ag147
aS'./Models/signal/CMS-HGG_sigfit_packaged_AC_Bin9_2016preVFP.root'
p188
aS'./Models/signal/CMS-HGG_sigfit_packaged_AC_Bin9_2016preVFP.root'
p189
aS'./Models/signal/CMS-HGG_sigfit_packaged_AC_Bin9_2016preVFP.root'
p190
aS'./Models/signal/CMS-HGG_sigfit_packaged_AC_Bin9_2016preVFP.root'
p191
aS'./Models/signal/CMS-HGG_sigfit_packaged_AC_Bin9_2016preVFP.root'
p192
aS'./Models/signal/CMS-HGG_sigfit_packaged_AC_Bin9_2016preVFP.root'
p193
aS'./Models/signal/CMS-HGG_sigfit_packaged_AC_Bin9_2016preVFP.root'
p194
aS'./Models/signal/CMS-HGG_sigfit_packaged_AC_Bin9_2016preVFP.root'
p195
aS'./Models/signal/CMS-HGG_sigfit_packaged_AC_Bin9_2016preVFP.root'
p196
aS'./Models/signal/CMS-HGG_sigfit_packaged_AC_Bin9_2016preVFP.root'
p197
aS'./Models/signal/CMS-HGG_sigfit_packaged_AC_Bin9_2016preVFP.root'
p198
aS'./Models/signal/CMS-HGG_sigfit_packaged_AC_Bin9_2016preVFP.root'
p199
aS'./Models/signal/CMS-HGG_sigfit_packaged_AC_Bin9_2016preVFP.root'
p200
aS'./Models/background/CMS-HGG_multipdf_AC_Bin9_2016preVFP.root'
p201
ag201
aS'wsig_13TeV:hggpdfsmrel_GG2HMf05ph0_2016preVFP_AC_Bin9_13TeV'
p202
aS'wsig_13TeV:hggpdfsmrel_GG2HbsmM_2016preVFP_AC_Bin9_13TeV'
p203
aS'wsig_13TeV:hggpdfsmrel_GG2Hsm_2016preVFP_AC_Bin9_13TeV'
p204
aS'wsig_13TeV:hggpdfsmrel_TTHsm_2016preVFP_AC_Bin9_13TeV'
p205
aS'wsig_13TeV:hggpdfsmrel_VBFMf05ph0_2016preVFP_AC_Bin9_13TeV'
p206
aS'wsig_13TeV:hggpdfsmrel_VBFbsmM_2016preVFP_AC_Bin9_13TeV'
p207
aS'wsig_13TeV:hggpdfsmrel_VBFsm_2016preVFP_AC_Bin9_13TeV'
p208
aS'wsig_13TeV:hggpdfsmrel_WHMf05ph0_2016preVFP_AC_Bin9_13TeV'
p209
aS'wsig_13TeV:hggpdfsmrel_WHbsmM_2016preVFP_AC_Bin9_13TeV'
p210
aS'wsig_13TeV:hggpdfsmrel_WHsm_2016preVFP_AC_Bin9_13TeV'
p211
aS'wsig_13TeV:hggpdfsmrel_ZHMf05ph0_2016preVFP_AC_Bin9_13TeV'
p212
aS'wsig_13TeV:hggpdfsmrel_ZHbsmM_2016preVFP_AC_Bin9_13TeV'
p213
aS'wsig_13TeV:hggpdfsmrel_ZHsm_2016preVFP_AC_Bin9_13TeV'
p214
aS'multipdf:CMS_hgg_AC_Bin9_2016preVFP_13TeV_bkgshape'
p215
aS'multipdf:roohist_data_mass_AC_Bin9'
p216
aF0.03035781941798632
aF0.023223448918315626
aF0.04303133039957174
aF0.001429904779683966
aF0.00966274349559626
aF0.0011916979574380093
aF0.02178442765955424
aF0.000604239401468476
aF0.0006432754765910431
aF0.0007250599695680648
aI0
aF0.00046418586862273514
aF0.00044504207664886053
ag147
ag147
aF1.3692170253034112e-05
aF4.108578332599716e-06
aF7.141861747177432e-06
aF9.777968161620563e-08
aF7.423374535503552e-07
aF2.0686907226020543e-08
aF1.0877312375594258e-05
aF2.923725018408606e-08
aF1.3401088726314378e-08
aF3.890248003065183e-08
aI0
aF2.1546852062904313e-07
aF9.143206973932053e-09
ag147
ag147
aF0.03083479404031797
aF0.023780491417757243
aF0.044844621622515984
aF0.0014660437826940192
aF0.009916428832329727
aF0.0012184444819848613
aF0.022388913549406017
aF0.0006143010795738561
aF0.0006650306428704456
aF0.0007424498170882854
aI0
aF0.00047925216641466856
aF0.00045550484711232345
ag147
ag147
aF0.030554845037980234
aF0.02337348187463846
aF0.04330997838348786
aF0.0014392220827064044
aF0.009725170237210479
aF0.0011993609806679984
aF0.021923339196596118
aF0.0006080092829645605
aF0.0006474004816016572
aF0.0007298094343489646
aI0
aF0.00046693122804098515
aF0.0004478915847562777
ag147
ag147
aF0.03016143264695823
aF0.023073900489600993
aF0.04275358270780287
aF0.001420617751652795
aF0.00960051777992436
aF0.0011840595025419762
aF0.021645960404698746
aF0.0006004812716753358
aF0.0006391636696631485
aF0.0007203260463724394
aI0
aF0.0004614484218909581
aF0.000442201671868963
ag147
ag147
aF0.030886401401462975
aF0.02366350378706738
aF0.04381322471675879
aF0.0014563682332599521
aF0.009832496357237272
aF0.0012111083361908569
aF0.022217226831669216
aF0.0006130263254944619
aF0.0006561030909236947
aF0.0007357991313056213
aI0
aF0.00048274300373502834
aF0.0004526209349506459
ag147
ag147
aF0.0298342476856577
aF0.022787083488559227
aF0.04225612788688259
aF0.001403712215732158
aF0.009494370775566934
aF0.0011724357667255113
aF0.021357052595752178
aF0.0005955201584221251
aF0.0006305597577891607
aF0.0007143928494839115
aI0
aF0.00044581223927904186
aF0.0004375224354027257
ag147
ag147
aF0.030411215051553833
aF0.023270205366126055
aF0.043107999435825654
aF0.001433686290972668
aF0.009681110508151835
aF0.0011938647568904281
aF0.021825408186514926
aF0.000605592922948435
aF0.0006446612907409305
aF0.000726437399820335
aI0
aF0.0004653933959966856
aF0.0004459060813387332
ag147
ag147
aF0.03030447593980423
aF0.023176740620240006
aF0.04295473129919789
aF0.0014261285464246842
aF0.009644394443235593
aF0.0011895329633008548
aF0.02174349847034254
aF0.0006028874836411843
aF0.0006418914726197048
aF0.0007236842784877579
aI0
aF0.0004629793124810593
aF0.00044417893534562196
ag147
ag147
aF0.030424894622438872
aF0.023282619636891037
aF0.043138509338051474
aF0.0014329771460966363
aF0.009683529103954213
aF0.0011941360332318502
aF0.021834313024180402
aF0.0006054910104512345
aF0.0006452558394677257
aF0.0007266457095493903
aI0
aF0.0004651219080102638
aF0.0004460034701356218
ag147
ag147
aF0.03029081881167932
aF0.023164354039241167
aF0.04292428149680343
aF0.0014268357373686286
aF0.009641980711701604
aF0.0011892623935242904
aF0.021734600052003235
aF0.0006029891138479113
aF0.0006412978282531751
aF0.000723475969165937
aI0
aF0.00046325080046748116
aF0.0004440817329461898
ag147
ag147
aF0.030413799478310466
aF0.023413475911183923
aF0.042112021466437
aF0.000779528940711316
aF0.00966093288400316
aF0.0012189958986255078
aF0.021701495181446262
aF0.000591089885006113
aF0.0005640568198259643
aF0.000716862854574174
aF0.0
aF0.00046418586862273514
aF0.00044504207664886053
ag147
ag147
aF0.030381615469195822
aF0.023862561828536855
aF0.04327845616194281
aF0.0014511263526628682
aF0.009530298683898764
aF0.001128944871652493
aF0.022486053148554674
aF0.0006020045813102115
aF0.0006351274549842856
aF0.0007116492055274648
aF0.0
aF0.0
aF0.00045433855223109276
ag147
ag147
aF0.031518870012860134
aF0.024431742906926956
aF0.044282136791252924
aF0.001588673660535278
aF0.010001648314755585
aF0.0011929262682315311
aF0.03997297611249451
aF0.0006131884161959533
aF0.0006490373363021718
aF0.0007250599695680648
aF0.0
aF0.00046418586862273514
aF0.0004510639383852322
ag147
ag147
aF0.02966596193937221
aF0.022369803234141727
aF0.04139250723596888
aF0.00142370947105519
aF0.009272263170032602
aF0.0011944451766794373
aF0.021666445695132097
aF0.0005770863468796961
aF0.0006244086206379507
aF0.0007136451135920652
aF0.0
aF0.00046418586862273514
aF0.0004263167644467103
ag147
ag147
aF0.031098268919777183
aF0.008445902805306105
aF0.04388039439140812
aF0.0014227443897425474
aF0.009330379369316688
aF0.0011916979574380093
aF0.033990148523230346
aF0.0006172413781087016
aF0.0006446781278555136
aF0.0007374120112899618
aF0.0
aF0.00046418586862273514
aF0.00044992262257892435
ag147
ag147
aF0.029278938452307557
aF0.022089247502435683
aF0.04171631374424578
aF0.0014246175172729636
aF0.009576710368150998
aF0.0011916979574380093
aF0.020230048152711788
aF0.000599862571561971
aF0.0006233623220168738
aF0.0007166829212792436
aF0.0
aF0.00046418586862273514
aF0.00044504207664886053
ag147
ag147
aF0.03252118533964676
aF0.025790016195742282
aF0.046079170278289894
aF0.001359303178560367
aF0.009852455407894922
aF0.0012752291943343153
aF0.034571203375890036
aF0.0006147811540131443
aF0.0007030370436496014
aF0.0007540134287182809
aF0.0
aF0.00046418586862273514
aF0.0005132354534680417
ag147
ag147
aF0.028854772316208255
aF0.021852082638815773
aF0.03896241934353384
aF0.0013855881317113017
aF0.009615746088798005
aF0.001154597876848129
aF0.022179589909342212
aF0.0005750694017478963
aF0.0006063114002472503
aF0.0007109324544671836
aF0.0
aF0.00046418586862273514
aF0.0004110583680585478
ag147
ag147
aF0.031097493768584172
aF0.024889363685360877
aF0.04307625345859378
aF0.0014220897518271158
aF0.009689761079130221
aF0.0012004439959127922
aF0.02379443043594165
aF0.0006033966518543821
aF0.0006752399942797638
aF0.0007524294912855112
aF0.0
aF0.00046418586862273514
aF0.0005066386405587764
ag147
ag147
aF0.030378424223272305
aF0.023075388369306893
aF0.041445762743023806
aF0.0017660112476960421
aF0.009667934005733514
aF0.0011914867924360806
aF0.022976864049155665
aF0.0006090707832981934
aF0.0006443608566542025
aF0.0007230187059121818
aF0.0
aF0.00046418586862273514
aF0.000447549558089122
ag147
ag147
aF0.03035781941798632
aF0.023223448918315626
aF0.04303133039957174
aF0.001429904779683966
aF0.00966274349559626
aF0.0011916979574380093
aF0.02178442765955424
aF0.000604239401468476
aF0.0006432754765910431
aF0.0007250599695680648
aF0.0
aF0.00046418586862273514
aF0.00044504207664886053
ag147
ag147
aF0.03035781941798632
aF0.023223448918315626
aF0.04303133039957174
aF0.001429904779683966
aF0.00966274349559626
aF0.0011916979574380093
aF0.02178442765955424
aF0.000604239401468476
aF0.0006432754765910431
aF0.0007250599695680648
aF0.0
aF0.00046418586862273514
aF0.00044504207664886053
ag147
ag147
atp217
ba(lp218
g15
(g16
(dp219
g18
g19
(g20
(I0
tp220
g22
tp221
Rp222
(I1
(I1
tp223
g29
I00
(lp224
g43
atp225
bsg68
Nstp226
Rp227
ag15
(g16
(dp228
g18
g19
(g20
(I0
tp229
g22
tp230
Rp231
(I1
(I33
tp232
g29
I00
(lp233
g33
ag34
ag35
ag36
ag37
ag38
ag39
ag40
ag41
ag42
ag44
ag45
ag46
ag47
ag48
ag49
ag50
ag51
ag52
ag53
ag54
ag55
ag56
ag57
ag58
ag59
ag60
ag61
ag62
ag63
ag64
ag65
ag66
atp234
bsg68
Nstp235
Rp236
a(dp237
S'0.14.1'
p238
(dp239
S'axes'
p240
g14
sS'blocks'
p241
(lp242
(dp243
S'mgr_locs'
p244
c__builtin__
slice
p245
(I10
I11
I1
tp246
Rp247
sS'values'
p248
g89
sa(dp249
g244
g19
(g20
(I0
tp250
g22
tp251
Rp252
(I1
(I33
tp253
g79
I00
S'\x00\x00\x00\x00\x00\x00\x00\x00\x01\x00\x00\x00\x00\x00\x00\x00\x02\x00\x00\x00\x00\x00\x00\x00\x03\x00\x00\x00\x00\x00\x00\x00\x04\x00\x00\x00\x00\x00\x00\x00\x05\x00\x00\x00\x00\x00\x00\x00\x06\x00\x00\x00\x00\x00\x00\x00\x07\x00\x00\x00\x00\x00\x00\x00\x08\x00\x00\x00\x00\x00\x00\x00\t\x00\x00\x00\x00\x00\x00\x00\x0b\x00\x00\x00\x00\x00\x00\x00\x0c\x00\x00\x00\x00\x00\x00\x00\r\x00\x00\x00\x00\x00\x00\x00\x0e\x00\x00\x00\x00\x00\x00\x00\x0f\x00\x00\x00\x00\x00\x00\x00\x10\x00\x00\x00\x00\x00\x00\x00\x11\x00\x00\x00\x00\x00\x00\x00\x12\x00\x00\x00\x00\x00\x00\x00\x13\x00\x00\x00\x00\x00\x00\x00\x14\x00\x00\x00\x00\x00\x00\x00\x15\x00\x00\x00\x00\x00\x00\x00\x16\x00\x00\x00\x00\x00\x00\x00\x17\x00\x00\x00\x00\x00\x00\x00\x18\x00\x00\x00\x00\x00\x00\x00\x19\x00\x00\x00\x00\x00\x00\x00\x1a\x00\x00\x00\x00\x00\x00\x00\x1b\x00\x00\x00\x00\x00\x00\x00\x1c\x00\x00\x00\x00\x00\x00\x00\x1d\x00\x00\x00\x00\x00\x00\x00\x1e\x00\x00\x00\x00\x00\x00\x00\x1f\x00\x00\x00\x00\x00\x00\x00 \x00\x00\x00\x00\x00\x00\x00!\x00\x00\x00\x00\x00\x00\x00'
p254
tp255
bsg248
g100
sasstp256
bsb.