ccopy_reg
_reconstructor
p0
(cpandas.core.frame
DataFrame
p1
c__builtin__
object
p2
Ntp3
Rp4
(dp5
S'_metadata'
p6
(lp7
sS'_typ'
p8
S'dataframe'
p9
sS'_data'
p10
g0
(cpandas.core.internals
BlockManager
p11
g2
Ntp12
Rp13
((lp14
cpandas.core.indexes.base
_new_Index
p15
(cpandas.core.indexes.base
Index
p16
(dp17
S'data'
p18
cnumpy.core.multiarray
_reconstruct
p19
(cnumpy
ndarray
p20
(I0
tp21
S'b'
p22
tp23
Rp24
(I1
(I32
tp25
cnumpy
dtype
p26
(S'O8'
p27
I0
I1
tp28
Rp29
(I3
S'|'
p30
NNNI-1
I-1
I63
tp31
bI00
(lp32
S'year'
p33
aS'type'
p34
aS'procOriginal'
p35
aS'proc'
p36
aS'proc_s0'
p37
aS'cat'
p38
aS'inputWSFile'
p39
aS'nominalDataName'
p40
aS'modelWSFile'
p41
aS'model'
p42
aS'rate'
p43
aS'nominal_yield'
p44
aS'sumw2'
p45
aS'nominal_yield_COWCorr'
p46
aS'LooseMvaSF_up_yield'
p47
aS'LooseMvaSF_down_yield'
p48
aS'PreselSF_up_yield'
p49
aS'PreselSF_down_yield'
p50
aS'electronVetoSF_up_yield'
p51
aS'electronVetoSF_down_yield'
p52
aS'TriggerWeight_up_yield'
p53
aS'TriggerWeight_down_yield'
p54
aS'SigmaEOverEShift_up_yield'
p55
aS'SigmaEOverEShift_down_yield'
p56
aS'MvaShift_up_yield'
p57
aS'MvaShift_down_yield'
p58
aS'PUJIDShift_up_yield'
p59
aS'PUJIDShift_down_yield'
p60
aS'JEC_up_yield'
p61
aS'JEC_down_yield'
p62
aS'JER_up_yield'
p63
aS'JER_down_yield'
p64
atp65
bsS'name'
p66
Nstp67
Rp68
ag15
(cpandas.core.indexes.numeric
Int64Index
p69
(dp70
g18
g19
(g20
(I0
tp71
g22
tp72
Rp73
(I1
(I15
tp74
g26
(S'i8'
p75
I0
I1
tp76
Rp77
(I3
S'<'
p78
NNNI-1
I-1
I0
tp79
bI00
S'\x00\x00\x00\x00\x00\x00\x00\x00\x01\x00\x00\x00\x00\x00\x00\x00\x02\x00\x00\x00\x00\x00\x00\x00\x03\x00\x00\x00\x00\x00\x00\x00\x04\x00\x00\x00\x00\x00\x00\x00\x05\x00\x00\x00\x00\x00\x00\x00\x06\x00\x00\x00\x00\x00\x00\x00\x07\x00\x00\x00\x00\x00\x00\x00\x08\x00\x00\x00\x00\x00\x00\x00\t\x00\x00\x00\x00\x00\x00\x00\n\x00\x00\x00\x00\x00\x00\x00\x0b\x00\x00\x00\x00\x00\x00\x00\x0c\x00\x00\x00\x00\x00\x00\x00\r\x00\x00\x00\x00\x00\x00\x00\x0e\x00\x00\x00\x00\x00\x00\x00'
p80
tp81
bsg66
Nstp82
Rp83
a(lp84
g19
(g20
(I0
tp85
g22
tp86
Rp87
(I1
(I1
I15
tp88
g26
(S'f8'
p89
I0
I1
tp90
Rp91
(I3
S'<'
p92
NNNI-1
I-1
I0
tp93
bI00
S'\x00\x00\x00\x00\x00\x10\xd3@\x00\x00\x00\x00\x00\x10\xd3@\x00\x00\x00\x00\x00\x10\xd3@\x00\x00\x00\x00\x00\x10\xd3@\x00\x00\x00\x00\x00\x10\xd3@\x00\x00\x00\x00\x00\x10\xd3@\x00\x00\x00\x00\x00\x10\xd3@\x00\x00\x00\x00\x00\x10\xd3@\x00\x00\x00\x00\x00\x10\xd3@\x00\x00\x00\x00\x00\x10\xd3@\x00\x00\x00\x00\x00\x10\xd3@\x00\x00\x00\x00\x00\x10\xd3@\x00\x00\x00\x00\x00\x10\xd3@\x00\x00\x00\x00\x00\x00\xf0?\x00\x00\x00\x00\x00\x00\xf0\xbf'
p94
tp95
bag19
(g20
(I0
tp96
g22
tp97
Rp98
(I1
(I31
I15
tp99
g29
I00
(lp100
S'2016preVFP'
p101
ag101
ag101
ag101
ag101
ag101
ag101
ag101
ag101
ag101
ag101
ag101
ag101
ag33
ag33
aS'sig'
p102
ag102
ag102
ag102
ag102
ag102
ag102
ag102
ag102
ag102
ag102
ag102
ag102
aS'bkg'
p103
ag18
aS'GG2HMf05ph0'
p104
aS'GG2HbsmM'
p105
aS'GG2Hsm'
p106
aS'TTHsm'
p107
aS'VBFMf05ph0'
p108
aS'VBFbsmM'
p109
aS'VBFsm'
p110
aS'WHMf05ph0'
p111
aS'WHbsmM'
p112
aS'WHsm'
p113
aS'ZHMf05ph0'
p114
aS'ZHbsmM'
p115
aS'ZHsm'
p116
aS'bkg_mass'
p117
aS'data_obs'
p118
aS'GG2HMf05ph0_2016preVFP_hgg'
p119
aS'GG2HbsmM_2016preVFP_hgg'
p120
aS'GG2Hsm_2016preVFP_hgg'
p121
aS'tth0P_2016preVFP_hgg'
p122
aS'vbf0Mf05ph0_2016preVFP_hgg'
p123
aS'vbf0M_2016preVFP_hgg'
p124
aS'vbf0P_2016preVFP_hgg'
p125
aS'wh0Mf05ph0_2016preVFP_hgg'
p126
aS'wh0M_2016preVFP_hgg'
p127
aS'wh0P_2016preVFP_hgg'
p128
aS'zh0Mf05ph0_2016preVFP_hgg'
p129
aS'zh0M_2016preVFP_hgg'
p130
aS'zh0P_2016preVFP_hgg'
p131
ag117
ag118
aS'jjh0Mf05ph0'
p132
aS'jjh0M'
p133
aS'jjh0P'
p134
aS'tth0P'
p135
aS'vbf0Mf05ph0'
p136
aS'vbf0M'
p137
aS'vbf0P'
p138
aS'wh0Mf05ph0'
p139
aS'wh0M'
p140
aS'wh0P'
p141
aS'zh0Mf05ph0'
p142
aS'zh0M'
p143
aS'zh0P'
p144
aS'-'
p145
ag145
aS'AC_Bin18_2016preVFP'
p146
aS'AC_Bin18_2016preVFP'
p147
aS'AC_Bin18_2016preVFP'
p148
aS'AC_Bin18_2016preVFP'
p149
aS'AC_Bin18_2016preVFP'
p150
aS'AC_Bin18_2016preVFP'
p151
aS'AC_Bin18_2016preVFP'
p152
aS'AC_Bin18_2016preVFP'
p153
aS'AC_Bin18_2016preVFP'
p154
aS'AC_Bin18_2016preVFP'
p155
aS'AC_Bin18_2016preVFP'
p156
aS'AC_Bin18_2016preVFP'
p157
aS'AC_Bin18_2016preVFP'
p158
aS'AC_Bin18_2016preVFP'
p159
ag159
aS'Trees/Opt_2016preVFP/2016PreVFP/Trees2WS_2016preVFP/WS/output_GluGluHToGGPlusTwoJets_MM_M125_TuneCP5_13TeV-amcatnlopowheg-minlo-pythia8_GG2HMf05ph0.root'
p160
aS'Trees/Opt_2016preVFP/2016PreVFP/Trees2WS_2016preVFP/WS/output_GluGluHToGGPlusTwoJets_CPodd_M125_TuneCP5_13TeV-amcatnlopowheg-minlo-pythia8_GG2HbsmM.root'
p161
aS'Trees/Opt_2016preVFP/2016PreVFP/Trees2WS_2016preVFP/WS/output_GluGluHToGGPlusTwoJets_SM_M125_TuneCP5_13TeV-amcatnlopowheg-minlo-pythia8_GG2Hsm.root'
p162
aS'Trees/Opt_2016preVFP/2016PreVFP/Trees2WS_2016preVFP/WS/output_ttHJetToGG_M125_TuneCP5_13TeV-amcatnloFXFX-madspin-pythia8_TTHsm.root'
p163
aS'Trees/Opt_2016preVFP/2016PreVFP/Trees2WS_2016preVFP/WS/output_VBFHiggs0Mf05ph0ToGG_M125_TuneCP5_13TeV-JHUGenV7011-pythia8_VBFMf05ph0.root'
p164
aS'Trees/Opt_2016preVFP/2016PreVFP/Trees2WS_2016preVFP/WS/output_VBFHiggs0MToGG_M125_TuneCP5_13TeV-JHUGenV7011-pythia8_VBFbsmM.root'
p165
aS'Trees/Opt_2016preVFP/2016PreVFP/Trees2WS_2016preVFP/WS/output_VBFHToGG_M125_TuneCP5_13TeV-amcatnlo-pythia8_VBFsm.root'
p166
aS'Trees/Opt_2016preVFP/2016PreVFP/Trees2WS_2016preVFP/WS/output_WHiggs0Mf05ph0ToGG_M125_TuneCP5_13TeV-JHUGenV7011-pythia8_WHMf05ph0.root'
p167
aS'Trees/Opt_2016preVFP/2016PreVFP/Trees2WS_2016preVFP/WS/output_WHiggs0MToGG_M125_TuneCP5_13TeV-JHUGenV7011-pythia8_WHbsmM.root'
p168
aS'Trees/Opt_2016preVFP/2016PreVFP/Trees2WS_2016preVFP/WS/output_WHiggs0PMToGG_M125_TuneCP5_13TeV-JHUGenV7011-pythia8_WHsm.root'
p169
aS'Trees/Opt_2016preVFP/2016PreVFP/Trees2WS_2016preVFP/WS/output_ZHiggs0Mf05ph0ToGG_M125_TuneCP5_13TeV-JHUGenV7011-pythia8_ZHMf05ph0.root'
p170
aS'Trees/Opt_2016preVFP/2016PreVFP/Trees2WS_2016preVFP/WS/output_ZHiggs0MToGG_M125_TuneCP5_13TeV-JHUGenV7011-pythia8_ZHbsmM.root'
p171
aS'Trees/Opt_2016preVFP/2016PreVFP/Trees2WS_2016preVFP/WS/output_ZH_HToGG_ZToAll_M125_TuneCP5_13TeV-powheg-pythia8_ZHsm.root'
p172
ag145
ag145
aS'jjh0Mf05ph0_125_13TeV_AC_Bin18'
p173
aS'jjh0M_125_13TeV_AC_Bin18'
p174
aS'jjh0P_125_13TeV_AC_Bin18'
p175
aS'tth0P_125_13TeV_AC_Bin18'
p176
aS'vbf0Mf05ph0_125_13TeV_AC_Bin18'
p177
aS'vbf0M_125_13TeV_AC_Bin18'
p178
aS'vbf0P_125_13TeV_AC_Bin18'
p179
aS'wh0Mf05ph0_125_13TeV_AC_Bin18'
p180
aS'wh0M_125_13TeV_AC_Bin18'
p181
aS'wh0P_125_13TeV_AC_Bin18'
p182
aS'zh0Mf05ph0_125_13TeV_AC_Bin18'
p183
aS'zh0M_125_13TeV_AC_Bin18'
p184
aS'zh0P_125_13TeV_AC_Bin18'
p185
ag145
ag145
aS'./Models/signal/CMS-HGG_sigfit_packaged_AC_Bin18_2016preVFP.root'
p186
aS'./Models/signal/CMS-HGG_sigfit_packaged_AC_Bin18_2016preVFP.root'
p187
aS'./Models/signal/CMS-HGG_sigfit_packaged_AC_Bin18_2016preVFP.root'
p188
aS'./Models/signal/CMS-HGG_sigfit_packaged_AC_Bin18_2016preVFP.root'
p189
aS'./Models/signal/CMS-HGG_sigfit_packaged_AC_Bin18_2016preVFP.root'
p190
aS'./Models/signal/CMS-HGG_sigfit_packaged_AC_Bin18_2016preVFP.root'
p191
aS'./Models/signal/CMS-HGG_sigfit_packaged_AC_Bin18_2016preVFP.root'
p192
aS'./Models/signal/CMS-HGG_sigfit_packaged_AC_Bin18_2016preVFP.root'
p193
aS'./Models/signal/CMS-HGG_sigfit_packaged_AC_Bin18_2016preVFP.root'
p194
aS'./Models/signal/CMS-HGG_sigfit_packaged_AC_Bin18_2016preVFP.root'
p195
aS'./Models/signal/CMS-HGG_sigfit_packaged_AC_Bin18_2016preVFP.root'
p196
aS'./Models/signal/CMS-HGG_sigfit_packaged_AC_Bin18_2016preVFP.root'
p197
aS'./Models/signal/CMS-HGG_sigfit_packaged_AC_Bin18_2016preVFP.root'
p198
aS'./Models/background/CMS-HGG_multipdf_AC_Bin18_2016preVFP.root'
p199
ag199
aS'wsig_13TeV:hggpdfsmrel_GG2HMf05ph0_2016preVFP_AC_Bin18_13TeV'
p200
aS'wsig_13TeV:hggpdfsmrel_GG2HbsmM_2016preVFP_AC_Bin18_13TeV'
p201
aS'wsig_13TeV:hggpdfsmrel_GG2Hsm_2016preVFP_AC_Bin18_13TeV'
p202
aS'wsig_13TeV:hggpdfsmrel_TTHsm_2016preVFP_AC_Bin18_13TeV'
p203
aS'wsig_13TeV:hggpdfsmrel_VBFMf05ph0_2016preVFP_AC_Bin18_13TeV'
p204
aS'wsig_13TeV:hggpdfsmrel_VBFbsmM_2016preVFP_AC_Bin18_13TeV'
p205
aS'wsig_13TeV:hggpdfsmrel_VBFsm_2016preVFP_AC_Bin18_13TeV'
p206
aS'wsig_13TeV:hggpdfsmrel_WHMf05ph0_2016preVFP_AC_Bin18_13TeV'
p207
aS'wsig_13TeV:hggpdfsmrel_WHbsmM_2016preVFP_AC_Bin18_13TeV'
p208
aS'wsig_13TeV:hggpdfsmrel_WHsm_2016preVFP_AC_Bin18_13TeV'
p209
aS'wsig_13TeV:hggpdfsmrel_ZHMf05ph0_2016preVFP_AC_Bin18_13TeV'
p210
aS'wsig_13TeV:hggpdfsmrel_ZHbsmM_2016preVFP_AC_Bin18_13TeV'
p211
aS'wsig_13TeV:hggpdfsmrel_ZHsm_2016preVFP_AC_Bin18_13TeV'
p212
aS'multipdf:CMS_hgg_AC_Bin18_2016preVFP_13TeV_bkgshape'
p213
aS'multipdf:roohist_data_mass_AC_Bin18'
p214
aF0.0422662479313658
aF0.029575774281170197
aF0.04035124310098581
aF0.0010843252447330087
aF0.004127532226107178
aF0.0008764417610791497
aF0.012045757969076476
aF0.0008673840591200133
aF0.000631781334959669
aF0.001202127919555096
aF0.0008500457824993646
aF0.00036011956035508774
aF0.0015313668645831058
ag145
ag145
aF1.9359933410774538e-05
aF2.509805116749648e-06
aF9.349920283713125e-06
aF4.974025426915093e-08
aF1.4869229489847921e-07
aF7.257147135685229e-08
aF3.34070815377351e-06
aF1.268328800231303e-08
aF3.1440724973382246e-08
aF3.1254468794324866e-08
aF1.385119331983658e-07
aF7.548286317419614e-08
aF1.670812516154734e-07
ag145
ag145
aF0.04354688210894167
aF0.030338670056929997
aF0.041179421375393634
aF0.0011199527156508554
aF0.004251944887548839
aF0.0009045528594439502
aF0.012401260692578278
aF0.0008955676969381734
aF0.0006518455681431286
aF0.0012479325820430114
aF0.0008678617740236107
aF0.00036999936170516564
aF0.0016454891643007115
ag145
ag145
aF0.04253501605393317
aF0.029762858931262515
aF0.040609294423652
aF0.0010914280755317614
aF0.0041536573392516474
aF0.0008821401016777205
aF0.012119713447278104
aF0.0008728505980818638
aF0.0006358378797254017
aF0.0012097789080568844
aF0.0008554884303291388
aF0.0003625233606916143
aF0.0015407618217462263
ag145
ag145
aF0.04199833086037206
aF0.029389279867410613
aF0.040094015732762785
aF0.0010772456353192658
aF0.004101489678971353
aF0.0008707619215759931
aF0.011972030130168955
aF0.0008619346920714403
aF0.0006277377517831292
aF0.0011945012223502625
aF0.0008446206031959304
aF0.0003577237454400397
aF0.0015220005162071874
ag145
ag145
aF0.04316763396706218
aF0.030153151564537753
aF0.041095984407430196
aF0.001101710084136614
aF0.004209878372331902
aF0.0008920146189105881
aF0.012341011752111447
aF0.0008833593147345727
aF0.0006437004408519621
aF0.0012267152048924047
aF0.0008607403118413286
aF0.00036594617553946363
aF0.0015734110153803544
ag145
ag145
aF0.04137278776162663
aF0.029004414504017507
aF0.03961377167908789
aF0.0010670843206959007
aF0.00404593951027139
aF0.0008610061383991898
aF0.011753671013857934
aF0.0008515555067328961
aF0.0006199577920353989
aF0.0011778279467488913
aF0.0008394168537986829
aF0.00035433608979322257
aF0.0014897421307523166
ag145
ag145
aF0.04235371854202439
aF0.02964124236039336
aF0.040435098184856764
aF0.0010859888675615558
aF0.004136954825232056
aF0.0008780520982456386
aF0.01207866995626094
aF0.0008698895248416364
aF0.0006329242068526162
aF0.0012058252271441182
aF0.0008516430953607527
aF0.00036057233302254647
aF0.0015357051007072141
ag145
ag145
aF0.042178860805469495
aF0.029510374425836813
aF0.040267475018152296
aF0.0010826626768234095
aF0.004118119943513946
aF0.0008748329879668958
aF0.012012892031985838
aF0.0008648821837902873
aF0.0006306394624609836
aF0.001198434984173093
aF0.0008484503008957803
aF0.0003596670204957001
aF0.0015270332850071142
ag145
ag145
aF0.04236982055492812
aF0.02964455714342201
aF0.040437438536088104
aF0.0010866573427359809
aF0.004136486129880737
aF0.0008784293949541738
aF0.01207328861472143
aF0.0008696484859188321
aF0.0006331580354987534
aF0.001205306954602426
aF0.000851873224634208
aF0.00036085465105441635
aF0.0015454050143649388
ag145
ag145
aF0.042162800135011204
aF0.02950707528680163
aF0.040265146377866656
aF0.0010819956736733576
aF0.004118588080879389
aF0.0008744564022833502
aF0.012018259075311923
aF0.0008651224457807923
aF0.0006304061381443356
aF0.001198952995468226
aF0.0008482203397192639
aF0.00035938523702438475
aF0.0015173537410671954
ag145
ag145
aF0.04389048547204766
aF0.030546030465416152
aF0.04167195125114631
aF0.0010823349291513296
aF0.004175054154984537
aF0.0009732471655752306
aF0.008311018383551527
aF0.0009116152853039239
aF0.0006780644348509668
aF0.001324040410509042
aF0.0009453196016693255
aF0.00036011956035508774
aF0.0015530502089404763
ag145
ag145
aF0.0387136302442741
aF0.028426583825762464
aF0.03946890507495482
aF0.0010490566040743943
aF0.004046440578918009
aF0.0008359528030723595
aF0.007853750316485275
aF0.0008327733012265526
aF0.0005802301166113466
aF0.001207748739489034
aF0.0008500457824993646
aF0.00036011956035508774
aF0.0014876149912197434
ag145
ag145
aF0.04154620983786117
aF0.028875816254981146
aF0.039920879301462264
aF0.001103630201669148
aF0.004059896022226894
aF0.0009852966878725056
aF0.009792580168550558
aF0.0008816287892727814
aF0.0005207636609156907
aF0.0011372389958523854
aF0.0008500457824993646
aF0.0003235451331420336
aF0.0014985895854806586
ag145
ag145
aF0.0406524876881349
aF0.02956480131740591
aF0.040246566102950965
aF0.0010552731304187546
aF0.004049611010032095
aF0.000863736878045529
aF0.007861259527203401
aF0.0009324340456942082
aF0.0005861292629560921
aF0.0011664615751669771
aF0.001005250576781691
aF9.393327854922973e-05
aF0.0017025385041051777
ag145
ag145
aF0.042876646600461754
aF0.029931636266724126
aF0.040953109476049576
aF0.0010836952852741888
aF0.0043218611020847675
aF0.0008802426790452955
aF0.016701148567335622
aF0.0008673840591200133
aF0.000641595355773461
aF0.0012183705038069093
aF0.0008500457824993646
aF0.00036011956035508774
aF0.0015225550546347222
ag145
ag145
aF0.040916126656611596
aF0.028869394343814747
aF0.03972784168263388
aF0.0010828267942315506
aF0.004101710547388393
aF0.0008281832050442972
aF0.008076500815036525
aF0.0008556319214676478
aF0.0006234994580154307
aF0.0011916072809299294
aF0.0006403266361303395
aF0.00036011956035508774
aF0.0014816857528785476
ag145
ag145
aF0.045408873012092954
aF0.03156927040129176
aF0.04267081158218389
aF0.0011229777206835934
aF0.005594360880309068
aF0.0008764825294065304
aF0.008279783648958983
aF0.0009475954439039924
aF0.0006682153127712809
aF0.0012630912721078857
aF0.0008500457824993646
aF0.00036011956035508774
aF0.0015728850710274855
ag145
ag145
aF0.0397554771744808
aF0.027215355931616614
aF0.035993069115193066
aF0.0011322668133288971
aF0.0037381009848331814
aF0.0008300203140834128
aF0.008032184844182666
aF0.0007414838341901486
aF0.0005064656184003979
aF0.0011090096650150372
aF0.0006782984328310704
aF0.0003235451331420336
aF0.0015414544868690427
ag145
ag145
aF0.04265208961624012
aF0.02957692813936319
aF0.040482101779844015
aF0.0011422795291764487
aF0.0041167096107983525
aF0.0008881325721858957
aF0.007777341996074938
aF0.000868968842837603
aF0.0006285245633534942
aF0.0011849234098235684
aF0.0008500457824993646
aF0.00036011956035508774
aF0.001539536011250675
ag145
ag145
aF0.04174640979954347
aF0.029469172618405537
aF0.039644538063612345
aF0.0011807799016878562
aF0.0039988123235161765
aF0.0008503062977069931
aF0.008008216079701924
aF0.0008079887631993188
aF0.0006191663396748481
aF0.0011827007012925606
aF0.0008500457824993646
aF0.00036011956035508774
aF0.001712153927428517
ag145
ag145
atp215
ba(lp216
g15
(g16
(dp217
g18
g19
(g20
(I0
tp218
g22
tp219
Rp220
(I1
(I1
tp221
g29
I00
(lp222
g43
atp223
bsg66
Nstp224
Rp225
ag15
(g16
(dp226
g18
g19
(g20
(I0
tp227
g22
tp228
Rp229
(I1
(I31
tp230
g29
I00
(lp231
g33
ag34
ag35
ag36
ag37
ag38
ag39
ag40
ag41
ag42
ag44
ag45
ag46
ag47
ag48
ag49
ag50
ag51
ag52
ag53
ag54
ag55
ag56
ag57
ag58
ag59
ag60
ag61
ag62
ag63
ag64
atp232
bsg66
Nstp233
Rp234
a(dp235
S'0.14.1'
p236
(dp237
S'axes'
p238
g14
sS'blocks'
p239
(lp240
(dp241
S'mgr_locs'
p242
c__builtin__
slice
p243
(I10
I11
I1
tp244
Rp245
sS'values'
p246
g87
sa(dp247
g242
g19
(g20
(I0
tp248
g22
tp249
Rp250
(I1
(I31
tp251
g77
I00
S'\x00\x00\x00\x00\x00\x00\x00\x00\x01\x00\x00\x00\x00\x00\x00\x00\x02\x00\x00\x00\x00\x00\x00\x00\x03\x00\x00\x00\x00\x00\x00\x00\x04\x00\x00\x00\x00\x00\x00\x00\x05\x00\x00\x00\x00\x00\x00\x00\x06\x00\x00\x00\x00\x00\x00\x00\x07\x00\x00\x00\x00\x00\x00\x00\x08\x00\x00\x00\x00\x00\x00\x00\t\x00\x00\x00\x00\x00\x00\x00\x0b\x00\x00\x00\x00\x00\x00\x00\x0c\x00\x00\x00\x00\x00\x00\x00\r\x00\x00\x00\x00\x00\x00\x00\x0e\x00\x00\x00\x00\x00\x00\x00\x0f\x00\x00\x00\x00\x00\x00\x00\x10\x00\x00\x00\x00\x00\x00\x00\x11\x00\x00\x00\x00\x00\x00\x00\x12\x00\x00\x00\x00\x00\x00\x00\x13\x00\x00\x00\x00\x00\x00\x00\x14\x00\x00\x00\x00\x00\x00\x00\x15\x00\x00\x00\x00\x00\x00\x00\x16\x00\x00\x00\x00\x00\x00\x00\x17\x00\x00\x00\x00\x00\x00\x00\x18\x00\x00\x00\x00\x00\x00\x00\x19\x00\x00\x00\x00\x00\x00\x00\x1a\x00\x00\x00\x00\x00\x00\x00\x1b\x00\x00\x00\x00\x00\x00\x00\x1c\x00\x00\x00\x00\x00\x00\x00\x1d\x00\x00\x00\x00\x00\x00\x00\x1e\x00\x00\x00\x00\x00\x00\x00\x1f\x00\x00\x00\x00\x00\x00\x00'
p252
tp253
bsg246
g98
sasstp254
bsb.