ccopy_reg
_reconstructor
p0
(cpandas.core.frame
DataFrame
p1
c__builtin__
object
p2
Ntp3
Rp4
(dp5
S'_metadata'
p6
(lp7
sS'_typ'
p8
S'dataframe'
p9
sS'_data'
p10
g0
(cpandas.core.internals
BlockManager
p11
g2
Ntp12
Rp13
((lp14
cpandas.core.indexes.base
_new_Index
p15
(cpandas.core.indexes.base
Index
p16
(dp17
S'data'
p18
cnumpy.core.multiarray
_reconstruct
p19
(cnumpy
ndarray
p20
(I0
tp21
S'b'
p22
tp23
Rp24
(I1
(I32
tp25
cnumpy
dtype
p26
(S'O8'
p27
I0
I1
tp28
Rp29
(I3
S'|'
p30
NNNI-1
I-1
I63
tp31
bI00
(lp32
S'year'
p33
aS'type'
p34
aS'procOriginal'
p35
aS'proc'
p36
aS'proc_s0'
p37
aS'cat'
p38
aS'inputWSFile'
p39
aS'nominalDataName'
p40
aS'modelWSFile'
p41
aS'model'
p42
aS'rate'
p43
aS'nominal_yield'
p44
aS'sumw2'
p45
aS'nominal_yield_COWCorr'
p46
aS'LooseMvaSF_up_yield'
p47
aS'LooseMvaSF_down_yield'
p48
aS'PreselSF_up_yield'
p49
aS'PreselSF_down_yield'
p50
aS'electronVetoSF_up_yield'
p51
aS'electronVetoSF_down_yield'
p52
aS'TriggerWeight_up_yield'
p53
aS'TriggerWeight_down_yield'
p54
aS'SigmaEOverEShift_up_yield'
p55
aS'SigmaEOverEShift_down_yield'
p56
aS'MvaShift_up_yield'
p57
aS'MvaShift_down_yield'
p58
aS'PUJIDShift_up_yield'
p59
aS'PUJIDShift_down_yield'
p60
aS'JEC_up_yield'
p61
aS'JEC_down_yield'
p62
aS'JER_up_yield'
p63
aS'JER_down_yield'
p64
atp65
bsS'name'
p66
Nstp67
Rp68
ag15
(cpandas.core.indexes.numeric
Int64Index
p69
(dp70
g18
g19
(g20
(I0
tp71
g22
tp72
Rp73
(I1
(I15
tp74
g26
(S'i8'
p75
I0
I1
tp76
Rp77
(I3
S'<'
p78
NNNI-1
I-1
I0
tp79
bI00
S'\x00\x00\x00\x00\x00\x00\x00\x00\x01\x00\x00\x00\x00\x00\x00\x00\x02\x00\x00\x00\x00\x00\x00\x00\x03\x00\x00\x00\x00\x00\x00\x00\x04\x00\x00\x00\x00\x00\x00\x00\x05\x00\x00\x00\x00\x00\x00\x00\x06\x00\x00\x00\x00\x00\x00\x00\x07\x00\x00\x00\x00\x00\x00\x00\x08\x00\x00\x00\x00\x00\x00\x00\t\x00\x00\x00\x00\x00\x00\x00\n\x00\x00\x00\x00\x00\x00\x00\x0b\x00\x00\x00\x00\x00\x00\x00\x0c\x00\x00\x00\x00\x00\x00\x00\r\x00\x00\x00\x00\x00\x00\x00\x0e\x00\x00\x00\x00\x00\x00\x00'
p80
tp81
bsg66
Nstp82
Rp83
a(lp84
g19
(g20
(I0
tp85
g22
tp86
Rp87
(I1
(I1
I15
tp88
g26
(S'f8'
p89
I0
I1
tp90
Rp91
(I3
S'<'
p92
NNNI-1
I-1
I0
tp93
bI00
S'\x00\x00\x00\x00\x00\x10\xd3@\x00\x00\x00\x00\x00\x10\xd3@\x00\x00\x00\x00\x00\x10\xd3@\x00\x00\x00\x00\x00\x10\xd3@\x00\x00\x00\x00\x00\x10\xd3@\x00\x00\x00\x00\x00\x10\xd3@\x00\x00\x00\x00\x00\x10\xd3@\x00\x00\x00\x00\x00\x10\xd3@\x00\x00\x00\x00\x00\x10\xd3@\x00\x00\x00\x00\x00\x10\xd3@\x00\x00\x00\x00\x00\x10\xd3@\x00\x00\x00\x00\x00\x10\xd3@\x00\x00\x00\x00\x00\x10\xd3@\x00\x00\x00\x00\x00\x00\xf0?\x00\x00\x00\x00\x00\x00\xf0\xbf'
p94
tp95
bag19
(g20
(I0
tp96
g22
tp97
Rp98
(I1
(I31
I15
tp99
g29
I00
(lp100
S'2016preVFP'
p101
ag101
ag101
ag101
ag101
ag101
ag101
ag101
ag101
ag101
ag101
ag101
ag101
ag33
ag33
aS'sig'
p102
ag102
ag102
ag102
ag102
ag102
ag102
ag102
ag102
ag102
ag102
ag102
ag102
aS'bkg'
p103
ag18
aS'GG2HMf05ph0'
p104
aS'GG2HbsmM'
p105
aS'GG2Hsm'
p106
aS'TTHsm'
p107
aS'VBFMf05ph0'
p108
aS'VBFbsmM'
p109
aS'VBFsm'
p110
aS'WHMf05ph0'
p111
aS'WHbsmM'
p112
aS'WHsm'
p113
aS'ZHMf05ph0'
p114
aS'ZHbsmM'
p115
aS'ZHsm'
p116
aS'bkg_mass'
p117
aS'data_obs'
p118
aS'GG2HMf05ph0_2016preVFP_hgg'
p119
aS'GG2HbsmM_2016preVFP_hgg'
p120
aS'GG2Hsm_2016preVFP_hgg'
p121
aS'tth0P_2016preVFP_hgg'
p122
aS'vbf0Mf05ph0_2016preVFP_hgg'
p123
aS'vbf0M_2016preVFP_hgg'
p124
aS'vbf0P_2016preVFP_hgg'
p125
aS'wh0Mf05ph0_2016preVFP_hgg'
p126
aS'wh0M_2016preVFP_hgg'
p127
aS'wh0P_2016preVFP_hgg'
p128
aS'zh0Mf05ph0_2016preVFP_hgg'
p129
aS'zh0M_2016preVFP_hgg'
p130
aS'zh0P_2016preVFP_hgg'
p131
ag117
ag118
aS'jjh0Mf05ph0'
p132
aS'jjh0M'
p133
aS'jjh0P'
p134
aS'tth0P'
p135
aS'vbf0Mf05ph0'
p136
aS'vbf0M'
p137
aS'vbf0P'
p138
aS'wh0Mf05ph0'
p139
aS'wh0M'
p140
aS'wh0P'
p141
aS'zh0Mf05ph0'
p142
aS'zh0M'
p143
aS'zh0P'
p144
aS'-'
p145
ag145
aS'AC_Bin12_2016preVFP'
p146
aS'AC_Bin12_2016preVFP'
p147
aS'AC_Bin12_2016preVFP'
p148
aS'AC_Bin12_2016preVFP'
p149
aS'AC_Bin12_2016preVFP'
p150
aS'AC_Bin12_2016preVFP'
p151
aS'AC_Bin12_2016preVFP'
p152
aS'AC_Bin12_2016preVFP'
p153
aS'AC_Bin12_2016preVFP'
p154
aS'AC_Bin12_2016preVFP'
p155
aS'AC_Bin12_2016preVFP'
p156
aS'AC_Bin12_2016preVFP'
p157
aS'AC_Bin12_2016preVFP'
p158
aS'AC_Bin12_2016preVFP'
p159
ag159
aS'Trees/Opt_2016preVFP/2016PreVFP/Trees2WS_2016preVFP/WS/output_GluGluHToGGPlusTwoJets_MM_M125_TuneCP5_13TeV-amcatnlopowheg-minlo-pythia8_GG2HMf05ph0.root'
p160
aS'Trees/Opt_2016preVFP/2016PreVFP/Trees2WS_2016preVFP/WS/output_GluGluHToGGPlusTwoJets_CPodd_M125_TuneCP5_13TeV-amcatnlopowheg-minlo-pythia8_GG2HbsmM.root'
p161
aS'Trees/Opt_2016preVFP/2016PreVFP/Trees2WS_2016preVFP/WS/output_GluGluHToGGPlusTwoJets_SM_M125_TuneCP5_13TeV-amcatnlopowheg-minlo-pythia8_GG2Hsm.root'
p162
aS'Trees/Opt_2016preVFP/2016PreVFP/Trees2WS_2016preVFP/WS/output_ttHJetToGG_M125_TuneCP5_13TeV-amcatnloFXFX-madspin-pythia8_TTHsm.root'
p163
aS'Trees/Opt_2016preVFP/2016PreVFP/Trees2WS_2016preVFP/WS/output_VBFHiggs0Mf05ph0ToGG_M125_TuneCP5_13TeV-JHUGenV7011-pythia8_VBFMf05ph0.root'
p164
aS'Trees/Opt_2016preVFP/2016PreVFP/Trees2WS_2016preVFP/WS/output_VBFHiggs0MToGG_M125_TuneCP5_13TeV-JHUGenV7011-pythia8_VBFbsmM.root'
p165
aS'Trees/Opt_2016preVFP/2016PreVFP/Trees2WS_2016preVFP/WS/output_VBFHToGG_M125_TuneCP5_13TeV-amcatnlo-pythia8_VBFsm.root'
p166
aS'Trees/Opt_2016preVFP/2016PreVFP/Trees2WS_2016preVFP/WS/output_WHiggs0Mf05ph0ToGG_M125_TuneCP5_13TeV-JHUGenV7011-pythia8_WHMf05ph0.root'
p167
aS'Trees/Opt_2016preVFP/2016PreVFP/Trees2WS_2016preVFP/WS/output_WHiggs0MToGG_M125_TuneCP5_13TeV-JHUGenV7011-pythia8_WHbsmM.root'
p168
aS'Trees/Opt_2016preVFP/2016PreVFP/Trees2WS_2016preVFP/WS/output_WHiggs0PMToGG_M125_TuneCP5_13TeV-JHUGenV7011-pythia8_WHsm.root'
p169
aS'Trees/Opt_2016preVFP/2016PreVFP/Trees2WS_2016preVFP/WS/output_ZHiggs0Mf05ph0ToGG_M125_TuneCP5_13TeV-JHUGenV7011-pythia8_ZHMf05ph0.root'
p170
aS'Trees/Opt_2016preVFP/2016PreVFP/Trees2WS_2016preVFP/WS/output_ZHiggs0MToGG_M125_TuneCP5_13TeV-JHUGenV7011-pythia8_ZHbsmM.root'
p171
aS'Trees/Opt_2016preVFP/2016PreVFP/Trees2WS_2016preVFP/WS/output_ZH_HToGG_ZToAll_M125_TuneCP5_13TeV-powheg-pythia8_ZHsm.root'
p172
ag145
ag145
aS'jjh0Mf05ph0_125_13TeV_AC_Bin12'
p173
aS'jjh0M_125_13TeV_AC_Bin12'
p174
aS'jjh0P_125_13TeV_AC_Bin12'
p175
aS'tth0P_125_13TeV_AC_Bin12'
p176
aS'vbf0Mf05ph0_125_13TeV_AC_Bin12'
p177
aS'vbf0M_125_13TeV_AC_Bin12'
p178
aS'vbf0P_125_13TeV_AC_Bin12'
p179
aS'wh0Mf05ph0_125_13TeV_AC_Bin12'
p180
aS'wh0M_125_13TeV_AC_Bin12'
p181
aS'wh0P_125_13TeV_AC_Bin12'
p182
aS'zh0Mf05ph0_125_13TeV_AC_Bin12'
p183
aS'zh0M_125_13TeV_AC_Bin12'
p184
aS'zh0P_125_13TeV_AC_Bin12'
p185
ag145
ag145
aS'./Models/signal/CMS-HGG_sigfit_packaged_AC_Bin12_2016preVFP.root'
p186
aS'./Models/signal/CMS-HGG_sigfit_packaged_AC_Bin12_2016preVFP.root'
p187
aS'./Models/signal/CMS-HGG_sigfit_packaged_AC_Bin12_2016preVFP.root'
p188
aS'./Models/signal/CMS-HGG_sigfit_packaged_AC_Bin12_2016preVFP.root'
p189
aS'./Models/signal/CMS-HGG_sigfit_packaged_AC_Bin12_2016preVFP.root'
p190
aS'./Models/signal/CMS-HGG_sigfit_packaged_AC_Bin12_2016preVFP.root'
p191
aS'./Models/signal/CMS-HGG_sigfit_packaged_AC_Bin12_2016preVFP.root'
p192
aS'./Models/signal/CMS-HGG_sigfit_packaged_AC_Bin12_2016preVFP.root'
p193
aS'./Models/signal/CMS-HGG_sigfit_packaged_AC_Bin12_2016preVFP.root'
p194
aS'./Models/signal/CMS-HGG_sigfit_packaged_AC_Bin12_2016preVFP.root'
p195
aS'./Models/signal/CMS-HGG_sigfit_packaged_AC_Bin12_2016preVFP.root'
p196
aS'./Models/signal/CMS-HGG_sigfit_packaged_AC_Bin12_2016preVFP.root'
p197
aS'./Models/signal/CMS-HGG_sigfit_packaged_AC_Bin12_2016preVFP.root'
p198
aS'./Models/background/CMS-HGG_multipdf_AC_Bin12_2016preVFP.root'
p199
ag199
aS'wsig_13TeV:hggpdfsmrel_GG2HMf05ph0_2016preVFP_AC_Bin12_13TeV'
p200
aS'wsig_13TeV:hggpdfsmrel_GG2HbsmM_2016preVFP_AC_Bin12_13TeV'
p201
aS'wsig_13TeV:hggpdfsmrel_GG2Hsm_2016preVFP_AC_Bin12_13TeV'
p202
aS'wsig_13TeV:hggpdfsmrel_TTHsm_2016preVFP_AC_Bin12_13TeV'
p203
aS'wsig_13TeV:hggpdfsmrel_VBFMf05ph0_2016preVFP_AC_Bin12_13TeV'
p204
aS'wsig_13TeV:hggpdfsmrel_VBFbsmM_2016preVFP_AC_Bin12_13TeV'
p205
aS'wsig_13TeV:hggpdfsmrel_VBFsm_2016preVFP_AC_Bin12_13TeV'
p206
aS'wsig_13TeV:hggpdfsmrel_WHMf05ph0_2016preVFP_AC_Bin12_13TeV'
p207
aS'wsig_13TeV:hggpdfsmrel_WHbsmM_2016preVFP_AC_Bin12_13TeV'
p208
aS'wsig_13TeV:hggpdfsmrel_WHsm_2016preVFP_AC_Bin12_13TeV'
p209
aS'wsig_13TeV:hggpdfsmrel_ZHMf05ph0_2016preVFP_AC_Bin12_13TeV'
p210
aS'wsig_13TeV:hggpdfsmrel_ZHbsmM_2016preVFP_AC_Bin12_13TeV'
p211
aS'wsig_13TeV:hggpdfsmrel_ZHsm_2016preVFP_AC_Bin12_13TeV'
p212
aS'multipdf:CMS_hgg_AC_Bin12_2016preVFP_13TeV_bkgshape'
p213
aS'multipdf:roohist_data_mass_AC_Bin12'
p214
aF0.4924267939297806
aF0.5481744882763451
aF0.5272151355709411
aF0.05497082957492694
aF0.16420859360005124
aF0.18775839988097687
aF0.08794949401249141
aF0.08558012266098558
aF0.13808355866638067
aF0.05224741212543904
aF0.07722041843589977
aF0.0995088057097746
aF0.04104732784458065
ag145
ag145
aF0.0002716936710763021
aF0.0004365855646549187
aF0.00015278561157265678
aF4.4812030099439465e-05
aF7.386174415437047e-05
aF1.6422515272906465e-05
aF0.00013121860163316956
aF1.0543113909996206e-05
aF1.950032764406387e-05
aF3.45199829367858e-05
aF0.0001090934832115076
aF0.0001422696575013322
aF1.26283789815211e-05
ag145
ag145
aF0.5037367685860168
aF0.5600916857300022
aF0.5386833612979879
aF0.05624157649952558
aF0.1676555151853174
aF0.19177839161273483
aF0.08990294147445128
aF0.08736222890367937
aF0.14102093727286588
aF0.05335105533662996
aF0.07889681615351549
aF0.10155459306993823
aF0.04193042468663081
ag145
ag145
aF0.49566607190484074
aF0.5517706335836335
aF0.5306780695775548
aF0.05533427094911405
aF0.1652959178466705
aF0.18899500433933347
aF0.0885285343913671
aF0.08614083790176723
aF0.13898715618714266
aF0.052585036685480376
aF0.07773324334593715
aF0.10016561029700961
aF0.041315856921119984
ag145
ag145
aF0.48919814341698503
aF0.5445901215270922
aF0.5237635553033377
aF0.05460858739223508
aF0.16312486358064401
aF0.18652586388227993
aF0.08737235539500698
aF0.08502124152883968
aF0.13718291212591355
aF0.051910875449832805
aF0.07670929331444805
aF0.09885416490332173
aF0.040779676423112025
ag145
ag145
aF0.4999952041355802
aF0.5563927867197376
aF0.5350876622375035
aF0.05583477131859487
aF0.1664600826829707
aF0.1904002762351529
aF0.08922092677929964
aF0.08683080526226528
aF0.14013333974374517
aF0.05315561236252184
aF0.0782815549222951
aF0.10096196053773111
aF0.041688452512522685
ag145
ag145
aF0.48491402104660375
aF0.5400165686840832
aF0.5193993826584222
aF0.054113484484582294
aF0.16197234747771447
aF0.1851356598784254
aF0.0866874700259625
aF0.08433817606965942
aF0.1360484621074224
aF0.05134643416501531
aF0.07616630341892008
aF0.09806569146290743
aF0.04041186822002067
ag145
ag145
aF0.49320600024661176
aF0.5490681839144304
aF0.5280588354669703
aF0.055053208073494
aF0.164454061153845
aF0.188056874537805
aF0.08808714674707127
aF0.08572132120517732
aF0.13831948333261104
aF0.052351513452842
aF0.0773371023205016
aF0.09966509183869227
aF0.0411159522834384
ag145
ag145
aF0.4916482168662427
aF0.5472815767855516
aF0.5263721578823809
aF0.05488852053125302
aF0.16396331864246352
aF0.18746018753751267
aF0.0878119529785618
aF0.08543904861840762
aF0.1378478474542496
aF0.05214340533596229
aF0.07710382279363723
aF0.09935265127000983
aF0.0409787645535333
ag145
ag145
aF0.4934926117559426
aF0.5493347229760014
aF0.5283584349563478
aF0.05509020693151406
aF0.16455540410684452
aF0.18816840494978102
aF0.08814657072953572
aF0.08576302932407541
aF0.13838721836850446
aF0.052357688200158334
aF0.07739262332075972
aF0.09971249685654983
aF0.04113520325086713
ag145
ag145
aF0.49136213026315995
aF0.5470154856362731
aF0.5260730762162196
aF0.054851582512441946
aF0.16386215468598578
aF0.18734884638382085
aF0.08775263854221951
aF0.08539741311840819
aF0.13778023891035782
aF0.05213725376184991
aF0.07704840600638174
aF0.09930532684339978
aF0.040959546803985065
ag145
ag145
aF0.48551361018485295
aF0.5393006575243362
aF0.5149067100771845
aF0.0540847711869219
aF0.1627254205874351
aF0.18609165348266288
aF0.07898756144606978
aF0.08515439957534454
aF0.1370152845170196
aF0.051606218513143176
aF0.07531558540358674
aF0.09888121836411301
aF0.03997785943988674
ag145
ag145
aF0.499692072222615
aF0.5565665172612171
aF0.5369184700618916
aF0.055741969343898745
aF0.16565793292068065
aF0.18852103106462437
aF0.08787913641481282
aF0.08698451594932521
aF0.13894694474959124
aF0.0528149578628927
aF0.07785948760283645
aF0.10097804920951603
aF0.04147604235367908
ag145
ag145
aF0.5005636695880185
aF0.5573922240018874
aF0.5342434761819277
aF0.05503733108207598
aF0.16696920946071714
aF0.19176174523181544
aF0.08839998145776917
aF0.08650319344860691
aF0.13995533493289258
aF0.0529307060373867
aF0.07797923392718076
aF0.10092091031765449
aF0.041772166893224494
ag145
ag145
aF0.482945332448935
aF0.5385811547755566
aF0.5150159395611809
aF0.05155153775490362
aF0.16132445669120443
aF0.18403854921052698
aF0.08487576724451174
aF0.08391189871747429
aF0.13674988572563507
aF0.05153057961410923
aF0.07533981223969022
aF0.09628323642391479
aF0.04039580062590176
ag145
ag145
aF0.49463748692278386
aF0.5506020385541888
aF0.5428077659153132
aF0.05494517828140033
aF0.16453471897705185
aF0.18806792599730215
aF0.08784423666111252
aF0.08584423193099155
aF0.1384981107260046
aF0.05238579183469483
aF0.07722844662384887
aF0.0996469287929358
aF0.04107079034770322
ag145
ag145
aF0.4906773088641785
aF0.5446330132167532
aF0.5239808890091808
aF0.05494886135249999
aF0.1639296571381692
aF0.1872651195689059
aF0.08547161666251668
aF0.08524747398053023
aF0.1371373148491557
aF0.05212993252087017
aF0.0767994411107793
aF0.09941042229911545
aF0.04101254887882533
ag145
ag145
aF0.49959151633925103
aF0.5535653683334658
aF0.534768277584817
aF0.054574196760427185
aF0.16350351349956327
aF0.18661148549881545
aF0.08818439152412338
aF0.08667062464076025
aF0.14037288790802904
aF0.047516311802723976
aF0.07894091625712463
aF0.10049699506271281
aF0.04135459270355568
ag145
ag145
aF0.4856899671146948
aF0.5361528547680336
aF0.5176906612045968
aF0.0555299950991639
aF0.16411967030842334
aF0.18753232934909647
aF0.084857855465998
aF0.08396764607959994
aF0.13568265541630353
aF0.0516217032223949
aF0.07631259868867346
aF0.09827152042271337
aF0.04077254382264073
ag145
ag145
aF0.4927344805496432
aF0.5470891480367754
aF0.5251118437072364
aF0.054849021818995425
aF0.1638658210099493
aF0.18776340889485255
aF0.08702083865523491
aF0.08510583214228973
aF0.1381656484531959
aF0.05246676938793371
aF0.07724934758334712
aF0.0990949928345799
aF0.04090064243996494
ag145
ag145
aF0.49272963215594245
aF0.5490646301871038
aF0.5274580167001659
aF0.05482386136588957
aF0.16400056696409138
aF0.1879816848079372
aF0.08731391421315493
aF0.08556496774292555
aF0.1379261388674422
aF0.04683040331144639
aF0.0776391557410534
aF0.09945984730074997
aF0.04114742343722355
ag145
ag145
atp215
ba(lp216
g15
(g16
(dp217
g18
g19
(g20
(I0
tp218
g22
tp219
Rp220
(I1
(I1
tp221
g29
I00
(lp222
g43
atp223
bsg66
Nstp224
Rp225
ag15
(g16
(dp226
g18
g19
(g20
(I0
tp227
g22
tp228
Rp229
(I1
(I31
tp230
g29
I00
(lp231
g33
ag34
ag35
ag36
ag37
ag38
ag39
ag40
ag41
ag42
ag44
ag45
ag46
ag47
ag48
ag49
ag50
ag51
ag52
ag53
ag54
ag55
ag56
ag57
ag58
ag59
ag60
ag61
ag62
ag63
ag64
atp232
bsg66
Nstp233
Rp234
a(dp235
S'0.14.1'
p236
(dp237
S'axes'
p238
g14
sS'blocks'
p239
(lp240
(dp241
S'mgr_locs'
p242
c__builtin__
slice
p243
(I10
I11
I1
tp244
Rp245
sS'values'
p246
g87
sa(dp247
g242
g19
(g20
(I0
tp248
g22
tp249
Rp250
(I1
(I31
tp251
g77
I00
S'\x00\x00\x00\x00\x00\x00\x00\x00\x01\x00\x00\x00\x00\x00\x00\x00\x02\x00\x00\x00\x00\x00\x00\x00\x03\x00\x00\x00\x00\x00\x00\x00\x04\x00\x00\x00\x00\x00\x00\x00\x05\x00\x00\x00\x00\x00\x00\x00\x06\x00\x00\x00\x00\x00\x00\x00\x07\x00\x00\x00\x00\x00\x00\x00\x08\x00\x00\x00\x00\x00\x00\x00\t\x00\x00\x00\x00\x00\x00\x00\x0b\x00\x00\x00\x00\x00\x00\x00\x0c\x00\x00\x00\x00\x00\x00\x00\r\x00\x00\x00\x00\x00\x00\x00\x0e\x00\x00\x00\x00\x00\x00\x00\x0f\x00\x00\x00\x00\x00\x00\x00\x10\x00\x00\x00\x00\x00\x00\x00\x11\x00\x00\x00\x00\x00\x00\x00\x12\x00\x00\x00\x00\x00\x00\x00\x13\x00\x00\x00\x00\x00\x00\x00\x14\x00\x00\x00\x00\x00\x00\x00\x15\x00\x00\x00\x00\x00\x00\x00\x16\x00\x00\x00\x00\x00\x00\x00\x17\x00\x00\x00\x00\x00\x00\x00\x18\x00\x00\x00\x00\x00\x00\x00\x19\x00\x00\x00\x00\x00\x00\x00\x1a\x00\x00\x00\x00\x00\x00\x00\x1b\x00\x00\x00\x00\x00\x00\x00\x1c\x00\x00\x00\x00\x00\x00\x00\x1d\x00\x00\x00\x00\x00\x00\x00\x1e\x00\x00\x00\x00\x00\x00\x00\x1f\x00\x00\x00\x00\x00\x00\x00'
p252
tp253
bsg246
g98
sasstp254
bsb.