ccopy_reg
_reconstructor
p0
(cpandas.core.frame
DataFrame
p1
c__builtin__
object
p2
Ntp3
Rp4
(dp5
S'_metadata'
p6
(lp7
sS'_typ'
p8
S'dataframe'
p9
sS'_data'
p10
g0
(cpandas.core.internals
BlockManager
p11
g2
Ntp12
Rp13
((lp14
cpandas.core.indexes.base
_new_Index
p15
(cpandas.core.indexes.base
Index
p16
(dp17
S'data'
p18
cnumpy.core.multiarray
_reconstruct
p19
(cnumpy
ndarray
p20
(I0
tp21
S'b'
p22
tp23
Rp24
(I1
(I34
tp25
cnumpy
dtype
p26
(S'O8'
p27
I0
I1
tp28
Rp29
(I3
S'|'
p30
NNNI-1
I-1
I63
tp31
bI00
(lp32
S'year'
p33
aS'type'
p34
aS'procOriginal'
p35
aS'proc'
p36
aS'proc_s0'
p37
aS'cat'
p38
aS'inputWSFile'
p39
aS'nominalDataName'
p40
aS'modelWSFile'
p41
aS'model'
p42
aS'rate'
p43
aS'nominal_yield'
p44
aS'sumw2'
p45
aS'nominal_yield_COWCorr'
p46
aS'LooseMvaSF_up_yield'
p47
aS'LooseMvaSF_down_yield'
p48
aS'PreselSF_up_yield'
p49
aS'PreselSF_down_yield'
p50
aS'electronVetoSF_up_yield'
p51
aS'electronVetoSF_down_yield'
p52
aS'TriggerWeight_up_yield'
p53
aS'TriggerWeight_down_yield'
p54
aS'SigmaEOverEShift_up_yield'
p55
aS'SigmaEOverEShift_down_yield'
p56
aS'MvaShift_up_yield'
p57
aS'MvaShift_down_yield'
p58
aS'PUJIDShift_up_yield'
p59
aS'PUJIDShift_down_yield'
p60
aS'JEC_up_yield'
p61
aS'JEC_down_yield'
p62
aS'JER_up_yield'
p63
aS'JER_down_yield'
p64
aS'JetHEM_up_yield'
p65
aS'JetHEM_down_yield'
p66
atp67
bsS'name'
p68
Nstp69
Rp70
ag15
(cpandas.core.indexes.numeric
Int64Index
p71
(dp72
g18
g19
(g20
(I0
tp73
g22
tp74
Rp75
(I1
(I15
tp76
g26
(S'i8'
p77
I0
I1
tp78
Rp79
(I3
S'<'
p80
NNNI-1
I-1
I0
tp81
bI00
S'\x00\x00\x00\x00\x00\x00\x00\x00\x01\x00\x00\x00\x00\x00\x00\x00\x02\x00\x00\x00\x00\x00\x00\x00\x03\x00\x00\x00\x00\x00\x00\x00\x04\x00\x00\x00\x00\x00\x00\x00\x05\x00\x00\x00\x00\x00\x00\x00\x06\x00\x00\x00\x00\x00\x00\x00\x07\x00\x00\x00\x00\x00\x00\x00\x08\x00\x00\x00\x00\x00\x00\x00\t\x00\x00\x00\x00\x00\x00\x00\n\x00\x00\x00\x00\x00\x00\x00\x0b\x00\x00\x00\x00\x00\x00\x00\x0c\x00\x00\x00\x00\x00\x00\x00\r\x00\x00\x00\x00\x00\x00\x00\x0e\x00\x00\x00\x00\x00\x00\x00'
p82
tp83
bsg68
Nstp84
Rp85
a(lp86
g19
(g20
(I0
tp87
g22
tp88
Rp89
(I1
(I1
I15
tp90
g26
(S'f8'
p91
I0
I1
tp92
Rp93
(I3
S'<'
p94
NNNI-1
I-1
I0
tp95
bI00
S'\x00\x00\x00\x00\x00\x10\xd3@\x00\x00\x00\x00\x00\x10\xd3@\x00\x00\x00\x00\x00\x10\xd3@\x00\x00\x00\x00\x00\x10\xd3@\x00\x00\x00\x00\x00\x10\xd3@\x00\x00\x00\x00\x00\x10\xd3@\x00\x00\x00\x00\x00\x10\xd3@\x00\x00\x00\x00\x00\x10\xd3@\x00\x00\x00\x00\x00\x10\xd3@\x00\x00\x00\x00\x00\x10\xd3@\x00\x00\x00\x00\x00\x10\xd3@\x00\x00\x00\x00\x00\x10\xd3@\x00\x00\x00\x00\x00\x10\xd3@\x00\x00\x00\x00\x00\x00\xf0?\x00\x00\x00\x00\x00\x00\xf0\xbf'
p96
tp97
bag19
(g20
(I0
tp98
g22
tp99
Rp100
(I1
(I33
I15
tp101
g29
I00
(lp102
S'2016preVFP'
p103
ag103
ag103
ag103
ag103
ag103
ag103
ag103
ag103
ag103
ag103
ag103
ag103
ag33
ag33
aS'sig'
p104
ag104
ag104
ag104
ag104
ag104
ag104
ag104
ag104
ag104
ag104
ag104
ag104
aS'bkg'
p105
ag18
aS'GG2HMf05ph0'
p106
aS'GG2HbsmM'
p107
aS'GG2Hsm'
p108
aS'TTHsm'
p109
aS'VBFMf05ph0'
p110
aS'VBFbsmM'
p111
aS'VBFsm'
p112
aS'WHMf05ph0'
p113
aS'WHbsmM'
p114
aS'WHsm'
p115
aS'ZHMf05ph0'
p116
aS'ZHbsmM'
p117
aS'ZHsm'
p118
aS'bkg_mass'
p119
aS'data_obs'
p120
aS'GG2HMf05ph0_2016preVFP_hgg'
p121
aS'GG2HbsmM_2016preVFP_hgg'
p122
aS'GG2Hsm_2016preVFP_hgg'
p123
aS'tth0P_2016preVFP_hgg'
p124
aS'vbf0Mf05ph0_2016preVFP_hgg'
p125
aS'vbf0M_2016preVFP_hgg'
p126
aS'vbf0P_2016preVFP_hgg'
p127
aS'wh0Mf05ph0_2016preVFP_hgg'
p128
aS'wh0M_2016preVFP_hgg'
p129
aS'wh0P_2016preVFP_hgg'
p130
aS'zh0Mf05ph0_2016preVFP_hgg'
p131
aS'zh0M_2016preVFP_hgg'
p132
aS'zh0P_2016preVFP_hgg'
p133
ag119
ag120
aS'jjh0Mf05ph0'
p134
aS'jjh0M'
p135
aS'jjh0P'
p136
aS'tth0P'
p137
aS'vbf0Mf05ph0'
p138
aS'vbf0M'
p139
aS'vbf0P'
p140
aS'wh0Mf05ph0'
p141
aS'wh0M'
p142
aS'wh0P'
p143
aS'zh0Mf05ph0'
p144
aS'zh0M'
p145
aS'zh0P'
p146
aS'-'
p147
ag147
aS'AC_Bin15_2016preVFP'
p148
aS'AC_Bin15_2016preVFP'
p149
aS'AC_Bin15_2016preVFP'
p150
aS'AC_Bin15_2016preVFP'
p151
aS'AC_Bin15_2016preVFP'
p152
aS'AC_Bin15_2016preVFP'
p153
aS'AC_Bin15_2016preVFP'
p154
aS'AC_Bin15_2016preVFP'
p155
aS'AC_Bin15_2016preVFP'
p156
aS'AC_Bin15_2016preVFP'
p157
aS'AC_Bin15_2016preVFP'
p158
aS'AC_Bin15_2016preVFP'
p159
aS'AC_Bin15_2016preVFP'
p160
aS'AC_Bin15_2016preVFP'
p161
ag161
aS'Trees/Opt_2016preVFP/2016PreVFP/Trees2WS_2016preVFP/WS/output_GluGluHToGGPlusTwoJets_MM_M125_TuneCP5_13TeV-amcatnlopowheg-minlo-pythia8_GG2HMf05ph0.root'
p162
aS'Trees/Opt_2016preVFP/2016PreVFP/Trees2WS_2016preVFP/WS/output_GluGluHToGGPlusTwoJets_CPodd_M125_TuneCP5_13TeV-amcatnlopowheg-minlo-pythia8_GG2HbsmM.root'
p163
aS'Trees/Opt_2016preVFP/2016PreVFP/Trees2WS_2016preVFP/WS/output_GluGluHToGGPlusTwoJets_SM_M125_TuneCP5_13TeV-amcatnlopowheg-minlo-pythia8_GG2Hsm.root'
p164
aS'Trees/Opt_2016preVFP/2016PreVFP/Trees2WS_2016preVFP/WS/output_ttHJetToGG_M125_TuneCP5_13TeV-amcatnloFXFX-madspin-pythia8_TTHsm.root'
p165
aS'Trees/Opt_2016preVFP/2016PreVFP/Trees2WS_2016preVFP/WS/output_VBFHiggs0Mf05ph0ToGG_M125_TuneCP5_13TeV-JHUGenV7011-pythia8_VBFMf05ph0.root'
p166
aS'Trees/Opt_2016preVFP/2016PreVFP/Trees2WS_2016preVFP/WS/output_VBFHiggs0MToGG_M125_TuneCP5_13TeV-JHUGenV7011-pythia8_VBFbsmM.root'
p167
aS'Trees/Opt_2016preVFP/2016PreVFP/Trees2WS_2016preVFP/WS/output_VBFHToGG_M125_TuneCP5_13TeV-amcatnlo-pythia8_VBFsm.root'
p168
aS'Trees/Opt_2016preVFP/2016PreVFP/Trees2WS_2016preVFP/WS/output_WHiggs0Mf05ph0ToGG_M125_TuneCP5_13TeV-JHUGenV7011-pythia8_WHMf05ph0.root'
p169
aS'Trees/Opt_2016preVFP/2016PreVFP/Trees2WS_2016preVFP/WS/output_WHiggs0MToGG_M125_TuneCP5_13TeV-JHUGenV7011-pythia8_WHbsmM.root'
p170
aS'Trees/Opt_2016preVFP/2016PreVFP/Trees2WS_2016preVFP/WS/output_WHiggs0PMToGG_M125_TuneCP5_13TeV-JHUGenV7011-pythia8_WHsm.root'
p171
aS'Trees/Opt_2016preVFP/2016PreVFP/Trees2WS_2016preVFP/WS/output_ZHiggs0Mf05ph0ToGG_M125_TuneCP5_13TeV-JHUGenV7011-pythia8_ZHMf05ph0.root'
p172
aS'Trees/Opt_2016preVFP/2016PreVFP/Trees2WS_2016preVFP/WS/output_ZHiggs0MToGG_M125_TuneCP5_13TeV-JHUGenV7011-pythia8_ZHbsmM.root'
p173
aS'Trees/Opt_2016preVFP/2016PreVFP/Trees2WS_2016preVFP/WS/output_ZH_HToGG_ZToAll_M125_TuneCP5_13TeV-powheg-pythia8_ZHsm.root'
p174
ag147
ag147
aS'jjh0Mf05ph0_125_13TeV_AC_Bin15'
p175
aS'jjh0M_125_13TeV_AC_Bin15'
p176
aS'jjh0P_125_13TeV_AC_Bin15'
p177
aS'tth0P_125_13TeV_AC_Bin15'
p178
aS'vbf0Mf05ph0_125_13TeV_AC_Bin15'
p179
aS'vbf0M_125_13TeV_AC_Bin15'
p180
aS'vbf0P_125_13TeV_AC_Bin15'
p181
aS'wh0Mf05ph0_125_13TeV_AC_Bin15'
p182
aS'wh0M_125_13TeV_AC_Bin15'
p183
aS'wh0P_125_13TeV_AC_Bin15'
p184
aS'zh0Mf05ph0_125_13TeV_AC_Bin15'
p185
aS'zh0M_125_13TeV_AC_Bin15'
p186
aS'zh0P_125_13TeV_AC_Bin15'
p187
ag147
ag147
aS'./Models/signal/CMS-HGG_sigfit_packaged_AC_Bin15_2016preVFP.root'
p188
aS'./Models/signal/CMS-HGG_sigfit_packaged_AC_Bin15_2016preVFP.root'
p189
aS'./Models/signal/CMS-HGG_sigfit_packaged_AC_Bin15_2016preVFP.root'
p190
aS'./Models/signal/CMS-HGG_sigfit_packaged_AC_Bin15_2016preVFP.root'
p191
aS'./Models/signal/CMS-HGG_sigfit_packaged_AC_Bin15_2016preVFP.root'
p192
aS'./Models/signal/CMS-HGG_sigfit_packaged_AC_Bin15_2016preVFP.root'
p193
aS'./Models/signal/CMS-HGG_sigfit_packaged_AC_Bin15_2016preVFP.root'
p194
aS'./Models/signal/CMS-HGG_sigfit_packaged_AC_Bin15_2016preVFP.root'
p195
aS'./Models/signal/CMS-HGG_sigfit_packaged_AC_Bin15_2016preVFP.root'
p196
aS'./Models/signal/CMS-HGG_sigfit_packaged_AC_Bin15_2016preVFP.root'
p197
aS'./Models/signal/CMS-HGG_sigfit_packaged_AC_Bin15_2016preVFP.root'
p198
aS'./Models/signal/CMS-HGG_sigfit_packaged_AC_Bin15_2016preVFP.root'
p199
aS'./Models/signal/CMS-HGG_sigfit_packaged_AC_Bin15_2016preVFP.root'
p200
aS'./Models/background/CMS-HGG_multipdf_AC_Bin15_2016preVFP.root'
p201
ag201
aS'wsig_13TeV:hggpdfsmrel_GG2HMf05ph0_2016preVFP_AC_Bin15_13TeV'
p202
aS'wsig_13TeV:hggpdfsmrel_GG2HbsmM_2016preVFP_AC_Bin15_13TeV'
p203
aS'wsig_13TeV:hggpdfsmrel_GG2Hsm_2016preVFP_AC_Bin15_13TeV'
p204
aS'wsig_13TeV:hggpdfsmrel_TTHsm_2016preVFP_AC_Bin15_13TeV'
p205
aS'wsig_13TeV:hggpdfsmrel_VBFMf05ph0_2016preVFP_AC_Bin15_13TeV'
p206
aS'wsig_13TeV:hggpdfsmrel_VBFbsmM_2016preVFP_AC_Bin15_13TeV'
p207
aS'wsig_13TeV:hggpdfsmrel_VBFsm_2016preVFP_AC_Bin15_13TeV'
p208
aS'wsig_13TeV:hggpdfsmrel_WHMf05ph0_2016preVFP_AC_Bin15_13TeV'
p209
aS'wsig_13TeV:hggpdfsmrel_WHbsmM_2016preVFP_AC_Bin15_13TeV'
p210
aS'wsig_13TeV:hggpdfsmrel_WHsm_2016preVFP_AC_Bin15_13TeV'
p211
aS'wsig_13TeV:hggpdfsmrel_ZHMf05ph0_2016preVFP_AC_Bin15_13TeV'
p212
aS'wsig_13TeV:hggpdfsmrel_ZHbsmM_2016preVFP_AC_Bin15_13TeV'
p213
aS'wsig_13TeV:hggpdfsmrel_ZHsm_2016preVFP_AC_Bin15_13TeV'
p214
aS'multipdf:CMS_hgg_AC_Bin15_2016preVFP_13TeV_bkgshape'
p215
aS'multipdf:roohist_data_mass_AC_Bin15'
p216
aF0.022707121223902504
aF0.026924831307155728
aF0.013354523978932775
aF0.000285723477816191
aF0.008925964989316526
aF0.001835915164178914
aF0.022978400186616454
aF0.00022477885408989096
aF0.0002588530194316263
aF0.00021049547444818018
aF8.633638572064228e-05
aF0.00036562087188940495
aF0.0004625126027804072
ag147
ag147
aF4.869499948960268e-06
aF6.813308602060577e-06
aF1.8602433541428988e-06
aF1.5531348455457458e-08
aF4.863843014994926e-07
aF5.953388058383304e-08
aF6.364728328657601e-06
aF4.697987819882175e-09
aF6.629070561994087e-09
aF2.9371622998793314e-09
aF4.358391168628028e-09
aF8.142136218873944e-08
aF4.544059992656101e-08
ag147
ag147
aF0.0238325655787251
aF0.02759110348585726
aF0.013733518254344702
aF0.0002954379837182619
aF0.009264955764043967
aF0.0018935928772162275
aF0.023713533547901577
aF0.0002595871205400792
aF0.0002653322863100702
aF0.00021623875417660216
aF8.7635290601304e-05
aF0.00037404078241359736
aF0.000470253579068931
ag147
ag147
aF0.022851022877789794
aF0.02709687643902556
aF0.013439635761080232
aF0.0002876470091458092
aF0.008982186737501029
aF0.0018475604446411497
aF0.02312522692459027
aF0.00022617218610097303
aF0.0002605521308761048
aF0.00021185958384383526
aF8.686849056945135e-05
aF0.0003676474311681282
aF0.00046531999054774323
ag147
ag147
aF0.02256367409923507
aF0.026753335075365047
aF0.013269682818894893
aF0.000283806417978776
aF0.008869919418820777
aF0.0018243066689525298
aF0.022832041686797856
aF0.00022338984266335142
aF0.0002571594802715519
aF0.0002091357798975624
aF8.580591177771347e-05
aF0.0003635998850124801
aF0.00045971370768923533
ag147
ag147
aF0.023192327286790933
aF0.027441533029658665
aF0.013612827953705345
aF0.0002885355376907203
aF0.00911129160079289
aF0.0018732004696639384
aF0.023386228146419066
aF0.00023077409274421752
aF0.0002624323722030659
aF0.000213912089380877
aF8.710417000320263e-05
aF0.00037964545659067875
aF0.0004694630775778943
ag147
ag147
aF0.022226112573263828
aF0.026413337888750915
aF0.013098587916852042
aF0.0002829291519250732
aF0.008742360766331402
aF0.0017989305120353041
aF0.02257435060286075
aF0.00021888845686527538
aF0.00025530064305811427
aF0.00020710315571765642
aF8.557189005423525e-05
aF0.00035170187694015065
aF0.00045562946041856654
ag147
ag147
aF0.022758901024856816
aF0.0269802725421522
aF0.013382882492296246
aF0.0002860731457066217
aF0.008946638660611149
aF0.0018401260651801337
aF0.023033539159100894
aF0.0002257904121977469
aF0.0002592891925311289
aF0.00021087536149584895
aF8.654634186612671e-05
aF0.00036686856379368433
aF0.0004636966385380793
ag147
ag147
aF0.022655391323581783
aF0.02686945295446587
aF0.013326194830311309
aF0.0002853741537344596
aF0.008905312424096362
aF0.0018317081893487203
aF0.02292332600199414
aF0.0002237689548279196
aF0.0002584172152213011
aF0.00021011591815910946
aF8.612665417926475e-05
aF0.000364375176992549
aF0.00046133006279828483
ag147
ag147
aF0.0227604781866298
aF0.02698134631805866
aF0.013384910963944622
aF0.0002863659255671822
aF0.0089469231570395
aF0.0018402042698450827
aF0.023032260658138747
aF0.0002256556001709255
aF0.0002593888395982264
aF0.00021094127584155104
aF8.651026068881435e-05
aF0.0003663577494539264
aF0.00046346667808954973
ag147
ag147
aF0.02265382618084405
aF0.026868376244311574
aF0.013324172616558124
aF0.00028508174545175644
aF0.00890503113103168
aF0.0018316310036342023
aF0.022924602113627908
aF0.00022390342003595726
aF0.0002583177656837007
aF0.0002100501572553013
aF8.616268902470652e-05
aF0.0003648847523401944
aF0.00046155949252007773
ag147
ag147
aF0.023560704010833433
aF0.027529373286938608
aF0.013903925897238878
aF0.00028371717115760475
aF0.00930668240414434
aF0.0018869820773943502
aF0.01107452513986118
aF0.00023507056209837174
aF0.00026390531706965703
aF0.00021620430243274313
aF8.633638572064228e-05
aF0.00036562087188940495
aF0.00047096728735596116
ag147
ag147
aF0.021893325295650357
aF0.026360219930097628
aF0.012949500704053207
aF0.0002820160972873964
aF0.008417796587423254
aF0.001691849000167167
aF0.020764375907901922
aF0.00022683483098262514
aF0.0002603685275062162
aF0.00020393906470417278
aF8.633638572064228e-05
aF9.74229333223775e-05
aF0.0004358663288712705
ag147
ag147
aF0.022745971531776377
aF0.0276802450617879
aF0.013977931271483612
aF0.0002809910421888162
aF0.008686626683015675
aF0.002012333101333752
aF0.01049795992730651
aF0.00023438719938440045
aF0.00025197579793712066
aF0.00021435432040561864
aF6.0936217778362334e-05
aF0.0005435538696474396
aF0.0004109638191494014
ag147
ag147
aF0.02183209985173562
aF0.026416342209472532
aF0.014099349587695542
aF0.0001367846447806187
aF0.009014900934630532
aF0.0018271225742410024
aF0.022327632615201765
aF0.0002247442834004687
aF0.0002559856222887902
aF0.00021030154744039464
aF8.633638572064228e-05
aF9.74229333223775e-05
aF0.000439734916199086
ag147
ag147
aF0.026385673658523956
aF0.027563613974393775
aF0.01374724133552263
aF0.00027768575563413833
aF0.009044417479685762
aF0.0018404386534029982
aF0.010859247770440561
aF0.00022477885408989096
aF0.0002596139966044575
aF0.0002157078454274597
aF8.633638572064228e-05
aF0.00036562087188940495
aF0.0004625126027804072
ag147
ag147
aF0.022170713876448644
aF0.02462891786478849
aF0.012846260678315957
aF0.000285723477816191
aF0.008878441789761382
aF0.0018332528296696182
aF0.0102966737809993
aF0.00019465718264655152
aF0.0002588530194316263
aF0.00021049547444818018
aF8.633638572064228e-05
aF0.00036562087188940495
aF0.0004395267467316444
ag147
ag147
aF0.024673642855532307
aF0.02840912761519121
aF0.013260286370041285
aF0.00029067473866462024
aF0.009572587970183122
aF0.0019031278537795515
aF0.0105538046689162
aF0.00031466628627185855
aF0.00029584444030206214
aF0.00022489000991754438
aF0.0001322632197116036
aF0.00036562087188940495
aF0.00045284514339982707
ag147
ag147
aF0.021556141930432204
aF0.025903613364903322
aF0.011503737587190699
aF0.00024585650652397817
aF0.00872395173212226
aF0.0018788730159258193
aF0.022562786406979285
aF0.00018713930080593855
aF0.0002340118844585959
aF0.00019369234598798357
aF8.633638572064228e-05
aF0.00036562087188940495
aF0.0003427372610076418
ag147
ag147
aF0.02308543826006826
aF0.02732072414767117
aF0.013291828135834294
aF0.00029386859586111314
aF0.008879193721327283
aF0.0018595298093941892
aF0.015954074273054175
aF0.0002293937061494944
aF0.00031471792442516744
aF0.00020872665868409968
aF8.633638572064228e-05
aF0.00036562087188940495
aF0.0004625126027804072
ag147
ag147
aF0.022544481176055342
aF0.026920641724586858
aF0.012809183738909269
aF0.00029382823339574315
aF0.008958900852235274
aF0.001866396319769592
aF0.011893735107719294
aF0.00023578168656968046
aF0.0002577308066520345
aF0.0002026680042490625
aF8.633638572064228e-05
aF0.00036562087188940495
aF0.0004599756969128066
ag147
ag147
aF0.022707121223902504
aF0.026924831307155728
aF0.013354523978932775
aF0.000285723477816191
aF0.008925964989316526
aF0.001835915164178914
aF0.022978400186616454
aF0.00022477885408989096
aF0.0002588530194316263
aF0.00021049547444818018
aF8.633638572064228e-05
aF0.00036562087188940495
aF0.0004625126027804072
ag147
ag147
aF0.022707121223902504
aF0.026924831307155728
aF0.013354523978932775
aF0.000285723477816191
aF0.008925964989316526
aF0.001835915164178914
aF0.022978400186616454
aF0.00022477885408989096
aF0.0002588530194316263
aF0.00021049547444818018
aF8.633638572064228e-05
aF0.00036562087188940495
aF0.0004625126027804072
ag147
ag147
atp217
ba(lp218
g15
(g16
(dp219
g18
g19
(g20
(I0
tp220
g22
tp221
Rp222
(I1
(I1
tp223
g29
I00
(lp224
g43
atp225
bsg68
Nstp226
Rp227
ag15
(g16
(dp228
g18
g19
(g20
(I0
tp229
g22
tp230
Rp231
(I1
(I33
tp232
g29
I00
(lp233
g33
ag34
ag35
ag36
ag37
ag38
ag39
ag40
ag41
ag42
ag44
ag45
ag46
ag47
ag48
ag49
ag50
ag51
ag52
ag53
ag54
ag55
ag56
ag57
ag58
ag59
ag60
ag61
ag62
ag63
ag64
ag65
ag66
atp234
bsg68
Nstp235
Rp236
a(dp237
S'0.14.1'
p238
(dp239
S'axes'
p240
g14
sS'blocks'
p241
(lp242
(dp243
S'mgr_locs'
p244
c__builtin__
slice
p245
(I10
I11
I1
tp246
Rp247
sS'values'
p248
g89
sa(dp249
g244
g19
(g20
(I0
tp250
g22
tp251
Rp252
(I1
(I33
tp253
g79
I00
S'\x00\x00\x00\x00\x00\x00\x00\x00\x01\x00\x00\x00\x00\x00\x00\x00\x02\x00\x00\x00\x00\x00\x00\x00\x03\x00\x00\x00\x00\x00\x00\x00\x04\x00\x00\x00\x00\x00\x00\x00\x05\x00\x00\x00\x00\x00\x00\x00\x06\x00\x00\x00\x00\x00\x00\x00\x07\x00\x00\x00\x00\x00\x00\x00\x08\x00\x00\x00\x00\x00\x00\x00\t\x00\x00\x00\x00\x00\x00\x00\x0b\x00\x00\x00\x00\x00\x00\x00\x0c\x00\x00\x00\x00\x00\x00\x00\r\x00\x00\x00\x00\x00\x00\x00\x0e\x00\x00\x00\x00\x00\x00\x00\x0f\x00\x00\x00\x00\x00\x00\x00\x10\x00\x00\x00\x00\x00\x00\x00\x11\x00\x00\x00\x00\x00\x00\x00\x12\x00\x00\x00\x00\x00\x00\x00\x13\x00\x00\x00\x00\x00\x00\x00\x14\x00\x00\x00\x00\x00\x00\x00\x15\x00\x00\x00\x00\x00\x00\x00\x16\x00\x00\x00\x00\x00\x00\x00\x17\x00\x00\x00\x00\x00\x00\x00\x18\x00\x00\x00\x00\x00\x00\x00\x19\x00\x00\x00\x00\x00\x00\x00\x1a\x00\x00\x00\x00\x00\x00\x00\x1b\x00\x00\x00\x00\x00\x00\x00\x1c\x00\x00\x00\x00\x00\x00\x00\x1d\x00\x00\x00\x00\x00\x00\x00\x1e\x00\x00\x00\x00\x00\x00\x00\x1f\x00\x00\x00\x00\x00\x00\x00 \x00\x00\x00\x00\x00\x00\x00!\x00\x00\x00\x00\x00\x00\x00'
p254
tp255
bsg248
g100
sasstp256
bsb.