ccopy_reg
_reconstructor
p0
(cpandas.core.frame
DataFrame
p1
c__builtin__
object
p2
Ntp3
Rp4
(dp5
S'_metadata'
p6
(lp7
sS'_typ'
p8
S'dataframe'
p9
sS'_data'
p10
g0
(cpandas.core.internals
BlockManager
p11
g2
Ntp12
Rp13
((lp14
cpandas.core.indexes.base
_new_Index
p15
(cpandas.core.indexes.base
Index
p16
(dp17
S'data'
p18
cnumpy.core.multiarray
_reconstruct
p19
(cnumpy
ndarray
p20
(I0
tp21
S'b'
p22
tp23
Rp24
(I1
(I32
tp25
cnumpy
dtype
p26
(S'O8'
p27
I0
I1
tp28
Rp29
(I3
S'|'
p30
NNNI-1
I-1
I63
tp31
bI00
(lp32
S'year'
p33
aS'type'
p34
aS'procOriginal'
p35
aS'proc'
p36
aS'proc_s0'
p37
aS'cat'
p38
aS'inputWSFile'
p39
aS'nominalDataName'
p40
aS'modelWSFile'
p41
aS'model'
p42
aS'rate'
p43
aS'nominal_yield'
p44
aS'sumw2'
p45
aS'nominal_yield_COWCorr'
p46
aS'LooseMvaSF_up_yield'
p47
aS'LooseMvaSF_down_yield'
p48
aS'PreselSF_up_yield'
p49
aS'PreselSF_down_yield'
p50
aS'electronVetoSF_up_yield'
p51
aS'electronVetoSF_down_yield'
p52
aS'TriggerWeight_up_yield'
p53
aS'TriggerWeight_down_yield'
p54
aS'SigmaEOverEShift_up_yield'
p55
aS'SigmaEOverEShift_down_yield'
p56
aS'MvaShift_up_yield'
p57
aS'MvaShift_down_yield'
p58
aS'PUJIDShift_up_yield'
p59
aS'PUJIDShift_down_yield'
p60
aS'JEC_up_yield'
p61
aS'JEC_down_yield'
p62
aS'JER_up_yield'
p63
aS'JER_down_yield'
p64
atp65
bsS'name'
p66
Nstp67
Rp68
ag15
(cpandas.core.indexes.numeric
Int64Index
p69
(dp70
g18
g19
(g20
(I0
tp71
g22
tp72
Rp73
(I1
(I15
tp74
g26
(S'i8'
p75
I0
I1
tp76
Rp77
(I3
S'<'
p78
NNNI-1
I-1
I0
tp79
bI00
S'\x00\x00\x00\x00\x00\x00\x00\x00\x01\x00\x00\x00\x00\x00\x00\x00\x02\x00\x00\x00\x00\x00\x00\x00\x03\x00\x00\x00\x00\x00\x00\x00\x04\x00\x00\x00\x00\x00\x00\x00\x05\x00\x00\x00\x00\x00\x00\x00\x06\x00\x00\x00\x00\x00\x00\x00\x07\x00\x00\x00\x00\x00\x00\x00\x08\x00\x00\x00\x00\x00\x00\x00\t\x00\x00\x00\x00\x00\x00\x00\n\x00\x00\x00\x00\x00\x00\x00\x0b\x00\x00\x00\x00\x00\x00\x00\x0c\x00\x00\x00\x00\x00\x00\x00\r\x00\x00\x00\x00\x00\x00\x00\x0e\x00\x00\x00\x00\x00\x00\x00'
p80
tp81
bsg66
Nstp82
Rp83
a(lp84
g19
(g20
(I0
tp85
g22
tp86
Rp87
(I1
(I1
I15
tp88
g26
(S'f8'
p89
I0
I1
tp90
Rp91
(I3
S'<'
p92
NNNI-1
I-1
I0
tp93
bI00
S'\x00\x00\x00\x00\x00\x10\xd3@\x00\x00\x00\x00\x00\x10\xd3@\x00\x00\x00\x00\x00\x10\xd3@\x00\x00\x00\x00\x00\x10\xd3@\x00\x00\x00\x00\x00\x10\xd3@\x00\x00\x00\x00\x00\x10\xd3@\x00\x00\x00\x00\x00\x10\xd3@\x00\x00\x00\x00\x00\x10\xd3@\x00\x00\x00\x00\x00\x10\xd3@\x00\x00\x00\x00\x00\x10\xd3@\x00\x00\x00\x00\x00\x10\xd3@\x00\x00\x00\x00\x00\x10\xd3@\x00\x00\x00\x00\x00\x10\xd3@\x00\x00\x00\x00\x00\x00\xf0?\x00\x00\x00\x00\x00\x00\xf0\xbf'
p94
tp95
bag19
(g20
(I0
tp96
g22
tp97
Rp98
(I1
(I31
I15
tp99
g29
I00
(lp100
S'2016preVFP'
p101
ag101
ag101
ag101
ag101
ag101
ag101
ag101
ag101
ag101
ag101
ag101
ag101
ag33
ag33
aS'sig'
p102
ag102
ag102
ag102
ag102
ag102
ag102
ag102
ag102
ag102
ag102
ag102
ag102
aS'bkg'
p103
ag18
aS'GG2HMf05ph0'
p104
aS'GG2HbsmM'
p105
aS'GG2Hsm'
p106
aS'TTHsm'
p107
aS'VBFMf05ph0'
p108
aS'VBFbsmM'
p109
aS'VBFsm'
p110
aS'WHMf05ph0'
p111
aS'WHbsmM'
p112
aS'WHsm'
p113
aS'ZHMf05ph0'
p114
aS'ZHbsmM'
p115
aS'ZHsm'
p116
aS'bkg_mass'
p117
aS'data_obs'
p118
aS'GG2HMf05ph0_2016preVFP_hgg'
p119
aS'GG2HbsmM_2016preVFP_hgg'
p120
aS'GG2Hsm_2016preVFP_hgg'
p121
aS'tth0P_2016preVFP_hgg'
p122
aS'vbf0Mf05ph0_2016preVFP_hgg'
p123
aS'vbf0M_2016preVFP_hgg'
p124
aS'vbf0P_2016preVFP_hgg'
p125
aS'wh0Mf05ph0_2016preVFP_hgg'
p126
aS'wh0M_2016preVFP_hgg'
p127
aS'wh0P_2016preVFP_hgg'
p128
aS'zh0Mf05ph0_2016preVFP_hgg'
p129
aS'zh0M_2016preVFP_hgg'
p130
aS'zh0P_2016preVFP_hgg'
p131
ag117
ag118
aS'jjh0Mf05ph0'
p132
aS'jjh0M'
p133
aS'jjh0P'
p134
aS'tth0P'
p135
aS'vbf0Mf05ph0'
p136
aS'vbf0M'
p137
aS'vbf0P'
p138
aS'wh0Mf05ph0'
p139
aS'wh0M'
p140
aS'wh0P'
p141
aS'zh0Mf05ph0'
p142
aS'zh0M'
p143
aS'zh0P'
p144
aS'-'
p145
ag145
aS'AC_Bin29_2016preVFP'
p146
aS'AC_Bin29_2016preVFP'
p147
aS'AC_Bin29_2016preVFP'
p148
aS'AC_Bin29_2016preVFP'
p149
aS'AC_Bin29_2016preVFP'
p150
aS'AC_Bin29_2016preVFP'
p151
aS'AC_Bin29_2016preVFP'
p152
aS'AC_Bin29_2016preVFP'
p153
aS'AC_Bin29_2016preVFP'
p154
aS'AC_Bin29_2016preVFP'
p155
aS'AC_Bin29_2016preVFP'
p156
aS'AC_Bin29_2016preVFP'
p157
aS'AC_Bin29_2016preVFP'
p158
aS'AC_Bin29_2016preVFP'
p159
ag159
aS'Trees/Opt_2016preVFP/2016PreVFP/Trees2WS_2016preVFP/WS/output_GluGluHToGGPlusTwoJets_MM_M125_TuneCP5_13TeV-amcatnlopowheg-minlo-pythia8_GG2HMf05ph0.root'
p160
aS'Trees/Opt_2016preVFP/2016PreVFP/Trees2WS_2016preVFP/WS/output_GluGluHToGGPlusTwoJets_CPodd_M125_TuneCP5_13TeV-amcatnlopowheg-minlo-pythia8_GG2HbsmM.root'
p161
aS'Trees/Opt_2016preVFP/2016PreVFP/Trees2WS_2016preVFP/WS/output_GluGluHToGGPlusTwoJets_SM_M125_TuneCP5_13TeV-amcatnlopowheg-minlo-pythia8_GG2Hsm.root'
p162
aS'Trees/Opt_2016preVFP/2016PreVFP/Trees2WS_2016preVFP/WS/output_ttHJetToGG_M125_TuneCP5_13TeV-amcatnloFXFX-madspin-pythia8_TTHsm.root'
p163
aS'Trees/Opt_2016preVFP/2016PreVFP/Trees2WS_2016preVFP/WS/output_VBFHiggs0Mf05ph0ToGG_M125_TuneCP5_13TeV-JHUGenV7011-pythia8_VBFMf05ph0.root'
p164
aS'Trees/Opt_2016preVFP/2016PreVFP/Trees2WS_2016preVFP/WS/output_VBFHiggs0MToGG_M125_TuneCP5_13TeV-JHUGenV7011-pythia8_VBFbsmM.root'
p165
aS'Trees/Opt_2016preVFP/2016PreVFP/Trees2WS_2016preVFP/WS/output_VBFHToGG_M125_TuneCP5_13TeV-amcatnlo-pythia8_VBFsm.root'
p166
aS'Trees/Opt_2016preVFP/2016PreVFP/Trees2WS_2016preVFP/WS/output_WHiggs0Mf05ph0ToGG_M125_TuneCP5_13TeV-JHUGenV7011-pythia8_WHMf05ph0.root'
p167
aS'Trees/Opt_2016preVFP/2016PreVFP/Trees2WS_2016preVFP/WS/output_WHiggs0MToGG_M125_TuneCP5_13TeV-JHUGenV7011-pythia8_WHbsmM.root'
p168
aS'Trees/Opt_2016preVFP/2016PreVFP/Trees2WS_2016preVFP/WS/output_WHiggs0PMToGG_M125_TuneCP5_13TeV-JHUGenV7011-pythia8_WHsm.root'
p169
aS'Trees/Opt_2016preVFP/2016PreVFP/Trees2WS_2016preVFP/WS/output_ZHiggs0Mf05ph0ToGG_M125_TuneCP5_13TeV-JHUGenV7011-pythia8_ZHMf05ph0.root'
p170
aS'Trees/Opt_2016preVFP/2016PreVFP/Trees2WS_2016preVFP/WS/output_ZHiggs0MToGG_M125_TuneCP5_13TeV-JHUGenV7011-pythia8_ZHbsmM.root'
p171
aS'Trees/Opt_2016preVFP/2016PreVFP/Trees2WS_2016preVFP/WS/output_ZH_HToGG_ZToAll_M125_TuneCP5_13TeV-powheg-pythia8_ZHsm.root'
p172
ag145
ag145
aS'jjh0Mf05ph0_125_13TeV_AC_Bin29'
p173
aS'jjh0M_125_13TeV_AC_Bin29'
p174
aS'jjh0P_125_13TeV_AC_Bin29'
p175
aS'tth0P_125_13TeV_AC_Bin29'
p176
aS'vbf0Mf05ph0_125_13TeV_AC_Bin29'
p177
aS'vbf0M_125_13TeV_AC_Bin29'
p178
aS'vbf0P_125_13TeV_AC_Bin29'
p179
aS'wh0Mf05ph0_125_13TeV_AC_Bin29'
p180
aS'wh0M_125_13TeV_AC_Bin29'
p181
aS'wh0P_125_13TeV_AC_Bin29'
p182
aS'zh0Mf05ph0_125_13TeV_AC_Bin29'
p183
aS'zh0M_125_13TeV_AC_Bin29'
p184
aS'zh0P_125_13TeV_AC_Bin29'
p185
ag145
ag145
aS'./Models/signal/CMS-HGG_sigfit_packaged_AC_Bin29_2016preVFP.root'
p186
aS'./Models/signal/CMS-HGG_sigfit_packaged_AC_Bin29_2016preVFP.root'
p187
aS'./Models/signal/CMS-HGG_sigfit_packaged_AC_Bin29_2016preVFP.root'
p188
aS'./Models/signal/CMS-HGG_sigfit_packaged_AC_Bin29_2016preVFP.root'
p189
aS'./Models/signal/CMS-HGG_sigfit_packaged_AC_Bin29_2016preVFP.root'
p190
aS'./Models/signal/CMS-HGG_sigfit_packaged_AC_Bin29_2016preVFP.root'
p191
aS'./Models/signal/CMS-HGG_sigfit_packaged_AC_Bin29_2016preVFP.root'
p192
aS'./Models/signal/CMS-HGG_sigfit_packaged_AC_Bin29_2016preVFP.root'
p193
aS'./Models/signal/CMS-HGG_sigfit_packaged_AC_Bin29_2016preVFP.root'
p194
aS'./Models/signal/CMS-HGG_sigfit_packaged_AC_Bin29_2016preVFP.root'
p195
aS'./Models/signal/CMS-HGG_sigfit_packaged_AC_Bin29_2016preVFP.root'
p196
aS'./Models/signal/CMS-HGG_sigfit_packaged_AC_Bin29_2016preVFP.root'
p197
aS'./Models/signal/CMS-HGG_sigfit_packaged_AC_Bin29_2016preVFP.root'
p198
aS'./Models/background/CMS-HGG_multipdf_AC_Bin29_2016preVFP.root'
p199
ag199
aS'wsig_13TeV:hggpdfsmrel_GG2HMf05ph0_2016preVFP_AC_Bin29_13TeV'
p200
aS'wsig_13TeV:hggpdfsmrel_GG2HbsmM_2016preVFP_AC_Bin29_13TeV'
p201
aS'wsig_13TeV:hggpdfsmrel_GG2Hsm_2016preVFP_AC_Bin29_13TeV'
p202
aS'wsig_13TeV:hggpdfsmrel_TTHsm_2016preVFP_AC_Bin29_13TeV'
p203
aS'wsig_13TeV:hggpdfsmrel_VBFMf05ph0_2016preVFP_AC_Bin29_13TeV'
p204
aS'wsig_13TeV:hggpdfsmrel_VBFbsmM_2016preVFP_AC_Bin29_13TeV'
p205
aS'wsig_13TeV:hggpdfsmrel_VBFsm_2016preVFP_AC_Bin29_13TeV'
p206
aS'wsig_13TeV:hggpdfsmrel_WHMf05ph0_2016preVFP_AC_Bin29_13TeV'
p207
aS'wsig_13TeV:hggpdfsmrel_WHbsmM_2016preVFP_AC_Bin29_13TeV'
p208
aS'wsig_13TeV:hggpdfsmrel_WHsm_2016preVFP_AC_Bin29_13TeV'
p209
aS'wsig_13TeV:hggpdfsmrel_ZHMf05ph0_2016preVFP_AC_Bin29_13TeV'
p210
aS'wsig_13TeV:hggpdfsmrel_ZHbsmM_2016preVFP_AC_Bin29_13TeV'
p211
aS'wsig_13TeV:hggpdfsmrel_ZHsm_2016preVFP_AC_Bin29_13TeV'
p212
aS'multipdf:CMS_hgg_AC_Bin29_2016preVFP_13TeV_bkgshape'
p213
aS'multipdf:roohist_data_mass_AC_Bin29'
p214
aF0.02543590509162641
aF0.014018968176515045
aF0.03140893146678536
aF0.005257952261217724
aF0.01596433202848857
aF0.013080416053753652
aF0.02290665814712156
aF0.0007227245710055286
aF0.001782596885732346
aF0.0001855963590742249
aF0.0005121656686242204
aF0.0005276780029817019
aF0.0010915414716237137
ag145
ag145
aF2.1234565884314864e-06
aF2.5291832500344538e-06
aF5.765531779691471e-06
aF2.0984513850069343e-06
aF1.3377645807498115e-06
aF1.1416508923626533e-06
aF5.6115799695405166e-05
aF1.106356592980134e-08
aF2.9639327178555924e-07
aF3.6235184194272352e-09
aF1.0454364465345069e-07
aF6.86622784349654e-08
aF1.2235782288800756e-07
ag145
ag145
aF0.026009635489871882
aF0.014340591813017606
aF0.03211360251572764
aF0.005368780176647195
aF0.01637415432313431
aF0.013344098084411775
aF0.023455996128488924
aF0.0007388690422015035
aF0.0018263580833115208
aF0.0001885607282941197
aF0.0005185708669563232
aF0.0005369959985459824
aF0.0011128751509388774
ag145
ag145
aF0.02560373046379348
aF0.01411162212059546
aF0.031616070499214825
aF0.005293171955911278
aF0.016070027641486812
aF0.013167007752589117
aF0.0230553024395911
aF0.0007274635743819086
aF0.0017945589958894453
aF0.0001867869854678622
aF0.0005154753898183018
aF0.0005311883664289119
aF0.0010987941145880202
ag145
ag145
aF0.025268632183797417
aF0.01392661956505452
aF0.031202474384144002
aF0.005222850208963928
aF0.015858985550780177
aF0.012994110442907665
aF0.022758494840703965
aF0.0007180010995362515
aF0.001770674807856681
aF0.00018440954952371466
aF0.0005088665970152376
aF0.0005241792913451915
aF0.0010843128620612167
ag145
ag145
aF0.025823398166161145
aF0.0142379719580333
aF0.031882906980922415
aF0.00533227547086705
aF0.016204283126626837
aF0.01325931521788173
aF0.023305141612642688
aF0.0007345740503590153
aF0.0018060297190338852
aF0.00018803198940453323
aF0.0005177322402533025
aF0.000533463920098293
aF0.0011060967125507057
ag145
ag145
aF0.025051283834127667
aF0.013801605454871984
aF0.030938534931455926
aF0.00518413144943398
aF0.01572607745382459
aF0.012902699731858815
aF0.02251148347566138
aF0.0007109562947924167
aF0.0017593145632162806
aF0.000183176907739238
aF0.0005066274994429684
aF0.000521923448109309
aF0.0010770789692787304
ag145
ag145
aF0.025474738377152622
aF0.014041578906602693
aF0.031457436837197136
aF0.00526419953463045
aF0.01598756380817594
aF0.013099932236431563
aF0.02295394596952283
aF0.0007238619749515235
aF0.0017849259904570674
aF0.0001859390426891826
aF0.0005133818071538262
aF0.000528398639042114
aF0.0010933235139736642
ag145
ag145
aF0.025397104185689284
aF0.013996378181762663
aF0.031360465638056965
aF0.0052517083714794495
aF0.015941117080413143
aF0.013060913544622969
aF0.022859410868049743
aF0.0007215881941243688
aF0.001780269282390431
aF0.00018525404824456778
aF0.0005109511513026722
aF0.0005269577678236922
aF0.001089760660254514
ag145
ag145
aF0.025489088397414383
aF0.014049472672251732
aF0.0314751067614927
aF0.005268372788174812
aF0.016003326527330063
aF0.013107083396759795
aF0.022961206441679545
aF0.0007242317609567568
aF0.0017865130871786573
aF0.00018596994095611806
aF0.000513202362633931
aF0.0005287375762280657
aF0.0010937887196357293
ag145
ag145
aF0.025382777876724195
aF0.013988497021868735
aF0.03134282589664923
aF0.0052475422774476135
aF0.015925384062264656
aF0.013053776452110102
aF0.022852181310044205
aF0.0007212189749899319
aF0.0017786849767276176
aF0.00018522315184028295
aF0.0005111300256752734
aF0.0005266195075459496
aF0.0010892965390354127
ag145
ag145
aF0.024850660479614817
aF0.013493616154846677
aF0.03085106619300859
aF0.005284927694447106
aF0.01579077208293711
aF0.013038061239967647
aF0.022582714314694385
aF0.0007194561853793857
aF0.0017779106051420968
aF0.00018046734510335227
aF0.0005121656686242204
aF0.0005276780029817019
aF0.0010915414716237137
ag145
ag145
aF0.025428037534993564
aF0.0145399828149948
aF0.031722717159027525
aF0.005295119366678591
aF0.01605829908794476
aF0.013136129047325085
aF0.023196045985287128
aF0.0007536220259680704
aF0.001795925081751193
aF0.00018701425403833127
aF0.0005121656686242204
aF0.0005276780029817019
aF0.0010915414716237137
ag145
ag145
aF0.026064132957799302
aF0.013991118152489435
aF0.032123896547091135
aF0.005622592200438703
aF0.016451447815143183
aF0.013247923219978475
aF0.023899413022263616
aF0.000735755149094075
aF0.0017846619177817047
aF0.0001855963590742249
aF0.0005570116991293617
aF0.0005276780029817019
aF0.0010915414716237137
ag145
ag145
aF0.024944868772308837
aF0.013363985338173734
aF0.030831236126005024
aF0.005043500312467586
aF0.015728743708223192
aF0.01296751330164625
aF0.024698585734540757
aF0.0007076493550357554
aF0.0017774227749214333
aF0.00013464778646721243
aF0.0005121656686242204
aF0.0005276780029817019
aF0.0010043321235571057
ag145
ag145
aF0.025602570474120512
aF0.014226650637738203
aF0.03148026808844406
aF0.005257952261217724
aF0.01604202824114509
aF0.013086134538525585
aF0.0232542574560739
aF0.0007262583769716002
aF0.0017774666248442372
aF0.00019337008200182026
aF0.0005121656686242204
aF0.0005276780029817019
aF0.0010915414716237137
ag145
ag145
aF0.025095765088053668
aF0.013909088872878783
aF0.031151023224310848
aF0.005230677119016036
aF0.01587640118532363
aF0.013033301789619145
aF0.022543060635825896
aF0.0006802619161589973
aF0.0017548402197462565
aF0.0001855963590742249
aF0.0005121656686242204
aF0.0005276780029817019
aF0.0010915414716237137
ag145
ag145
aF0.026845049201710935
aF0.01452242983373253
aF0.03207481507774901
aF0.005161803791907005
aF0.016424706533712197
aF0.013276833608301786
aF0.024482075363039257
aF0.0007547384313966177
aF0.0019092133958338309
aF0.00021128666730874102
aF0.0005121656686242204
aF0.0005766364120063372
aF0.0010964970754230308
ag145
ag145
aF0.02448047600864811
aF0.013760608123448037
aF0.029523973329332875
aF0.005314637034985026
aF0.015397040055404432
aF0.01291561046730294
aF0.025132523315278377
aF0.0006360676204621996
aF0.0016525320392020149
aF0.00017182228054934967
aF0.00047369834646815434
aF0.0004292670600989368
aF0.0010479750410468114
ag145
ag145
aF0.025357924526360875
aF0.014038736208931368
aF0.03157609617574053
aF0.005268274394779837
aF0.016253885027822434
aF0.013139998836209088
aF0.023324363429992445
aF0.0008353031619208195
aF0.0017964008759463468
aF0.00018097005113304476
aF0.0005121656686242204
aF0.0005276780029817019
aF0.0010964970754230308
ag145
ag145
aF0.02528667247293015
aF0.014258811002491711
aF0.03103952440892499
aF0.004671658534903145
aF0.01592385464095969
aF0.013057078022256974
aF0.02364745397085244
aF0.0006947796539407136
aF0.0017732318627849963
aF0.00018144560579003155
aF0.0005121656686242204
aF0.0005276780029817019
aF0.0010872977979943244
ag145
ag145
atp215
ba(lp216
g15
(g16
(dp217
g18
g19
(g20
(I0
tp218
g22
tp219
Rp220
(I1
(I1
tp221
g29
I00
(lp222
g43
atp223
bsg66
Nstp224
Rp225
ag15
(g16
(dp226
g18
g19
(g20
(I0
tp227
g22
tp228
Rp229
(I1
(I31
tp230
g29
I00
(lp231
g33
ag34
ag35
ag36
ag37
ag38
ag39
ag40
ag41
ag42
ag44
ag45
ag46
ag47
ag48
ag49
ag50
ag51
ag52
ag53
ag54
ag55
ag56
ag57
ag58
ag59
ag60
ag61
ag62
ag63
ag64
atp232
bsg66
Nstp233
Rp234
a(dp235
S'0.14.1'
p236
(dp237
S'axes'
p238
g14
sS'blocks'
p239
(lp240
(dp241
S'mgr_locs'
p242
c__builtin__
slice
p243
(I10
I11
I1
tp244
Rp245
sS'values'
p246
g87
sa(dp247
g242
g19
(g20
(I0
tp248
g22
tp249
Rp250
(I1
(I31
tp251
g77
I00
S'\x00\x00\x00\x00\x00\x00\x00\x00\x01\x00\x00\x00\x00\x00\x00\x00\x02\x00\x00\x00\x00\x00\x00\x00\x03\x00\x00\x00\x00\x00\x00\x00\x04\x00\x00\x00\x00\x00\x00\x00\x05\x00\x00\x00\x00\x00\x00\x00\x06\x00\x00\x00\x00\x00\x00\x00\x07\x00\x00\x00\x00\x00\x00\x00\x08\x00\x00\x00\x00\x00\x00\x00\t\x00\x00\x00\x00\x00\x00\x00\x0b\x00\x00\x00\x00\x00\x00\x00\x0c\x00\x00\x00\x00\x00\x00\x00\r\x00\x00\x00\x00\x00\x00\x00\x0e\x00\x00\x00\x00\x00\x00\x00\x0f\x00\x00\x00\x00\x00\x00\x00\x10\x00\x00\x00\x00\x00\x00\x00\x11\x00\x00\x00\x00\x00\x00\x00\x12\x00\x00\x00\x00\x00\x00\x00\x13\x00\x00\x00\x00\x00\x00\x00\x14\x00\x00\x00\x00\x00\x00\x00\x15\x00\x00\x00\x00\x00\x00\x00\x16\x00\x00\x00\x00\x00\x00\x00\x17\x00\x00\x00\x00\x00\x00\x00\x18\x00\x00\x00\x00\x00\x00\x00\x19\x00\x00\x00\x00\x00\x00\x00\x1a\x00\x00\x00\x00\x00\x00\x00\x1b\x00\x00\x00\x00\x00\x00\x00\x1c\x00\x00\x00\x00\x00\x00\x00\x1d\x00\x00\x00\x00\x00\x00\x00\x1e\x00\x00\x00\x00\x00\x00\x00\x1f\x00\x00\x00\x00\x00\x00\x00'
p252
tp253
bsg246
g98
sasstp254
bsb.