ccopy_reg
_reconstructor
p0
(cpandas.core.frame
DataFrame
p1
c__builtin__
object
p2
Ntp3
Rp4
(dp5
S'_metadata'
p6
(lp7
sS'_typ'
p8
S'dataframe'
p9
sS'_data'
p10
g0
(cpandas.core.internals
BlockManager
p11
g2
Ntp12
Rp13
((lp14
cpandas.core.indexes.base
_new_Index
p15
(cpandas.core.indexes.base
Index
p16
(dp17
S'data'
p18
cnumpy.core.multiarray
_reconstruct
p19
(cnumpy
ndarray
p20
(I0
tp21
S'b'
p22
tp23
Rp24
(I1
(I32
tp25
cnumpy
dtype
p26
(S'O8'
p27
I0
I1
tp28
Rp29
(I3
S'|'
p30
NNNI-1
I-1
I63
tp31
bI00
(lp32
S'year'
p33
aS'type'
p34
aS'procOriginal'
p35
aS'proc'
p36
aS'proc_s0'
p37
aS'cat'
p38
aS'inputWSFile'
p39
aS'nominalDataName'
p40
aS'modelWSFile'
p41
aS'model'
p42
aS'rate'
p43
aS'nominal_yield'
p44
aS'sumw2'
p45
aS'nominal_yield_COWCorr'
p46
aS'LooseMvaSF_up_yield'
p47
aS'LooseMvaSF_down_yield'
p48
aS'PreselSF_up_yield'
p49
aS'PreselSF_down_yield'
p50
aS'electronVetoSF_up_yield'
p51
aS'electronVetoSF_down_yield'
p52
aS'TriggerWeight_up_yield'
p53
aS'TriggerWeight_down_yield'
p54
aS'SigmaEOverEShift_up_yield'
p55
aS'SigmaEOverEShift_down_yield'
p56
aS'MvaShift_up_yield'
p57
aS'MvaShift_down_yield'
p58
aS'PUJIDShift_up_yield'
p59
aS'PUJIDShift_down_yield'
p60
aS'JEC_up_yield'
p61
aS'JEC_down_yield'
p62
aS'JER_up_yield'
p63
aS'JER_down_yield'
p64
atp65
bsS'name'
p66
Nstp67
Rp68
ag15
(cpandas.core.indexes.numeric
Int64Index
p69
(dp70
g18
g19
(g20
(I0
tp71
g22
tp72
Rp73
(I1
(I15
tp74
g26
(S'i8'
p75
I0
I1
tp76
Rp77
(I3
S'<'
p78
NNNI-1
I-1
I0
tp79
bI00
S'\x00\x00\x00\x00\x00\x00\x00\x00\x01\x00\x00\x00\x00\x00\x00\x00\x02\x00\x00\x00\x00\x00\x00\x00\x03\x00\x00\x00\x00\x00\x00\x00\x04\x00\x00\x00\x00\x00\x00\x00\x05\x00\x00\x00\x00\x00\x00\x00\x06\x00\x00\x00\x00\x00\x00\x00\x07\x00\x00\x00\x00\x00\x00\x00\x08\x00\x00\x00\x00\x00\x00\x00\t\x00\x00\x00\x00\x00\x00\x00\n\x00\x00\x00\x00\x00\x00\x00\x0b\x00\x00\x00\x00\x00\x00\x00\x0c\x00\x00\x00\x00\x00\x00\x00\r\x00\x00\x00\x00\x00\x00\x00\x0e\x00\x00\x00\x00\x00\x00\x00'
p80
tp81
bsg66
Nstp82
Rp83
a(lp84
g19
(g20
(I0
tp85
g22
tp86
Rp87
(I1
(I1
I15
tp88
g26
(S'f8'
p89
I0
I1
tp90
Rp91
(I3
S'<'
p92
NNNI-1
I-1
I0
tp93
bI00
S'\x00\x00\x00\x00\x00\x10\xd3@\x00\x00\x00\x00\x00\x10\xd3@\x00\x00\x00\x00\x00\x10\xd3@\x00\x00\x00\x00\x00\x10\xd3@\x00\x00\x00\x00\x00\x10\xd3@\x00\x00\x00\x00\x00\x10\xd3@\x00\x00\x00\x00\x00\x10\xd3@\x00\x00\x00\x00\x00\x10\xd3@\x00\x00\x00\x00\x00\x10\xd3@\x00\x00\x00\x00\x00\x10\xd3@\x00\x00\x00\x00\x00\x10\xd3@\x00\x00\x00\x00\x00\x10\xd3@\x00\x00\x00\x00\x00\x10\xd3@\x00\x00\x00\x00\x00\x00\xf0?\x00\x00\x00\x00\x00\x00\xf0\xbf'
p94
tp95
bag19
(g20
(I0
tp96
g22
tp97
Rp98
(I1
(I31
I15
tp99
g29
I00
(lp100
S'2016preVFP'
p101
ag101
ag101
ag101
ag101
ag101
ag101
ag101
ag101
ag101
ag101
ag101
ag101
ag33
ag33
aS'sig'
p102
ag102
ag102
ag102
ag102
ag102
ag102
ag102
ag102
ag102
ag102
ag102
ag102
aS'bkg'
p103
ag18
aS'GG2HMf05ph0'
p104
aS'GG2HbsmM'
p105
aS'GG2Hsm'
p106
aS'TTHsm'
p107
aS'VBFMf05ph0'
p108
aS'VBFbsmM'
p109
aS'VBFsm'
p110
aS'WHMf05ph0'
p111
aS'WHbsmM'
p112
aS'WHsm'
p113
aS'ZHMf05ph0'
p114
aS'ZHbsmM'
p115
aS'ZHsm'
p116
aS'bkg_mass'
p117
aS'data_obs'
p118
aS'GG2HMf05ph0_2016preVFP_hgg'
p119
aS'GG2HbsmM_2016preVFP_hgg'
p120
aS'GG2Hsm_2016preVFP_hgg'
p121
aS'tth0P_2016preVFP_hgg'
p122
aS'vbf0Mf05ph0_2016preVFP_hgg'
p123
aS'vbf0M_2016preVFP_hgg'
p124
aS'vbf0P_2016preVFP_hgg'
p125
aS'wh0Mf05ph0_2016preVFP_hgg'
p126
aS'wh0M_2016preVFP_hgg'
p127
aS'wh0P_2016preVFP_hgg'
p128
aS'zh0Mf05ph0_2016preVFP_hgg'
p129
aS'zh0M_2016preVFP_hgg'
p130
aS'zh0P_2016preVFP_hgg'
p131
ag117
ag118
aS'jjh0Mf05ph0'
p132
aS'jjh0M'
p133
aS'jjh0P'
p134
aS'tth0P'
p135
aS'vbf0Mf05ph0'
p136
aS'vbf0M'
p137
aS'vbf0P'
p138
aS'wh0Mf05ph0'
p139
aS'wh0M'
p140
aS'wh0P'
p141
aS'zh0Mf05ph0'
p142
aS'zh0M'
p143
aS'zh0P'
p144
aS'-'
p145
ag145
aS'AC_Bin16_2016preVFP'
p146
aS'AC_Bin16_2016preVFP'
p147
aS'AC_Bin16_2016preVFP'
p148
aS'AC_Bin16_2016preVFP'
p149
aS'AC_Bin16_2016preVFP'
p150
aS'AC_Bin16_2016preVFP'
p151
aS'AC_Bin16_2016preVFP'
p152
aS'AC_Bin16_2016preVFP'
p153
aS'AC_Bin16_2016preVFP'
p154
aS'AC_Bin16_2016preVFP'
p155
aS'AC_Bin16_2016preVFP'
p156
aS'AC_Bin16_2016preVFP'
p157
aS'AC_Bin16_2016preVFP'
p158
aS'AC_Bin16_2016preVFP'
p159
ag159
aS'Trees/Opt_2016preVFP/2016PreVFP/Trees2WS_2016preVFP/WS/output_GluGluHToGGPlusTwoJets_MM_M125_TuneCP5_13TeV-amcatnlopowheg-minlo-pythia8_GG2HMf05ph0.root'
p160
aS'Trees/Opt_2016preVFP/2016PreVFP/Trees2WS_2016preVFP/WS/output_GluGluHToGGPlusTwoJets_CPodd_M125_TuneCP5_13TeV-amcatnlopowheg-minlo-pythia8_GG2HbsmM.root'
p161
aS'Trees/Opt_2016preVFP/2016PreVFP/Trees2WS_2016preVFP/WS/output_GluGluHToGGPlusTwoJets_SM_M125_TuneCP5_13TeV-amcatnlopowheg-minlo-pythia8_GG2Hsm.root'
p162
aS'Trees/Opt_2016preVFP/2016PreVFP/Trees2WS_2016preVFP/WS/output_ttHJetToGG_M125_TuneCP5_13TeV-amcatnloFXFX-madspin-pythia8_TTHsm.root'
p163
aS'Trees/Opt_2016preVFP/2016PreVFP/Trees2WS_2016preVFP/WS/output_VBFHiggs0Mf05ph0ToGG_M125_TuneCP5_13TeV-JHUGenV7011-pythia8_VBFMf05ph0.root'
p164
aS'Trees/Opt_2016preVFP/2016PreVFP/Trees2WS_2016preVFP/WS/output_VBFHiggs0MToGG_M125_TuneCP5_13TeV-JHUGenV7011-pythia8_VBFbsmM.root'
p165
aS'Trees/Opt_2016preVFP/2016PreVFP/Trees2WS_2016preVFP/WS/output_VBFHToGG_M125_TuneCP5_13TeV-amcatnlo-pythia8_VBFsm.root'
p166
aS'Trees/Opt_2016preVFP/2016PreVFP/Trees2WS_2016preVFP/WS/output_WHiggs0Mf05ph0ToGG_M125_TuneCP5_13TeV-JHUGenV7011-pythia8_WHMf05ph0.root'
p167
aS'Trees/Opt_2016preVFP/2016PreVFP/Trees2WS_2016preVFP/WS/output_WHiggs0MToGG_M125_TuneCP5_13TeV-JHUGenV7011-pythia8_WHbsmM.root'
p168
aS'Trees/Opt_2016preVFP/2016PreVFP/Trees2WS_2016preVFP/WS/output_WHiggs0PMToGG_M125_TuneCP5_13TeV-JHUGenV7011-pythia8_WHsm.root'
p169
aS'Trees/Opt_2016preVFP/2016PreVFP/Trees2WS_2016preVFP/WS/output_ZHiggs0Mf05ph0ToGG_M125_TuneCP5_13TeV-JHUGenV7011-pythia8_ZHMf05ph0.root'
p170
aS'Trees/Opt_2016preVFP/2016PreVFP/Trees2WS_2016preVFP/WS/output_ZHiggs0MToGG_M125_TuneCP5_13TeV-JHUGenV7011-pythia8_ZHbsmM.root'
p171
aS'Trees/Opt_2016preVFP/2016PreVFP/Trees2WS_2016preVFP/WS/output_ZH_HToGG_ZToAll_M125_TuneCP5_13TeV-powheg-pythia8_ZHsm.root'
p172
ag145
ag145
aS'jjh0Mf05ph0_125_13TeV_AC_Bin16'
p173
aS'jjh0M_125_13TeV_AC_Bin16'
p174
aS'jjh0P_125_13TeV_AC_Bin16'
p175
aS'tth0P_125_13TeV_AC_Bin16'
p176
aS'vbf0Mf05ph0_125_13TeV_AC_Bin16'
p177
aS'vbf0M_125_13TeV_AC_Bin16'
p178
aS'vbf0P_125_13TeV_AC_Bin16'
p179
aS'wh0Mf05ph0_125_13TeV_AC_Bin16'
p180
aS'wh0M_125_13TeV_AC_Bin16'
p181
aS'wh0P_125_13TeV_AC_Bin16'
p182
aS'zh0Mf05ph0_125_13TeV_AC_Bin16'
p183
aS'zh0M_125_13TeV_AC_Bin16'
p184
aS'zh0P_125_13TeV_AC_Bin16'
p185
ag145
ag145
aS'./Models/signal/CMS-HGG_sigfit_packaged_AC_Bin16_2016preVFP.root'
p186
aS'./Models/signal/CMS-HGG_sigfit_packaged_AC_Bin16_2016preVFP.root'
p187
aS'./Models/signal/CMS-HGG_sigfit_packaged_AC_Bin16_2016preVFP.root'
p188
aS'./Models/signal/CMS-HGG_sigfit_packaged_AC_Bin16_2016preVFP.root'
p189
aS'./Models/signal/CMS-HGG_sigfit_packaged_AC_Bin16_2016preVFP.root'
p190
aS'./Models/signal/CMS-HGG_sigfit_packaged_AC_Bin16_2016preVFP.root'
p191
aS'./Models/signal/CMS-HGG_sigfit_packaged_AC_Bin16_2016preVFP.root'
p192
aS'./Models/signal/CMS-HGG_sigfit_packaged_AC_Bin16_2016preVFP.root'
p193
aS'./Models/signal/CMS-HGG_sigfit_packaged_AC_Bin16_2016preVFP.root'
p194
aS'./Models/signal/CMS-HGG_sigfit_packaged_AC_Bin16_2016preVFP.root'
p195
aS'./Models/signal/CMS-HGG_sigfit_packaged_AC_Bin16_2016preVFP.root'
p196
aS'./Models/signal/CMS-HGG_sigfit_packaged_AC_Bin16_2016preVFP.root'
p197
aS'./Models/signal/CMS-HGG_sigfit_packaged_AC_Bin16_2016preVFP.root'
p198
aS'./Models/background/CMS-HGG_multipdf_AC_Bin16_2016preVFP.root'
p199
ag199
aS'wsig_13TeV:hggpdfsmrel_GG2HMf05ph0_2016preVFP_AC_Bin16_13TeV'
p200
aS'wsig_13TeV:hggpdfsmrel_GG2HbsmM_2016preVFP_AC_Bin16_13TeV'
p201
aS'wsig_13TeV:hggpdfsmrel_GG2Hsm_2016preVFP_AC_Bin16_13TeV'
p202
aS'wsig_13TeV:hggpdfsmrel_TTHsm_2016preVFP_AC_Bin16_13TeV'
p203
aS'wsig_13TeV:hggpdfsmrel_VBFMf05ph0_2016preVFP_AC_Bin16_13TeV'
p204
aS'wsig_13TeV:hggpdfsmrel_VBFbsmM_2016preVFP_AC_Bin16_13TeV'
p205
aS'wsig_13TeV:hggpdfsmrel_VBFsm_2016preVFP_AC_Bin16_13TeV'
p206
aS'wsig_13TeV:hggpdfsmrel_WHMf05ph0_2016preVFP_AC_Bin16_13TeV'
p207
aS'wsig_13TeV:hggpdfsmrel_WHbsmM_2016preVFP_AC_Bin16_13TeV'
p208
aS'wsig_13TeV:hggpdfsmrel_WHsm_2016preVFP_AC_Bin16_13TeV'
p209
aS'wsig_13TeV:hggpdfsmrel_ZHMf05ph0_2016preVFP_AC_Bin16_13TeV'
p210
aS'wsig_13TeV:hggpdfsmrel_ZHbsmM_2016preVFP_AC_Bin16_13TeV'
p211
aS'wsig_13TeV:hggpdfsmrel_ZHsm_2016preVFP_AC_Bin16_13TeV'
p212
aS'multipdf:CMS_hgg_AC_Bin16_2016preVFP_13TeV_bkgshape'
p213
aS'multipdf:roohist_data_mass_AC_Bin16'
p214
aF0.047180380447571224
aF0.038825026681593044
aF0.030449289518628575
aF0.0006676661018900631
aF0.007793090605900943
aF0.0025622726881238123
aF0.01597117251230884
aF0.0007842211838351432
aF0.0005247984106517833
aF0.001105193040643826
aF0.00021849375661986414
aF0.00022587044804822654
aF0.0008513138695889211
ag145
ag145
aF7.25214208275977e-05
aF6.6835858632391825e-06
aF3.85834449437697e-06
aF3.2632649192203656e-08
aF5.152405747125421e-07
aF1.3863321925703468e-07
aF3.840105174322778e-06
aF3.6764429075121994e-08
aF5.81499280181999e-09
aF5.484467395961938e-08
aF1.3177121105160919e-08
aF5.10174593015066e-08
aF1.4795528038061873e-08
ag145
ag145
aF0.04874640408045683
aF0.039970383961018575
aF0.031401922956096215
aF0.0006908658336525224
aF0.008050209688534803
aF0.0026457441725681666
aF0.016363922974409965
aF0.0008015846643500823
aF0.0005411464624604993
aF0.001133650257420569
aF0.00022203180136692538
aF0.00023307346024499924
aF0.0008730165002283338
ag145
ag145
aF0.047472587139974626
aF0.03907364267768682
aF0.030642841819129095
aF0.0006721294529499776
aF0.007843158311396776
aF0.0025778908280672474
aF0.016073141656069944
aF0.000789228811644303
aF0.0005281642347068201
aF0.0011121199385094418
aF0.00021976471974127787
aF0.000227206313954924
aF0.0008566536668967651
ag145
ag145
aF0.046889079823558305
aF0.038577204598874794
aF0.030256351136927772
aF0.0006632175891185736
aF0.007743183276983122
aF0.0025467021525004377
aF0.015869528141191542
aF0.0007792295410929282
aF0.0005214433478524316
aF0.0010982877958917265
aF0.00021722646769800638
aF0.00022453843029777193
aF0.0008459907553042836
ag145
ag145
aF0.04825614013818897
aF0.03951168982128914
aF0.031005949094933073
aF0.0006769075695743169
aF0.007933085500349409
aF0.002627926348706276
aF0.016262433681477464
aF0.0007975022910255166
aF0.0005341823831024101
aF0.0011232171409000528
aF0.00022422486874449973
aF0.00023490023697174438
aF0.0008689146621608945
ag145
ag145
aF0.04611437616653132
aF0.038144306456339074
aF0.02989769903761709
aF0.000658498716105231
aF0.0076543183019648275
aF0.002497590189841462
aF0.015682538753858742
aF0.0007710660567047541
aF0.0005154862293524017
aF0.0010873226939105065
aF0.0002128066268419057
aF0.00021692993079263826
aF0.0008339013191621386
ag145
ag145
aF0.04729537991300637
aF0.03890444309340918
aF0.03051333837313451
aF0.0006685990178643777
aF0.007809893183936613
aF0.0025689971634447555
aF0.016003230552016006
aF0.0007859538709776864
aF0.0005258876220159543
aF0.001107823152346475
aF0.00021932005122904334
aF0.00022645802121895177
aF0.0008535972852513456
ag145
ag145
aF0.047065524888792884
aF0.03874568447417324
aF0.03038530502572903
aF0.0006667336918141032
aF0.007776305027985632
aF0.0025555565924266334
aF0.015939153384362987
aF0.0007824909443710837
aF0.0005237101610609047
aF0.0011025662646050453
aF0.00021766859141814608
aF0.00022528334721436864
aF0.0008490329861287684
ag145
ag145
aF0.047281954933085645
aF0.038909004351572116
aF0.030516546375930972
aF0.0006692098076481785
aF0.007811110531656097
aF0.0025679196657294565
aF0.01600319302653199
aF0.0007859749027349051
aF0.0005259662745483309
aF0.0011075919090592493
aF0.00021900627801928028
aF0.0002263261697716565
aF0.000853222942348977
ag145
ag145
aF0.04707891583904362
aF0.03874114008881699
aF0.03038210703268952
aF0.0006661241658206961
aF0.007775091395953142
aF0.002556631917608669
aF0.015939184854530167
aF0.0007824694263286672
aF0.0005236318452434617
aF0.001102796774907655
aF0.0002179818283540997
aF0.0002254151986616639
aF0.0008494069201323527
ag145
ag145
aF0.04845268780627521
aF0.041284025046138595
aF0.031678484099984416
aF0.0005748088651671424
aF0.008727379963033854
aF0.002678293911230867
aF0.01624174111702814
aF0.0007998547563374814
aF0.0005439522130927799
aF0.001103823358448608
aF0.00021849375661986414
aF0.00022587044804822654
aF0.0009188071733206016
ag145
ag145
aF0.04612536517447552
aF0.037704153609638524
aF0.02898737800296658
aF0.0006552875926217894
aF0.006432511730054102
aF0.0023835492486341536
aF0.009529250797299937
aF0.0008115814623579354
aF0.0004593934008880751
aF0.001064124582740078
aF0.00021849375661986414
aF0.00022587044804822654
aF0.0008082251915766392
ag145
ag145
aF0.04666368250786945
aF0.04350144810314305
aF0.03012374432978504
aF0.0006194637054477425
aF0.00797373048510508
aF0.0026077010086282826
aF0.00978107341438772
aF0.0007976764032946448
aF0.0005543891695651837
aF0.0010362733411284353
aF0.0002497410441719694
aF0.00022587044804822654
aF0.0007998417531780433
ag145
ag145
aF0.04536760339351531
aF0.038971046125766406
aF0.029333762164696964
aF0.0005512466925665649
aF0.00779208563130851
aF0.0026714604463222713
aF0.017473141561936245
aF0.0008484542515816429
aF0.0005307880162490619
aF0.001134264571305721
aF0.00021849375661986414
aF0.00022587044804822654
aF0.0007897517064066051
ag145
ag145
aF0.04838468558159548
aF0.039499221563914944
aF0.030963514278028015
aF0.0006676661018900631
aF0.007993966742560588
aF0.0025622726881238123
aF0.010178098097640031
aF0.0008089176611747462
aF0.0005309331696707886
aF0.0011496983546521733
aF0.00021849375661986414
aF0.00022587044804822654
aF0.0008702644536242587
ag145
ag145
aF0.044322011185386145
aF0.03808065637315394
aF0.029884260200105928
aF0.0006676661018900631
aF0.0073533691844431814
aF0.0025425443903941414
aF0.015409571168788716
aF0.0007374122182000065
aF0.000522371434726665
aF0.0010909046494589347
aF0.00021849375661986414
aF0.00022587044804822654
aF0.000843916668145539
ag145
ag145
aF0.04923168741220252
aF0.042199355845127684
aF0.03211641171583324
aF0.0005715727958204297
aF0.008038943246333474
aF0.0025376455107561924
aF0.00991720616184466
aF0.0008558402407743415
aF0.0005040912107006079
aF0.0010827819033920605
aF0.000300094927297323
aF0.00022587044804822654
aF0.0010264241473123548
ag145
ag145
aF0.044392896928911796
aF0.0356372154718656
aF0.0292408833834088
aF0.0005954354554660313
aF0.007805261336216063
aF0.002484991178675955
aF0.012952203894656122
aF0.0006643783095796607
aF0.0005033970934391618
aF0.0011237904601557602
aF0.00019179742957931012
aF0.00022587044804822654
aF0.0009175071272693458
ag145
ag145
aF0.047184479128191015
aF0.039100329342431905
aF0.030655571184524888
aF0.0006615300274006586
aF0.007774888846256545
aF0.0025691266793046452
aF0.017066465059656366
aF0.0007966116899069675
aF0.0005408027832345397
aF0.0010102234039095492
aF0.00026718063418229576
aF0.00022587044804822654
aF0.0008822954819152073
ag145
ag145
aF0.04676203735175477
aF0.03852586384721235
aF0.029611727303063162
aF0.0006893782997394737
aF0.007894284890880954
aF0.0025349790528252925
aF0.016151920712331957
aF0.000746370684169051
aF0.0005346530042515951
aF0.0010931403079439406
aF0.00022471172269433737
aF0.00022587044804822654
aF0.0008165293520505656
ag145
ag145
atp215
ba(lp216
g15
(g16
(dp217
g18
g19
(g20
(I0
tp218
g22
tp219
Rp220
(I1
(I1
tp221
g29
I00
(lp222
g43
atp223
bsg66
Nstp224
Rp225
ag15
(g16
(dp226
g18
g19
(g20
(I0
tp227
g22
tp228
Rp229
(I1
(I31
tp230
g29
I00
(lp231
g33
ag34
ag35
ag36
ag37
ag38
ag39
ag40
ag41
ag42
ag44
ag45
ag46
ag47
ag48
ag49
ag50
ag51
ag52
ag53
ag54
ag55
ag56
ag57
ag58
ag59
ag60
ag61
ag62
ag63
ag64
atp232
bsg66
Nstp233
Rp234
a(dp235
S'0.14.1'
p236
(dp237
S'axes'
p238
g14
sS'blocks'
p239
(lp240
(dp241
S'mgr_locs'
p242
c__builtin__
slice
p243
(I10
I11
I1
tp244
Rp245
sS'values'
p246
g87
sa(dp247
g242
g19
(g20
(I0
tp248
g22
tp249
Rp250
(I1
(I31
tp251
g77
I00
S'\x00\x00\x00\x00\x00\x00\x00\x00\x01\x00\x00\x00\x00\x00\x00\x00\x02\x00\x00\x00\x00\x00\x00\x00\x03\x00\x00\x00\x00\x00\x00\x00\x04\x00\x00\x00\x00\x00\x00\x00\x05\x00\x00\x00\x00\x00\x00\x00\x06\x00\x00\x00\x00\x00\x00\x00\x07\x00\x00\x00\x00\x00\x00\x00\x08\x00\x00\x00\x00\x00\x00\x00\t\x00\x00\x00\x00\x00\x00\x00\x0b\x00\x00\x00\x00\x00\x00\x00\x0c\x00\x00\x00\x00\x00\x00\x00\r\x00\x00\x00\x00\x00\x00\x00\x0e\x00\x00\x00\x00\x00\x00\x00\x0f\x00\x00\x00\x00\x00\x00\x00\x10\x00\x00\x00\x00\x00\x00\x00\x11\x00\x00\x00\x00\x00\x00\x00\x12\x00\x00\x00\x00\x00\x00\x00\x13\x00\x00\x00\x00\x00\x00\x00\x14\x00\x00\x00\x00\x00\x00\x00\x15\x00\x00\x00\x00\x00\x00\x00\x16\x00\x00\x00\x00\x00\x00\x00\x17\x00\x00\x00\x00\x00\x00\x00\x18\x00\x00\x00\x00\x00\x00\x00\x19\x00\x00\x00\x00\x00\x00\x00\x1a\x00\x00\x00\x00\x00\x00\x00\x1b\x00\x00\x00\x00\x00\x00\x00\x1c\x00\x00\x00\x00\x00\x00\x00\x1d\x00\x00\x00\x00\x00\x00\x00\x1e\x00\x00\x00\x00\x00\x00\x00\x1f\x00\x00\x00\x00\x00\x00\x00'
p252
tp253
bsg246
g98
sasstp254
bsb.