ccopy_reg
_reconstructor
p0
(cpandas.core.frame
DataFrame
p1
c__builtin__
object
p2
Ntp3
Rp4
(dp5
S'_metadata'
p6
(lp7
sS'_typ'
p8
S'dataframe'
p9
sS'_data'
p10
g0
(cpandas.core.internals
BlockManager
p11
g2
Ntp12
Rp13
((lp14
cpandas.core.indexes.base
_new_Index
p15
(cpandas.core.indexes.base
Index
p16
(dp17
S'data'
p18
cnumpy.core.multiarray
_reconstruct
p19
(cnumpy
ndarray
p20
(I0
tp21
S'b'
p22
tp23
Rp24
(I1
(I32
tp25
cnumpy
dtype
p26
(S'O8'
p27
I0
I1
tp28
Rp29
(I3
S'|'
p30
NNNI-1
I-1
I63
tp31
bI00
(lp32
S'year'
p33
aS'type'
p34
aS'procOriginal'
p35
aS'proc'
p36
aS'proc_s0'
p37
aS'cat'
p38
aS'inputWSFile'
p39
aS'nominalDataName'
p40
aS'modelWSFile'
p41
aS'model'
p42
aS'rate'
p43
aS'nominal_yield'
p44
aS'sumw2'
p45
aS'nominal_yield_COWCorr'
p46
aS'LooseMvaSF_up_yield'
p47
aS'LooseMvaSF_down_yield'
p48
aS'PreselSF_up_yield'
p49
aS'PreselSF_down_yield'
p50
aS'electronVetoSF_up_yield'
p51
aS'electronVetoSF_down_yield'
p52
aS'TriggerWeight_up_yield'
p53
aS'TriggerWeight_down_yield'
p54
aS'SigmaEOverEShift_up_yield'
p55
aS'SigmaEOverEShift_down_yield'
p56
aS'MvaShift_up_yield'
p57
aS'MvaShift_down_yield'
p58
aS'PUJIDShift_up_yield'
p59
aS'PUJIDShift_down_yield'
p60
aS'JEC_up_yield'
p61
aS'JEC_down_yield'
p62
aS'JER_up_yield'
p63
aS'JER_down_yield'
p64
atp65
bsS'name'
p66
Nstp67
Rp68
ag15
(cpandas.core.indexes.numeric
Int64Index
p69
(dp70
g18
g19
(g20
(I0
tp71
g22
tp72
Rp73
(I1
(I15
tp74
g26
(S'i8'
p75
I0
I1
tp76
Rp77
(I3
S'<'
p78
NNNI-1
I-1
I0
tp79
bI00
S'\x00\x00\x00\x00\x00\x00\x00\x00\x01\x00\x00\x00\x00\x00\x00\x00\x02\x00\x00\x00\x00\x00\x00\x00\x03\x00\x00\x00\x00\x00\x00\x00\x04\x00\x00\x00\x00\x00\x00\x00\x05\x00\x00\x00\x00\x00\x00\x00\x06\x00\x00\x00\x00\x00\x00\x00\x07\x00\x00\x00\x00\x00\x00\x00\x08\x00\x00\x00\x00\x00\x00\x00\t\x00\x00\x00\x00\x00\x00\x00\n\x00\x00\x00\x00\x00\x00\x00\x0b\x00\x00\x00\x00\x00\x00\x00\x0c\x00\x00\x00\x00\x00\x00\x00\r\x00\x00\x00\x00\x00\x00\x00\x0e\x00\x00\x00\x00\x00\x00\x00'
p80
tp81
bsg66
Nstp82
Rp83
a(lp84
g19
(g20
(I0
tp85
g22
tp86
Rp87
(I1
(I1
I15
tp88
g26
(S'f8'
p89
I0
I1
tp90
Rp91
(I3
S'<'
p92
NNNI-1
I-1
I0
tp93
bI00
S'\x00\x00\x00\x00\x00\x10\xd3@\x00\x00\x00\x00\x00\x10\xd3@\x00\x00\x00\x00\x00\x10\xd3@\x00\x00\x00\x00\x00\x10\xd3@\x00\x00\x00\x00\x00\x10\xd3@\x00\x00\x00\x00\x00\x10\xd3@\x00\x00\x00\x00\x00\x10\xd3@\x00\x00\x00\x00\x00\x10\xd3@\x00\x00\x00\x00\x00\x10\xd3@\x00\x00\x00\x00\x00\x10\xd3@\x00\x00\x00\x00\x00\x10\xd3@\x00\x00\x00\x00\x00\x10\xd3@\x00\x00\x00\x00\x00\x10\xd3@\x00\x00\x00\x00\x00\x00\xf0?\x00\x00\x00\x00\x00\x00\xf0\xbf'
p94
tp95
bag19
(g20
(I0
tp96
g22
tp97
Rp98
(I1
(I31
I15
tp99
g29
I00
(lp100
S'2016preVFP'
p101
ag101
ag101
ag101
ag101
ag101
ag101
ag101
ag101
ag101
ag101
ag101
ag101
ag33
ag33
aS'sig'
p102
ag102
ag102
ag102
ag102
ag102
ag102
ag102
ag102
ag102
ag102
ag102
ag102
aS'bkg'
p103
ag18
aS'GG2HMf05ph0'
p104
aS'GG2HbsmM'
p105
aS'GG2Hsm'
p106
aS'TTHsm'
p107
aS'VBFMf05ph0'
p108
aS'VBFbsmM'
p109
aS'VBFsm'
p110
aS'WHMf05ph0'
p111
aS'WHbsmM'
p112
aS'WHsm'
p113
aS'ZHMf05ph0'
p114
aS'ZHbsmM'
p115
aS'ZHsm'
p116
aS'bkg_mass'
p117
aS'data_obs'
p118
aS'GG2HMf05ph0_2016preVFP_hgg'
p119
aS'GG2HbsmM_2016preVFP_hgg'
p120
aS'GG2Hsm_2016preVFP_hgg'
p121
aS'tth0P_2016preVFP_hgg'
p122
aS'vbf0Mf05ph0_2016preVFP_hgg'
p123
aS'vbf0M_2016preVFP_hgg'
p124
aS'vbf0P_2016preVFP_hgg'
p125
aS'wh0Mf05ph0_2016preVFP_hgg'
p126
aS'wh0M_2016preVFP_hgg'
p127
aS'wh0P_2016preVFP_hgg'
p128
aS'zh0Mf05ph0_2016preVFP_hgg'
p129
aS'zh0M_2016preVFP_hgg'
p130
aS'zh0P_2016preVFP_hgg'
p131
ag117
ag118
aS'jjh0Mf05ph0'
p132
aS'jjh0M'
p133
aS'jjh0P'
p134
aS'tth0P'
p135
aS'vbf0Mf05ph0'
p136
aS'vbf0M'
p137
aS'vbf0P'
p138
aS'wh0Mf05ph0'
p139
aS'wh0M'
p140
aS'wh0P'
p141
aS'zh0Mf05ph0'
p142
aS'zh0M'
p143
aS'zh0P'
p144
aS'-'
p145
ag145
aS'AC_Bin2_2016preVFP'
p146
aS'AC_Bin2_2016preVFP'
p147
aS'AC_Bin2_2016preVFP'
p148
aS'AC_Bin2_2016preVFP'
p149
aS'AC_Bin2_2016preVFP'
p150
aS'AC_Bin2_2016preVFP'
p151
aS'AC_Bin2_2016preVFP'
p152
aS'AC_Bin2_2016preVFP'
p153
aS'AC_Bin2_2016preVFP'
p154
aS'AC_Bin2_2016preVFP'
p155
aS'AC_Bin2_2016preVFP'
p156
aS'AC_Bin2_2016preVFP'
p157
aS'AC_Bin2_2016preVFP'
p158
aS'AC_Bin2_2016preVFP'
p159
ag159
aS'Trees/Opt_2016preVFP/2016PreVFP/Trees2WS_2016preVFP/WS/output_GluGluHToGGPlusTwoJets_MM_M125_TuneCP5_13TeV-amcatnlopowheg-minlo-pythia8_GG2HMf05ph0.root'
p160
aS'Trees/Opt_2016preVFP/2016PreVFP/Trees2WS_2016preVFP/WS/output_GluGluHToGGPlusTwoJets_CPodd_M125_TuneCP5_13TeV-amcatnlopowheg-minlo-pythia8_GG2HbsmM.root'
p161
aS'Trees/Opt_2016preVFP/2016PreVFP/Trees2WS_2016preVFP/WS/output_GluGluHToGGPlusTwoJets_SM_M125_TuneCP5_13TeV-amcatnlopowheg-minlo-pythia8_GG2Hsm.root'
p162
aS'Trees/Opt_2016preVFP/2016PreVFP/Trees2WS_2016preVFP/WS/output_ttHJetToGG_M125_TuneCP5_13TeV-amcatnloFXFX-madspin-pythia8_TTHsm.root'
p163
aS'Trees/Opt_2016preVFP/2016PreVFP/Trees2WS_2016preVFP/WS/output_VBFHiggs0Mf05ph0ToGG_M125_TuneCP5_13TeV-JHUGenV7011-pythia8_VBFMf05ph0.root'
p164
aS'Trees/Opt_2016preVFP/2016PreVFP/Trees2WS_2016preVFP/WS/output_VBFHiggs0MToGG_M125_TuneCP5_13TeV-JHUGenV7011-pythia8_VBFbsmM.root'
p165
aS'Trees/Opt_2016preVFP/2016PreVFP/Trees2WS_2016preVFP/WS/output_VBFHToGG_M125_TuneCP5_13TeV-amcatnlo-pythia8_VBFsm.root'
p166
aS'Trees/Opt_2016preVFP/2016PreVFP/Trees2WS_2016preVFP/WS/output_WHiggs0Mf05ph0ToGG_M125_TuneCP5_13TeV-JHUGenV7011-pythia8_WHMf05ph0.root'
p167
aS'Trees/Opt_2016preVFP/2016PreVFP/Trees2WS_2016preVFP/WS/output_WHiggs0MToGG_M125_TuneCP5_13TeV-JHUGenV7011-pythia8_WHbsmM.root'
p168
aS'Trees/Opt_2016preVFP/2016PreVFP/Trees2WS_2016preVFP/WS/output_WHiggs0PMToGG_M125_TuneCP5_13TeV-JHUGenV7011-pythia8_WHsm.root'
p169
aS'Trees/Opt_2016preVFP/2016PreVFP/Trees2WS_2016preVFP/WS/output_ZHiggs0Mf05ph0ToGG_M125_TuneCP5_13TeV-JHUGenV7011-pythia8_ZHMf05ph0.root'
p170
aS'Trees/Opt_2016preVFP/2016PreVFP/Trees2WS_2016preVFP/WS/output_ZHiggs0MToGG_M125_TuneCP5_13TeV-JHUGenV7011-pythia8_ZHbsmM.root'
p171
aS'Trees/Opt_2016preVFP/2016PreVFP/Trees2WS_2016preVFP/WS/output_ZH_HToGG_ZToAll_M125_TuneCP5_13TeV-powheg-pythia8_ZHsm.root'
p172
ag145
ag145
aS'jjh0Mf05ph0_125_13TeV_AC_Bin2'
p173
aS'jjh0M_125_13TeV_AC_Bin2'
p174
aS'jjh0P_125_13TeV_AC_Bin2'
p175
aS'tth0P_125_13TeV_AC_Bin2'
p176
aS'vbf0Mf05ph0_125_13TeV_AC_Bin2'
p177
aS'vbf0M_125_13TeV_AC_Bin2'
p178
aS'vbf0P_125_13TeV_AC_Bin2'
p179
aS'wh0Mf05ph0_125_13TeV_AC_Bin2'
p180
aS'wh0M_125_13TeV_AC_Bin2'
p181
aS'wh0P_125_13TeV_AC_Bin2'
p182
aS'zh0Mf05ph0_125_13TeV_AC_Bin2'
p183
aS'zh0M_125_13TeV_AC_Bin2'
p184
aS'zh0P_125_13TeV_AC_Bin2'
p185
ag145
ag145
aS'./Models/signal/CMS-HGG_sigfit_packaged_AC_Bin2_2016preVFP.root'
p186
aS'./Models/signal/CMS-HGG_sigfit_packaged_AC_Bin2_2016preVFP.root'
p187
aS'./Models/signal/CMS-HGG_sigfit_packaged_AC_Bin2_2016preVFP.root'
p188
aS'./Models/signal/CMS-HGG_sigfit_packaged_AC_Bin2_2016preVFP.root'
p189
aS'./Models/signal/CMS-HGG_sigfit_packaged_AC_Bin2_2016preVFP.root'
p190
aS'./Models/signal/CMS-HGG_sigfit_packaged_AC_Bin2_2016preVFP.root'
p191
aS'./Models/signal/CMS-HGG_sigfit_packaged_AC_Bin2_2016preVFP.root'
p192
aS'./Models/signal/CMS-HGG_sigfit_packaged_AC_Bin2_2016preVFP.root'
p193
aS'./Models/signal/CMS-HGG_sigfit_packaged_AC_Bin2_2016preVFP.root'
p194
aS'./Models/signal/CMS-HGG_sigfit_packaged_AC_Bin2_2016preVFP.root'
p195
aS'./Models/signal/CMS-HGG_sigfit_packaged_AC_Bin2_2016preVFP.root'
p196
aS'./Models/signal/CMS-HGG_sigfit_packaged_AC_Bin2_2016preVFP.root'
p197
aS'./Models/signal/CMS-HGG_sigfit_packaged_AC_Bin2_2016preVFP.root'
p198
aS'./Models/background/CMS-HGG_multipdf_AC_Bin2_2016preVFP.root'
p199
ag199
aS'wsig_13TeV:hggpdfsmrel_GG2HMf05ph0_2016preVFP_AC_Bin2_13TeV'
p200
aS'wsig_13TeV:hggpdfsmrel_GG2HbsmM_2016preVFP_AC_Bin2_13TeV'
p201
aS'wsig_13TeV:hggpdfsmrel_GG2Hsm_2016preVFP_AC_Bin2_13TeV'
p202
aS'wsig_13TeV:hggpdfsmrel_TTHsm_2016preVFP_AC_Bin2_13TeV'
p203
aS'wsig_13TeV:hggpdfsmrel_VBFMf05ph0_2016preVFP_AC_Bin2_13TeV'
p204
aS'wsig_13TeV:hggpdfsmrel_VBFbsmM_2016preVFP_AC_Bin2_13TeV'
p205
aS'wsig_13TeV:hggpdfsmrel_VBFsm_2016preVFP_AC_Bin2_13TeV'
p206
aS'wsig_13TeV:hggpdfsmrel_WHMf05ph0_2016preVFP_AC_Bin2_13TeV'
p207
aS'wsig_13TeV:hggpdfsmrel_WHbsmM_2016preVFP_AC_Bin2_13TeV'
p208
aS'wsig_13TeV:hggpdfsmrel_WHsm_2016preVFP_AC_Bin2_13TeV'
p209
aS'wsig_13TeV:hggpdfsmrel_ZHMf05ph0_2016preVFP_AC_Bin2_13TeV'
p210
aS'wsig_13TeV:hggpdfsmrel_ZHbsmM_2016preVFP_AC_Bin2_13TeV'
p211
aS'wsig_13TeV:hggpdfsmrel_ZHsm_2016preVFP_AC_Bin2_13TeV'
p212
aS'multipdf:CMS_hgg_AC_Bin2_2016preVFP_13TeV_bkgshape'
p213
aS'multipdf:roohist_data_mass_AC_Bin2'
p214
aF0.23712085120712345
aF0.24059141852035282
aF0.252552552116299
aF0.0039972821814444615
aF0.01132540458212361
aF0.006573007101110306
aF0.0302801564581614
aF0.011122763265689173
aF0.011563294425116055
aF0.016772537957592704
aF0.007973177776875673
aF0.007946331119455863
aF0.011720833314711854
ag145
ag145
aF5.652535110231708e-05
aF0.00011086382416377058
aF9.443963540923682e-05
aF8.037604296014556e-07
aF6.159619862186561e-07
aF4.49121044583225e-07
aF7.170818506693562e-06
aF3.508783647519004e-07
aF4.0572778706303427e-07
aF9.147521677856595e-07
aF2.83985911372376e-06
aF6.26429405214593e-06
aF8.857225439753283e-07
ag145
ag145
aF0.2451341882583591
aF0.24843406898885584
aF0.26115146096506126
aF0.004175582677356333
aF0.011688746156106421
aF0.0067998879622743705
aF0.03128925793741933
aF0.011459812698159644
aF0.011927278618115088
aF0.017362016861237287
aF0.008297712492731701
aF0.008126261058918898
aF0.012136665252368131
ag145
ag145
aF0.23862449164833904
aF0.24211820750070304
aF0.25415495905789576
aF0.004022985023376624
aF0.011396549018414538
aF0.006614349461035973
aF0.030470716495288916
aF0.01119342197472549
aF0.01163616990784598
aF0.01687869691253429
aF0.008024236462374042
aF0.007998337041343482
aF0.011795232693300291
ag145
ag145
aF0.23562196507789698
aF0.23906946192018383
aF0.2509552222730518
aF0.003971661686204133
aF0.011254482886959407
aF0.006531794183085982
aF0.030090193883989962
aF0.01105232848543031
aF0.011490648020492832
aF0.016666714396051035
aF0.007922282012571183
aF0.007894495137010158
aF0.011646669105024269
ag145
ag145
aF0.2416900054094073
aF0.24520973570358479
aF0.2574034542508116
aF0.004086533198593268
aF0.011548537739651102
aF0.006706345575847239
aF0.030935059512485825
aF0.011328205132349535
aF0.011788234001430305
aF0.017082848794352356
aF0.008118368511302397
aF0.008071016540561079
aF0.011928148052769403
ag145
ag145
aF0.23259334415695734
aF0.23601568046345336
aF0.24775085714995906
aF0.003908932106704099
aF0.011104208615161341
aF0.006440859614112659
aF0.029631599850396758
aF0.010919127646963955
aF0.011340476835712881
aF0.016465047932229058
aF0.007829080183867236
aF0.007822661549081723
aF0.011515185157806774
ag145
ag145
aF0.23768088151917455
aF0.24114422606005756
aF0.253115420393797
aF0.004005677636587443
aF0.01135216951982451
aF0.006588064282920601
aF0.030347644928779328
aF0.011147279372138205
aF0.01159122408819141
aF0.016811012658550673
aF0.007989865003813988
aF0.007961846716647975
aF0.011750489094322358
ag145
ag145
aF0.23656144084948372
aF0.2400392472839866
aF0.25199031034292135
aF0.0039888942768681965
aF0.011298668238261148
aF0.006557965774932318
aF0.03021273421135666
aF0.011098273681689414
aF0.011535397241610809
aF0.016734110475753936
aF0.007956508110523779
aF0.007930828373158352
aF0.01169121743287109
ag145
ag145
aF0.23768473372278867
aF0.24114624287961933
aF0.25313622423304766
aF0.004005827285556614
aF0.01135101976744748
aF0.006588193294417672
aF0.030348060428527078
aF0.011148502944453863
aF0.011590297051024843
aF0.01681364237225912
aF0.007991720745822545
aF0.007962409919812374
aF0.011755315173736203
ag145
ag145
aF0.2365576409273054
aF0.24003725079033025
aF0.25196954910187747
aF0.003988746313578557
aF0.011299818172553072
aF0.0065578384356499
aF0.03021232687426163
aF0.011097052990907874
aF0.011536322849251109
aF0.016731482735228898
aF0.007954655989046044
aF0.00793026867799233
aF0.011686397523063727
ag145
ag145
aF0.24909575278331886
aF0.25372982438352665
aF0.2653639965097909
aF0.004400283815243711
aF0.011459104722973734
aF0.007007287840224308
aF0.030365311688683505
aF0.011528352795494357
aF0.012498942285844805
aF0.01720741562718331
aF0.00876030967629049
aF0.009050884033058537
aF0.012174230975915634
ag145
ag145
aF0.22717321930110757
aF0.23124966945829328
aF0.24093931292520665
aF0.003873937117987225
aF0.010828334999644085
aF0.006023880608154286
aF0.0236906675481805
aF0.0106470226746751
aF0.010924429508293088
aF0.016006984954344716
aF0.007791846412146697
aF0.007920405878394376
aF0.011166438499003561
ag145
ag145
aF0.2386852160274202
aF0.24984463022360615
aF0.24839303568512605
aF0.004362593063774511
aF0.011273118132237414
aF0.005971653083292949
aF0.024324183435396662
aF0.011404242764797345
aF0.011361158871579846
aF0.01620885729926158
aF0.006958293823117856
aF0.008432873019046383
aF0.011639435116194363
ag145
ag145
aF0.23066357615471134
aF0.23414158526054507
aF0.23848651887931283
aF0.004459718209204766
aF0.010601945617111141
aF0.006671615703794487
aF0.03360978152761618
aF0.011341987399532627
aF0.011530494741521125
aF0.016668478887311267
aF0.007959051754369284
aF0.008231812833400909
aF0.011071172169181409
ag145
ag145
aF0.24369541958287755
aF0.24498227236972525
aF0.25752969809911974
aF0.003943150200711898
aF0.011440333474695308
aF0.006593762931629499
aF0.03385778553968066
aF0.011257128753527468
aF0.011616189535118338
aF0.016955790050417363
aF0.00800269046521862
aF0.008057976432610303
aF0.011718344712107864
ag145
ag145
aF0.23370615904434544
aF0.23574568709955201
aF0.24638378080760504
aF0.004000625626076726
aF0.011153070906345874
aF0.006533353186682689
aF0.023737169958621962
aF0.010928604394507602
aF0.01141138259094987
aF0.016419032362989583
aF0.007912153338111239
aF0.007946331119455863
aF0.011608003752144214
ag145
ag145
aF0.2535970254258473
aF0.25506480660578745
aF0.2672456625051609
aF0.0037823368857061723
aF0.01189898070254003
aF0.006823498433845998
aF0.02550379193792196
aF0.011390124704121263
aF0.011968998943814313
aF0.01733800127891527
aF0.00857412623372511
aF0.00793541068196646
aF0.011823664371604536
ag145
ag145
aF0.22506593856201107
aF0.2266312715452159
aF0.23748128325075868
aF0.004134994530204494
aF0.01113671667798144
aF0.006511753330983083
aF0.0272221873426588
aF0.010914744213209815
aF0.011066457157824061
aF0.01557261454519221
aF0.007541377959569218
aF0.006857648051664
aF0.011694173291061816
ag145
ag145
aF0.23855620877873207
aF0.24336907458973656
aF0.2547338217447077
aF0.0038488842864126127
aF0.011347381184293681
aF0.006692870576785026
aF0.025238838823383958
aF0.011048701420236284
aF0.011515026267886697
aF0.01680108587271434
aF0.008125343822030118
aF0.00786868626892101
aF0.011673132197529412
ag145
ag145
aF0.23836356651133883
aF0.23804741916796957
aF0.25260331342826703
aF0.0040595017634359465
aF0.011222644309953012
aF0.006596104621280574
aF0.026015495880074013
aF0.011283930434160538
aF0.011624637075044575
aF0.01652054857100893
aF0.008554940812246059
aF0.007946331119455863
aF0.011708129737598938
ag145
ag145
atp215
ba(lp216
g15
(g16
(dp217
g18
g19
(g20
(I0
tp218
g22
tp219
Rp220
(I1
(I1
tp221
g29
I00
(lp222
g43
atp223
bsg66
Nstp224
Rp225
ag15
(g16
(dp226
g18
g19
(g20
(I0
tp227
g22
tp228
Rp229
(I1
(I31
tp230
g29
I00
(lp231
g33
ag34
ag35
ag36
ag37
ag38
ag39
ag40
ag41
ag42
ag44
ag45
ag46
ag47
ag48
ag49
ag50
ag51
ag52
ag53
ag54
ag55
ag56
ag57
ag58
ag59
ag60
ag61
ag62
ag63
ag64
atp232
bsg66
Nstp233
Rp234
a(dp235
S'0.14.1'
p236
(dp237
S'axes'
p238
g14
sS'blocks'
p239
(lp240
(dp241
S'mgr_locs'
p242
c__builtin__
slice
p243
(I10
I11
I1
tp244
Rp245
sS'values'
p246
g87
sa(dp247
g242
g19
(g20
(I0
tp248
g22
tp249
Rp250
(I1
(I31
tp251
g77
I00
S'\x00\x00\x00\x00\x00\x00\x00\x00\x01\x00\x00\x00\x00\x00\x00\x00\x02\x00\x00\x00\x00\x00\x00\x00\x03\x00\x00\x00\x00\x00\x00\x00\x04\x00\x00\x00\x00\x00\x00\x00\x05\x00\x00\x00\x00\x00\x00\x00\x06\x00\x00\x00\x00\x00\x00\x00\x07\x00\x00\x00\x00\x00\x00\x00\x08\x00\x00\x00\x00\x00\x00\x00\t\x00\x00\x00\x00\x00\x00\x00\x0b\x00\x00\x00\x00\x00\x00\x00\x0c\x00\x00\x00\x00\x00\x00\x00\r\x00\x00\x00\x00\x00\x00\x00\x0e\x00\x00\x00\x00\x00\x00\x00\x0f\x00\x00\x00\x00\x00\x00\x00\x10\x00\x00\x00\x00\x00\x00\x00\x11\x00\x00\x00\x00\x00\x00\x00\x12\x00\x00\x00\x00\x00\x00\x00\x13\x00\x00\x00\x00\x00\x00\x00\x14\x00\x00\x00\x00\x00\x00\x00\x15\x00\x00\x00\x00\x00\x00\x00\x16\x00\x00\x00\x00\x00\x00\x00\x17\x00\x00\x00\x00\x00\x00\x00\x18\x00\x00\x00\x00\x00\x00\x00\x19\x00\x00\x00\x00\x00\x00\x00\x1a\x00\x00\x00\x00\x00\x00\x00\x1b\x00\x00\x00\x00\x00\x00\x00\x1c\x00\x00\x00\x00\x00\x00\x00\x1d\x00\x00\x00\x00\x00\x00\x00\x1e\x00\x00\x00\x00\x00\x00\x00\x1f\x00\x00\x00\x00\x00\x00\x00'
p252
tp253
bsg246
g98
sasstp254
bsb.