ccopy_reg
_reconstructor
p0
(cpandas.core.frame
DataFrame
p1
c__builtin__
object
p2
Ntp3
Rp4
(dp5
S'_metadata'
p6
(lp7
sS'_typ'
p8
S'dataframe'
p9
sS'_data'
p10
g0
(cpandas.core.internals
BlockManager
p11
g2
Ntp12
Rp13
((lp14
cpandas.core.indexes.base
_new_Index
p15
(cpandas.core.indexes.base
Index
p16
(dp17
S'data'
p18
cnumpy.core.multiarray
_reconstruct
p19
(cnumpy
ndarray
p20
(I0
tp21
S'b'
p22
tp23
Rp24
(I1
(I32
tp25
cnumpy
dtype
p26
(S'O8'
p27
I0
I1
tp28
Rp29
(I3
S'|'
p30
NNNI-1
I-1
I63
tp31
bI00
(lp32
S'year'
p33
aS'type'
p34
aS'procOriginal'
p35
aS'proc'
p36
aS'proc_s0'
p37
aS'cat'
p38
aS'inputWSFile'
p39
aS'nominalDataName'
p40
aS'modelWSFile'
p41
aS'model'
p42
aS'rate'
p43
aS'nominal_yield'
p44
aS'sumw2'
p45
aS'nominal_yield_COWCorr'
p46
aS'LooseMvaSF_up_yield'
p47
aS'LooseMvaSF_down_yield'
p48
aS'PreselSF_up_yield'
p49
aS'PreselSF_down_yield'
p50
aS'electronVetoSF_up_yield'
p51
aS'electronVetoSF_down_yield'
p52
aS'TriggerWeight_up_yield'
p53
aS'TriggerWeight_down_yield'
p54
aS'SigmaEOverEShift_up_yield'
p55
aS'SigmaEOverEShift_down_yield'
p56
aS'MvaShift_up_yield'
p57
aS'MvaShift_down_yield'
p58
aS'PUJIDShift_up_yield'
p59
aS'PUJIDShift_down_yield'
p60
aS'JEC_up_yield'
p61
aS'JEC_down_yield'
p62
aS'JER_up_yield'
p63
aS'JER_down_yield'
p64
atp65
bsS'name'
p66
Nstp67
Rp68
ag15
(cpandas.core.indexes.numeric
Int64Index
p69
(dp70
g18
g19
(g20
(I0
tp71
g22
tp72
Rp73
(I1
(I15
tp74
g26
(S'i8'
p75
I0
I1
tp76
Rp77
(I3
S'<'
p78
NNNI-1
I-1
I0
tp79
bI00
S'\x00\x00\x00\x00\x00\x00\x00\x00\x01\x00\x00\x00\x00\x00\x00\x00\x02\x00\x00\x00\x00\x00\x00\x00\x03\x00\x00\x00\x00\x00\x00\x00\x04\x00\x00\x00\x00\x00\x00\x00\x05\x00\x00\x00\x00\x00\x00\x00\x06\x00\x00\x00\x00\x00\x00\x00\x07\x00\x00\x00\x00\x00\x00\x00\x08\x00\x00\x00\x00\x00\x00\x00\t\x00\x00\x00\x00\x00\x00\x00\n\x00\x00\x00\x00\x00\x00\x00\x0b\x00\x00\x00\x00\x00\x00\x00\x0c\x00\x00\x00\x00\x00\x00\x00\r\x00\x00\x00\x00\x00\x00\x00\x0e\x00\x00\x00\x00\x00\x00\x00'
p80
tp81
bsg66
Nstp82
Rp83
a(lp84
g19
(g20
(I0
tp85
g22
tp86
Rp87
(I1
(I1
I15
tp88
g26
(S'f8'
p89
I0
I1
tp90
Rp91
(I3
S'<'
p92
NNNI-1
I-1
I0
tp93
bI00
S'\x00\x00\x00\x00\x00\x10\xd3@\x00\x00\x00\x00\x00\x10\xd3@\x00\x00\x00\x00\x00\x10\xd3@\x00\x00\x00\x00\x00\x10\xd3@\x00\x00\x00\x00\x00\x10\xd3@\x00\x00\x00\x00\x00\x10\xd3@\x00\x00\x00\x00\x00\x10\xd3@\x00\x00\x00\x00\x00\x10\xd3@\x00\x00\x00\x00\x00\x10\xd3@\x00\x00\x00\x00\x00\x10\xd3@\x00\x00\x00\x00\x00\x10\xd3@\x00\x00\x00\x00\x00\x10\xd3@\x00\x00\x00\x00\x00\x10\xd3@\x00\x00\x00\x00\x00\x00\xf0?\x00\x00\x00\x00\x00\x00\xf0\xbf'
p94
tp95
bag19
(g20
(I0
tp96
g22
tp97
Rp98
(I1
(I31
I15
tp99
g29
I00
(lp100
S'2016preVFP'
p101
ag101
ag101
ag101
ag101
ag101
ag101
ag101
ag101
ag101
ag101
ag101
ag101
ag33
ag33
aS'sig'
p102
ag102
ag102
ag102
ag102
ag102
ag102
ag102
ag102
ag102
ag102
ag102
ag102
aS'bkg'
p103
ag18
aS'GG2HMf05ph0'
p104
aS'GG2HbsmM'
p105
aS'GG2Hsm'
p106
aS'TTHsm'
p107
aS'VBFMf05ph0'
p108
aS'VBFbsmM'
p109
aS'VBFsm'
p110
aS'WHMf05ph0'
p111
aS'WHbsmM'
p112
aS'WHsm'
p113
aS'ZHMf05ph0'
p114
aS'ZHbsmM'
p115
aS'ZHsm'
p116
aS'bkg_mass'
p117
aS'data_obs'
p118
aS'GG2HMf05ph0_2016preVFP_hgg'
p119
aS'GG2HbsmM_2016preVFP_hgg'
p120
aS'GG2Hsm_2016preVFP_hgg'
p121
aS'tth0P_2016preVFP_hgg'
p122
aS'vbf0Mf05ph0_2016preVFP_hgg'
p123
aS'vbf0M_2016preVFP_hgg'
p124
aS'vbf0P_2016preVFP_hgg'
p125
aS'wh0Mf05ph0_2016preVFP_hgg'
p126
aS'wh0M_2016preVFP_hgg'
p127
aS'wh0P_2016preVFP_hgg'
p128
aS'zh0Mf05ph0_2016preVFP_hgg'
p129
aS'zh0M_2016preVFP_hgg'
p130
aS'zh0P_2016preVFP_hgg'
p131
ag117
ag118
aS'jjh0Mf05ph0'
p132
aS'jjh0M'
p133
aS'jjh0P'
p134
aS'tth0P'
p135
aS'vbf0Mf05ph0'
p136
aS'vbf0M'
p137
aS'vbf0P'
p138
aS'wh0Mf05ph0'
p139
aS'wh0M'
p140
aS'wh0P'
p141
aS'zh0Mf05ph0'
p142
aS'zh0M'
p143
aS'zh0P'
p144
aS'-'
p145
ag145
aS'AC_Bin1_2016preVFP'
p146
aS'AC_Bin1_2016preVFP'
p147
aS'AC_Bin1_2016preVFP'
p148
aS'AC_Bin1_2016preVFP'
p149
aS'AC_Bin1_2016preVFP'
p150
aS'AC_Bin1_2016preVFP'
p151
aS'AC_Bin1_2016preVFP'
p152
aS'AC_Bin1_2016preVFP'
p153
aS'AC_Bin1_2016preVFP'
p154
aS'AC_Bin1_2016preVFP'
p155
aS'AC_Bin1_2016preVFP'
p156
aS'AC_Bin1_2016preVFP'
p157
aS'AC_Bin1_2016preVFP'
p158
aS'AC_Bin1_2016preVFP'
p159
ag159
aS'Trees/Opt_2016preVFP/2016PreVFP/Trees2WS_2016preVFP/WS/output_GluGluHToGGPlusTwoJets_MM_M125_TuneCP5_13TeV-amcatnlopowheg-minlo-pythia8_GG2HMf05ph0.root'
p160
aS'Trees/Opt_2016preVFP/2016PreVFP/Trees2WS_2016preVFP/WS/output_GluGluHToGGPlusTwoJets_CPodd_M125_TuneCP5_13TeV-amcatnlopowheg-minlo-pythia8_GG2HbsmM.root'
p161
aS'Trees/Opt_2016preVFP/2016PreVFP/Trees2WS_2016preVFP/WS/output_GluGluHToGGPlusTwoJets_SM_M125_TuneCP5_13TeV-amcatnlopowheg-minlo-pythia8_GG2Hsm.root'
p162
aS'Trees/Opt_2016preVFP/2016PreVFP/Trees2WS_2016preVFP/WS/output_ttHJetToGG_M125_TuneCP5_13TeV-amcatnloFXFX-madspin-pythia8_TTHsm.root'
p163
aS'Trees/Opt_2016preVFP/2016PreVFP/Trees2WS_2016preVFP/WS/output_VBFHiggs0Mf05ph0ToGG_M125_TuneCP5_13TeV-JHUGenV7011-pythia8_VBFMf05ph0.root'
p164
aS'Trees/Opt_2016preVFP/2016PreVFP/Trees2WS_2016preVFP/WS/output_VBFHiggs0MToGG_M125_TuneCP5_13TeV-JHUGenV7011-pythia8_VBFbsmM.root'
p165
aS'Trees/Opt_2016preVFP/2016PreVFP/Trees2WS_2016preVFP/WS/output_VBFHToGG_M125_TuneCP5_13TeV-amcatnlo-pythia8_VBFsm.root'
p166
aS'Trees/Opt_2016preVFP/2016PreVFP/Trees2WS_2016preVFP/WS/output_WHiggs0Mf05ph0ToGG_M125_TuneCP5_13TeV-JHUGenV7011-pythia8_WHMf05ph0.root'
p167
aS'Trees/Opt_2016preVFP/2016PreVFP/Trees2WS_2016preVFP/WS/output_WHiggs0MToGG_M125_TuneCP5_13TeV-JHUGenV7011-pythia8_WHbsmM.root'
p168
aS'Trees/Opt_2016preVFP/2016PreVFP/Trees2WS_2016preVFP/WS/output_WHiggs0PMToGG_M125_TuneCP5_13TeV-JHUGenV7011-pythia8_WHsm.root'
p169
aS'Trees/Opt_2016preVFP/2016PreVFP/Trees2WS_2016preVFP/WS/output_ZHiggs0Mf05ph0ToGG_M125_TuneCP5_13TeV-JHUGenV7011-pythia8_ZHMf05ph0.root'
p170
aS'Trees/Opt_2016preVFP/2016PreVFP/Trees2WS_2016preVFP/WS/output_ZHiggs0MToGG_M125_TuneCP5_13TeV-JHUGenV7011-pythia8_ZHbsmM.root'
p171
aS'Trees/Opt_2016preVFP/2016PreVFP/Trees2WS_2016preVFP/WS/output_ZH_HToGG_ZToAll_M125_TuneCP5_13TeV-powheg-pythia8_ZHsm.root'
p172
ag145
ag145
aS'jjh0Mf05ph0_125_13TeV_AC_Bin1'
p173
aS'jjh0M_125_13TeV_AC_Bin1'
p174
aS'jjh0P_125_13TeV_AC_Bin1'
p175
aS'tth0P_125_13TeV_AC_Bin1'
p176
aS'vbf0Mf05ph0_125_13TeV_AC_Bin1'
p177
aS'vbf0M_125_13TeV_AC_Bin1'
p178
aS'vbf0P_125_13TeV_AC_Bin1'
p179
aS'wh0Mf05ph0_125_13TeV_AC_Bin1'
p180
aS'wh0M_125_13TeV_AC_Bin1'
p181
aS'wh0P_125_13TeV_AC_Bin1'
p182
aS'zh0Mf05ph0_125_13TeV_AC_Bin1'
p183
aS'zh0M_125_13TeV_AC_Bin1'
p184
aS'zh0P_125_13TeV_AC_Bin1'
p185
ag145
ag145
aS'./Models/signal/CMS-HGG_sigfit_packaged_AC_Bin1_2016preVFP.root'
p186
aS'./Models/signal/CMS-HGG_sigfit_packaged_AC_Bin1_2016preVFP.root'
p187
aS'./Models/signal/CMS-HGG_sigfit_packaged_AC_Bin1_2016preVFP.root'
p188
aS'./Models/signal/CMS-HGG_sigfit_packaged_AC_Bin1_2016preVFP.root'
p189
aS'./Models/signal/CMS-HGG_sigfit_packaged_AC_Bin1_2016preVFP.root'
p190
aS'./Models/signal/CMS-HGG_sigfit_packaged_AC_Bin1_2016preVFP.root'
p191
aS'./Models/signal/CMS-HGG_sigfit_packaged_AC_Bin1_2016preVFP.root'
p192
aS'./Models/signal/CMS-HGG_sigfit_packaged_AC_Bin1_2016preVFP.root'
p193
aS'./Models/signal/CMS-HGG_sigfit_packaged_AC_Bin1_2016preVFP.root'
p194
aS'./Models/signal/CMS-HGG_sigfit_packaged_AC_Bin1_2016preVFP.root'
p195
aS'./Models/signal/CMS-HGG_sigfit_packaged_AC_Bin1_2016preVFP.root'
p196
aS'./Models/signal/CMS-HGG_sigfit_packaged_AC_Bin1_2016preVFP.root'
p197
aS'./Models/signal/CMS-HGG_sigfit_packaged_AC_Bin1_2016preVFP.root'
p198
aS'./Models/background/CMS-HGG_multipdf_AC_Bin1_2016preVFP.root'
p199
ag199
aS'wsig_13TeV:hggpdfsmrel_GG2HMf05ph0_2016preVFP_AC_Bin1_13TeV'
p200
aS'wsig_13TeV:hggpdfsmrel_GG2HbsmM_2016preVFP_AC_Bin1_13TeV'
p201
aS'wsig_13TeV:hggpdfsmrel_GG2Hsm_2016preVFP_AC_Bin1_13TeV'
p202
aS'wsig_13TeV:hggpdfsmrel_TTHsm_2016preVFP_AC_Bin1_13TeV'
p203
aS'wsig_13TeV:hggpdfsmrel_VBFMf05ph0_2016preVFP_AC_Bin1_13TeV'
p204
aS'wsig_13TeV:hggpdfsmrel_VBFbsmM_2016preVFP_AC_Bin1_13TeV'
p205
aS'wsig_13TeV:hggpdfsmrel_VBFsm_2016preVFP_AC_Bin1_13TeV'
p206
aS'wsig_13TeV:hggpdfsmrel_WHMf05ph0_2016preVFP_AC_Bin1_13TeV'
p207
aS'wsig_13TeV:hggpdfsmrel_WHbsmM_2016preVFP_AC_Bin1_13TeV'
p208
aS'wsig_13TeV:hggpdfsmrel_WHsm_2016preVFP_AC_Bin1_13TeV'
p209
aS'wsig_13TeV:hggpdfsmrel_ZHMf05ph0_2016preVFP_AC_Bin1_13TeV'
p210
aS'wsig_13TeV:hggpdfsmrel_ZHbsmM_2016preVFP_AC_Bin1_13TeV'
p211
aS'wsig_13TeV:hggpdfsmrel_ZHsm_2016preVFP_AC_Bin1_13TeV'
p212
aS'multipdf:CMS_hgg_AC_Bin1_2016preVFP_13TeV_bkgshape'
p213
aS'multipdf:roohist_data_mass_AC_Bin1'
p214
aF0.027423557805605014
aF0.0344179488656664
aF0.026810448808419096
aF0.0006530341756842972
aF0.0033822205552951345
aF0.0025380740468676777
aF0.013330107279216463
aF0.0007983824053781063
aF0.0009490518984875962
aF0.000922432293464226
aF0.0012422801992215682
aF8.758971671340987e-05
aF0.0010142359487872454
ag145
ag145
aF3.6899625684138167e-06
aF2.445764094536669e-06
aF2.3368834525127604e-06
aF7.928912254722697e-07
aF6.657172424126994e-08
aF1.0055666066649402e-07
aF3.752271096714622e-06
aF2.342117905459671e-08
aF7.133369190477218e-08
aF1.537500463622248e-08
aF5.677688203756204e-07
aF7.671958473935392e-09
aF2.5326972863223208e-08
ag145
ag145
aF0.028378674141082166
aF0.03553640282053775
aF0.027665280770497694
aF0.0006778319788163657
aF0.0035182633165340453
aF0.0026206572511590274
aF0.013750462366457727
aF0.0008176377501675636
aF0.0009797844724861319
aF0.0009461756201393763
aF0.001268468586475262
aF8.972838231229027e-05
aF0.00103402602162648
ag145
ag145
aF0.027596430468001622
aF0.034636243826205934
aF0.026981144736260936
aF0.0006566798807509026
aF0.003403565340707714
aF0.0025544250988032515
aF0.01341463320250075
aF0.0008034604882812859
aF0.0009551975744374815
aF0.0009283265401704011
aF0.0012504484382647606
aF8.818700150775563e-05
aF0.0010206227841797102
ag145
ag145
aF0.027251228585738786
aF0.03420034482500552
aF0.026640294943098004
aF0.0006493981131855999
aF0.0033609430065595306
aF0.0025217755474795074
aF0.013245848817055787
aF0.0007933203956861793
aF0.0009429260651921632
aF0.0009165568430933753
aF0.001234138756157003
aF8.699446424583864e-05
aF0.0010078692153358433
ag145
ag145
aF0.027983886676409952
aF0.03509852201176433
aF0.02733632184805306
aF0.0006831016765864215
aF0.0034486315030895034
aF0.0025827129135605506
aF0.013577254354406407
aF0.0008110092769357294
aF0.0009667076894027512
aF0.000940180484701909
aF0.0012598328219986597
aF8.861198242922073e-05
aF0.0010330483988976423
ag145
ag145
aF0.02686793864794404
aF0.03374413624264135
aF0.02628947327933306
aF0.0006232694094083291
aF0.003316423191062927
aF0.002493823666870068
aF0.013085227275364014
aF0.0007858556738928264
aF0.0009315390904600091
aF0.0009048581171557629
aF0.0012248480709076458
aF8.657337683461523e-05
aF0.0009956480028435362
ag145
ag145
aF0.027488066096643355
aF0.034495756729028916
aF0.026868785849044525
aF0.0006551331059971094
aF0.0033902595234470323
aF0.0025449171289746767
aF0.0133620246197005
aF0.0008002098924605491
aF0.0009512876647847531
aF0.0009244494232905691
aF0.0012441357950511499
aF8.767753997121082e-05
aF0.0010165779709980505
ag145
ag145
aF0.027359118873994646
aF0.034340234997330625
aF0.02675216896340488
aF0.0006509370876925607
aF0.0033741919283945213
aF0.0025312376783156437
aF0.013298228833248759
aF0.0007965566929528546
aF0.0009468198907547537
aF0.0009204173110173632
aF0.0012404260636857051
aF8.750193089320741e-05
aF0.0010118968994576847
ag145
ag145
aF0.027486875897561564
aF0.0344966963928354
aF0.026868504718906887
aF0.0006544139941499946
aF0.0033903478482237405
aF0.002543753606223924
aF0.013359548293206921
aF0.0008001255622008091
aF0.0009511524319078201
aF0.0009244206762745582
aF0.001244810373049254
aF8.776593014121727e-05
aF0.001016317515790812
ag145
ag145
aF0.02736031213358827
aF0.03433929401764439
aF0.026752456013775218
aF0.0006516558433089966
aF0.003374105795557132
aF0.002532400808697201
aF0.013300699375904076
aF0.0007966411465601304
aF0.0009469536834562545
aF0.0009204461162039156
aF0.001239752649053508
aF8.74136851253665e-05
aF0.0010121565171933803
ag145
ag145
aF0.0285994705950543
aF0.03565486576485455
aF0.027810159894215758
aF0.0007176000301569729
aF0.0036446917590637895
aF0.0026677466926798843
aF0.00945636358255797
aF0.0008120410822129998
aF0.0009981653141721836
aF0.0009741382128822806
aF0.0011208400574105326
aF8.758971671340987e-05
aF0.0010340077353703236
ag145
ag145
aF0.025745226853132408
aF0.03303211818615637
aF0.025723477666133476
aF0.0006646141637247638
aF0.003235803260395187
aF0.0023660352929368855
aF0.011525720773192916
aF0.0007571874563154779
aF0.0009122200265210267
aF0.0008873644727600549
aF0.0012422801992215682
aF0.0
aF0.0009368796631861187
ag145
ag145
aF0.025854817330355218
aF0.03513192571131185
aF0.02787729107967607
aF0.0007234757266587621
aF0.0033441654956050115
aF0.0025248006972447
aF0.00705753590364111
aF0.000830374137990475
aF0.0008454918944380552
aF0.0010143594462306282
aF0.0012422801992215682
aF0.0
aF0.001012832786727813
ag145
ag145
aF0.02631007867307744
aF0.03408275077390499
aF0.026600113228596456
aF1.9483128312458575e-05
aF0.0031256665912451354
aF0.002500902802978544
aF0.005484041538011297
aF0.000819097181761208
aF0.000984255787557231
aF0.000831541787306378
aF0.0018189806905866135
aF8.758971671340987e-05
aF0.001422732234459545
ag145
ag145
aF0.027775274105806602
aF0.03523065321883223
aF0.027568978897079432
aF0.0006562393311924097
aF0.0033807521988364897
aF0.0025457025860191607
aF0.008314663479040973
aF0.0007983824053781063
aF0.0009542841796701396
aF0.0009358443941209771
aF0.0012422801992215682
aF8.758971671340987e-05
aF0.001017830306182077
ag145
ag145
aF0.02683513163583484
aF0.033709657822328154
aF0.02530580554162043
aF0.0006530341756842972
aF0.0033193907131590095
aF0.0025319384428144076
aF0.010279307289920325
aF0.0007929055090016845
aF0.0009426802646430588
aF0.0008939234754734571
aF0.0012422801992215682
aF8.758971671340987e-05
aF0.0009970795572371571
ag145
ag145
aF0.0292869100567259
aF0.037048767150508866
aF0.029669312535361314
aF0.000696733956715434
aF0.003461801808725795
aF0.0023584593413374932
aF0.009899524144998395
aF0.0008884643208375564
aF0.0011067132601283447
aF0.0010142570948801222
aF0.0012422801992215682
aF8.758971671340987e-05
aF0.0010971439564855245
ag145
ag145
aF0.026723533922677234
aF0.03213347699829683
aF0.026038921139615923
aF0.0008369777433472336
aF0.0035329842431792713
aF0.002546408592422722
aF0.010190910375627027
aF0.0006283797823698478
aF0.0008154015083619015
aF0.0009243818157074202
aF0.0012685886558756465
aF8.758971671340987e-05
aF0.0009846937723523297
ag145
ag145
aF0.027523385206450257
aF0.03513669027438482
aF0.02756642531221587
aF0.0006788002511939339
aF0.003356740306003303
aF0.0023268906746238827
aF0.01069987891673918
aF0.001685871779500303
aF0.0009162406342966278
aF0.000915541121798924
aF0.0012422801992215682
aF8.758971671340987e-05
aF0.0010007692387716816
ag145
ag145
aF0.027243654996254918
aF0.035108401585830507
aF0.026340421669146963
aF0.0007693658446896734
aF0.0034536342868705106
aF0.002554278242939745
aF0.009253415357420636
aF0.000705059278175213
aF0.0009435743463654944
aF0.0009068856188605423
aF0.0012422801992215682
aF8.758971671340987e-05
aF0.001014231835370083
ag145
ag145
atp215
ba(lp216
g15
(g16
(dp217
g18
g19
(g20
(I0
tp218
g22
tp219
Rp220
(I1
(I1
tp221
g29
I00
(lp222
g43
atp223
bsg66
Nstp224
Rp225
ag15
(g16
(dp226
g18
g19
(g20
(I0
tp227
g22
tp228
Rp229
(I1
(I31
tp230
g29
I00
(lp231
g33
ag34
ag35
ag36
ag37
ag38
ag39
ag40
ag41
ag42
ag44
ag45
ag46
ag47
ag48
ag49
ag50
ag51
ag52
ag53
ag54
ag55
ag56
ag57
ag58
ag59
ag60
ag61
ag62
ag63
ag64
atp232
bsg66
Nstp233
Rp234
a(dp235
S'0.14.1'
p236
(dp237
S'axes'
p238
g14
sS'blocks'
p239
(lp240
(dp241
S'mgr_locs'
p242
c__builtin__
slice
p243
(I10
I11
I1
tp244
Rp245
sS'values'
p246
g87
sa(dp247
g242
g19
(g20
(I0
tp248
g22
tp249
Rp250
(I1
(I31
tp251
g77
I00
S'\x00\x00\x00\x00\x00\x00\x00\x00\x01\x00\x00\x00\x00\x00\x00\x00\x02\x00\x00\x00\x00\x00\x00\x00\x03\x00\x00\x00\x00\x00\x00\x00\x04\x00\x00\x00\x00\x00\x00\x00\x05\x00\x00\x00\x00\x00\x00\x00\x06\x00\x00\x00\x00\x00\x00\x00\x07\x00\x00\x00\x00\x00\x00\x00\x08\x00\x00\x00\x00\x00\x00\x00\t\x00\x00\x00\x00\x00\x00\x00\x0b\x00\x00\x00\x00\x00\x00\x00\x0c\x00\x00\x00\x00\x00\x00\x00\r\x00\x00\x00\x00\x00\x00\x00\x0e\x00\x00\x00\x00\x00\x00\x00\x0f\x00\x00\x00\x00\x00\x00\x00\x10\x00\x00\x00\x00\x00\x00\x00\x11\x00\x00\x00\x00\x00\x00\x00\x12\x00\x00\x00\x00\x00\x00\x00\x13\x00\x00\x00\x00\x00\x00\x00\x14\x00\x00\x00\x00\x00\x00\x00\x15\x00\x00\x00\x00\x00\x00\x00\x16\x00\x00\x00\x00\x00\x00\x00\x17\x00\x00\x00\x00\x00\x00\x00\x18\x00\x00\x00\x00\x00\x00\x00\x19\x00\x00\x00\x00\x00\x00\x00\x1a\x00\x00\x00\x00\x00\x00\x00\x1b\x00\x00\x00\x00\x00\x00\x00\x1c\x00\x00\x00\x00\x00\x00\x00\x1d\x00\x00\x00\x00\x00\x00\x00\x1e\x00\x00\x00\x00\x00\x00\x00\x1f\x00\x00\x00\x00\x00\x00\x00'
p252
tp253
bsg246
g98
sasstp254
bsb.