ccopy_reg
_reconstructor
p0
(cpandas.core.frame
DataFrame
p1
c__builtin__
object
p2
Ntp3
Rp4
(dp5
S'_metadata'
p6
(lp7
sS'_typ'
p8
S'dataframe'
p9
sS'_data'
p10
g0
(cpandas.core.internals
BlockManager
p11
g2
Ntp12
Rp13
((lp14
cpandas.core.indexes.base
_new_Index
p15
(cpandas.core.indexes.base
Index
p16
(dp17
S'data'
p18
cnumpy.core.multiarray
_reconstruct
p19
(cnumpy
ndarray
p20
(I0
tp21
S'b'
p22
tp23
Rp24
(I1
(I32
tp25
cnumpy
dtype
p26
(S'O8'
p27
I0
I1
tp28
Rp29
(I3
S'|'
p30
NNNI-1
I-1
I63
tp31
bI00
(lp32
S'year'
p33
aS'type'
p34
aS'procOriginal'
p35
aS'proc'
p36
aS'proc_s0'
p37
aS'cat'
p38
aS'inputWSFile'
p39
aS'nominalDataName'
p40
aS'modelWSFile'
p41
aS'model'
p42
aS'rate'
p43
aS'nominal_yield'
p44
aS'sumw2'
p45
aS'nominal_yield_COWCorr'
p46
aS'LooseMvaSF_up_yield'
p47
aS'LooseMvaSF_down_yield'
p48
aS'PreselSF_up_yield'
p49
aS'PreselSF_down_yield'
p50
aS'electronVetoSF_up_yield'
p51
aS'electronVetoSF_down_yield'
p52
aS'TriggerWeight_up_yield'
p53
aS'TriggerWeight_down_yield'
p54
aS'SigmaEOverEShift_up_yield'
p55
aS'SigmaEOverEShift_down_yield'
p56
aS'MvaShift_up_yield'
p57
aS'MvaShift_down_yield'
p58
aS'PUJIDShift_up_yield'
p59
aS'PUJIDShift_down_yield'
p60
aS'JEC_up_yield'
p61
aS'JEC_down_yield'
p62
aS'JER_up_yield'
p63
aS'JER_down_yield'
p64
atp65
bsS'name'
p66
Nstp67
Rp68
ag15
(cpandas.core.indexes.numeric
Int64Index
p69
(dp70
g18
g19
(g20
(I0
tp71
g22
tp72
Rp73
(I1
(I15
tp74
g26
(S'i8'
p75
I0
I1
tp76
Rp77
(I3
S'<'
p78
NNNI-1
I-1
I0
tp79
bI00
S'\x00\x00\x00\x00\x00\x00\x00\x00\x01\x00\x00\x00\x00\x00\x00\x00\x02\x00\x00\x00\x00\x00\x00\x00\x03\x00\x00\x00\x00\x00\x00\x00\x04\x00\x00\x00\x00\x00\x00\x00\x05\x00\x00\x00\x00\x00\x00\x00\x06\x00\x00\x00\x00\x00\x00\x00\x07\x00\x00\x00\x00\x00\x00\x00\x08\x00\x00\x00\x00\x00\x00\x00\t\x00\x00\x00\x00\x00\x00\x00\n\x00\x00\x00\x00\x00\x00\x00\x0b\x00\x00\x00\x00\x00\x00\x00\x0c\x00\x00\x00\x00\x00\x00\x00\r\x00\x00\x00\x00\x00\x00\x00\x0e\x00\x00\x00\x00\x00\x00\x00'
p80
tp81
bsg66
Nstp82
Rp83
a(lp84
g19
(g20
(I0
tp85
g22
tp86
Rp87
(I1
(I1
I15
tp88
g26
(S'f8'
p89
I0
I1
tp90
Rp91
(I3
S'<'
p92
NNNI-1
I-1
I0
tp93
bI00
S'\x00\x00\x00\x00\x00\x10\xd3@\x00\x00\x00\x00\x00\x10\xd3@\x00\x00\x00\x00\x00\x10\xd3@\x00\x00\x00\x00\x00\x10\xd3@\x00\x00\x00\x00\x00\x10\xd3@\x00\x00\x00\x00\x00\x10\xd3@\x00\x00\x00\x00\x00\x10\xd3@\x00\x00\x00\x00\x00\x10\xd3@\x00\x00\x00\x00\x00\x10\xd3@\x00\x00\x00\x00\x00\x10\xd3@\x00\x00\x00\x00\x00\x10\xd3@\x00\x00\x00\x00\x00\x10\xd3@\x00\x00\x00\x00\x00\x10\xd3@\x00\x00\x00\x00\x00\x00\xf0?\x00\x00\x00\x00\x00\x00\xf0\xbf'
p94
tp95
bag19
(g20
(I0
tp96
g22
tp97
Rp98
(I1
(I31
I15
tp99
g29
I00
(lp100
S'2016preVFP'
p101
ag101
ag101
ag101
ag101
ag101
ag101
ag101
ag101
ag101
ag101
ag101
ag101
ag33
ag33
aS'sig'
p102
ag102
ag102
ag102
ag102
ag102
ag102
ag102
ag102
ag102
ag102
ag102
ag102
aS'bkg'
p103
ag18
aS'GG2HMf05ph0'
p104
aS'GG2HbsmM'
p105
aS'GG2Hsm'
p106
aS'TTHsm'
p107
aS'VBFMf05ph0'
p108
aS'VBFbsmM'
p109
aS'VBFsm'
p110
aS'WHMf05ph0'
p111
aS'WHbsmM'
p112
aS'WHsm'
p113
aS'ZHMf05ph0'
p114
aS'ZHbsmM'
p115
aS'ZHsm'
p116
aS'bkg_mass'
p117
aS'data_obs'
p118
aS'GG2HMf05ph0_2016preVFP_hgg'
p119
aS'GG2HbsmM_2016preVFP_hgg'
p120
aS'GG2Hsm_2016preVFP_hgg'
p121
aS'tth0P_2016preVFP_hgg'
p122
aS'vbf0Mf05ph0_2016preVFP_hgg'
p123
aS'vbf0M_2016preVFP_hgg'
p124
aS'vbf0P_2016preVFP_hgg'
p125
aS'wh0Mf05ph0_2016preVFP_hgg'
p126
aS'wh0M_2016preVFP_hgg'
p127
aS'wh0P_2016preVFP_hgg'
p128
aS'zh0Mf05ph0_2016preVFP_hgg'
p129
aS'zh0M_2016preVFP_hgg'
p130
aS'zh0P_2016preVFP_hgg'
p131
ag117
ag118
aS'jjh0Mf05ph0'
p132
aS'jjh0M'
p133
aS'jjh0P'
p134
aS'tth0P'
p135
aS'vbf0Mf05ph0'
p136
aS'vbf0M'
p137
aS'vbf0P'
p138
aS'wh0Mf05ph0'
p139
aS'wh0M'
p140
aS'wh0P'
p141
aS'zh0Mf05ph0'
p142
aS'zh0M'
p143
aS'zh0P'
p144
aS'-'
p145
ag145
aS'AC_Bin27_2016preVFP'
p146
aS'AC_Bin27_2016preVFP'
p147
aS'AC_Bin27_2016preVFP'
p148
aS'AC_Bin27_2016preVFP'
p149
aS'AC_Bin27_2016preVFP'
p150
aS'AC_Bin27_2016preVFP'
p151
aS'AC_Bin27_2016preVFP'
p152
aS'AC_Bin27_2016preVFP'
p153
aS'AC_Bin27_2016preVFP'
p154
aS'AC_Bin27_2016preVFP'
p155
aS'AC_Bin27_2016preVFP'
p156
aS'AC_Bin27_2016preVFP'
p157
aS'AC_Bin27_2016preVFP'
p158
aS'AC_Bin27_2016preVFP'
p159
ag159
aS'Trees/Opt_2016preVFP/2016PreVFP/Trees2WS_2016preVFP/WS/output_GluGluHToGGPlusTwoJets_MM_M125_TuneCP5_13TeV-amcatnlopowheg-minlo-pythia8_GG2HMf05ph0.root'
p160
aS'Trees/Opt_2016preVFP/2016PreVFP/Trees2WS_2016preVFP/WS/output_GluGluHToGGPlusTwoJets_CPodd_M125_TuneCP5_13TeV-amcatnlopowheg-minlo-pythia8_GG2HbsmM.root'
p161
aS'Trees/Opt_2016preVFP/2016PreVFP/Trees2WS_2016preVFP/WS/output_GluGluHToGGPlusTwoJets_SM_M125_TuneCP5_13TeV-amcatnlopowheg-minlo-pythia8_GG2Hsm.root'
p162
aS'Trees/Opt_2016preVFP/2016PreVFP/Trees2WS_2016preVFP/WS/output_ttHJetToGG_M125_TuneCP5_13TeV-amcatnloFXFX-madspin-pythia8_TTHsm.root'
p163
aS'Trees/Opt_2016preVFP/2016PreVFP/Trees2WS_2016preVFP/WS/output_VBFHiggs0Mf05ph0ToGG_M125_TuneCP5_13TeV-JHUGenV7011-pythia8_VBFMf05ph0.root'
p164
aS'Trees/Opt_2016preVFP/2016PreVFP/Trees2WS_2016preVFP/WS/output_VBFHiggs0MToGG_M125_TuneCP5_13TeV-JHUGenV7011-pythia8_VBFbsmM.root'
p165
aS'Trees/Opt_2016preVFP/2016PreVFP/Trees2WS_2016preVFP/WS/output_VBFHToGG_M125_TuneCP5_13TeV-amcatnlo-pythia8_VBFsm.root'
p166
aS'Trees/Opt_2016preVFP/2016PreVFP/Trees2WS_2016preVFP/WS/output_WHiggs0Mf05ph0ToGG_M125_TuneCP5_13TeV-JHUGenV7011-pythia8_WHMf05ph0.root'
p167
aS'Trees/Opt_2016preVFP/2016PreVFP/Trees2WS_2016preVFP/WS/output_WHiggs0MToGG_M125_TuneCP5_13TeV-JHUGenV7011-pythia8_WHbsmM.root'
p168
aS'Trees/Opt_2016preVFP/2016PreVFP/Trees2WS_2016preVFP/WS/output_WHiggs0PMToGG_M125_TuneCP5_13TeV-JHUGenV7011-pythia8_WHsm.root'
p169
aS'Trees/Opt_2016preVFP/2016PreVFP/Trees2WS_2016preVFP/WS/output_ZHiggs0Mf05ph0ToGG_M125_TuneCP5_13TeV-JHUGenV7011-pythia8_ZHMf05ph0.root'
p170
aS'Trees/Opt_2016preVFP/2016PreVFP/Trees2WS_2016preVFP/WS/output_ZHiggs0MToGG_M125_TuneCP5_13TeV-JHUGenV7011-pythia8_ZHbsmM.root'
p171
aS'Trees/Opt_2016preVFP/2016PreVFP/Trees2WS_2016preVFP/WS/output_ZH_HToGG_ZToAll_M125_TuneCP5_13TeV-powheg-pythia8_ZHsm.root'
p172
ag145
ag145
aS'jjh0Mf05ph0_125_13TeV_AC_Bin27'
p173
aS'jjh0M_125_13TeV_AC_Bin27'
p174
aS'jjh0P_125_13TeV_AC_Bin27'
p175
aS'tth0P_125_13TeV_AC_Bin27'
p176
aS'vbf0Mf05ph0_125_13TeV_AC_Bin27'
p177
aS'vbf0M_125_13TeV_AC_Bin27'
p178
aS'vbf0P_125_13TeV_AC_Bin27'
p179
aS'wh0Mf05ph0_125_13TeV_AC_Bin27'
p180
aS'wh0M_125_13TeV_AC_Bin27'
p181
aS'wh0P_125_13TeV_AC_Bin27'
p182
aS'zh0Mf05ph0_125_13TeV_AC_Bin27'
p183
aS'zh0M_125_13TeV_AC_Bin27'
p184
aS'zh0P_125_13TeV_AC_Bin27'
p185
ag145
ag145
aS'./Models/signal/CMS-HGG_sigfit_packaged_AC_Bin27_2016preVFP.root'
p186
aS'./Models/signal/CMS-HGG_sigfit_packaged_AC_Bin27_2016preVFP.root'
p187
aS'./Models/signal/CMS-HGG_sigfit_packaged_AC_Bin27_2016preVFP.root'
p188
aS'./Models/signal/CMS-HGG_sigfit_packaged_AC_Bin27_2016preVFP.root'
p189
aS'./Models/signal/CMS-HGG_sigfit_packaged_AC_Bin27_2016preVFP.root'
p190
aS'./Models/signal/CMS-HGG_sigfit_packaged_AC_Bin27_2016preVFP.root'
p191
aS'./Models/signal/CMS-HGG_sigfit_packaged_AC_Bin27_2016preVFP.root'
p192
aS'./Models/signal/CMS-HGG_sigfit_packaged_AC_Bin27_2016preVFP.root'
p193
aS'./Models/signal/CMS-HGG_sigfit_packaged_AC_Bin27_2016preVFP.root'
p194
aS'./Models/signal/CMS-HGG_sigfit_packaged_AC_Bin27_2016preVFP.root'
p195
aS'./Models/signal/CMS-HGG_sigfit_packaged_AC_Bin27_2016preVFP.root'
p196
aS'./Models/signal/CMS-HGG_sigfit_packaged_AC_Bin27_2016preVFP.root'
p197
aS'./Models/signal/CMS-HGG_sigfit_packaged_AC_Bin27_2016preVFP.root'
p198
aS'./Models/background/CMS-HGG_multipdf_AC_Bin27_2016preVFP.root'
p199
ag199
aS'wsig_13TeV:hggpdfsmrel_GG2HMf05ph0_2016preVFP_AC_Bin27_13TeV'
p200
aS'wsig_13TeV:hggpdfsmrel_GG2HbsmM_2016preVFP_AC_Bin27_13TeV'
p201
aS'wsig_13TeV:hggpdfsmrel_GG2Hsm_2016preVFP_AC_Bin27_13TeV'
p202
aS'wsig_13TeV:hggpdfsmrel_TTHsm_2016preVFP_AC_Bin27_13TeV'
p203
aS'wsig_13TeV:hggpdfsmrel_VBFMf05ph0_2016preVFP_AC_Bin27_13TeV'
p204
aS'wsig_13TeV:hggpdfsmrel_VBFbsmM_2016preVFP_AC_Bin27_13TeV'
p205
aS'wsig_13TeV:hggpdfsmrel_VBFsm_2016preVFP_AC_Bin27_13TeV'
p206
aS'wsig_13TeV:hggpdfsmrel_WHMf05ph0_2016preVFP_AC_Bin27_13TeV'
p207
aS'wsig_13TeV:hggpdfsmrel_WHbsmM_2016preVFP_AC_Bin27_13TeV'
p208
aS'wsig_13TeV:hggpdfsmrel_WHsm_2016preVFP_AC_Bin27_13TeV'
p209
aS'wsig_13TeV:hggpdfsmrel_ZHMf05ph0_2016preVFP_AC_Bin27_13TeV'
p210
aS'wsig_13TeV:hggpdfsmrel_ZHbsmM_2016preVFP_AC_Bin27_13TeV'
p211
aS'wsig_13TeV:hggpdfsmrel_ZHsm_2016preVFP_AC_Bin27_13TeV'
p212
aS'multipdf:CMS_hgg_AC_Bin27_2016preVFP_13TeV_bkgshape'
p213
aS'multipdf:roohist_data_mass_AC_Bin27'
p214
aF0.5463659220276895
aF0.5327427464269476
aF0.5230981470945153
aF0.039637832282551244
aF0.1510083141429277
aF0.1901011911295427
aF0.047574285156315455
aF0.09217063786047675
aF0.13696091351715722
aF0.04308040633628707
aF0.060557728951607714
aF0.13433926953803166
aF0.03993783653800165
ag145
ag145
aF0.00021391210039331554
aF0.0001437830215832481
aF0.00013272607181804164
aF1.696923652092681e-05
aF5.987403751766603e-05
aF1.9039897164944903e-05
aF0.00022549163375129257
aF7.546735362101439e-06
aF1.4953003568075323e-05
aF2.394797333495796e-06
aF2.597379249363365e-05
aF0.0011150598744002352
aF6.543130137788458e-06
ag145
ag145
aF0.5590247602032018
aF0.5445687614867886
aF0.5345468936713612
aF0.04047644667513182
aF0.15413267843750122
aF0.19446132386392384
aF0.04877303284249194
aF0.09410591340438937
aF0.13980992534557474
aF0.043990069514827826
aF0.06175300728494486
aF0.1367844965559261
aF0.04075718094312187
ag145
ag145
aF0.5499632065802766
aF0.5362413579033839
aF0.5265333265190952
aF0.03990089461356395
aF0.15200632394200522
aF0.19135797848569835
aF0.047892307687871505
aF0.09277492831006975
aF0.1378612466892614
aF0.04336118759256893
aF0.060955846931285626
aF0.1352096862603967
aF0.04019963105100407
ag145
ag145
aF0.542780459172874
aF0.529255604121417
aF0.5196742286948747
aF0.03937564120298188
aF0.15001359730642724
aF0.1888485520829992
aF0.047257324573335126
aF0.09156832535717054
aF0.13606353546280117
aF0.04280053871152944
aF0.06016091720580761
aF0.13347166476401243
aF0.03967689867115647
ag145
ag145
aF0.5543679155354969
aF0.5408532665288127
aF0.5309941285047617
aF0.04019858676433211
aF0.15307792954964033
aF0.1926774156380677
aF0.048337266428761544
aF0.09351388784573218
aF0.1388780127300884
aF0.04372589665384345
aF0.06136042917598245
aF0.13622911652191813
aF0.0405095479713161
ag145
ag145
aF0.5384223269998282
aF0.5246930798448913
aF0.5152616941017502
aF0.03908124477309207
aF0.14895268624824418
aF0.18754233778905285
aF0.04681774807846193
aF0.09083703584979992
aF0.1350571370616365
aF0.04243977800258125
aF0.059760352798093004
aF0.13246200674514177
aF0.039370140866357886
ag145
ag145
aF0.5472368254315648
aF0.5336067891806782
aF0.5239471459724874
aF0.039694809137420003
aF0.15123881723934574
aF0.1904039072940756
aF0.04764095775085056
aF0.09232232354799215
aF0.13718072957538915
aF0.04315784429925552
aF0.06065622015455076
aF0.13461448260480924
aF0.04000392651630426
ag145
ag145
aF0.545495761710926
aF0.5318794347508647
aF0.5222498786054119
aF0.03958090189200824
aF0.15077800537536115
aF0.18979872003423812
aF0.04750768188815904
aF0.09201908588105617
aF0.1367412900697079
aF0.04300304426641953
aF0.06045932426443877
aF0.13406430223333263
aF0.03987180742664613
ag145
ag145
aF0.5475526297323343
aF0.533895830869298
aF0.52420195029561
aF0.03972054890440031
aF0.15132599987743503
aF0.1905385382859729
aF0.047683598819277376
aF0.09236791688283484
aF0.13725698964765945
aF0.04317354422957587
aF0.06068458206614201
aF0.1346330002322422
aF0.04002228603556347
ag145
ag145
aF0.5451805011158747
aF0.5315909107009565
aF0.5219955139933197
aF0.039555203008420324
aF0.15069096656277742
aF0.18966434546933963
aF0.04746509711055952
aF0.09197357194677394
aF0.13666516022837305
aF0.042987369556346654
aF0.06043101062257439
aF0.13404586411281819
aF0.0398534767367046
ag145
ag145
aF0.5392206965564128
aF0.524856694131131
aF0.5139498878231734
aF0.03799293603344722
aF0.15008689659021002
aF0.18927743474023373
aF0.04597613564919811
aF0.09128632441320406
aF0.1358445883096806
aF0.04243829349303496
aF0.060393613084670505
aF0.1342591284555965
aF0.03932096944731711
ag145
ag145
aF0.5551439497621686
aF0.5400677899510811
aF0.5315379060352825
aF0.03982328527638401
aF0.15192783475583838
aF0.1916938353894011
aF0.048914732707999065
aF0.0928556984649731
aF0.13843828052455365
aF0.04389850942692419
aF0.060877603542394354
aF0.13557013006720808
aF0.040333009016421784
ag145
ag145
aF0.5537477785057945
aF0.5420859769294566
aF0.5341617481487901
aF0.03960742800109074
aF0.15355195939275745
aF0.19345732411568406
aF0.047659777869853315
aF0.09338370342186408
aF0.13845092712682572
aF0.043904141869631985
aF0.0620678710492939
aF0.13638181905116653
aF0.040676232054238426
ag145
ag145
aF0.5271942937176846
aF0.5207089715931943
aF0.5120719416931934
aF0.03759308700705333
aF0.1487408810916122
aF0.18669742050417426
aF0.04939472820763058
aF0.09073148650361418
aF0.13436108709555583
aF0.04257705337903417
aF0.05971376387788041
aF0.13142319271719316
aF0.03884318126051767
ag145
ag145
aF0.5484190408265022
aF0.5376416313088157
aF0.5255647545352531
aF0.0395964875062873
aF0.1512276613600534
aF0.19036287063738655
aF0.04770293117280744
aF0.09263031858995419
aF0.13760484917025906
aF0.043206449232400246
aF0.06059619627376378
aF0.1345674306321598
aF0.040069739530053994
ag145
ag145
aF0.5447528751212758
aF0.5308391785370077
aF0.5201988157305095
aF0.03954673272767195
aF0.15039871080773537
aF0.189740545783593
aF0.046058154186312095
aF0.09177675092996651
aF0.13657759450455842
aF0.04300411611990285
aF0.060557728951607714
aF0.13402964264605544
aF0.03969715539119534
ag145
ag145
aF0.5551274105373523
aF0.5391495833905537
aF0.5265897258541372
aF0.040226647672284344
aF0.15204880017518008
aF0.19055377212771418
aF0.047696935555336495
aF0.09397153068766784
aF0.13992030058460614
aF0.04382886138836284
aF0.060522943385876715
aF0.13521494459200767
aF0.040225906473096984
ag145
ag145
aF0.5359625151033924
aF0.52504775786565
aF0.5102432949227023
aF0.040248602468068384
aF0.15010753592036963
aF0.18974991499021598
aF0.046263010261100135
aF0.08916799785697549
aF0.13384522162465373
aF0.042066212052816354
aF0.05958586827182444
aF0.1331476780687808
aF0.039792251038079485
ag145
ag145
aF0.5465142448695133
aF0.5340510335024646
aF0.5255518896892681
aF0.03974018398696444
aF0.15130849383569966
aF0.1902625330670844
aF0.047166353681973305
aF0.09283402397863938
aF0.13718688070565577
aF0.04300400120843051
aF0.060583350863453234
aF0.13433926953803166
aF0.040001794606723706
ag145
ag145
aF0.5464058910611129
aF0.5318238130146256
aF0.5198848936963714
aF0.0414137958792935
aF0.15078063473242764
aF0.1901580764620121
aF0.04661952061178454
aF0.09180746657989403
aF0.1367710807476783
aF0.04309556640663459
aF0.06067611505022796
aF0.134225586483808
aF0.03998083559872612
ag145
ag145
atp215
ba(lp216
g15
(g16
(dp217
g18
g19
(g20
(I0
tp218
g22
tp219
Rp220
(I1
(I1
tp221
g29
I00
(lp222
g43
atp223
bsg66
Nstp224
Rp225
ag15
(g16
(dp226
g18
g19
(g20
(I0
tp227
g22
tp228
Rp229
(I1
(I31
tp230
g29
I00
(lp231
g33
ag34
ag35
ag36
ag37
ag38
ag39
ag40
ag41
ag42
ag44
ag45
ag46
ag47
ag48
ag49
ag50
ag51
ag52
ag53
ag54
ag55
ag56
ag57
ag58
ag59
ag60
ag61
ag62
ag63
ag64
atp232
bsg66
Nstp233
Rp234
a(dp235
S'0.14.1'
p236
(dp237
S'axes'
p238
g14
sS'blocks'
p239
(lp240
(dp241
S'mgr_locs'
p242
c__builtin__
slice
p243
(I10
I11
I1
tp244
Rp245
sS'values'
p246
g87
sa(dp247
g242
g19
(g20
(I0
tp248
g22
tp249
Rp250
(I1
(I31
tp251
g77
I00
S'\x00\x00\x00\x00\x00\x00\x00\x00\x01\x00\x00\x00\x00\x00\x00\x00\x02\x00\x00\x00\x00\x00\x00\x00\x03\x00\x00\x00\x00\x00\x00\x00\x04\x00\x00\x00\x00\x00\x00\x00\x05\x00\x00\x00\x00\x00\x00\x00\x06\x00\x00\x00\x00\x00\x00\x00\x07\x00\x00\x00\x00\x00\x00\x00\x08\x00\x00\x00\x00\x00\x00\x00\t\x00\x00\x00\x00\x00\x00\x00\x0b\x00\x00\x00\x00\x00\x00\x00\x0c\x00\x00\x00\x00\x00\x00\x00\r\x00\x00\x00\x00\x00\x00\x00\x0e\x00\x00\x00\x00\x00\x00\x00\x0f\x00\x00\x00\x00\x00\x00\x00\x10\x00\x00\x00\x00\x00\x00\x00\x11\x00\x00\x00\x00\x00\x00\x00\x12\x00\x00\x00\x00\x00\x00\x00\x13\x00\x00\x00\x00\x00\x00\x00\x14\x00\x00\x00\x00\x00\x00\x00\x15\x00\x00\x00\x00\x00\x00\x00\x16\x00\x00\x00\x00\x00\x00\x00\x17\x00\x00\x00\x00\x00\x00\x00\x18\x00\x00\x00\x00\x00\x00\x00\x19\x00\x00\x00\x00\x00\x00\x00\x1a\x00\x00\x00\x00\x00\x00\x00\x1b\x00\x00\x00\x00\x00\x00\x00\x1c\x00\x00\x00\x00\x00\x00\x00\x1d\x00\x00\x00\x00\x00\x00\x00\x1e\x00\x00\x00\x00\x00\x00\x00\x1f\x00\x00\x00\x00\x00\x00\x00'
p252
tp253
bsg246
g98
sasstp254
bsb.