ccopy_reg
_reconstructor
p0
(cpandas.core.frame
DataFrame
p1
c__builtin__
object
p2
Ntp3
Rp4
(dp5
S'_metadata'
p6
(lp7
sS'_typ'
p8
S'dataframe'
p9
sS'_data'
p10
g0
(cpandas.core.internals
BlockManager
p11
g2
Ntp12
Rp13
((lp14
cpandas.core.indexes.base
_new_Index
p15
(cpandas.core.indexes.base
Index
p16
(dp17
S'data'
p18
cnumpy.core.multiarray
_reconstruct
p19
(cnumpy
ndarray
p20
(I0
tp21
S'b'
p22
tp23
Rp24
(I1
(I34
tp25
cnumpy
dtype
p26
(S'O8'
p27
I0
I1
tp28
Rp29
(I3
S'|'
p30
NNNI-1
I-1
I63
tp31
bI00
(lp32
S'year'
p33
aS'type'
p34
aS'procOriginal'
p35
aS'proc'
p36
aS'proc_s0'
p37
aS'cat'
p38
aS'inputWSFile'
p39
aS'nominalDataName'
p40
aS'modelWSFile'
p41
aS'model'
p42
aS'rate'
p43
aS'nominal_yield'
p44
aS'sumw2'
p45
aS'nominal_yield_COWCorr'
p46
aS'LooseMvaSF_up_yield'
p47
aS'LooseMvaSF_down_yield'
p48
aS'PreselSF_up_yield'
p49
aS'PreselSF_down_yield'
p50
aS'electronVetoSF_up_yield'
p51
aS'electronVetoSF_down_yield'
p52
aS'TriggerWeight_up_yield'
p53
aS'TriggerWeight_down_yield'
p54
aS'SigmaEOverEShift_up_yield'
p55
aS'SigmaEOverEShift_down_yield'
p56
aS'MvaShift_up_yield'
p57
aS'MvaShift_down_yield'
p58
aS'PUJIDShift_up_yield'
p59
aS'PUJIDShift_down_yield'
p60
aS'JEC_up_yield'
p61
aS'JEC_down_yield'
p62
aS'JER_up_yield'
p63
aS'JER_down_yield'
p64
aS'JetHEM_up_yield'
p65
aS'JetHEM_down_yield'
p66
atp67
bsS'name'
p68
Nstp69
Rp70
ag15
(cpandas.core.indexes.numeric
Int64Index
p71
(dp72
g18
g19
(g20
(I0
tp73
g22
tp74
Rp75
(I1
(I15
tp76
g26
(S'i8'
p77
I0
I1
tp78
Rp79
(I3
S'<'
p80
NNNI-1
I-1
I0
tp81
bI00
S'\x00\x00\x00\x00\x00\x00\x00\x00\x01\x00\x00\x00\x00\x00\x00\x00\x02\x00\x00\x00\x00\x00\x00\x00\x03\x00\x00\x00\x00\x00\x00\x00\x04\x00\x00\x00\x00\x00\x00\x00\x05\x00\x00\x00\x00\x00\x00\x00\x06\x00\x00\x00\x00\x00\x00\x00\x07\x00\x00\x00\x00\x00\x00\x00\x08\x00\x00\x00\x00\x00\x00\x00\t\x00\x00\x00\x00\x00\x00\x00\n\x00\x00\x00\x00\x00\x00\x00\x0b\x00\x00\x00\x00\x00\x00\x00\x0c\x00\x00\x00\x00\x00\x00\x00\r\x00\x00\x00\x00\x00\x00\x00\x0e\x00\x00\x00\x00\x00\x00\x00'
p82
tp83
bsg68
Nstp84
Rp85
a(lp86
g19
(g20
(I0
tp87
g22
tp88
Rp89
(I1
(I1
I15
tp90
g26
(S'f8'
p91
I0
I1
tp92
Rp93
(I3
S'<'
p94
NNNI-1
I-1
I0
tp95
bI00
S'\x00\x00\x00\x00\x00\x10\xd3@\x00\x00\x00\x00\x00\x10\xd3@\x00\x00\x00\x00\x00\x10\xd3@\x00\x00\x00\x00\x00\x10\xd3@\x00\x00\x00\x00\x00\x10\xd3@\x00\x00\x00\x00\x00\x10\xd3@\x00\x00\x00\x00\x00\x10\xd3@\x00\x00\x00\x00\x00\x10\xd3@\x00\x00\x00\x00\x00\x10\xd3@\x00\x00\x00\x00\x00\x10\xd3@\x00\x00\x00\x00\x00\x10\xd3@\x00\x00\x00\x00\x00\x10\xd3@\x00\x00\x00\x00\x00\x10\xd3@\x00\x00\x00\x00\x00\x00\xf0?\x00\x00\x00\x00\x00\x00\xf0\xbf'
p96
tp97
bag19
(g20
(I0
tp98
g22
tp99
Rp100
(I1
(I33
I15
tp101
g29
I00
(lp102
S'2016preVFP'
p103
ag103
ag103
ag103
ag103
ag103
ag103
ag103
ag103
ag103
ag103
ag103
ag103
ag33
ag33
aS'sig'
p104
ag104
ag104
ag104
ag104
ag104
ag104
ag104
ag104
ag104
ag104
ag104
ag104
aS'bkg'
p105
ag18
aS'GG2HMf05ph0'
p106
aS'GG2HbsmM'
p107
aS'GG2Hsm'
p108
aS'TTHsm'
p109
aS'VBFMf05ph0'
p110
aS'VBFbsmM'
p111
aS'VBFsm'
p112
aS'WHMf05ph0'
p113
aS'WHbsmM'
p114
aS'WHsm'
p115
aS'ZHMf05ph0'
p116
aS'ZHbsmM'
p117
aS'ZHsm'
p118
aS'bkg_mass'
p119
aS'data_obs'
p120
aS'GG2HMf05ph0_2016preVFP_hgg'
p121
aS'GG2HbsmM_2016preVFP_hgg'
p122
aS'GG2Hsm_2016preVFP_hgg'
p123
aS'tth0P_2016preVFP_hgg'
p124
aS'vbf0Mf05ph0_2016preVFP_hgg'
p125
aS'vbf0M_2016preVFP_hgg'
p126
aS'vbf0P_2016preVFP_hgg'
p127
aS'wh0Mf05ph0_2016preVFP_hgg'
p128
aS'wh0M_2016preVFP_hgg'
p129
aS'wh0P_2016preVFP_hgg'
p130
aS'zh0Mf05ph0_2016preVFP_hgg'
p131
aS'zh0M_2016preVFP_hgg'
p132
aS'zh0P_2016preVFP_hgg'
p133
ag119
ag120
aS'jjh0Mf05ph0'
p134
aS'jjh0M'
p135
aS'jjh0P'
p136
aS'tth0P'
p137
aS'vbf0Mf05ph0'
p138
aS'vbf0M'
p139
aS'vbf0P'
p140
aS'wh0Mf05ph0'
p141
aS'wh0M'
p142
aS'wh0P'
p143
aS'zh0Mf05ph0'
p144
aS'zh0M'
p145
aS'zh0P'
p146
aS'-'
p147
ag147
aS'AC_Bin17_2016preVFP'
p148
aS'AC_Bin17_2016preVFP'
p149
aS'AC_Bin17_2016preVFP'
p150
aS'AC_Bin17_2016preVFP'
p151
aS'AC_Bin17_2016preVFP'
p152
aS'AC_Bin17_2016preVFP'
p153
aS'AC_Bin17_2016preVFP'
p154
aS'AC_Bin17_2016preVFP'
p155
aS'AC_Bin17_2016preVFP'
p156
aS'AC_Bin17_2016preVFP'
p157
aS'AC_Bin17_2016preVFP'
p158
aS'AC_Bin17_2016preVFP'
p159
aS'AC_Bin17_2016preVFP'
p160
aS'AC_Bin17_2016preVFP'
p161
ag161
aS'Trees/Opt_2016preVFP/2016PreVFP/Trees2WS_2016preVFP/WS/output_GluGluHToGGPlusTwoJets_MM_M125_TuneCP5_13TeV-amcatnlopowheg-minlo-pythia8_GG2HMf05ph0.root'
p162
aS'Trees/Opt_2016preVFP/2016PreVFP/Trees2WS_2016preVFP/WS/output_GluGluHToGGPlusTwoJets_CPodd_M125_TuneCP5_13TeV-amcatnlopowheg-minlo-pythia8_GG2HbsmM.root'
p163
aS'Trees/Opt_2016preVFP/2016PreVFP/Trees2WS_2016preVFP/WS/output_GluGluHToGGPlusTwoJets_SM_M125_TuneCP5_13TeV-amcatnlopowheg-minlo-pythia8_GG2Hsm.root'
p164
aS'Trees/Opt_2016preVFP/2016PreVFP/Trees2WS_2016preVFP/WS/output_ttHJetToGG_M125_TuneCP5_13TeV-amcatnloFXFX-madspin-pythia8_TTHsm.root'
p165
aS'Trees/Opt_2016preVFP/2016PreVFP/Trees2WS_2016preVFP/WS/output_VBFHiggs0Mf05ph0ToGG_M125_TuneCP5_13TeV-JHUGenV7011-pythia8_VBFMf05ph0.root'
p166
aS'Trees/Opt_2016preVFP/2016PreVFP/Trees2WS_2016preVFP/WS/output_VBFHiggs0MToGG_M125_TuneCP5_13TeV-JHUGenV7011-pythia8_VBFbsmM.root'
p167
aS'Trees/Opt_2016preVFP/2016PreVFP/Trees2WS_2016preVFP/WS/output_VBFHToGG_M125_TuneCP5_13TeV-amcatnlo-pythia8_VBFsm.root'
p168
aS'Trees/Opt_2016preVFP/2016PreVFP/Trees2WS_2016preVFP/WS/output_WHiggs0Mf05ph0ToGG_M125_TuneCP5_13TeV-JHUGenV7011-pythia8_WHMf05ph0.root'
p169
aS'Trees/Opt_2016preVFP/2016PreVFP/Trees2WS_2016preVFP/WS/output_WHiggs0MToGG_M125_TuneCP5_13TeV-JHUGenV7011-pythia8_WHbsmM.root'
p170
aS'Trees/Opt_2016preVFP/2016PreVFP/Trees2WS_2016preVFP/WS/output_WHiggs0PMToGG_M125_TuneCP5_13TeV-JHUGenV7011-pythia8_WHsm.root'
p171
aS'Trees/Opt_2016preVFP/2016PreVFP/Trees2WS_2016preVFP/WS/output_ZHiggs0Mf05ph0ToGG_M125_TuneCP5_13TeV-JHUGenV7011-pythia8_ZHMf05ph0.root'
p172
aS'Trees/Opt_2016preVFP/2016PreVFP/Trees2WS_2016preVFP/WS/output_ZHiggs0MToGG_M125_TuneCP5_13TeV-JHUGenV7011-pythia8_ZHbsmM.root'
p173
aS'Trees/Opt_2016preVFP/2016PreVFP/Trees2WS_2016preVFP/WS/output_ZH_HToGG_ZToAll_M125_TuneCP5_13TeV-powheg-pythia8_ZHsm.root'
p174
ag147
ag147
aS'jjh0Mf05ph0_125_13TeV_AC_Bin17'
p175
aS'jjh0M_125_13TeV_AC_Bin17'
p176
aS'jjh0P_125_13TeV_AC_Bin17'
p177
aS'tth0P_125_13TeV_AC_Bin17'
p178
aS'vbf0Mf05ph0_125_13TeV_AC_Bin17'
p179
aS'vbf0M_125_13TeV_AC_Bin17'
p180
aS'vbf0P_125_13TeV_AC_Bin17'
p181
aS'wh0Mf05ph0_125_13TeV_AC_Bin17'
p182
aS'wh0M_125_13TeV_AC_Bin17'
p183
aS'wh0P_125_13TeV_AC_Bin17'
p184
aS'zh0Mf05ph0_125_13TeV_AC_Bin17'
p185
aS'zh0M_125_13TeV_AC_Bin17'
p186
aS'zh0P_125_13TeV_AC_Bin17'
p187
ag147
ag147
aS'./Models/signal/CMS-HGG_sigfit_packaged_AC_Bin17_2016preVFP.root'
p188
aS'./Models/signal/CMS-HGG_sigfit_packaged_AC_Bin17_2016preVFP.root'
p189
aS'./Models/signal/CMS-HGG_sigfit_packaged_AC_Bin17_2016preVFP.root'
p190
aS'./Models/signal/CMS-HGG_sigfit_packaged_AC_Bin17_2016preVFP.root'
p191
aS'./Models/signal/CMS-HGG_sigfit_packaged_AC_Bin17_2016preVFP.root'
p192
aS'./Models/signal/CMS-HGG_sigfit_packaged_AC_Bin17_2016preVFP.root'
p193
aS'./Models/signal/CMS-HGG_sigfit_packaged_AC_Bin17_2016preVFP.root'
p194
aS'./Models/signal/CMS-HGG_sigfit_packaged_AC_Bin17_2016preVFP.root'
p195
aS'./Models/signal/CMS-HGG_sigfit_packaged_AC_Bin17_2016preVFP.root'
p196
aS'./Models/signal/CMS-HGG_sigfit_packaged_AC_Bin17_2016preVFP.root'
p197
aS'./Models/signal/CMS-HGG_sigfit_packaged_AC_Bin17_2016preVFP.root'
p198
aS'./Models/signal/CMS-HGG_sigfit_packaged_AC_Bin17_2016preVFP.root'
p199
aS'./Models/signal/CMS-HGG_sigfit_packaged_AC_Bin17_2016preVFP.root'
p200
aS'./Models/background/CMS-HGG_multipdf_AC_Bin17_2016preVFP.root'
p201
ag201
aS'wsig_13TeV:hggpdfsmrel_GG2HMf05ph0_2016preVFP_AC_Bin17_13TeV'
p202
aS'wsig_13TeV:hggpdfsmrel_GG2HbsmM_2016preVFP_AC_Bin17_13TeV'
p203
aS'wsig_13TeV:hggpdfsmrel_GG2Hsm_2016preVFP_AC_Bin17_13TeV'
p204
aS'wsig_13TeV:hggpdfsmrel_TTHsm_2016preVFP_AC_Bin17_13TeV'
p205
aS'wsig_13TeV:hggpdfsmrel_VBFMf05ph0_2016preVFP_AC_Bin17_13TeV'
p206
aS'wsig_13TeV:hggpdfsmrel_VBFbsmM_2016preVFP_AC_Bin17_13TeV'
p207
aS'wsig_13TeV:hggpdfsmrel_VBFsm_2016preVFP_AC_Bin17_13TeV'
p208
aS'wsig_13TeV:hggpdfsmrel_WHMf05ph0_2016preVFP_AC_Bin17_13TeV'
p209
aS'wsig_13TeV:hggpdfsmrel_WHbsmM_2016preVFP_AC_Bin17_13TeV'
p210
aS'wsig_13TeV:hggpdfsmrel_WHsm_2016preVFP_AC_Bin17_13TeV'
p211
aS'wsig_13TeV:hggpdfsmrel_ZHMf05ph0_2016preVFP_AC_Bin17_13TeV'
p212
aS'wsig_13TeV:hggpdfsmrel_ZHbsmM_2016preVFP_AC_Bin17_13TeV'
p213
aS'wsig_13TeV:hggpdfsmrel_ZHsm_2016preVFP_AC_Bin17_13TeV'
p214
aS'multipdf:CMS_hgg_AC_Bin17_2016preVFP_13TeV_bkgshape'
p215
aS'multipdf:roohist_data_mass_AC_Bin17'
p216
aF0.20053129090092625
aF0.1847373248134545
aF0.18370208484702744
aF0.002339868295564429
aF0.016529300784100087
aF0.003987645356858138
aF0.023503695612475894
aF0.00958610708676133
aF0.007704867055906561
aF0.011493218323664678
aF0.004135307783144526
aF0.00418784733483335
aF0.008268187582984865
ag147
ag147
aF0.00016288552234509994
aF3.445047452087303e-05
aF3.1601955379776204e-05
aF1.9002151829266008e-07
aF5.332906922895704e-06
aF1.7770384547604264e-07
aF8.120031675323487e-06
aF4.14268681644427e-07
aF3.762696787512319e-07
aF4.625877586011574e-07
aF9.108336916434599e-07
aF9.004130673809213e-07
aF6.976600387981516e-07
ag147
ag147
aF0.20700733358826956
aF0.19095460877418366
aF0.18977352665338473
aF0.0024491764073888873
aF0.017138740344316755
aF0.004116875663149968
aF0.023983584880571347
aF0.009872886567843976
aF0.007949421677086376
aF0.011966715790936312
aF0.004292507433288203
aF0.004307203364485473
aF0.0085430527384934
ag147
ag147
aF0.20181428324847447
aF0.18590557634714275
aF0.184866323660954
aF0.00235441880388873
aF0.01663375627634468
aF0.004013080395422565
aF0.02365426668706193
aF0.009646698894812185
aF0.007753774174011024
aF0.011565693041624726
aF0.004161492118120419
aF0.004214616147796073
aF0.008320780281480651
ag147
ag147
aF0.19925239534244826
aF0.18357275745372062
aF0.18254152735257453
aF0.0023253628450245626
aF0.01642517422451471
aF0.003962291252797255
aF0.023353605578014622
aF0.009525706396838725
aF0.0076561148041900395
aF0.011420971589029418
aF0.004109205950732161
aF0.004161164004255832
aF0.008215761718823072
ag147
ag147
aF0.20416324420334558
aF0.1884227512121729
aF0.18723406608145238
aF0.0023944737635384055
aF0.01682723804897057
aF0.0040610810252283405
aF0.023906524093845364
aF0.009770406831084719
aF0.007851180153101163
aF0.011722692221750302
aF0.004218562493050315
aF0.004265382143171714
aF0.008432619061131217
ag147
ag147
aF0.19693194055287488
aF0.18108699365059625
aF0.18020241776819024
aF0.002285799702100441
aF0.016233957342881643
aF0.003914827835255967
aF0.02310412946852728
aF0.009403460258657176
aF0.007559896255660498
aF0.011265816277819541
aF0.004052758460892094
aF0.0041111281882661365
aF0.008105385677333158
ag147
ag147
aF0.20095131946712633
aF0.18515516234812515
aF0.18412436336147472
aF0.002345262179036297
aF0.01656917505200534
aF0.003996701778046486
aF0.02355318037192483
aF0.009607917154129285
aF0.007722684664192637
aF0.011521440032398753
aF0.0041494045303135454
aF0.004198742398149571
aF0.008285946271202483
ag147
ag147
aF0.2001117037444757
aF0.18431994036547747
aF0.18328029632500986
aF0.002334480203314067
aF0.01648947063863759
aF0.003978598651710296
aF0.02345426923488616
aF0.009564320565082492
aF0.0076870689726671335
aF0.011465033380983503
aF0.0041212259341787925
aF0.004176963081171842
aF0.008250446798375076
ag147
ag147
aF0.20098834626453227
aF0.18516328417552963
aF0.18411936863171915
aF0.0023457793198649263
aF0.016569337660799627
aF0.003996735852771835
aF0.023549842858774477
aF0.009607458758404639
aF0.007722163192568495
aF0.011521891861743343
aF0.004146002149391672
aF0.00420514953169023
aF0.008286656439263927
ag147
ag147
aF0.20007476218561607
aF0.1843118619306063
aF0.18328528662636404
aF0.0023339644880097095
aF0.01648931110175739
aF0.003978565138058433
aF0.023457594029959616
aF0.009564779161235196
aF0.007687590257776807
aF0.011464580719514075
aF0.004124626535381716
aF0.00417057156422604
aF0.008249739295210204
ag147
ag147
aF0.21088475424539865
aF0.19470486678312682
aF0.1920292748400243
aF0.002514095017204454
aF0.01730267981531597
aF0.00431399138648203
aF0.03066222503298377
aF0.010238490582196391
aF0.008006640414066624
aF0.012030203489928226
aF0.004222353720251704
aF0.0048300927846867125
aF0.008661939805165275
ag147
ag147
aF0.1919376668699897
aF0.17855942087419407
aF0.17577630978234993
aF0.002137569731360145
aF0.015701928910289098
aF0.003781369336422813
aF0.025388501725160495
aF0.009089122698014762
aF0.007353842309100855
aF0.01113019589712394
aF0.003549414650478866
aF0.0037987049945513718
aF0.007794267367330576
ag147
ag147
aF0.195319003634836
aF0.184834159898287
aF0.18497548953996557
aF0.002369882306084037
aF0.01644940287042118
aF0.003859338092127018
aF0.01503477919800389
aF0.009944616138341189
aF0.00752902656012111
aF0.010973953955101479
aF0.009050013806700008
aF0.0039107323755160905
aF0.007960923189898494
ag147
ag147
aF0.20109156216472002
aF0.18428403882830935
aF0.18274428018526123
aF0.0023870680717550385
aF0.016966381083193482
aF0.004352882256455359
aF0.01565077122324965
aF0.008674990213137335
aF0.0069065952738469605
aF0.01134520275985551
aF0.004406630816447432
aF0.004243555256834952
aF0.008202261223118512
ag147
ag147
aF0.2050876795244676
aF0.18958901873099876
aF0.1877706785733153
aF0.002360150970559971
aF0.016644552701450266
aF0.004148222745527619
aF0.017413907215313884
aF0.009682913473739063
aF0.00787283093637825
aF0.011527392574919304
aF0.004135307783144526
aF0.00418784733483335
aF0.008348731272803889
ag147
ag147
aF0.19643643593167326
aF0.17979878839094
aF0.17890263856406818
aF0.0023224961540222466
aF0.016345510300766364
aF0.003965587137884086
aF0.016626733526891257
aF0.0094679916609266
aF0.0075689290359264305
aF0.011106245881535415
aF0.004135307783144526
aF0.00418784733483335
aF0.008198284334525852
ag147
ag147
aF0.21287304399197637
aF0.19809911265099345
aF0.1974269129257209
aF0.002633359589765405
aF0.01454253781287207
aF0.00402499632434683
aF0.017769196837207346
aF0.009727379426294647
aF0.008003257521124851
aF0.012188675688832973
aF0.004087231456651352
aF0.004263056609488558
aF0.008218128061912466
ag147
ag147
aF0.19189670056300656
aF0.17269520893671597
aF0.1698008046156474
aF0.0025714492622341822
aF0.016094847889689845
aF0.003961254176658713
aF0.022330080505412297
aF0.009096594590687346
aF0.007540523296881929
aF0.011690134152161136
aF0.003957897222790052
aF0.0031174760333669838
aF0.008041098545959358
ag147
ag147
aF0.20180129712593953
aF0.18737396591825473
aF0.18305952521927793
aF0.002382259374428486
aF0.016453560549621216
aF0.003915946874712972
aF0.017297661345764936
aF0.009632629384441316
aF0.00775886149898497
aF0.011702488345065376
aF0.0040866209055820946
aF0.00418784733483335
aF0.008262970559712812
ag147
ag147
aF0.19913561363966892
aF0.18446483145396542
aF0.1813291291432506
aF0.0024284381215124995
aF0.01656198653188312
aF0.00400041882954838
aF0.025619546926350267
aF0.00933014072484184
aF0.007818650096680813
aF0.011846494803478436
aF0.00416203741406207
aF0.0034558833358460106
aF0.008281992648221603
ag147
ag147
aF0.20053129090092625
aF0.1847373248134545
aF0.18370208484702744
aF0.002339868295564429
aF0.016529300784100087
aF0.003987645356858138
aF0.023503695612475894
aF0.00958610708676133
aF0.007704867055906561
aF0.011493218323664678
aF0.004135307783144526
aF0.00418784733483335
aF0.008268187582984865
ag147
ag147
aF0.20053129090092625
aF0.1847373248134545
aF0.18370208484702744
aF0.002339868295564429
aF0.016529300784100087
aF0.003987645356858138
aF0.023503695612475894
aF0.00958610708676133
aF0.007704867055906561
aF0.011493218323664678
aF0.004135307783144526
aF0.00418784733483335
aF0.008268187582984865
ag147
ag147
atp217
ba(lp218
g15
(g16
(dp219
g18
g19
(g20
(I0
tp220
g22
tp221
Rp222
(I1
(I1
tp223
g29
I00
(lp224
g43
atp225
bsg68
Nstp226
Rp227
ag15
(g16
(dp228
g18
g19
(g20
(I0
tp229
g22
tp230
Rp231
(I1
(I33
tp232
g29
I00
(lp233
g33
ag34
ag35
ag36
ag37
ag38
ag39
ag40
ag41
ag42
ag44
ag45
ag46
ag47
ag48
ag49
ag50
ag51
ag52
ag53
ag54
ag55
ag56
ag57
ag58
ag59
ag60
ag61
ag62
ag63
ag64
ag65
ag66
atp234
bsg68
Nstp235
Rp236
a(dp237
S'0.14.1'
p238
(dp239
S'axes'
p240
g14
sS'blocks'
p241
(lp242
(dp243
S'mgr_locs'
p244
c__builtin__
slice
p245
(I10
I11
I1
tp246
Rp247
sS'values'
p248
g89
sa(dp249
g244
g19
(g20
(I0
tp250
g22
tp251
Rp252
(I1
(I33
tp253
g79
I00
S'\x00\x00\x00\x00\x00\x00\x00\x00\x01\x00\x00\x00\x00\x00\x00\x00\x02\x00\x00\x00\x00\x00\x00\x00\x03\x00\x00\x00\x00\x00\x00\x00\x04\x00\x00\x00\x00\x00\x00\x00\x05\x00\x00\x00\x00\x00\x00\x00\x06\x00\x00\x00\x00\x00\x00\x00\x07\x00\x00\x00\x00\x00\x00\x00\x08\x00\x00\x00\x00\x00\x00\x00\t\x00\x00\x00\x00\x00\x00\x00\x0b\x00\x00\x00\x00\x00\x00\x00\x0c\x00\x00\x00\x00\x00\x00\x00\r\x00\x00\x00\x00\x00\x00\x00\x0e\x00\x00\x00\x00\x00\x00\x00\x0f\x00\x00\x00\x00\x00\x00\x00\x10\x00\x00\x00\x00\x00\x00\x00\x11\x00\x00\x00\x00\x00\x00\x00\x12\x00\x00\x00\x00\x00\x00\x00\x13\x00\x00\x00\x00\x00\x00\x00\x14\x00\x00\x00\x00\x00\x00\x00\x15\x00\x00\x00\x00\x00\x00\x00\x16\x00\x00\x00\x00\x00\x00\x00\x17\x00\x00\x00\x00\x00\x00\x00\x18\x00\x00\x00\x00\x00\x00\x00\x19\x00\x00\x00\x00\x00\x00\x00\x1a\x00\x00\x00\x00\x00\x00\x00\x1b\x00\x00\x00\x00\x00\x00\x00\x1c\x00\x00\x00\x00\x00\x00\x00\x1d\x00\x00\x00\x00\x00\x00\x00\x1e\x00\x00\x00\x00\x00\x00\x00\x1f\x00\x00\x00\x00\x00\x00\x00 \x00\x00\x00\x00\x00\x00\x00!\x00\x00\x00\x00\x00\x00\x00'
p254
tp255
bsg248
g100
sasstp256
bsb.