ccopy_reg
_reconstructor
p0
(cpandas.core.frame
DataFrame
p1
c__builtin__
object
p2
Ntp3
Rp4
(dp5
S'_metadata'
p6
(lp7
sS'_typ'
p8
S'dataframe'
p9
sS'_data'
p10
g0
(cpandas.core.internals
BlockManager
p11
g2
Ntp12
Rp13
((lp14
cpandas.core.indexes.base
_new_Index
p15
(cpandas.core.indexes.base
Index
p16
(dp17
S'data'
p18
cnumpy.core.multiarray
_reconstruct
p19
(cnumpy
ndarray
p20
(I0
tp21
S'b'
p22
tp23
Rp24
(I1
(I32
tp25
cnumpy
dtype
p26
(S'O8'
p27
I0
I1
tp28
Rp29
(I3
S'|'
p30
NNNI-1
I-1
I63
tp31
bI00
(lp32
S'year'
p33
aS'type'
p34
aS'procOriginal'
p35
aS'proc'
p36
aS'proc_s0'
p37
aS'cat'
p38
aS'inputWSFile'
p39
aS'nominalDataName'
p40
aS'modelWSFile'
p41
aS'model'
p42
aS'rate'
p43
aS'nominal_yield'
p44
aS'sumw2'
p45
aS'nominal_yield_COWCorr'
p46
aS'LooseMvaSF_up_yield'
p47
aS'LooseMvaSF_down_yield'
p48
aS'PreselSF_up_yield'
p49
aS'PreselSF_down_yield'
p50
aS'electronVetoSF_up_yield'
p51
aS'electronVetoSF_down_yield'
p52
aS'TriggerWeight_up_yield'
p53
aS'TriggerWeight_down_yield'
p54
aS'SigmaEOverEShift_up_yield'
p55
aS'SigmaEOverEShift_down_yield'
p56
aS'MvaShift_up_yield'
p57
aS'MvaShift_down_yield'
p58
aS'PUJIDShift_up_yield'
p59
aS'PUJIDShift_down_yield'
p60
aS'JEC_up_yield'
p61
aS'JEC_down_yield'
p62
aS'JER_up_yield'
p63
aS'JER_down_yield'
p64
atp65
bsS'name'
p66
Nstp67
Rp68
ag15
(cpandas.core.indexes.numeric
Int64Index
p69
(dp70
g18
g19
(g20
(I0
tp71
g22
tp72
Rp73
(I1
(I15
tp74
g26
(S'i8'
p75
I0
I1
tp76
Rp77
(I3
S'<'
p78
NNNI-1
I-1
I0
tp79
bI00
S'\x00\x00\x00\x00\x00\x00\x00\x00\x01\x00\x00\x00\x00\x00\x00\x00\x02\x00\x00\x00\x00\x00\x00\x00\x03\x00\x00\x00\x00\x00\x00\x00\x04\x00\x00\x00\x00\x00\x00\x00\x05\x00\x00\x00\x00\x00\x00\x00\x06\x00\x00\x00\x00\x00\x00\x00\x07\x00\x00\x00\x00\x00\x00\x00\x08\x00\x00\x00\x00\x00\x00\x00\t\x00\x00\x00\x00\x00\x00\x00\n\x00\x00\x00\x00\x00\x00\x00\x0b\x00\x00\x00\x00\x00\x00\x00\x0c\x00\x00\x00\x00\x00\x00\x00\r\x00\x00\x00\x00\x00\x00\x00\x0e\x00\x00\x00\x00\x00\x00\x00'
p80
tp81
bsg66
Nstp82
Rp83
a(lp84
g19
(g20
(I0
tp85
g22
tp86
Rp87
(I1
(I1
I15
tp88
g26
(S'f8'
p89
I0
I1
tp90
Rp91
(I3
S'<'
p92
NNNI-1
I-1
I0
tp93
bI00
S'\x00\x00\x00\x00\x00\x10\xd3@\x00\x00\x00\x00\x00\x10\xd3@\x00\x00\x00\x00\x00\x10\xd3@\x00\x00\x00\x00\x00\x10\xd3@\x00\x00\x00\x00\x00\x10\xd3@\x00\x00\x00\x00\x00\x10\xd3@\x00\x00\x00\x00\x00\x10\xd3@\x00\x00\x00\x00\x00\x10\xd3@\x00\x00\x00\x00\x00\x10\xd3@\x00\x00\x00\x00\x00\x10\xd3@\x00\x00\x00\x00\x00\x10\xd3@\x00\x00\x00\x00\x00\x10\xd3@\x00\x00\x00\x00\x00\x10\xd3@\x00\x00\x00\x00\x00\x00\xf0?\x00\x00\x00\x00\x00\x00\xf0\xbf'
p94
tp95
bag19
(g20
(I0
tp96
g22
tp97
Rp98
(I1
(I31
I15
tp99
g29
I00
(lp100
S'2016preVFP'
p101
ag101
ag101
ag101
ag101
ag101
ag101
ag101
ag101
ag101
ag101
ag101
ag101
ag33
ag33
aS'sig'
p102
ag102
ag102
ag102
ag102
ag102
ag102
ag102
ag102
ag102
ag102
ag102
ag102
aS'bkg'
p103
ag18
aS'GG2HMf05ph0'
p104
aS'GG2HbsmM'
p105
aS'GG2Hsm'
p106
aS'TTHsm'
p107
aS'VBFMf05ph0'
p108
aS'VBFbsmM'
p109
aS'VBFsm'
p110
aS'WHMf05ph0'
p111
aS'WHbsmM'
p112
aS'WHsm'
p113
aS'ZHMf05ph0'
p114
aS'ZHbsmM'
p115
aS'ZHsm'
p116
aS'bkg_mass'
p117
aS'data_obs'
p118
aS'GG2HMf05ph0_2016preVFP_hgg'
p119
aS'GG2HbsmM_2016preVFP_hgg'
p120
aS'GG2Hsm_2016preVFP_hgg'
p121
aS'tth0P_2016preVFP_hgg'
p122
aS'vbf0Mf05ph0_2016preVFP_hgg'
p123
aS'vbf0M_2016preVFP_hgg'
p124
aS'vbf0P_2016preVFP_hgg'
p125
aS'wh0Mf05ph0_2016preVFP_hgg'
p126
aS'wh0M_2016preVFP_hgg'
p127
aS'wh0P_2016preVFP_hgg'
p128
aS'zh0Mf05ph0_2016preVFP_hgg'
p129
aS'zh0M_2016preVFP_hgg'
p130
aS'zh0P_2016preVFP_hgg'
p131
ag117
ag118
aS'jjh0Mf05ph0'
p132
aS'jjh0M'
p133
aS'jjh0P'
p134
aS'tth0P'
p135
aS'vbf0Mf05ph0'
p136
aS'vbf0M'
p137
aS'vbf0P'
p138
aS'wh0Mf05ph0'
p139
aS'wh0M'
p140
aS'wh0P'
p141
aS'zh0Mf05ph0'
p142
aS'zh0M'
p143
aS'zh0P'
p144
aS'-'
p145
ag145
aS'AC_Bin5_2016preVFP'
p146
aS'AC_Bin5_2016preVFP'
p147
aS'AC_Bin5_2016preVFP'
p148
aS'AC_Bin5_2016preVFP'
p149
aS'AC_Bin5_2016preVFP'
p150
aS'AC_Bin5_2016preVFP'
p151
aS'AC_Bin5_2016preVFP'
p152
aS'AC_Bin5_2016preVFP'
p153
aS'AC_Bin5_2016preVFP'
p154
aS'AC_Bin5_2016preVFP'
p155
aS'AC_Bin5_2016preVFP'
p156
aS'AC_Bin5_2016preVFP'
p157
aS'AC_Bin5_2016preVFP'
p158
aS'AC_Bin5_2016preVFP'
p159
ag159
aS'Trees/Opt_2016preVFP/2016PreVFP/Trees2WS_2016preVFP/WS/output_GluGluHToGGPlusTwoJets_MM_M125_TuneCP5_13TeV-amcatnlopowheg-minlo-pythia8_GG2HMf05ph0.root'
p160
aS'Trees/Opt_2016preVFP/2016PreVFP/Trees2WS_2016preVFP/WS/output_GluGluHToGGPlusTwoJets_CPodd_M125_TuneCP5_13TeV-amcatnlopowheg-minlo-pythia8_GG2HbsmM.root'
p161
aS'Trees/Opt_2016preVFP/2016PreVFP/Trees2WS_2016preVFP/WS/output_GluGluHToGGPlusTwoJets_SM_M125_TuneCP5_13TeV-amcatnlopowheg-minlo-pythia8_GG2Hsm.root'
p162
aS'Trees/Opt_2016preVFP/2016PreVFP/Trees2WS_2016preVFP/WS/output_ttHJetToGG_M125_TuneCP5_13TeV-amcatnloFXFX-madspin-pythia8_TTHsm.root'
p163
aS'Trees/Opt_2016preVFP/2016PreVFP/Trees2WS_2016preVFP/WS/output_VBFHiggs0Mf05ph0ToGG_M125_TuneCP5_13TeV-JHUGenV7011-pythia8_VBFMf05ph0.root'
p164
aS'Trees/Opt_2016preVFP/2016PreVFP/Trees2WS_2016preVFP/WS/output_VBFHiggs0MToGG_M125_TuneCP5_13TeV-JHUGenV7011-pythia8_VBFbsmM.root'
p165
aS'Trees/Opt_2016preVFP/2016PreVFP/Trees2WS_2016preVFP/WS/output_VBFHToGG_M125_TuneCP5_13TeV-amcatnlo-pythia8_VBFsm.root'
p166
aS'Trees/Opt_2016preVFP/2016PreVFP/Trees2WS_2016preVFP/WS/output_WHiggs0Mf05ph0ToGG_M125_TuneCP5_13TeV-JHUGenV7011-pythia8_WHMf05ph0.root'
p167
aS'Trees/Opt_2016preVFP/2016PreVFP/Trees2WS_2016preVFP/WS/output_WHiggs0MToGG_M125_TuneCP5_13TeV-JHUGenV7011-pythia8_WHbsmM.root'
p168
aS'Trees/Opt_2016preVFP/2016PreVFP/Trees2WS_2016preVFP/WS/output_WHiggs0PMToGG_M125_TuneCP5_13TeV-JHUGenV7011-pythia8_WHsm.root'
p169
aS'Trees/Opt_2016preVFP/2016PreVFP/Trees2WS_2016preVFP/WS/output_ZHiggs0Mf05ph0ToGG_M125_TuneCP5_13TeV-JHUGenV7011-pythia8_ZHMf05ph0.root'
p170
aS'Trees/Opt_2016preVFP/2016PreVFP/Trees2WS_2016preVFP/WS/output_ZHiggs0MToGG_M125_TuneCP5_13TeV-JHUGenV7011-pythia8_ZHbsmM.root'
p171
aS'Trees/Opt_2016preVFP/2016PreVFP/Trees2WS_2016preVFP/WS/output_ZH_HToGG_ZToAll_M125_TuneCP5_13TeV-powheg-pythia8_ZHsm.root'
p172
ag145
ag145
aS'jjh0Mf05ph0_125_13TeV_AC_Bin5'
p173
aS'jjh0M_125_13TeV_AC_Bin5'
p174
aS'jjh0P_125_13TeV_AC_Bin5'
p175
aS'tth0P_125_13TeV_AC_Bin5'
p176
aS'vbf0Mf05ph0_125_13TeV_AC_Bin5'
p177
aS'vbf0M_125_13TeV_AC_Bin5'
p178
aS'vbf0P_125_13TeV_AC_Bin5'
p179
aS'wh0Mf05ph0_125_13TeV_AC_Bin5'
p180
aS'wh0M_125_13TeV_AC_Bin5'
p181
aS'wh0P_125_13TeV_AC_Bin5'
p182
aS'zh0Mf05ph0_125_13TeV_AC_Bin5'
p183
aS'zh0M_125_13TeV_AC_Bin5'
p184
aS'zh0P_125_13TeV_AC_Bin5'
p185
ag145
ag145
aS'./Models/signal/CMS-HGG_sigfit_packaged_AC_Bin5_2016preVFP.root'
p186
aS'./Models/signal/CMS-HGG_sigfit_packaged_AC_Bin5_2016preVFP.root'
p187
aS'./Models/signal/CMS-HGG_sigfit_packaged_AC_Bin5_2016preVFP.root'
p188
aS'./Models/signal/CMS-HGG_sigfit_packaged_AC_Bin5_2016preVFP.root'
p189
aS'./Models/signal/CMS-HGG_sigfit_packaged_AC_Bin5_2016preVFP.root'
p190
aS'./Models/signal/CMS-HGG_sigfit_packaged_AC_Bin5_2016preVFP.root'
p191
aS'./Models/signal/CMS-HGG_sigfit_packaged_AC_Bin5_2016preVFP.root'
p192
aS'./Models/signal/CMS-HGG_sigfit_packaged_AC_Bin5_2016preVFP.root'
p193
aS'./Models/signal/CMS-HGG_sigfit_packaged_AC_Bin5_2016preVFP.root'
p194
aS'./Models/signal/CMS-HGG_sigfit_packaged_AC_Bin5_2016preVFP.root'
p195
aS'./Models/signal/CMS-HGG_sigfit_packaged_AC_Bin5_2016preVFP.root'
p196
aS'./Models/signal/CMS-HGG_sigfit_packaged_AC_Bin5_2016preVFP.root'
p197
aS'./Models/signal/CMS-HGG_sigfit_packaged_AC_Bin5_2016preVFP.root'
p198
aS'./Models/background/CMS-HGG_multipdf_AC_Bin5_2016preVFP.root'
p199
ag199
aS'wsig_13TeV:hggpdfsmrel_GG2HMf05ph0_2016preVFP_AC_Bin5_13TeV'
p200
aS'wsig_13TeV:hggpdfsmrel_GG2HbsmM_2016preVFP_AC_Bin5_13TeV'
p201
aS'wsig_13TeV:hggpdfsmrel_GG2Hsm_2016preVFP_AC_Bin5_13TeV'
p202
aS'wsig_13TeV:hggpdfsmrel_TTHsm_2016preVFP_AC_Bin5_13TeV'
p203
aS'wsig_13TeV:hggpdfsmrel_VBFMf05ph0_2016preVFP_AC_Bin5_13TeV'
p204
aS'wsig_13TeV:hggpdfsmrel_VBFbsmM_2016preVFP_AC_Bin5_13TeV'
p205
aS'wsig_13TeV:hggpdfsmrel_VBFsm_2016preVFP_AC_Bin5_13TeV'
p206
aS'wsig_13TeV:hggpdfsmrel_WHMf05ph0_2016preVFP_AC_Bin5_13TeV'
p207
aS'wsig_13TeV:hggpdfsmrel_WHbsmM_2016preVFP_AC_Bin5_13TeV'
p208
aS'wsig_13TeV:hggpdfsmrel_WHsm_2016preVFP_AC_Bin5_13TeV'
p209
aS'wsig_13TeV:hggpdfsmrel_ZHMf05ph0_2016preVFP_AC_Bin5_13TeV'
p210
aS'wsig_13TeV:hggpdfsmrel_ZHbsmM_2016preVFP_AC_Bin5_13TeV'
p211
aS'wsig_13TeV:hggpdfsmrel_ZHsm_2016preVFP_AC_Bin5_13TeV'
p212
aS'multipdf:CMS_hgg_AC_Bin5_2016preVFP_13TeV_bkgshape'
p213
aS'multipdf:roohist_data_mass_AC_Bin5'
p214
aF0.04138666262588231
aF0.06021543200108681
aF0.029357691179029644
aF0.0066901074859515575
aF0.024765375259335087
aF0.017515105741040315
aF0.060169522243882057
aF0.0006154332353389691
aF0.0005419624545766055
aF0.0004984411839359382
aF7.70828701206483e-05
aF0.0001970818339032121
aF0.0005719303003388632
ag145
ag145
aF9.414434621399161e-06
aF7.852926451362064e-06
aF3.396620378252959e-06
aF3.7091315038707166e-05
aF3.825836093361955e-06
aF8.112533424093824e-07
aF2.55454193989777e-05
aF1.134287161415379e-08
aF6.784219325946819e-09
aF7.791428676345969e-09
aF5.941768866036734e-09
aF1.965083282364594e-08
aF2.054698545195909e-08
ag145
ag145
aF0.042549270584054326
aF0.06182466589867239
aF0.030198402540231116
aF0.00689732510465571
aF0.025384979604987496
aF0.01796512940396831
aF0.06175618679218641
aF0.0006292019487867922
aF0.0005542654644792112
aF0.0005113108892138612
aF7.898766440936696e-05
aF0.00020166138787186752
aF0.0005825877829218394
ag145
ag145
aF0.041654228315770425
aF0.060605328450914736
aF0.029546524207818285
aF0.006729916213143078
aF0.02492625053031204
aF0.01762865167352259
aF0.06055725921905801
aF0.0006194027356041163
aF0.0005454295837913039
aF0.0005016324599162498
aF7.760850773348661e-05
aF0.0001984257627565439
aF0.0005756250063645637
ag145
ag145
aF0.04111995926389687
aF0.059826795715975906
aF0.029169464418871558
aF0.006650414287716227
aF0.02460502149990087
aF0.01740192706987836
aF0.05978303142876685
aF0.0006114765049095262
aF0.0005385063588488597
aF0.0004952601210440167
aF7.655902155984792e-05
aF0.00019574247798115633
aF0.000568247512364688
ag145
ag145
aF0.042144089406958234
aF0.061272627241808486
aF0.029893495005747714
aF0.006946084448178942
aF0.025172820856894724
aF0.01781037912869774
aF0.06121757583362353
aF0.0006265231260106454
aF0.0005529351064797265
aF0.0005076489645225464
aF7.798250906201546e-05
aF0.0001993819928089418
aF0.0005800971315434423
ag145
ag145
aF0.04063567725718301
aF0.05916751429785042
aF0.028826620718903517
aF0.006436661892819013
aF0.0243611879751545
aF0.017222320231557696
aF0.05913040494375226
aF0.0006044323731074663
aF0.0005310810327761131
aF0.0004893040342698448
aF7.618844767838119e-05
aF0.00019479500915273802
aF0.0005638230304098639
ag145
ag145
aF0.04146498126747033
aF0.06032629739429332
aF0.029415062355738503
aF0.006707234492475432
aF0.024811218592670308
aF0.017546843990496473
aF0.06028668632685951
aF0.0006165105593394965
aF0.0005430082282258003
aF0.000499425485803042
aF7.716015716868678e-05
aF0.0001972794448879663
aF0.0005729683510731217
ag145
ag145
aF0.04130841745959524
aF0.06010467166187398
aF0.02930037766392763
aF0.00667299433404665
aF0.024719573830719353
aF0.017483395145070062
aF0.060052472718670924
aF0.0006143568092446745
aF0.0005409175401739397
aF0.0004974578633260337
aF7.700561132079987e-05
aF0.0001968843070581456
aF0.0005708933432448332
ag145
ag145
aF0.041484698610746266
aF0.06034636819613204
aF0.029424151159391253
aF0.0067044262202951895
aF0.02481885784078393
aF0.01755249462325674
aF0.06030666281447745
aF0.0006166789666120764
aF0.0005430728798675597
aF0.000499555277123161
aF7.72379715162733e-05
aF0.00019747809869068056
aF0.0005731063580569665
ag145
ag145
aF0.04128874103088246
aF0.0600846399664286
aF0.029291306296137447
aF0.0066758042640503645
aF0.024711950979811038
aF0.01747775702417265
aF0.06003253746720835
aF0.0006141887831771101
aF0.000540853177088569
aF0.0004973283381566343
aF7.692793350613205e-05
aF0.00019668597779422687
aF0.0005707554702449233
ag145
ag145
aF0.04109768198418351
aF0.061527311613645
aF0.029500278988734863
aF0.00665486322372999
aF0.02500517720420703
aF0.018021603671968478
aF0.05976239797246308
aF0.000624075554128467
aF0.0005346586879113602
aF0.0004984411839359382
aF7.70828701206483e-05
aF0.0001970818339032121
aF0.0005719412781672872
ag145
ag145
aF0.041841354264306574
aF0.06018272703749972
aF0.02966897304872873
aF0.006688105017019552
aF0.024685857135182232
aF0.017135351496790463
aF0.05886240850554714
aF0.000629871393243775
aF0.0005362016166827743
aF0.0005002949128538603
aF0.00021064027532702312
aF0.0001970818339032121
aF0.0005591190433733573
ag145
ag145
aF0.04183121217079133
aF0.06366480729047908
aF0.02983796322314447
aF0.006803341770023508
aF0.025115989329947297
aF0.01781125448098919
aF0.05497714362286388
aF0.0005959486658184687
aF0.0005494693508580895
aF0.0005040127606434908
aF7.70828701206483e-05
aF0.0001970818339032121
aF0.0006286032576099387
ag145
ag145
aF0.039728000818513465
aF0.05899209042536313
aF0.029389306342864074
aF0.007067764527732834
aF0.024470855524441504
aF0.017429518880248906
aF0.052033860482310956
aF0.0006187014865872698
aF0.0005257889775975855
aF0.0004951172642222446
aF7.70828701206483e-05
aF0.0001970818339032121
aF0.00048737461656855885
ag145
ag145
aF0.04266250819296147
aF0.06133065468429777
aF0.030298434782935146
aF0.006678812275708879
aF0.02489147759536081
aF0.01755016669176257
aF0.060414369761929265
aF0.0006367311715393953
aF0.0005435158856244016
aF0.0004984411839359382
aF7.70828701206483e-05
aF0.0001970818339032121
aF0.0005719303003388632
ag145
ag145
aF0.04055193344925101
aF0.05930274764773458
aF0.0287370637568074
aF0.0066901074859515575
aF0.024610088574490874
aF0.01747038843620885
aF0.05165107329185048
aF0.0005880738966652643
aF0.0005391472146811793
aF0.0004649465213333315
aF7.70828701206483e-05
aF0.0001970818339032121
aF0.0005719303003388632
ag145
ag145
aF0.04392596154707462
aF0.06387607783790372
aF0.0315837645891861
aF0.006514660712468867
aF0.024674143475067467
aF0.017810933090004255
aF0.05917432602723238
aF0.0006983536269444812
aF0.0005866395542852842
aF0.0004983876407322896
aF0.0002592118107713759
aF0.0001970818339032121
aF0.0005899555239921028
ag145
ag145
aF0.03939958074420247
aF0.056500582515354836
aF0.027521484655153472
aF0.007094347339830165
aF0.024189175012793385
aF0.017511617341483543
aF0.051925701175946415
aF0.0005098024328162865
aF0.0004621204871000373
aF0.0004019630289349152
aF7.70828701206483e-05
aF8.781225915299729e-05
aF0.00045970982114340586
ag145
ag145
aF0.04193640147536826
aF0.06091781195073054
aF0.02931836884454242
aF0.00647585566014186
aF0.024855916139586043
aF0.01744476063959155
aF0.052774512602240975
aF0.0006104757317189069
aF0.0005406302632309234
aF0.0005357144086701737
aF0.00016293754015350714
aF0.0001970818339032121
aF0.0005410447988651867
ag145
ag145
aF0.04069844818650381
aF0.058804888348731765
aF0.02905532516660969
aF0.006720124567323182
aF0.02471133167591688
aF0.017393729061382146
aF0.05396518237330383
aF0.0005529497095722036
aF0.0005264450447839408
aF0.0005088469293923481
aF7.70828701206483e-05
aF0.0001970818339032121
aF0.0005594074996224663
ag145
ag145
atp215
ba(lp216
g15
(g16
(dp217
g18
g19
(g20
(I0
tp218
g22
tp219
Rp220
(I1
(I1
tp221
g29
I00
(lp222
g43
atp223
bsg66
Nstp224
Rp225
ag15
(g16
(dp226
g18
g19
(g20
(I0
tp227
g22
tp228
Rp229
(I1
(I31
tp230
g29
I00
(lp231
g33
ag34
ag35
ag36
ag37
ag38
ag39
ag40
ag41
ag42
ag44
ag45
ag46
ag47
ag48
ag49
ag50
ag51
ag52
ag53
ag54
ag55
ag56
ag57
ag58
ag59
ag60
ag61
ag62
ag63
ag64
atp232
bsg66
Nstp233
Rp234
a(dp235
S'0.14.1'
p236
(dp237
S'axes'
p238
g14
sS'blocks'
p239
(lp240
(dp241
S'mgr_locs'
p242
c__builtin__
slice
p243
(I10
I11
I1
tp244
Rp245
sS'values'
p246
g87
sa(dp247
g242
g19
(g20
(I0
tp248
g22
tp249
Rp250
(I1
(I31
tp251
g77
I00
S'\x00\x00\x00\x00\x00\x00\x00\x00\x01\x00\x00\x00\x00\x00\x00\x00\x02\x00\x00\x00\x00\x00\x00\x00\x03\x00\x00\x00\x00\x00\x00\x00\x04\x00\x00\x00\x00\x00\x00\x00\x05\x00\x00\x00\x00\x00\x00\x00\x06\x00\x00\x00\x00\x00\x00\x00\x07\x00\x00\x00\x00\x00\x00\x00\x08\x00\x00\x00\x00\x00\x00\x00\t\x00\x00\x00\x00\x00\x00\x00\x0b\x00\x00\x00\x00\x00\x00\x00\x0c\x00\x00\x00\x00\x00\x00\x00\r\x00\x00\x00\x00\x00\x00\x00\x0e\x00\x00\x00\x00\x00\x00\x00\x0f\x00\x00\x00\x00\x00\x00\x00\x10\x00\x00\x00\x00\x00\x00\x00\x11\x00\x00\x00\x00\x00\x00\x00\x12\x00\x00\x00\x00\x00\x00\x00\x13\x00\x00\x00\x00\x00\x00\x00\x14\x00\x00\x00\x00\x00\x00\x00\x15\x00\x00\x00\x00\x00\x00\x00\x16\x00\x00\x00\x00\x00\x00\x00\x17\x00\x00\x00\x00\x00\x00\x00\x18\x00\x00\x00\x00\x00\x00\x00\x19\x00\x00\x00\x00\x00\x00\x00\x1a\x00\x00\x00\x00\x00\x00\x00\x1b\x00\x00\x00\x00\x00\x00\x00\x1c\x00\x00\x00\x00\x00\x00\x00\x1d\x00\x00\x00\x00\x00\x00\x00\x1e\x00\x00\x00\x00\x00\x00\x00\x1f\x00\x00\x00\x00\x00\x00\x00'
p252
tp253
bsg246
g98
sasstp254
bsb.