ccopy_reg
_reconstructor
p0
(cpandas.core.frame
DataFrame
p1
c__builtin__
object
p2
Ntp3
Rp4
(dp5
S'_metadata'
p6
(lp7
sS'_typ'
p8
S'dataframe'
p9
sS'_data'
p10
g0
(cpandas.core.internals
BlockManager
p11
g2
Ntp12
Rp13
((lp14
cpandas.core.indexes.base
_new_Index
p15
(cpandas.core.indexes.base
Index
p16
(dp17
S'data'
p18
cnumpy.core.multiarray
_reconstruct
p19
(cnumpy
ndarray
p20
(I0
tp21
S'b'
p22
tp23
Rp24
(I1
(I32
tp25
cnumpy
dtype
p26
(S'O8'
p27
I0
I1
tp28
Rp29
(I3
S'|'
p30
NNNI-1
I-1
I63
tp31
bI00
(lp32
S'year'
p33
aS'type'
p34
aS'procOriginal'
p35
aS'proc'
p36
aS'proc_s0'
p37
aS'cat'
p38
aS'inputWSFile'
p39
aS'nominalDataName'
p40
aS'modelWSFile'
p41
aS'model'
p42
aS'rate'
p43
aS'nominal_yield'
p44
aS'sumw2'
p45
aS'nominal_yield_COWCorr'
p46
aS'LooseMvaSF_up_yield'
p47
aS'LooseMvaSF_down_yield'
p48
aS'PreselSF_up_yield'
p49
aS'PreselSF_down_yield'
p50
aS'electronVetoSF_up_yield'
p51
aS'electronVetoSF_down_yield'
p52
aS'TriggerWeight_up_yield'
p53
aS'TriggerWeight_down_yield'
p54
aS'SigmaEOverEShift_up_yield'
p55
aS'SigmaEOverEShift_down_yield'
p56
aS'MvaShift_up_yield'
p57
aS'MvaShift_down_yield'
p58
aS'PUJIDShift_up_yield'
p59
aS'PUJIDShift_down_yield'
p60
aS'JEC_up_yield'
p61
aS'JEC_down_yield'
p62
aS'JER_up_yield'
p63
aS'JER_down_yield'
p64
atp65
bsS'name'
p66
Nstp67
Rp68
ag15
(cpandas.core.indexes.numeric
Int64Index
p69
(dp70
g18
g19
(g20
(I0
tp71
g22
tp72
Rp73
(I1
(I15
tp74
g26
(S'i8'
p75
I0
I1
tp76
Rp77
(I3
S'<'
p78
NNNI-1
I-1
I0
tp79
bI00
S'\x00\x00\x00\x00\x00\x00\x00\x00\x01\x00\x00\x00\x00\x00\x00\x00\x02\x00\x00\x00\x00\x00\x00\x00\x03\x00\x00\x00\x00\x00\x00\x00\x04\x00\x00\x00\x00\x00\x00\x00\x05\x00\x00\x00\x00\x00\x00\x00\x06\x00\x00\x00\x00\x00\x00\x00\x07\x00\x00\x00\x00\x00\x00\x00\x08\x00\x00\x00\x00\x00\x00\x00\t\x00\x00\x00\x00\x00\x00\x00\n\x00\x00\x00\x00\x00\x00\x00\x0b\x00\x00\x00\x00\x00\x00\x00\x0c\x00\x00\x00\x00\x00\x00\x00\r\x00\x00\x00\x00\x00\x00\x00\x0e\x00\x00\x00\x00\x00\x00\x00'
p80
tp81
bsg66
Nstp82
Rp83
a(lp84
g19
(g20
(I0
tp85
g22
tp86
Rp87
(I1
(I1
I15
tp88
g26
(S'f8'
p89
I0
I1
tp90
Rp91
(I3
S'<'
p92
NNNI-1
I-1
I0
tp93
bI00
S'\x00\x00\x00\x00\x00\x10\xd3@\x00\x00\x00\x00\x00\x10\xd3@\x00\x00\x00\x00\x00\x10\xd3@\x00\x00\x00\x00\x00\x10\xd3@\x00\x00\x00\x00\x00\x10\xd3@\x00\x00\x00\x00\x00\x10\xd3@\x00\x00\x00\x00\x00\x10\xd3@\x00\x00\x00\x00\x00\x10\xd3@\x00\x00\x00\x00\x00\x10\xd3@\x00\x00\x00\x00\x00\x10\xd3@\x00\x00\x00\x00\x00\x10\xd3@\x00\x00\x00\x00\x00\x10\xd3@\x00\x00\x00\x00\x00\x10\xd3@\x00\x00\x00\x00\x00\x00\xf0?\x00\x00\x00\x00\x00\x00\xf0\xbf'
p94
tp95
bag19
(g20
(I0
tp96
g22
tp97
Rp98
(I1
(I31
I15
tp99
g29
I00
(lp100
S'2016preVFP'
p101
ag101
ag101
ag101
ag101
ag101
ag101
ag101
ag101
ag101
ag101
ag101
ag101
ag33
ag33
aS'sig'
p102
ag102
ag102
ag102
ag102
ag102
ag102
ag102
ag102
ag102
ag102
ag102
ag102
aS'bkg'
p103
ag18
aS'GG2HMf05ph0'
p104
aS'GG2HbsmM'
p105
aS'GG2Hsm'
p106
aS'TTHsm'
p107
aS'VBFMf05ph0'
p108
aS'VBFbsmM'
p109
aS'VBFsm'
p110
aS'WHMf05ph0'
p111
aS'WHbsmM'
p112
aS'WHsm'
p113
aS'ZHMf05ph0'
p114
aS'ZHbsmM'
p115
aS'ZHsm'
p116
aS'bkg_mass'
p117
aS'data_obs'
p118
aS'GG2HMf05ph0_2016preVFP_hgg'
p119
aS'GG2HbsmM_2016preVFP_hgg'
p120
aS'GG2Hsm_2016preVFP_hgg'
p121
aS'tth0P_2016preVFP_hgg'
p122
aS'vbf0Mf05ph0_2016preVFP_hgg'
p123
aS'vbf0M_2016preVFP_hgg'
p124
aS'vbf0P_2016preVFP_hgg'
p125
aS'wh0Mf05ph0_2016preVFP_hgg'
p126
aS'wh0M_2016preVFP_hgg'
p127
aS'wh0P_2016preVFP_hgg'
p128
aS'zh0Mf05ph0_2016preVFP_hgg'
p129
aS'zh0M_2016preVFP_hgg'
p130
aS'zh0P_2016preVFP_hgg'
p131
ag117
ag118
aS'jjh0Mf05ph0'
p132
aS'jjh0M'
p133
aS'jjh0P'
p134
aS'tth0P'
p135
aS'vbf0Mf05ph0'
p136
aS'vbf0M'
p137
aS'vbf0P'
p138
aS'wh0Mf05ph0'
p139
aS'wh0M'
p140
aS'wh0P'
p141
aS'zh0Mf05ph0'
p142
aS'zh0M'
p143
aS'zh0P'
p144
aS'-'
p145
ag145
aS'AC_Bin0_2016preVFP'
p146
aS'AC_Bin0_2016preVFP'
p147
aS'AC_Bin0_2016preVFP'
p148
aS'AC_Bin0_2016preVFP'
p149
aS'AC_Bin0_2016preVFP'
p150
aS'AC_Bin0_2016preVFP'
p151
aS'AC_Bin0_2016preVFP'
p152
aS'AC_Bin0_2016preVFP'
p153
aS'AC_Bin0_2016preVFP'
p154
aS'AC_Bin0_2016preVFP'
p155
aS'AC_Bin0_2016preVFP'
p156
aS'AC_Bin0_2016preVFP'
p157
aS'AC_Bin0_2016preVFP'
p158
aS'AC_Bin0_2016preVFP'
p159
ag159
aS'Trees/Opt_2016preVFP/2016PreVFP/Trees2WS_2016preVFP/WS/output_GluGluHToGGPlusTwoJets_MM_M125_TuneCP5_13TeV-amcatnlopowheg-minlo-pythia8_GG2HMf05ph0.root'
p160
aS'Trees/Opt_2016preVFP/2016PreVFP/Trees2WS_2016preVFP/WS/output_GluGluHToGGPlusTwoJets_CPodd_M125_TuneCP5_13TeV-amcatnlopowheg-minlo-pythia8_GG2HbsmM.root'
p161
aS'Trees/Opt_2016preVFP/2016PreVFP/Trees2WS_2016preVFP/WS/output_GluGluHToGGPlusTwoJets_SM_M125_TuneCP5_13TeV-amcatnlopowheg-minlo-pythia8_GG2Hsm.root'
p162
aS'Trees/Opt_2016preVFP/2016PreVFP/Trees2WS_2016preVFP/WS/output_ttHJetToGG_M125_TuneCP5_13TeV-amcatnloFXFX-madspin-pythia8_TTHsm.root'
p163
aS'Trees/Opt_2016preVFP/2016PreVFP/Trees2WS_2016preVFP/WS/output_VBFHiggs0Mf05ph0ToGG_M125_TuneCP5_13TeV-JHUGenV7011-pythia8_VBFMf05ph0.root'
p164
aS'Trees/Opt_2016preVFP/2016PreVFP/Trees2WS_2016preVFP/WS/output_VBFHiggs0MToGG_M125_TuneCP5_13TeV-JHUGenV7011-pythia8_VBFbsmM.root'
p165
aS'Trees/Opt_2016preVFP/2016PreVFP/Trees2WS_2016preVFP/WS/output_VBFHToGG_M125_TuneCP5_13TeV-amcatnlo-pythia8_VBFsm.root'
p166
aS'Trees/Opt_2016preVFP/2016PreVFP/Trees2WS_2016preVFP/WS/output_WHiggs0Mf05ph0ToGG_M125_TuneCP5_13TeV-JHUGenV7011-pythia8_WHMf05ph0.root'
p167
aS'Trees/Opt_2016preVFP/2016PreVFP/Trees2WS_2016preVFP/WS/output_WHiggs0MToGG_M125_TuneCP5_13TeV-JHUGenV7011-pythia8_WHbsmM.root'
p168
aS'Trees/Opt_2016preVFP/2016PreVFP/Trees2WS_2016preVFP/WS/output_WHiggs0PMToGG_M125_TuneCP5_13TeV-JHUGenV7011-pythia8_WHsm.root'
p169
aS'Trees/Opt_2016preVFP/2016PreVFP/Trees2WS_2016preVFP/WS/output_ZHiggs0Mf05ph0ToGG_M125_TuneCP5_13TeV-JHUGenV7011-pythia8_ZHMf05ph0.root'
p170
aS'Trees/Opt_2016preVFP/2016PreVFP/Trees2WS_2016preVFP/WS/output_ZHiggs0MToGG_M125_TuneCP5_13TeV-JHUGenV7011-pythia8_ZHbsmM.root'
p171
aS'Trees/Opt_2016preVFP/2016PreVFP/Trees2WS_2016preVFP/WS/output_ZH_HToGG_ZToAll_M125_TuneCP5_13TeV-powheg-pythia8_ZHsm.root'
p172
ag145
ag145
aS'jjh0Mf05ph0_125_13TeV_AC_Bin0'
p173
aS'jjh0M_125_13TeV_AC_Bin0'
p174
aS'jjh0P_125_13TeV_AC_Bin0'
p175
aS'tth0P_125_13TeV_AC_Bin0'
p176
aS'vbf0Mf05ph0_125_13TeV_AC_Bin0'
p177
aS'vbf0M_125_13TeV_AC_Bin0'
p178
aS'vbf0P_125_13TeV_AC_Bin0'
p179
aS'wh0Mf05ph0_125_13TeV_AC_Bin0'
p180
aS'wh0M_125_13TeV_AC_Bin0'
p181
aS'wh0P_125_13TeV_AC_Bin0'
p182
aS'zh0Mf05ph0_125_13TeV_AC_Bin0'
p183
aS'zh0M_125_13TeV_AC_Bin0'
p184
aS'zh0P_125_13TeV_AC_Bin0'
p185
ag145
ag145
aS'./Models/signal/CMS-HGG_sigfit_packaged_AC_Bin0_2016preVFP.root'
p186
aS'./Models/signal/CMS-HGG_sigfit_packaged_AC_Bin0_2016preVFP.root'
p187
aS'./Models/signal/CMS-HGG_sigfit_packaged_AC_Bin0_2016preVFP.root'
p188
aS'./Models/signal/CMS-HGG_sigfit_packaged_AC_Bin0_2016preVFP.root'
p189
aS'./Models/signal/CMS-HGG_sigfit_packaged_AC_Bin0_2016preVFP.root'
p190
aS'./Models/signal/CMS-HGG_sigfit_packaged_AC_Bin0_2016preVFP.root'
p191
aS'./Models/signal/CMS-HGG_sigfit_packaged_AC_Bin0_2016preVFP.root'
p192
aS'./Models/signal/CMS-HGG_sigfit_packaged_AC_Bin0_2016preVFP.root'
p193
aS'./Models/signal/CMS-HGG_sigfit_packaged_AC_Bin0_2016preVFP.root'
p194
aS'./Models/signal/CMS-HGG_sigfit_packaged_AC_Bin0_2016preVFP.root'
p195
aS'./Models/signal/CMS-HGG_sigfit_packaged_AC_Bin0_2016preVFP.root'
p196
aS'./Models/signal/CMS-HGG_sigfit_packaged_AC_Bin0_2016preVFP.root'
p197
aS'./Models/signal/CMS-HGG_sigfit_packaged_AC_Bin0_2016preVFP.root'
p198
aS'./Models/background/CMS-HGG_multipdf_AC_Bin0_2016preVFP.root'
p199
ag199
aS'wsig_13TeV:hggpdfsmrel_GG2HMf05ph0_2016preVFP_AC_Bin0_13TeV'
p200
aS'wsig_13TeV:hggpdfsmrel_GG2HbsmM_2016preVFP_AC_Bin0_13TeV'
p201
aS'wsig_13TeV:hggpdfsmrel_GG2Hsm_2016preVFP_AC_Bin0_13TeV'
p202
aS'wsig_13TeV:hggpdfsmrel_TTHsm_2016preVFP_AC_Bin0_13TeV'
p203
aS'wsig_13TeV:hggpdfsmrel_VBFMf05ph0_2016preVFP_AC_Bin0_13TeV'
p204
aS'wsig_13TeV:hggpdfsmrel_VBFbsmM_2016preVFP_AC_Bin0_13TeV'
p205
aS'wsig_13TeV:hggpdfsmrel_VBFsm_2016preVFP_AC_Bin0_13TeV'
p206
aS'wsig_13TeV:hggpdfsmrel_WHMf05ph0_2016preVFP_AC_Bin0_13TeV'
p207
aS'wsig_13TeV:hggpdfsmrel_WHbsmM_2016preVFP_AC_Bin0_13TeV'
p208
aS'wsig_13TeV:hggpdfsmrel_WHsm_2016preVFP_AC_Bin0_13TeV'
p209
aS'wsig_13TeV:hggpdfsmrel_ZHMf05ph0_2016preVFP_AC_Bin0_13TeV'
p210
aS'wsig_13TeV:hggpdfsmrel_ZHbsmM_2016preVFP_AC_Bin0_13TeV'
p211
aS'wsig_13TeV:hggpdfsmrel_ZHsm_2016preVFP_AC_Bin0_13TeV'
p212
aS'multipdf:CMS_hgg_AC_Bin0_2016preVFP_13TeV_bkgshape'
p213
aS'multipdf:roohist_data_mass_AC_Bin0'
p214
aF0.015077918588758621
aF0.025657965353502732
aF0.014141058323502875
aF3.284854994944908e-05
aF0.004960682754926893
aF0.0019580888099426375
aF0.022814909117073512
aF0.00033179100933011796
aF0.00016746903236253274
aF0.00019190297769000608
aF0.00031260015384759754
aF0.00013496754399966449
aF0.0004991520193016186
ag145
ag145
aF4.327736847239398e-06
aF8.70246247195981e-06
aF1.124746177745067e-06
aF1.9664676036666912e-08
aF1.4837791674544844e-07
aF6.534583578464661e-08
aF2.6900677397428488e-05
aF4.889381710704681e-09
aF2.1230362141679563e-09
aF1.904400352535031e-09
aF4.9893886326463855e-08
aF1.821623793330137e-08
aF3.126359243169297e-08
ag145
ag145
aF0.015751429812235956
aF0.026531538949950872
aF0.014589892576746385
aF3.416120944680484e-05
aF0.0051267646085756445
aF0.0020308344011715405
aF0.023725130631896928
aF0.0003385302486115968
aF0.00017073704125830872
aF0.00019778538009901587
aF0.00032078825124005417
aF0.00013825736265981342
aF0.0005168175233050291
ag145
ag145
aF0.015173763792212951
aF0.025820139295463337
aF0.01423110089699819
aF3.299639325636141e-05
aF0.004991797450327504
aF0.0019701480623954865
aF0.022958166009044236
aF0.0003339284109801203
aF0.00016849882973194233
aF0.00019314694871655337
aF0.0003146109671223823
aF0.00013588790738363108
aF0.0005022783649151727
ag145
ag145
aF0.014982377787519912
aF0.0254963022703898
aF0.014051301709749485
aF3.270097431652686e-05
aF0.00492966571316854
aF0.0019460666571422516
aF0.022672099374852237
aF0.000329660487249106
aF0.00016644237960263282
aF0.0001906630266944245
aF0.0003105957612237013
aF0.00013405031211247368
aF0.0004960354324317317
ag145
ag145
aF0.015379450544051501
aF0.02615736239868449
aF0.014408043499808502
aF3.309952581530196e-05
aF0.005061588773406475
aF0.002007035793177811
aF0.023271529700114844
aF0.00033669612191455017
aF0.0001707880727494873
aF0.00019565006632444966
aF0.00032002911280491146
aF0.00013654276104491564
aF0.0005101464208825792
ag145
ag145
aF0.0147789874644949
aF0.02516311459272399
aF0.013876489896118309
aF3.2598242685491795e-05
aF0.004861023598173597
aF0.00190989830068499
aF0.022362354967619198
aF0.00032693310049080736
aF0.00016417917696862365
aF0.00018819037112522162
aF0.000305236110889241
aF0.00013340145773974905
aF0.0004883020726466519
ag145
ag145
aF0.015109882327797551
aF0.0257144952474227
aF0.014171117256262704
aF3.306643828041478e-05
aF0.004973404958358553
aF0.001964042996420955
aF0.022870151200733033
aF0.0003324547626193768
aF0.00016794882459714682
aF0.00019227109189898057
aF0.0003131271162721865
aF0.00013510287410506454
aF0.0005003061205294704
ag145
ag145
aF0.015045990261337313
aF0.025601492607431043
aF0.014111032584521052
aF3.2630987899635114e-05
aF0.004947975803013116
aF0.001952143766394862
aF0.0227597174360511
aF0.0003311281089113444
aF0.00016698989348429722
aF0.00019153521304340613
aF0.00031207354680460545
aF0.00013483227157973135
aF0.0004979990083642106
ag145
ag145
aF0.015112728671906385
aF0.0257229352734537
aF0.014172003144734173
aF3.2966366551226704e-05
aF0.004972747355734495
aF0.001962492897146135
aF0.02287014182759975
aF0.00033247963659193276
aF0.00016781330411324034
aF0.00019230348252356522
aF0.00031322939053384397
aF0.00013523906949246844
aF0.000500210213683375
ag145
ag145
aF0.015043148482477203
aF0.025593074593625854
aF0.014110147391746338
aF3.2730893040220244e-05
aF0.004948632376308041
aF0.001953689609855781
aF0.02275974258399722
aF0.00033110309736198617
aF0.00016712511525980665
aF0.00019150289145387458
aF0.00031197155905220055
aF0.00013469629869341417
aF0.000498094949980206
ag145
ag145
aF0.01560231052008021
aF0.02631707459863719
aF0.014501424526997653
aF7.759838558740739e-05
aF0.00518642432245997
aF0.002093060696779503
aF0.01305449586470786
aF0.0003253367760862602
aF0.0001747727990277781
aF0.00019190297769000608
aF0.00031260015384759754
aF0.00013496754399966449
aF0.0005018894039494626
ag145
ag145
aF0.014124293317763659
aF0.025255683356135705
aF0.013651481746137506
aF7.92732986383271e-05
aF0.004713451863494811
aF0.0018399161231172911
aF0.011512692974406491
aF0.0003070400332489953
aF0.0001709789204369372
aF0.0001937015473458814
aF0.00017904274864122272
aF0.00013496754399966449
aF0.0004896547918633587
ag145
ag145
aF0.015097329545142202
aF0.026618975502742614
aF0.0143452952224834
aF6.762036798590998e-05
aF0.004878534889940056
aF0.0019273986283678823
aF0.011822541478295534
aF0.00032472985708409396
aF0.00016465372016227775
aF0.00024256423785118386
aF0.00031260015384759754
aF0.00013496754399966449
aF0.00046682171796419425
ag145
ag145
aF0.015164181459567772
aF0.025432925355289626
aF0.013736876496068362
aF-0.00032215489261488983
aF0.004908936381184503
aF0.0019365690803851976
aF0.011825575403577204
aF0.00032390729472808744
aF0.00016728504931506905
aF0.00016645029540995893
aF0.00031260015384759754
aF0.00013496754399966449
aF0.000506296524690697
ag145
ag145
aF0.015462776769481934
aF0.026217459401095766
aF0.014745316733524305
aF3.284854994944908e-05
aF0.0050389214197821275
aF0.0019580888099426375
aF0.012314635751408787
aF0.00033355836910686776
aF0.0001741899433227445
aF0.00019759290842102928
aF0.00031260015384759754
aF0.00013496754399966449
aF0.0004991520193016186
ag145
ag145
aF0.014773994246979782
aF0.025456823525928485
aF0.013857408514013514
aF3.284854994944908e-05
aF0.004919446349845202
aF0.001948071166907539
aF0.011713890164855911
aF0.0003210217162177287
aF0.00016284879836803157
aF0.00017853931819900026
aF0.00031260015384759754
aF0.00013496754399966449
aF0.0004991520193016186
ag145
ag145
aF0.01620507263487525
aF0.027309194256986302
aF0.014574510174497846
aF4.968383939285559e-05
aF0.00499215314846424
aF0.0019379862199002673
aF0.012307799089285254
aF0.0003527526158677574
aF0.00018255930365285167
aF0.0002171384857092562
aF0.00031260015384759754
aF0.00013496754399966449
aF0.0005225270333539811
ag145
ag145
aF0.013732289185327318
aF0.021388790410810543
aF0.012501205938178828
aF8.82021931829513e-05
aF0.004728687810370502
aF0.0020532734167773015
aF0.012670009456996922
aF0.000307304940179165
aF0.00019917362635624158
aF0.00016467456021018734
aF0.00031260015384759754
aF0.00013496754399966449
aF0.0004707462951500929
ag145
ag145
aF0.015214837324492692
aF0.02576844256395816
aF0.013872715506295208
aF2.4118961391650373e-05
aF0.004963489269471211
aF0.001970170213098754
aF0.020160816826432892
aF0.0003418184653583012
aF0.00018204538940835846
aF0.00019890695045887696
aF0.00031260015384759754
aF0.00013496754399966449
aF0.0005075249034689477
ag145
ag145
aF0.014794220541261893
aF0.025584241087926785
aF0.014083875205415097
aF5.6303862606910116e-05
aF0.004807187497249288
aF0.0019662597123897285
aF0.023136349656283528
aF0.00032682775258763286
aF0.00017090124777041638
aF0.00019117729209483514
aF0.00031260015384759754
aF0.00013496754399966449
aF0.000502042981906925
ag145
ag145
atp215
ba(lp216
g15
(g16
(dp217
g18
g19
(g20
(I0
tp218
g22
tp219
Rp220
(I1
(I1
tp221
g29
I00
(lp222
g43
atp223
bsg66
Nstp224
Rp225
ag15
(g16
(dp226
g18
g19
(g20
(I0
tp227
g22
tp228
Rp229
(I1
(I31
tp230
g29
I00
(lp231
g33
ag34
ag35
ag36
ag37
ag38
ag39
ag40
ag41
ag42
ag44
ag45
ag46
ag47
ag48
ag49
ag50
ag51
ag52
ag53
ag54
ag55
ag56
ag57
ag58
ag59
ag60
ag61
ag62
ag63
ag64
atp232
bsg66
Nstp233
Rp234
a(dp235
S'0.14.1'
p236
(dp237
S'axes'
p238
g14
sS'blocks'
p239
(lp240
(dp241
S'mgr_locs'
p242
c__builtin__
slice
p243
(I10
I11
I1
tp244
Rp245
sS'values'
p246
g87
sa(dp247
g242
g19
(g20
(I0
tp248
g22
tp249
Rp250
(I1
(I31
tp251
g77
I00
S'\x00\x00\x00\x00\x00\x00\x00\x00\x01\x00\x00\x00\x00\x00\x00\x00\x02\x00\x00\x00\x00\x00\x00\x00\x03\x00\x00\x00\x00\x00\x00\x00\x04\x00\x00\x00\x00\x00\x00\x00\x05\x00\x00\x00\x00\x00\x00\x00\x06\x00\x00\x00\x00\x00\x00\x00\x07\x00\x00\x00\x00\x00\x00\x00\x08\x00\x00\x00\x00\x00\x00\x00\t\x00\x00\x00\x00\x00\x00\x00\x0b\x00\x00\x00\x00\x00\x00\x00\x0c\x00\x00\x00\x00\x00\x00\x00\r\x00\x00\x00\x00\x00\x00\x00\x0e\x00\x00\x00\x00\x00\x00\x00\x0f\x00\x00\x00\x00\x00\x00\x00\x10\x00\x00\x00\x00\x00\x00\x00\x11\x00\x00\x00\x00\x00\x00\x00\x12\x00\x00\x00\x00\x00\x00\x00\x13\x00\x00\x00\x00\x00\x00\x00\x14\x00\x00\x00\x00\x00\x00\x00\x15\x00\x00\x00\x00\x00\x00\x00\x16\x00\x00\x00\x00\x00\x00\x00\x17\x00\x00\x00\x00\x00\x00\x00\x18\x00\x00\x00\x00\x00\x00\x00\x19\x00\x00\x00\x00\x00\x00\x00\x1a\x00\x00\x00\x00\x00\x00\x00\x1b\x00\x00\x00\x00\x00\x00\x00\x1c\x00\x00\x00\x00\x00\x00\x00\x1d\x00\x00\x00\x00\x00\x00\x00\x1e\x00\x00\x00\x00\x00\x00\x00\x1f\x00\x00\x00\x00\x00\x00\x00'
p252
tp253
bsg246
g98
sasstp254
bsb.