ccopy_reg
_reconstructor
p0
(cpandas.core.frame
DataFrame
p1
c__builtin__
object
p2
Ntp3
Rp4
(dp5
S'_metadata'
p6
(lp7
sS'_typ'
p8
S'dataframe'
p9
sS'_data'
p10
g0
(cpandas.core.internals
BlockManager
p11
g2
Ntp12
Rp13
((lp14
cpandas.core.indexes.base
_new_Index
p15
(cpandas.core.indexes.base
Index
p16
(dp17
S'data'
p18
cnumpy.core.multiarray
_reconstruct
p19
(cnumpy
ndarray
p20
(I0
tp21
S'b'
p22
tp23
Rp24
(I1
(I34
tp25
cnumpy
dtype
p26
(S'O8'
p27
I0
I1
tp28
Rp29
(I3
S'|'
p30
NNNI-1
I-1
I63
tp31
bI00
(lp32
S'year'
p33
aS'type'
p34
aS'procOriginal'
p35
aS'proc'
p36
aS'proc_s0'
p37
aS'cat'
p38
aS'inputWSFile'
p39
aS'nominalDataName'
p40
aS'modelWSFile'
p41
aS'model'
p42
aS'rate'
p43
aS'nominal_yield'
p44
aS'sumw2'
p45
aS'nominal_yield_COWCorr'
p46
aS'LooseMvaSF_up_yield'
p47
aS'LooseMvaSF_down_yield'
p48
aS'PreselSF_up_yield'
p49
aS'PreselSF_down_yield'
p50
aS'electronVetoSF_up_yield'
p51
aS'electronVetoSF_down_yield'
p52
aS'TriggerWeight_up_yield'
p53
aS'TriggerWeight_down_yield'
p54
aS'SigmaEOverEShift_up_yield'
p55
aS'SigmaEOverEShift_down_yield'
p56
aS'MvaShift_up_yield'
p57
aS'MvaShift_down_yield'
p58
aS'PUJIDShift_up_yield'
p59
aS'PUJIDShift_down_yield'
p60
aS'JEC_up_yield'
p61
aS'JEC_down_yield'
p62
aS'JER_up_yield'
p63
aS'JER_down_yield'
p64
aS'JetHEM_up_yield'
p65
aS'JetHEM_down_yield'
p66
atp67
bsS'name'
p68
Nstp69
Rp70
ag15
(cpandas.core.indexes.numeric
Int64Index
p71
(dp72
g18
g19
(g20
(I0
tp73
g22
tp74
Rp75
(I1
(I15
tp76
g26
(S'i8'
p77
I0
I1
tp78
Rp79
(I3
S'<'
p80
NNNI-1
I-1
I0
tp81
bI00
S'\x00\x00\x00\x00\x00\x00\x00\x00\x01\x00\x00\x00\x00\x00\x00\x00\x02\x00\x00\x00\x00\x00\x00\x00\x03\x00\x00\x00\x00\x00\x00\x00\x04\x00\x00\x00\x00\x00\x00\x00\x05\x00\x00\x00\x00\x00\x00\x00\x06\x00\x00\x00\x00\x00\x00\x00\x07\x00\x00\x00\x00\x00\x00\x00\x08\x00\x00\x00\x00\x00\x00\x00\t\x00\x00\x00\x00\x00\x00\x00\n\x00\x00\x00\x00\x00\x00\x00\x0b\x00\x00\x00\x00\x00\x00\x00\x0c\x00\x00\x00\x00\x00\x00\x00\r\x00\x00\x00\x00\x00\x00\x00\x0e\x00\x00\x00\x00\x00\x00\x00'
p82
tp83
bsg68
Nstp84
Rp85
a(lp86
g19
(g20
(I0
tp87
g22
tp88
Rp89
(I1
(I1
I15
tp90
g26
(S'f8'
p91
I0
I1
tp92
Rp93
(I3
S'<'
p94
NNNI-1
I-1
I0
tp95
bI00
S'\x00\x00\x00\x00\x00\x10\xd3@\x00\x00\x00\x00\x00\x10\xd3@\x00\x00\x00\x00\x00\x10\xd3@\x00\x00\x00\x00\x00\x10\xd3@\x00\x00\x00\x00\x00\x10\xd3@\x00\x00\x00\x00\x00\x10\xd3@\x00\x00\x00\x00\x00\x10\xd3@\x00\x00\x00\x00\x00\x10\xd3@\x00\x00\x00\x00\x00\x10\xd3@\x00\x00\x00\x00\x00\x10\xd3@\x00\x00\x00\x00\x00\x10\xd3@\x00\x00\x00\x00\x00\x10\xd3@\x00\x00\x00\x00\x00\x10\xd3@\x00\x00\x00\x00\x00\x00\xf0?\x00\x00\x00\x00\x00\x00\xf0\xbf'
p96
tp97
bag19
(g20
(I0
tp98
g22
tp99
Rp100
(I1
(I33
I15
tp101
g29
I00
(lp102
S'2016preVFP'
p103
ag103
ag103
ag103
ag103
ag103
ag103
ag103
ag103
ag103
ag103
ag103
ag103
ag33
ag33
aS'sig'
p104
ag104
ag104
ag104
ag104
ag104
ag104
ag104
ag104
ag104
ag104
ag104
ag104
aS'bkg'
p105
ag18
aS'GG2HMf05ph0'
p106
aS'GG2HbsmM'
p107
aS'GG2Hsm'
p108
aS'TTHsm'
p109
aS'VBFMf05ph0'
p110
aS'VBFbsmM'
p111
aS'VBFsm'
p112
aS'WHMf05ph0'
p113
aS'WHbsmM'
p114
aS'WHsm'
p115
aS'ZHMf05ph0'
p116
aS'ZHbsmM'
p117
aS'ZHsm'
p118
aS'bkg_mass'
p119
aS'data_obs'
p120
aS'GG2HMf05ph0_2016preVFP_hgg'
p121
aS'GG2HbsmM_2016preVFP_hgg'
p122
aS'GG2Hsm_2016preVFP_hgg'
p123
aS'tth0P_2016preVFP_hgg'
p124
aS'vbf0Mf05ph0_2016preVFP_hgg'
p125
aS'vbf0M_2016preVFP_hgg'
p126
aS'vbf0P_2016preVFP_hgg'
p127
aS'wh0Mf05ph0_2016preVFP_hgg'
p128
aS'wh0M_2016preVFP_hgg'
p129
aS'wh0P_2016preVFP_hgg'
p130
aS'zh0Mf05ph0_2016preVFP_hgg'
p131
aS'zh0M_2016preVFP_hgg'
p132
aS'zh0P_2016preVFP_hgg'
p133
ag119
ag120
aS'jjh0Mf05ph0'
p134
aS'jjh0M'
p135
aS'jjh0P'
p136
aS'tth0P'
p137
aS'vbf0Mf05ph0'
p138
aS'vbf0M'
p139
aS'vbf0P'
p140
aS'wh0Mf05ph0'
p141
aS'wh0M'
p142
aS'wh0P'
p143
aS'zh0Mf05ph0'
p144
aS'zh0M'
p145
aS'zh0P'
p146
aS'-'
p147
ag147
aS'AC_Bin5_2016preVFP'
p148
aS'AC_Bin5_2016preVFP'
p149
aS'AC_Bin5_2016preVFP'
p150
aS'AC_Bin5_2016preVFP'
p151
aS'AC_Bin5_2016preVFP'
p152
aS'AC_Bin5_2016preVFP'
p153
aS'AC_Bin5_2016preVFP'
p154
aS'AC_Bin5_2016preVFP'
p155
aS'AC_Bin5_2016preVFP'
p156
aS'AC_Bin5_2016preVFP'
p157
aS'AC_Bin5_2016preVFP'
p158
aS'AC_Bin5_2016preVFP'
p159
aS'AC_Bin5_2016preVFP'
p160
aS'AC_Bin5_2016preVFP'
p161
ag161
aS'Trees/Opt_2016preVFP/2016PreVFP/Trees2WS_2016preVFP/WS/output_GluGluHToGGPlusTwoJets_MM_M125_TuneCP5_13TeV-amcatnlopowheg-minlo-pythia8_GG2HMf05ph0.root'
p162
aS'Trees/Opt_2016preVFP/2016PreVFP/Trees2WS_2016preVFP/WS/output_GluGluHToGGPlusTwoJets_CPodd_M125_TuneCP5_13TeV-amcatnlopowheg-minlo-pythia8_GG2HbsmM.root'
p163
aS'Trees/Opt_2016preVFP/2016PreVFP/Trees2WS_2016preVFP/WS/output_GluGluHToGGPlusTwoJets_SM_M125_TuneCP5_13TeV-amcatnlopowheg-minlo-pythia8_GG2Hsm.root'
p164
aS'Trees/Opt_2016preVFP/2016PreVFP/Trees2WS_2016preVFP/WS/output_ttHJetToGG_M125_TuneCP5_13TeV-amcatnloFXFX-madspin-pythia8_TTHsm.root'
p165
aS'Trees/Opt_2016preVFP/2016PreVFP/Trees2WS_2016preVFP/WS/output_VBFHiggs0Mf05ph0ToGG_M125_TuneCP5_13TeV-JHUGenV7011-pythia8_VBFMf05ph0.root'
p166
aS'Trees/Opt_2016preVFP/2016PreVFP/Trees2WS_2016preVFP/WS/output_VBFHiggs0MToGG_M125_TuneCP5_13TeV-JHUGenV7011-pythia8_VBFbsmM.root'
p167
aS'Trees/Opt_2016preVFP/2016PreVFP/Trees2WS_2016preVFP/WS/output_VBFHToGG_M125_TuneCP5_13TeV-amcatnlo-pythia8_VBFsm.root'
p168
aS'Trees/Opt_2016preVFP/2016PreVFP/Trees2WS_2016preVFP/WS/output_WHiggs0Mf05ph0ToGG_M125_TuneCP5_13TeV-JHUGenV7011-pythia8_WHMf05ph0.root'
p169
aS'Trees/Opt_2016preVFP/2016PreVFP/Trees2WS_2016preVFP/WS/output_WHiggs0MToGG_M125_TuneCP5_13TeV-JHUGenV7011-pythia8_WHbsmM.root'
p170
aS'Trees/Opt_2016preVFP/2016PreVFP/Trees2WS_2016preVFP/WS/output_WHiggs0PMToGG_M125_TuneCP5_13TeV-JHUGenV7011-pythia8_WHsm.root'
p171
aS'Trees/Opt_2016preVFP/2016PreVFP/Trees2WS_2016preVFP/WS/output_ZHiggs0Mf05ph0ToGG_M125_TuneCP5_13TeV-JHUGenV7011-pythia8_ZHMf05ph0.root'
p172
aS'Trees/Opt_2016preVFP/2016PreVFP/Trees2WS_2016preVFP/WS/output_ZHiggs0MToGG_M125_TuneCP5_13TeV-JHUGenV7011-pythia8_ZHbsmM.root'
p173
aS'Trees/Opt_2016preVFP/2016PreVFP/Trees2WS_2016preVFP/WS/output_ZH_HToGG_ZToAll_M125_TuneCP5_13TeV-powheg-pythia8_ZHsm.root'
p174
ag147
ag147
aS'jjh0Mf05ph0_125_13TeV_AC_Bin5'
p175
aS'jjh0M_125_13TeV_AC_Bin5'
p176
aS'jjh0P_125_13TeV_AC_Bin5'
p177
aS'tth0P_125_13TeV_AC_Bin5'
p178
aS'vbf0Mf05ph0_125_13TeV_AC_Bin5'
p179
aS'vbf0M_125_13TeV_AC_Bin5'
p180
aS'vbf0P_125_13TeV_AC_Bin5'
p181
aS'wh0Mf05ph0_125_13TeV_AC_Bin5'
p182
aS'wh0M_125_13TeV_AC_Bin5'
p183
aS'wh0P_125_13TeV_AC_Bin5'
p184
aS'zh0Mf05ph0_125_13TeV_AC_Bin5'
p185
aS'zh0M_125_13TeV_AC_Bin5'
p186
aS'zh0P_125_13TeV_AC_Bin5'
p187
ag147
ag147
aS'./Models/signal/CMS-HGG_sigfit_packaged_AC_Bin5_2016preVFP.root'
p188
aS'./Models/signal/CMS-HGG_sigfit_packaged_AC_Bin5_2016preVFP.root'
p189
aS'./Models/signal/CMS-HGG_sigfit_packaged_AC_Bin5_2016preVFP.root'
p190
aS'./Models/signal/CMS-HGG_sigfit_packaged_AC_Bin5_2016preVFP.root'
p191
aS'./Models/signal/CMS-HGG_sigfit_packaged_AC_Bin5_2016preVFP.root'
p192
aS'./Models/signal/CMS-HGG_sigfit_packaged_AC_Bin5_2016preVFP.root'
p193
aS'./Models/signal/CMS-HGG_sigfit_packaged_AC_Bin5_2016preVFP.root'
p194
aS'./Models/signal/CMS-HGG_sigfit_packaged_AC_Bin5_2016preVFP.root'
p195
aS'./Models/signal/CMS-HGG_sigfit_packaged_AC_Bin5_2016preVFP.root'
p196
aS'./Models/signal/CMS-HGG_sigfit_packaged_AC_Bin5_2016preVFP.root'
p197
aS'./Models/signal/CMS-HGG_sigfit_packaged_AC_Bin5_2016preVFP.root'
p198
aS'./Models/signal/CMS-HGG_sigfit_packaged_AC_Bin5_2016preVFP.root'
p199
aS'./Models/signal/CMS-HGG_sigfit_packaged_AC_Bin5_2016preVFP.root'
p200
aS'./Models/background/CMS-HGG_multipdf_AC_Bin5_2016preVFP.root'
p201
ag201
aS'wsig_13TeV:hggpdfsmrel_GG2HMf05ph0_2016preVFP_AC_Bin5_13TeV'
p202
aS'wsig_13TeV:hggpdfsmrel_GG2HbsmM_2016preVFP_AC_Bin5_13TeV'
p203
aS'wsig_13TeV:hggpdfsmrel_GG2Hsm_2016preVFP_AC_Bin5_13TeV'
p204
aS'wsig_13TeV:hggpdfsmrel_TTHsm_2016preVFP_AC_Bin5_13TeV'
p205
aS'wsig_13TeV:hggpdfsmrel_VBFMf05ph0_2016preVFP_AC_Bin5_13TeV'
p206
aS'wsig_13TeV:hggpdfsmrel_VBFbsmM_2016preVFP_AC_Bin5_13TeV'
p207
aS'wsig_13TeV:hggpdfsmrel_VBFsm_2016preVFP_AC_Bin5_13TeV'
p208
aS'wsig_13TeV:hggpdfsmrel_WHMf05ph0_2016preVFP_AC_Bin5_13TeV'
p209
aS'wsig_13TeV:hggpdfsmrel_WHbsmM_2016preVFP_AC_Bin5_13TeV'
p210
aS'wsig_13TeV:hggpdfsmrel_WHsm_2016preVFP_AC_Bin5_13TeV'
p211
aS'wsig_13TeV:hggpdfsmrel_ZHMf05ph0_2016preVFP_AC_Bin5_13TeV'
p212
aS'wsig_13TeV:hggpdfsmrel_ZHbsmM_2016preVFP_AC_Bin5_13TeV'
p213
aS'wsig_13TeV:hggpdfsmrel_ZHsm_2016preVFP_AC_Bin5_13TeV'
p214
aS'multipdf:CMS_hgg_AC_Bin5_2016preVFP_13TeV_bkgshape'
p215
aS'multipdf:roohist_data_mass_AC_Bin5'
p216
aF0.03968390122463461
aF0.05940091714865048
aF0.028776191350971203
aF0.0006369911072852119
aF0.03153616990948649
aF0.01623619798397158
aF0.060125368509602595
aF0.0006025541950975821
aF0.0005291902626822775
aF0.0004954775085934671
aF7.70828701206483e-05
aF0.0001970818339032121
aF0.0005593503171894554
ag147
ag147
aF8.131497735803281e-06
aF7.822036028198498e-06
aF3.3748477388569314e-06
aF2.2711792275380267e-07
aF6.253991945342685e-06
aF7.017213497492697e-07
aF2.552502299410014e-05
aF1.1239873028904461e-08
aF6.6521741727756115e-09
aF7.787026212661816e-09
aF5.941768866036734e-09
aF1.965083282364594e-08
aF2.044834219176327e-08
ag147
ag147
aF0.04090998402429991
aF0.060984599773028995
aF0.029597884595156033
aF0.000658475847745484
aF0.03232591665600391
aF0.016653702684241628
aF0.06171141828935214
aF0.0006160291133826209
aF0.0005413492567152751
aF0.0005082743764557629
aF7.898766440936696e-05
aF0.00020166138787186752
aF0.0005697229270700505
ag147
ag147
aF0.03994004231889662
aF0.059785506778935134
aF0.028961208049104827
aF0.0006410167913312926
aF0.03174101159982564
aF0.01634146081984217
aF0.06051281440172954
aF0.0006064375298398964
aF0.0005325767705900706
aF0.0004986493632424241
aF7.760850773348661e-05
aF0.0001984257627565439
aF0.0005629592387112137
ag147
ag147
aF0.039428584274023924
aF0.05901757040157198
aF0.02859176836971172
aF0.0006329780594860444
aF0.031331992200683736
aF0.016131275638067658
aF0.05973916780724899
aF0.0005986833421911897
aF0.0005258145357453969
aF0.0004923158036328163
aF7.655902155984792e-05
aF0.00019574247798115633
aF0.0005557530221403628
ag147
ag147
aF0.04042044926653246
aF0.060443398045826144
aF0.02930228835939658
aF0.0006502522263205545
aF0.03205573547044007
aF0.01651001975296596
aF0.06117194723630233
aF0.0006135008013496205
aF0.00054004127969637
aF0.0005046540400812059
aF7.798250906201546e-05
aF0.0001993819928089418
aF0.0005673703263249987
ag147
ag147
aF0.03895366716919178
aF0.05836755898343039
aF0.028254708483003422
aF0.000623860796399178
aF0.031020762976728948
aF0.015964685097745995
aF0.05908771437788036
aF0.000591695827754768
aF0.0005184299307057027
aF0.0004863714464264878
aF7.618844767838119e-05
aF0.00019479500915273802
aF0.0005513890179828631
ag147
ag147
aF0.039759971984160515
aF0.059510498857633036
aF0.028832695593688527
aF0.0006383440727505503
aF0.03159460371848639
aF0.01626556323286551
aF0.06024237896319063
aF0.0006036149929769492
aF0.0005302091296601761
aF0.0004964571219095611
aF7.716015716868678e-05
aF0.0001972794448879663
aF0.0005603757541573197
ag147
ag147
aF0.039607902491712726
aF0.059291439411939026
aF0.028719743975890704
aF0.0006356393135673844
aF0.0314777895470157
aF0.016206858181849335
aF0.06000847239271171
aF0.0006014942860453462
aF0.0005281722349343926
aF0.0004944988735646924
aF7.700561132079987e-05
aF0.0001968843070581456
aF0.0005583259684941834
ag147
ag147
aF0.03977842729046515
aF0.05953019578731422
aF0.028841447203371923
aF0.0006384959669254646
aF0.03160429508931964
aF0.01627086065463361
aF0.0602624177579893
aF0.0006037740117395311
aF0.0005302750469303582
aF0.0004965856253300563
aF7.72379715162733e-05
aF0.00019747809869068056
aF0.0005605010887261409
ag147
ag147
aF0.03958948593364737
aF0.05927178095188411
aF0.028711009335582568
aF0.0006354880008696564
aF0.031468119014615846
aF0.016201572553244663
aF0.05998847496643901
aF0.0006013356322426382
aF0.0005281066008315372
aF0.0004943706332057362
aF7.692793350613205e-05
aF0.00019668597779422687
aF0.0005582007472055579
ag147
ag147
aF0.03945648076728503
aF0.0607632507856124
aF0.02893227384538477
aF0.0006075359093529187
aF0.03184289331875334
aF0.016707358846474563
aF0.041852951882106026
aF0.0006111965138870801
aF0.0005218864960170322
aF0.0004954775085934671
aF7.70828701206483e-05
aF0.0001970818339032121
aF0.0005593612950178795
ag147
ag147
aF0.040138592863058875
aF0.059363742422874566
aF0.029071398564610718
aF0.0006311500177389462
aF0.03142915439173066
aF0.01588293821987463
aF0.040852016546296
aF0.000616992353002388
aF0.0005234294247884463
aF0.0004973312375113892
aF0.00021064027532702312
aF0.0001970818339032121
aF0.0005465390602239495
ag147
ag147
aF0.04010587273728561
aF0.06285029243804274
aF0.029245453136582
aF0.0007417855493940806
aF0.03198024071821237
aF0.016511685182990732
aF0.058609664639448056
aF0.0005830696255770818
aF0.0005366971589637615
aF0.0005010490853010197
aF7.70828701206483e-05
aF0.0001970818339032121
aF0.000616023274460531
ag147
ag147
aF0.03802440627191572
aF0.05818898532584171
aF0.028816955295496882
aF0.0010146481490664883
aF0.03115945862987246
aF0.016156582318103574
aF0.04116673001590243
aF0.0006058224463458828
aF0.0005130167857032575
aF0.0004921535888797735
aF7.70828701206483e-05
aF0.0001970818339032121
aF0.00047479463341915107
ag147
ag147
aF0.040945270882730256
aF0.06051613983186144
aF0.029716934954876706
aF0.000625695897042533
aF0.03169190087874085
aF0.016268812822090695
aF0.05785961138155926
aF0.0006238521312980083
aF0.0005307436937300736
aF0.0004954775085934671
aF7.70828701206483e-05
aF0.0001970818339032121
aF0.0005593503171894554
ag147
ag147
aF0.03893119499002751
aF0.05849906436969832
aF0.028172872993536657
aF0.0006369911072852119
aF0.031337547409520994
aF0.016194600491417077
aF0.05867720549258593
aF0.0005751948564238774
aF0.0005263750227868513
aF0.00046198284599086037
aF7.70828701206483e-05
aF0.0001970818339032121
aF0.0005593503171894554
ag147
ag147
aF0.04217708961596145
aF0.0631838202907602
aF0.030990873414793896
aF0.00046427605684584705
aF0.03135733774820437
aF0.01649421425975106
aF0.042452701613910904
aF0.0006831247734453427
aF0.0005718045002822691
aF0.0004954239653898185
aF0.0002592118107713759
aF0.0001970818339032121
aF0.000577375540842695
ag147
ag147
aF0.03778613629492611
aF0.055699887262335324
aF0.026847876979445573
aF0.0010357942666132658
aF0.030823081769199234
aF0.01623814601975937
aF0.05741490102946045
aF0.0005065302259481541
aF0.0004507104131334927
aF0.0003989993535924441
aF7.70828701206483e-05
aF8.781225915299729e-05
aF0.0004471298379939981
ag147
ag147
aF0.040225247028047306
aF0.059941157146795376
aF0.028737539622625263
aF0.0004207340316497721
aF0.03162660313228116
aF0.016170760679756313
aF0.04168729244634051
aF0.0005952468782197684
aF0.0005244330913001249
aF0.0005327507333277026
aF0.00016293754015350714
aF0.0001970818339032121
aF0.000528464815715779
ag147
ag147
aF0.03897240555988901
aF0.05806703238613409
aF0.02841641185023036
aF0.0006685515286335431
aF0.03145611279001059
aF0.016126881342643173
aF0.043132703702553954
aF0.0005400706693308166
aF0.0005150349708173962
aF0.000505883254049877
aF7.70828701206483e-05
aF0.0001970818339032121
aF0.0005468275164730585
ag147
ag147
aF0.03968390122463461
aF0.05940091714865048
aF0.028776191350971203
aF0.0006369911072852119
aF0.03153616990948649
aF0.01623619798397158
aF0.060125368509602595
aF0.0006025541950975821
aF0.0005291902626822775
aF0.0004954775085934671
aF7.70828701206483e-05
aF0.0001970818339032121
aF0.0005593503171894554
ag147
ag147
aF0.03968390122463461
aF0.05940091714865048
aF0.028776191350971203
aF0.0006369911072852119
aF0.03153616990948649
aF0.01623619798397158
aF0.060125368509602595
aF0.0006025541950975821
aF0.0005291902626822775
aF0.0004954775085934671
aF7.70828701206483e-05
aF0.0001970818339032121
aF0.0005593503171894554
ag147
ag147
atp217
ba(lp218
g15
(g16
(dp219
g18
g19
(g20
(I0
tp220
g22
tp221
Rp222
(I1
(I1
tp223
g29
I00
(lp224
g43
atp225
bsg68
Nstp226
Rp227
ag15
(g16
(dp228
g18
g19
(g20
(I0
tp229
g22
tp230
Rp231
(I1
(I33
tp232
g29
I00
(lp233
g33
ag34
ag35
ag36
ag37
ag38
ag39
ag40
ag41
ag42
ag44
ag45
ag46
ag47
ag48
ag49
ag50
ag51
ag52
ag53
ag54
ag55
ag56
ag57
ag58
ag59
ag60
ag61
ag62
ag63
ag64
ag65
ag66
atp234
bsg68
Nstp235
Rp236
a(dp237
S'0.14.1'
p238
(dp239
S'axes'
p240
g14
sS'blocks'
p241
(lp242
(dp243
S'mgr_locs'
p244
c__builtin__
slice
p245
(I10
I11
I1
tp246
Rp247
sS'values'
p248
g89
sa(dp249
g244
g19
(g20
(I0
tp250
g22
tp251
Rp252
(I1
(I33
tp253
g79
I00
S'\x00\x00\x00\x00\x00\x00\x00\x00\x01\x00\x00\x00\x00\x00\x00\x00\x02\x00\x00\x00\x00\x00\x00\x00\x03\x00\x00\x00\x00\x00\x00\x00\x04\x00\x00\x00\x00\x00\x00\x00\x05\x00\x00\x00\x00\x00\x00\x00\x06\x00\x00\x00\x00\x00\x00\x00\x07\x00\x00\x00\x00\x00\x00\x00\x08\x00\x00\x00\x00\x00\x00\x00\t\x00\x00\x00\x00\x00\x00\x00\x0b\x00\x00\x00\x00\x00\x00\x00\x0c\x00\x00\x00\x00\x00\x00\x00\r\x00\x00\x00\x00\x00\x00\x00\x0e\x00\x00\x00\x00\x00\x00\x00\x0f\x00\x00\x00\x00\x00\x00\x00\x10\x00\x00\x00\x00\x00\x00\x00\x11\x00\x00\x00\x00\x00\x00\x00\x12\x00\x00\x00\x00\x00\x00\x00\x13\x00\x00\x00\x00\x00\x00\x00\x14\x00\x00\x00\x00\x00\x00\x00\x15\x00\x00\x00\x00\x00\x00\x00\x16\x00\x00\x00\x00\x00\x00\x00\x17\x00\x00\x00\x00\x00\x00\x00\x18\x00\x00\x00\x00\x00\x00\x00\x19\x00\x00\x00\x00\x00\x00\x00\x1a\x00\x00\x00\x00\x00\x00\x00\x1b\x00\x00\x00\x00\x00\x00\x00\x1c\x00\x00\x00\x00\x00\x00\x00\x1d\x00\x00\x00\x00\x00\x00\x00\x1e\x00\x00\x00\x00\x00\x00\x00\x1f\x00\x00\x00\x00\x00\x00\x00 \x00\x00\x00\x00\x00\x00\x00!\x00\x00\x00\x00\x00\x00\x00'
p254
tp255
bsg248
g100
sasstp256
bsb.