ccopy_reg
_reconstructor
p0
(cpandas.core.frame
DataFrame
p1
c__builtin__
object
p2
Ntp3
Rp4
(dp5
S'_metadata'
p6
(lp7
sS'_typ'
p8
S'dataframe'
p9
sS'_data'
p10
g0
(cpandas.core.internals
BlockManager
p11
g2
Ntp12
Rp13
((lp14
cpandas.core.indexes.base
_new_Index
p15
(cpandas.core.indexes.base
Index
p16
(dp17
S'data'
p18
cnumpy.core.multiarray
_reconstruct
p19
(cnumpy
ndarray
p20
(I0
tp21
S'b'
p22
tp23
Rp24
(I1
(I34
tp25
cnumpy
dtype
p26
(S'O8'
p27
I0
I1
tp28
Rp29
(I3
S'|'
p30
NNNI-1
I-1
I63
tp31
bI00
(lp32
S'year'
p33
aS'type'
p34
aS'procOriginal'
p35
aS'proc'
p36
aS'proc_s0'
p37
aS'cat'
p38
aS'inputWSFile'
p39
aS'nominalDataName'
p40
aS'modelWSFile'
p41
aS'model'
p42
aS'rate'
p43
aS'nominal_yield'
p44
aS'sumw2'
p45
aS'nominal_yield_COWCorr'
p46
aS'LooseMvaSF_up_yield'
p47
aS'LooseMvaSF_down_yield'
p48
aS'PreselSF_up_yield'
p49
aS'PreselSF_down_yield'
p50
aS'electronVetoSF_up_yield'
p51
aS'electronVetoSF_down_yield'
p52
aS'TriggerWeight_up_yield'
p53
aS'TriggerWeight_down_yield'
p54
aS'SigmaEOverEShift_up_yield'
p55
aS'SigmaEOverEShift_down_yield'
p56
aS'MvaShift_up_yield'
p57
aS'MvaShift_down_yield'
p58
aS'PUJIDShift_up_yield'
p59
aS'PUJIDShift_down_yield'
p60
aS'JEC_up_yield'
p61
aS'JEC_down_yield'
p62
aS'JER_up_yield'
p63
aS'JER_down_yield'
p64
aS'JetHEM_up_yield'
p65
aS'JetHEM_down_yield'
p66
atp67
bsS'name'
p68
Nstp69
Rp70
ag15
(cpandas.core.indexes.numeric
Int64Index
p71
(dp72
g18
g19
(g20
(I0
tp73
g22
tp74
Rp75
(I1
(I15
tp76
g26
(S'i8'
p77
I0
I1
tp78
Rp79
(I3
S'<'
p80
NNNI-1
I-1
I0
tp81
bI00
S'\x00\x00\x00\x00\x00\x00\x00\x00\x01\x00\x00\x00\x00\x00\x00\x00\x02\x00\x00\x00\x00\x00\x00\x00\x03\x00\x00\x00\x00\x00\x00\x00\x04\x00\x00\x00\x00\x00\x00\x00\x05\x00\x00\x00\x00\x00\x00\x00\x06\x00\x00\x00\x00\x00\x00\x00\x07\x00\x00\x00\x00\x00\x00\x00\x08\x00\x00\x00\x00\x00\x00\x00\t\x00\x00\x00\x00\x00\x00\x00\n\x00\x00\x00\x00\x00\x00\x00\x0b\x00\x00\x00\x00\x00\x00\x00\x0c\x00\x00\x00\x00\x00\x00\x00\r\x00\x00\x00\x00\x00\x00\x00\x0e\x00\x00\x00\x00\x00\x00\x00'
p82
tp83
bsg68
Nstp84
Rp85
a(lp86
g19
(g20
(I0
tp87
g22
tp88
Rp89
(I1
(I1
I15
tp90
g26
(S'f8'
p91
I0
I1
tp92
Rp93
(I3
S'<'
p94
NNNI-1
I-1
I0
tp95
bI00
S'\x00\x00\x00\x00\x00\x10\xd3@\x00\x00\x00\x00\x00\x10\xd3@\x00\x00\x00\x00\x00\x10\xd3@\x00\x00\x00\x00\x00\x10\xd3@\x00\x00\x00\x00\x00\x10\xd3@\x00\x00\x00\x00\x00\x10\xd3@\x00\x00\x00\x00\x00\x10\xd3@\x00\x00\x00\x00\x00\x10\xd3@\x00\x00\x00\x00\x00\x10\xd3@\x00\x00\x00\x00\x00\x10\xd3@\x00\x00\x00\x00\x00\x10\xd3@\x00\x00\x00\x00\x00\x10\xd3@\x00\x00\x00\x00\x00\x10\xd3@\x00\x00\x00\x00\x00\x00\xf0?\x00\x00\x00\x00\x00\x00\xf0\xbf'
p96
tp97
bag19
(g20
(I0
tp98
g22
tp99
Rp100
(I1
(I33
I15
tp101
g29
I00
(lp102
S'2016preVFP'
p103
ag103
ag103
ag103
ag103
ag103
ag103
ag103
ag103
ag103
ag103
ag103
ag103
ag33
ag33
aS'sig'
p104
ag104
ag104
ag104
ag104
ag104
ag104
ag104
ag104
ag104
ag104
ag104
ag104
aS'bkg'
p105
ag18
aS'GG2HMf05ph0'
p106
aS'GG2HbsmM'
p107
aS'GG2Hsm'
p108
aS'TTHsm'
p109
aS'VBFMf05ph0'
p110
aS'VBFbsmM'
p111
aS'VBFsm'
p112
aS'WHMf05ph0'
p113
aS'WHbsmM'
p114
aS'WHsm'
p115
aS'ZHMf05ph0'
p116
aS'ZHbsmM'
p117
aS'ZHsm'
p118
aS'bkg_mass'
p119
aS'data_obs'
p120
aS'GG2HMf05ph0_2016preVFP_hgg'
p121
aS'GG2HbsmM_2016preVFP_hgg'
p122
aS'GG2Hsm_2016preVFP_hgg'
p123
aS'tth0P_2016preVFP_hgg'
p124
aS'vbf0Mf05ph0_2016preVFP_hgg'
p125
aS'vbf0M_2016preVFP_hgg'
p126
aS'vbf0P_2016preVFP_hgg'
p127
aS'wh0Mf05ph0_2016preVFP_hgg'
p128
aS'wh0M_2016preVFP_hgg'
p129
aS'wh0P_2016preVFP_hgg'
p130
aS'zh0Mf05ph0_2016preVFP_hgg'
p131
aS'zh0M_2016preVFP_hgg'
p132
aS'zh0P_2016preVFP_hgg'
p133
ag119
ag120
aS'jjh0Mf05ph0'
p134
aS'jjh0M'
p135
aS'jjh0P'
p136
aS'tth0P'
p137
aS'vbf0Mf05ph0'
p138
aS'vbf0M'
p139
aS'vbf0P'
p140
aS'wh0Mf05ph0'
p141
aS'wh0M'
p142
aS'wh0P'
p143
aS'zh0Mf05ph0'
p144
aS'zh0M'
p145
aS'zh0P'
p146
aS'-'
p147
ag147
aS'AC_Bin27_2016preVFP'
p148
aS'AC_Bin27_2016preVFP'
p149
aS'AC_Bin27_2016preVFP'
p150
aS'AC_Bin27_2016preVFP'
p151
aS'AC_Bin27_2016preVFP'
p152
aS'AC_Bin27_2016preVFP'
p153
aS'AC_Bin27_2016preVFP'
p154
aS'AC_Bin27_2016preVFP'
p155
aS'AC_Bin27_2016preVFP'
p156
aS'AC_Bin27_2016preVFP'
p157
aS'AC_Bin27_2016preVFP'
p158
aS'AC_Bin27_2016preVFP'
p159
aS'AC_Bin27_2016preVFP'
p160
aS'AC_Bin27_2016preVFP'
p161
ag161
aS'Trees/Opt_2016preVFP/2016PreVFP/Trees2WS_2016preVFP/WS/output_GluGluHToGGPlusTwoJets_MM_M125_TuneCP5_13TeV-amcatnlopowheg-minlo-pythia8_GG2HMf05ph0.root'
p162
aS'Trees/Opt_2016preVFP/2016PreVFP/Trees2WS_2016preVFP/WS/output_GluGluHToGGPlusTwoJets_CPodd_M125_TuneCP5_13TeV-amcatnlopowheg-minlo-pythia8_GG2HbsmM.root'
p163
aS'Trees/Opt_2016preVFP/2016PreVFP/Trees2WS_2016preVFP/WS/output_GluGluHToGGPlusTwoJets_SM_M125_TuneCP5_13TeV-amcatnlopowheg-minlo-pythia8_GG2Hsm.root'
p164
aS'Trees/Opt_2016preVFP/2016PreVFP/Trees2WS_2016preVFP/WS/output_ttHJetToGG_M125_TuneCP5_13TeV-amcatnloFXFX-madspin-pythia8_TTHsm.root'
p165
aS'Trees/Opt_2016preVFP/2016PreVFP/Trees2WS_2016preVFP/WS/output_VBFHiggs0Mf05ph0ToGG_M125_TuneCP5_13TeV-JHUGenV7011-pythia8_VBFMf05ph0.root'
p166
aS'Trees/Opt_2016preVFP/2016PreVFP/Trees2WS_2016preVFP/WS/output_VBFHiggs0MToGG_M125_TuneCP5_13TeV-JHUGenV7011-pythia8_VBFbsmM.root'
p167
aS'Trees/Opt_2016preVFP/2016PreVFP/Trees2WS_2016preVFP/WS/output_VBFHToGG_M125_TuneCP5_13TeV-amcatnlo-pythia8_VBFsm.root'
p168
aS'Trees/Opt_2016preVFP/2016PreVFP/Trees2WS_2016preVFP/WS/output_WHiggs0Mf05ph0ToGG_M125_TuneCP5_13TeV-JHUGenV7011-pythia8_WHMf05ph0.root'
p169
aS'Trees/Opt_2016preVFP/2016PreVFP/Trees2WS_2016preVFP/WS/output_WHiggs0MToGG_M125_TuneCP5_13TeV-JHUGenV7011-pythia8_WHbsmM.root'
p170
aS'Trees/Opt_2016preVFP/2016PreVFP/Trees2WS_2016preVFP/WS/output_WHiggs0PMToGG_M125_TuneCP5_13TeV-JHUGenV7011-pythia8_WHsm.root'
p171
aS'Trees/Opt_2016preVFP/2016PreVFP/Trees2WS_2016preVFP/WS/output_ZHiggs0Mf05ph0ToGG_M125_TuneCP5_13TeV-JHUGenV7011-pythia8_ZHMf05ph0.root'
p172
aS'Trees/Opt_2016preVFP/2016PreVFP/Trees2WS_2016preVFP/WS/output_ZHiggs0MToGG_M125_TuneCP5_13TeV-JHUGenV7011-pythia8_ZHbsmM.root'
p173
aS'Trees/Opt_2016preVFP/2016PreVFP/Trees2WS_2016preVFP/WS/output_ZH_HToGG_ZToAll_M125_TuneCP5_13TeV-powheg-pythia8_ZHsm.root'
p174
ag147
ag147
aS'jjh0Mf05ph0_125_13TeV_AC_Bin27'
p175
aS'jjh0M_125_13TeV_AC_Bin27'
p176
aS'jjh0P_125_13TeV_AC_Bin27'
p177
aS'tth0P_125_13TeV_AC_Bin27'
p178
aS'vbf0Mf05ph0_125_13TeV_AC_Bin27'
p179
aS'vbf0M_125_13TeV_AC_Bin27'
p180
aS'vbf0P_125_13TeV_AC_Bin27'
p181
aS'wh0Mf05ph0_125_13TeV_AC_Bin27'
p182
aS'wh0M_125_13TeV_AC_Bin27'
p183
aS'wh0P_125_13TeV_AC_Bin27'
p184
aS'zh0Mf05ph0_125_13TeV_AC_Bin27'
p185
aS'zh0M_125_13TeV_AC_Bin27'
p186
aS'zh0P_125_13TeV_AC_Bin27'
p187
ag147
ag147
aS'./Models/signal/CMS-HGG_sigfit_packaged_AC_Bin27_2016preVFP.root'
p188
aS'./Models/signal/CMS-HGG_sigfit_packaged_AC_Bin27_2016preVFP.root'
p189
aS'./Models/signal/CMS-HGG_sigfit_packaged_AC_Bin27_2016preVFP.root'
p190
aS'./Models/signal/CMS-HGG_sigfit_packaged_AC_Bin27_2016preVFP.root'
p191
aS'./Models/signal/CMS-HGG_sigfit_packaged_AC_Bin27_2016preVFP.root'
p192
aS'./Models/signal/CMS-HGG_sigfit_packaged_AC_Bin27_2016preVFP.root'
p193
aS'./Models/signal/CMS-HGG_sigfit_packaged_AC_Bin27_2016preVFP.root'
p194
aS'./Models/signal/CMS-HGG_sigfit_packaged_AC_Bin27_2016preVFP.root'
p195
aS'./Models/signal/CMS-HGG_sigfit_packaged_AC_Bin27_2016preVFP.root'
p196
aS'./Models/signal/CMS-HGG_sigfit_packaged_AC_Bin27_2016preVFP.root'
p197
aS'./Models/signal/CMS-HGG_sigfit_packaged_AC_Bin27_2016preVFP.root'
p198
aS'./Models/signal/CMS-HGG_sigfit_packaged_AC_Bin27_2016preVFP.root'
p199
aS'./Models/signal/CMS-HGG_sigfit_packaged_AC_Bin27_2016preVFP.root'
p200
aS'./Models/background/CMS-HGG_multipdf_AC_Bin27_2016preVFP.root'
p201
ag201
aS'wsig_13TeV:hggpdfsmrel_GG2HMf05ph0_2016preVFP_AC_Bin27_13TeV'
p202
aS'wsig_13TeV:hggpdfsmrel_GG2HbsmM_2016preVFP_AC_Bin27_13TeV'
p203
aS'wsig_13TeV:hggpdfsmrel_GG2Hsm_2016preVFP_AC_Bin27_13TeV'
p204
aS'wsig_13TeV:hggpdfsmrel_TTHsm_2016preVFP_AC_Bin27_13TeV'
p205
aS'wsig_13TeV:hggpdfsmrel_VBFMf05ph0_2016preVFP_AC_Bin27_13TeV'
p206
aS'wsig_13TeV:hggpdfsmrel_VBFbsmM_2016preVFP_AC_Bin27_13TeV'
p207
aS'wsig_13TeV:hggpdfsmrel_VBFsm_2016preVFP_AC_Bin27_13TeV'
p208
aS'wsig_13TeV:hggpdfsmrel_WHMf05ph0_2016preVFP_AC_Bin27_13TeV'
p209
aS'wsig_13TeV:hggpdfsmrel_WHbsmM_2016preVFP_AC_Bin27_13TeV'
p210
aS'wsig_13TeV:hggpdfsmrel_WHsm_2016preVFP_AC_Bin27_13TeV'
p211
aS'wsig_13TeV:hggpdfsmrel_ZHMf05ph0_2016preVFP_AC_Bin27_13TeV'
p212
aS'wsig_13TeV:hggpdfsmrel_ZHbsmM_2016preVFP_AC_Bin27_13TeV'
p213
aS'wsig_13TeV:hggpdfsmrel_ZHsm_2016preVFP_AC_Bin27_13TeV'
p214
aS'multipdf:CMS_hgg_AC_Bin27_2016preVFP_13TeV_bkgshape'
p215
aS'multipdf:roohist_data_mass_AC_Bin27'
p216
aF0.5432556217892852
aF0.5298585373898277
aF0.5192542383967975
aF0.03680603669658922
aF0.19062053968070813
aF0.1752430736670476
aF0.04608950554506919
aF0.09209821891784031
aF0.1365380701386698
aF0.04304952283331431
aF0.060557728951607714
aF0.13359508794746944
aF0.03935355724024703
ag147
ag147
aF0.00021374999668414716
aF0.0001434430731077225
aF0.0001324139404371121
aF1.5446671991357956e-05
aF9.765647549221548e-05
aF1.6447589504775778e-05
aF0.00022514421053418016
aF7.546306077473343e-06
aF1.4935266488224717e-05
aF2.3946555280373577e-06
aF2.597379249363365e-05
aF0.0011147966818058725
aF6.488338017983035e-06
ag147
ag147
aF0.5558433681796738
aF0.5416328336935162
aF0.5306282296628393
aF0.03758003688127205
aF0.19457640791524497
aF0.17927533432779705
aF0.047258239852630946
aF0.09403231958277179
aF0.13938147675982415
aF0.04395859552958294
aF0.06175300728494486
aF0.13602951212212006
aF0.040161100682862105
ag147
ag147
aF0.5468327229182718
aF0.5333391470582122
aF0.5226650505707512
aF0.03705036600526092
aF0.1918811660581348
aF0.17640213880783998
aF0.04639750959291825
aF0.09270204152366417
aF0.13743581587845666
aF0.04333010012571632
aF0.060955846931285626
aF0.13446072030342945
aF0.039611438950097846
ag147
ag147
aF0.5396902770418206
aF0.526389340719568
aF0.51585460999221
aF0.036562516766849726
aF0.1893640754287273
aF0.17408783583191978
aF0.04578252978698778
aF0.09149637274870288
aF0.1356432716214073
aF0.04276985850169982
aF0.06016091720580761
aF0.13273225223064336
aF0.03909651910307664
ag147
ag147
aF0.5512116430312547
aF0.5379221579206999
aF0.5270862855877301
aF0.03732728210947941
aF0.1932310787207731
aF0.1776182493470153
aF0.046834900614942436
aF0.09344055008261859
aF0.13844886349075902
aF0.043694589854566236
aF0.06136042917598245
aF0.13547747957111494
aF0.039918127571265345
ag147
ag147
aF0.5353576661513626
aF0.5218554391134274
aF0.511481231164843
aF0.03628871575815805
aF0.1880276438670076
aF0.17288392458688076
aF0.045350449303848184
aF0.09076553061694881
aF0.1346405544042215
aF0.04240931498029415
aF0.059760352798093004
aF0.13172524447894499
aF0.038792959081773715
ag147
ag147
aF0.5441203867804274
aF0.5307158884151514
aF0.520095605792129
aF0.03685829010471901
aF0.19090941439188944
aF0.1755210916524348
aF0.046154465909107614
aF0.09224977749611644
aF0.13675678201209884
aF0.04312691643337245
aF0.06065622015455076
aF0.1338689225551349
aF0.03941891289739382
ag147
ag147
aF0.542391594913656
aF0.5290019089072184
aF0.5184135931802845
aF0.03675382474658392
aF0.1903319062225748
aF0.17496527916371887
aF0.04602461375046241
aF0.09194679393078135
aF0.13631954939341093
aF0.04297220510035186
aF0.06045932426443877
aF0.1333214981302822
aF0.039288261972011906
ag147
ag147
aF0.544435273462043
aF0.5310056547760198
aF0.5203502602563519
aF0.03688225431643861
aF0.19102140708027318
aF0.17564663432595484
aF0.04619586971833577
aF0.09229535248585181
aF0.1368332612847815
aF0.04314259821624753
aF0.06068458206614201
aF0.13388732368812217
aF0.039436832579152974
ag147
ag147
aF0.542077248964586
aF0.5287126624792663
aF0.5181593786591934
aF0.0367298989303225
aF0.190220098840664
aF0.174839976138163
aF0.04598326398243601
aF0.09190129831449304
aF0.13624320089298647
aF0.04295654849987943
aF0.06043101062257439
aF0.1333031759127776
aF0.039270370405488184
ag147
ag147
aF0.5362248882402127
aF0.5220244415418165
aF0.5102404721078528
aF0.03631290248381447
aF0.18946004445990638
aF0.17451454270860722
aF0.04259260186427127
aF0.09121390547056762
aF0.1354217449311932
aF0.042407409990062206
aF0.060393613084670505
aF0.1335149468650343
aF0.03873669014956249
ag147
ag147
aF0.5518741212858913
aF0.5371213146167975
aF0.5275369262183176
aF0.036998305770453044
aF0.19176330181869616
aF0.1766840356690409
aF0.04550585983747624
aF0.09274108723855079
aF0.13801388422444916
aF0.043857902551565076
aF0.060877603542394354
aF0.13482594847664586
aF0.03974554265914776
ag147
ag147
aF0.55060161994993
aF0.5391655200473906
aF0.5305426253376027
aF0.03784724180923149
aF0.19384698974272396
aF0.17829976948291915
aF0.04445630885209084
aF0.09331128447922765
aF0.1380243709799629
aF0.04387325836665923
aF0.0620678710492939
aF0.1356376374606043
aF0.040091952756483806
ag147
ag147
aF0.5241831819471372
aF0.5178981628930615
aF0.5085965676651085
aF0.03584190977539947
aF0.18773391343177082
aF0.1720876389251771
aF0.04529607801998736
aF0.09065906756097775
aF0.13393824371706842
aF0.04254900008692175
aF0.05971376387788041
aF0.13067901112663094
aF0.03825890196276305
ag147
ag147
aF0.5452988472002289
aF0.5347574222716958
aF0.5217208458375353
aF0.036764691920325276
aF0.19090110007334715
aF0.17548649646403192
aF0.04425582544035933
aF0.09255789964731775
aF0.13717423567601372
aF0.043174117373894205
aF0.06059619627376378
aF0.1338232490415976
aF0.039485460232299374
ag147
ag147
aF0.5416546219332758
aF0.5279549694998877
aF0.5163817790623852
aF0.036714937141709925
aF0.18984081448240886
aF0.17491335835154587
aF0.04273718633930912
aF0.09170433198733008
aF0.1361506003909767
aF0.04297323261693009
aF0.060557728951607714
aF0.13328546105549322
aF0.03911287609344072
ag147
ag147
aF0.5517489635806214
aF0.5361448093854051
aF0.522797044760182
aF0.03733276311493228
aF0.1920333197048194
aF0.17565192776703498
aF0.04360334368072927
aF0.09390416268456647
aF0.1394945837965338
aF0.043793368017361445
aF0.060416985957999714
aF0.13447076300144545
aF0.03976953995720578
ag147
ag147
aF0.5329887185616826
aF0.5218400442097391
aF0.506377615546171
aF0.03732396519319536
aF0.18948231452611708
aF0.1748064415743329
aF0.046220614482081146
aF0.08910827817499012
aF0.13343449645225292
aF0.042037465374107796
aF0.05958586827182444
aF0.13257495836296584
aF0.039207971740324865
ag147
ag147
aF0.5433796273443932
aF0.5311608130982677
aF0.5216810099971099
aF0.03688918748071046
aF0.19102595466881667
aF0.1753792799894427
aF0.04334657264814723
aF0.09276533921274677
aF0.13676875514585163
aF0.042974886075000995
aF0.060583350863453234
aF0.13359508794746944
aF0.03941751530896909
ag147
ag147
aF0.5433341158263829
aF0.5289687804283858
aF0.5160284192561448
aF0.038490595253620086
aF0.19035720142630908
aF0.17531254077448466
aF0.042463852420723924
aF0.0917407744866523
aF0.13634823736919088
aF0.043068387681444165
aF0.06067611505022796
aF0.13365286677799304
aF0.0393965563009715
ag147
ag147
aF0.5432556217892852
aF0.5298585373898277
aF0.5192542383967975
aF0.03680603669658922
aF0.19062053968070813
aF0.1752430736670476
aF0.04608950554506919
aF0.09209821891784031
aF0.1365380701386698
aF0.04304952283331431
aF0.060557728951607714
aF0.13359508794746944
aF0.03935355724024703
ag147
ag147
aF0.5432556217892852
aF0.5298585373898277
aF0.5192542383967975
aF0.03680603669658922
aF0.19062053968070813
aF0.1752430736670476
aF0.04608950554506919
aF0.09209821891784031
aF0.1365380701386698
aF0.04304952283331431
aF0.060557728951607714
aF0.13359508794746944
aF0.03935355724024703
ag147
ag147
atp217
ba(lp218
g15
(g16
(dp219
g18
g19
(g20
(I0
tp220
g22
tp221
Rp222
(I1
(I1
tp223
g29
I00
(lp224
g43
atp225
bsg68
Nstp226
Rp227
ag15
(g16
(dp228
g18
g19
(g20
(I0
tp229
g22
tp230
Rp231
(I1
(I33
tp232
g29
I00
(lp233
g33
ag34
ag35
ag36
ag37
ag38
ag39
ag40
ag41
ag42
ag44
ag45
ag46
ag47
ag48
ag49
ag50
ag51
ag52
ag53
ag54
ag55
ag56
ag57
ag58
ag59
ag60
ag61
ag62
ag63
ag64
ag65
ag66
atp234
bsg68
Nstp235
Rp236
a(dp237
S'0.14.1'
p238
(dp239
S'axes'
p240
g14
sS'blocks'
p241
(lp242
(dp243
S'mgr_locs'
p244
c__builtin__
slice
p245
(I10
I11
I1
tp246
Rp247
sS'values'
p248
g89
sa(dp249
g244
g19
(g20
(I0
tp250
g22
tp251
Rp252
(I1
(I33
tp253
g79
I00
S'\x00\x00\x00\x00\x00\x00\x00\x00\x01\x00\x00\x00\x00\x00\x00\x00\x02\x00\x00\x00\x00\x00\x00\x00\x03\x00\x00\x00\x00\x00\x00\x00\x04\x00\x00\x00\x00\x00\x00\x00\x05\x00\x00\x00\x00\x00\x00\x00\x06\x00\x00\x00\x00\x00\x00\x00\x07\x00\x00\x00\x00\x00\x00\x00\x08\x00\x00\x00\x00\x00\x00\x00\t\x00\x00\x00\x00\x00\x00\x00\x0b\x00\x00\x00\x00\x00\x00\x00\x0c\x00\x00\x00\x00\x00\x00\x00\r\x00\x00\x00\x00\x00\x00\x00\x0e\x00\x00\x00\x00\x00\x00\x00\x0f\x00\x00\x00\x00\x00\x00\x00\x10\x00\x00\x00\x00\x00\x00\x00\x11\x00\x00\x00\x00\x00\x00\x00\x12\x00\x00\x00\x00\x00\x00\x00\x13\x00\x00\x00\x00\x00\x00\x00\x14\x00\x00\x00\x00\x00\x00\x00\x15\x00\x00\x00\x00\x00\x00\x00\x16\x00\x00\x00\x00\x00\x00\x00\x17\x00\x00\x00\x00\x00\x00\x00\x18\x00\x00\x00\x00\x00\x00\x00\x19\x00\x00\x00\x00\x00\x00\x00\x1a\x00\x00\x00\x00\x00\x00\x00\x1b\x00\x00\x00\x00\x00\x00\x00\x1c\x00\x00\x00\x00\x00\x00\x00\x1d\x00\x00\x00\x00\x00\x00\x00\x1e\x00\x00\x00\x00\x00\x00\x00\x1f\x00\x00\x00\x00\x00\x00\x00 \x00\x00\x00\x00\x00\x00\x00!\x00\x00\x00\x00\x00\x00\x00'
p254
tp255
bsg248
g100
sasstp256
bsb.