ccopy_reg
_reconstructor
p0
(cpandas.core.frame
DataFrame
p1
c__builtin__
object
p2
Ntp3
Rp4
(dp5
S'_metadata'
p6
(lp7
sS'_typ'
p8
S'dataframe'
p9
sS'_data'
p10
g0
(cpandas.core.internals
BlockManager
p11
g2
Ntp12
Rp13
((lp14
cpandas.core.indexes.base
_new_Index
p15
(cpandas.core.indexes.base
Index
p16
(dp17
S'data'
p18
cnumpy.core.multiarray
_reconstruct
p19
(cnumpy
ndarray
p20
(I0
tp21
S'b'
p22
tp23
Rp24
(I1
(I32
tp25
cnumpy
dtype
p26
(S'O8'
p27
I0
I1
tp28
Rp29
(I3
S'|'
p30
NNNI-1
I-1
I63
tp31
bI00
(lp32
S'year'
p33
aS'type'
p34
aS'procOriginal'
p35
aS'proc'
p36
aS'proc_s0'
p37
aS'cat'
p38
aS'inputWSFile'
p39
aS'nominalDataName'
p40
aS'modelWSFile'
p41
aS'model'
p42
aS'rate'
p43
aS'nominal_yield'
p44
aS'sumw2'
p45
aS'nominal_yield_COWCorr'
p46
aS'LooseMvaSF_up_yield'
p47
aS'LooseMvaSF_down_yield'
p48
aS'PreselSF_up_yield'
p49
aS'PreselSF_down_yield'
p50
aS'electronVetoSF_up_yield'
p51
aS'electronVetoSF_down_yield'
p52
aS'TriggerWeight_up_yield'
p53
aS'TriggerWeight_down_yield'
p54
aS'SigmaEOverEShift_up_yield'
p55
aS'SigmaEOverEShift_down_yield'
p56
aS'MvaShift_up_yield'
p57
aS'MvaShift_down_yield'
p58
aS'PUJIDShift_up_yield'
p59
aS'PUJIDShift_down_yield'
p60
aS'JEC_up_yield'
p61
aS'JEC_down_yield'
p62
aS'JER_up_yield'
p63
aS'JER_down_yield'
p64
atp65
bsS'name'
p66
Nstp67
Rp68
ag15
(cpandas.core.indexes.numeric
Int64Index
p69
(dp70
g18
g19
(g20
(I0
tp71
g22
tp72
Rp73
(I1
(I15
tp74
g26
(S'i8'
p75
I0
I1
tp76
Rp77
(I3
S'<'
p78
NNNI-1
I-1
I0
tp79
bI00
S'\x00\x00\x00\x00\x00\x00\x00\x00\x01\x00\x00\x00\x00\x00\x00\x00\x02\x00\x00\x00\x00\x00\x00\x00\x03\x00\x00\x00\x00\x00\x00\x00\x04\x00\x00\x00\x00\x00\x00\x00\x05\x00\x00\x00\x00\x00\x00\x00\x06\x00\x00\x00\x00\x00\x00\x00\x07\x00\x00\x00\x00\x00\x00\x00\x08\x00\x00\x00\x00\x00\x00\x00\t\x00\x00\x00\x00\x00\x00\x00\n\x00\x00\x00\x00\x00\x00\x00\x0b\x00\x00\x00\x00\x00\x00\x00\x0c\x00\x00\x00\x00\x00\x00\x00\r\x00\x00\x00\x00\x00\x00\x00\x0e\x00\x00\x00\x00\x00\x00\x00'
p80
tp81
bsg66
Nstp82
Rp83
a(lp84
g19
(g20
(I0
tp85
g22
tp86
Rp87
(I1
(I1
I15
tp88
g26
(S'f8'
p89
I0
I1
tp90
Rp91
(I3
S'<'
p92
NNNI-1
I-1
I0
tp93
bI00
S'\x00\x00\x00\x00\x00\x10\xd3@\x00\x00\x00\x00\x00\x10\xd3@\x00\x00\x00\x00\x00\x10\xd3@\x00\x00\x00\x00\x00\x10\xd3@\x00\x00\x00\x00\x00\x10\xd3@\x00\x00\x00\x00\x00\x10\xd3@\x00\x00\x00\x00\x00\x10\xd3@\x00\x00\x00\x00\x00\x10\xd3@\x00\x00\x00\x00\x00\x10\xd3@\x00\x00\x00\x00\x00\x10\xd3@\x00\x00\x00\x00\x00\x10\xd3@\x00\x00\x00\x00\x00\x10\xd3@\x00\x00\x00\x00\x00\x10\xd3@\x00\x00\x00\x00\x00\x00\xf0?\x00\x00\x00\x00\x00\x00\xf0\xbf'
p94
tp95
bag19
(g20
(I0
tp96
g22
tp97
Rp98
(I1
(I31
I15
tp99
g29
I00
(lp100
S'2016preVFP'
p101
ag101
ag101
ag101
ag101
ag101
ag101
ag101
ag101
ag101
ag101
ag101
ag101
ag33
ag33
aS'sig'
p102
ag102
ag102
ag102
ag102
ag102
ag102
ag102
ag102
ag102
ag102
ag102
ag102
aS'bkg'
p103
ag18
aS'GG2HMf05ph0'
p104
aS'GG2HbsmM'
p105
aS'GG2Hsm'
p106
aS'TTHsm'
p107
aS'VBFMf05ph0'
p108
aS'VBFbsmM'
p109
aS'VBFsm'
p110
aS'WHMf05ph0'
p111
aS'WHbsmM'
p112
aS'WHsm'
p113
aS'ZHMf05ph0'
p114
aS'ZHbsmM'
p115
aS'ZHsm'
p116
aS'bkg_mass'
p117
aS'data_obs'
p118
aS'GG2HMf05ph0_2016preVFP_hgg'
p119
aS'GG2HbsmM_2016preVFP_hgg'
p120
aS'GG2Hsm_2016preVFP_hgg'
p121
aS'tth0P_2016preVFP_hgg'
p122
aS'vbf0Mf05ph0_2016preVFP_hgg'
p123
aS'vbf0M_2016preVFP_hgg'
p124
aS'vbf0P_2016preVFP_hgg'
p125
aS'wh0Mf05ph0_2016preVFP_hgg'
p126
aS'wh0M_2016preVFP_hgg'
p127
aS'wh0P_2016preVFP_hgg'
p128
aS'zh0Mf05ph0_2016preVFP_hgg'
p129
aS'zh0M_2016preVFP_hgg'
p130
aS'zh0P_2016preVFP_hgg'
p131
ag117
ag118
aS'jjh0Mf05ph0'
p132
aS'jjh0M'
p133
aS'jjh0P'
p134
aS'tth0P'
p135
aS'vbf0Mf05ph0'
p136
aS'vbf0M'
p137
aS'vbf0P'
p138
aS'wh0Mf05ph0'
p139
aS'wh0M'
p140
aS'wh0P'
p141
aS'zh0Mf05ph0'
p142
aS'zh0M'
p143
aS'zh0P'
p144
aS'-'
p145
ag145
aS'AC_Bin22_2016preVFP'
p146
aS'AC_Bin22_2016preVFP'
p147
aS'AC_Bin22_2016preVFP'
p148
aS'AC_Bin22_2016preVFP'
p149
aS'AC_Bin22_2016preVFP'
p150
aS'AC_Bin22_2016preVFP'
p151
aS'AC_Bin22_2016preVFP'
p152
aS'AC_Bin22_2016preVFP'
p153
aS'AC_Bin22_2016preVFP'
p154
aS'AC_Bin22_2016preVFP'
p155
aS'AC_Bin22_2016preVFP'
p156
aS'AC_Bin22_2016preVFP'
p157
aS'AC_Bin22_2016preVFP'
p158
aS'AC_Bin22_2016preVFP'
p159
ag159
aS'Trees/Opt_2016preVFP/2016PreVFP/Trees2WS_2016preVFP/WS/output_GluGluHToGGPlusTwoJets_MM_M125_TuneCP5_13TeV-amcatnlopowheg-minlo-pythia8_GG2HMf05ph0.root'
p160
aS'Trees/Opt_2016preVFP/2016PreVFP/Trees2WS_2016preVFP/WS/output_GluGluHToGGPlusTwoJets_CPodd_M125_TuneCP5_13TeV-amcatnlopowheg-minlo-pythia8_GG2HbsmM.root'
p161
aS'Trees/Opt_2016preVFP/2016PreVFP/Trees2WS_2016preVFP/WS/output_GluGluHToGGPlusTwoJets_SM_M125_TuneCP5_13TeV-amcatnlopowheg-minlo-pythia8_GG2Hsm.root'
p162
aS'Trees/Opt_2016preVFP/2016PreVFP/Trees2WS_2016preVFP/WS/output_ttHJetToGG_M125_TuneCP5_13TeV-amcatnloFXFX-madspin-pythia8_TTHsm.root'
p163
aS'Trees/Opt_2016preVFP/2016PreVFP/Trees2WS_2016preVFP/WS/output_VBFHiggs0Mf05ph0ToGG_M125_TuneCP5_13TeV-JHUGenV7011-pythia8_VBFMf05ph0.root'
p164
aS'Trees/Opt_2016preVFP/2016PreVFP/Trees2WS_2016preVFP/WS/output_VBFHiggs0MToGG_M125_TuneCP5_13TeV-JHUGenV7011-pythia8_VBFbsmM.root'
p165
aS'Trees/Opt_2016preVFP/2016PreVFP/Trees2WS_2016preVFP/WS/output_VBFHToGG_M125_TuneCP5_13TeV-amcatnlo-pythia8_VBFsm.root'
p166
aS'Trees/Opt_2016preVFP/2016PreVFP/Trees2WS_2016preVFP/WS/output_WHiggs0Mf05ph0ToGG_M125_TuneCP5_13TeV-JHUGenV7011-pythia8_WHMf05ph0.root'
p167
aS'Trees/Opt_2016preVFP/2016PreVFP/Trees2WS_2016preVFP/WS/output_WHiggs0MToGG_M125_TuneCP5_13TeV-JHUGenV7011-pythia8_WHbsmM.root'
p168
aS'Trees/Opt_2016preVFP/2016PreVFP/Trees2WS_2016preVFP/WS/output_WHiggs0PMToGG_M125_TuneCP5_13TeV-JHUGenV7011-pythia8_WHsm.root'
p169
aS'Trees/Opt_2016preVFP/2016PreVFP/Trees2WS_2016preVFP/WS/output_ZHiggs0Mf05ph0ToGG_M125_TuneCP5_13TeV-JHUGenV7011-pythia8_ZHMf05ph0.root'
p170
aS'Trees/Opt_2016preVFP/2016PreVFP/Trees2WS_2016preVFP/WS/output_ZHiggs0MToGG_M125_TuneCP5_13TeV-JHUGenV7011-pythia8_ZHbsmM.root'
p171
aS'Trees/Opt_2016preVFP/2016PreVFP/Trees2WS_2016preVFP/WS/output_ZH_HToGG_ZToAll_M125_TuneCP5_13TeV-powheg-pythia8_ZHsm.root'
p172
ag145
ag145
aS'jjh0Mf05ph0_125_13TeV_AC_Bin22'
p173
aS'jjh0M_125_13TeV_AC_Bin22'
p174
aS'jjh0P_125_13TeV_AC_Bin22'
p175
aS'tth0P_125_13TeV_AC_Bin22'
p176
aS'vbf0Mf05ph0_125_13TeV_AC_Bin22'
p177
aS'vbf0M_125_13TeV_AC_Bin22'
p178
aS'vbf0P_125_13TeV_AC_Bin22'
p179
aS'wh0Mf05ph0_125_13TeV_AC_Bin22'
p180
aS'wh0M_125_13TeV_AC_Bin22'
p181
aS'wh0P_125_13TeV_AC_Bin22'
p182
aS'zh0Mf05ph0_125_13TeV_AC_Bin22'
p183
aS'zh0M_125_13TeV_AC_Bin22'
p184
aS'zh0P_125_13TeV_AC_Bin22'
p185
ag145
ag145
aS'./Models/signal/CMS-HGG_sigfit_packaged_AC_Bin22_2016preVFP.root'
p186
aS'./Models/signal/CMS-HGG_sigfit_packaged_AC_Bin22_2016preVFP.root'
p187
aS'./Models/signal/CMS-HGG_sigfit_packaged_AC_Bin22_2016preVFP.root'
p188
aS'./Models/signal/CMS-HGG_sigfit_packaged_AC_Bin22_2016preVFP.root'
p189
aS'./Models/signal/CMS-HGG_sigfit_packaged_AC_Bin22_2016preVFP.root'
p190
aS'./Models/signal/CMS-HGG_sigfit_packaged_AC_Bin22_2016preVFP.root'
p191
aS'./Models/signal/CMS-HGG_sigfit_packaged_AC_Bin22_2016preVFP.root'
p192
aS'./Models/signal/CMS-HGG_sigfit_packaged_AC_Bin22_2016preVFP.root'
p193
aS'./Models/signal/CMS-HGG_sigfit_packaged_AC_Bin22_2016preVFP.root'
p194
aS'./Models/signal/CMS-HGG_sigfit_packaged_AC_Bin22_2016preVFP.root'
p195
aS'./Models/signal/CMS-HGG_sigfit_packaged_AC_Bin22_2016preVFP.root'
p196
aS'./Models/signal/CMS-HGG_sigfit_packaged_AC_Bin22_2016preVFP.root'
p197
aS'./Models/signal/CMS-HGG_sigfit_packaged_AC_Bin22_2016preVFP.root'
p198
aS'./Models/background/CMS-HGG_multipdf_AC_Bin22_2016preVFP.root'
p199
ag199
aS'wsig_13TeV:hggpdfsmrel_GG2HMf05ph0_2016preVFP_AC_Bin22_13TeV'
p200
aS'wsig_13TeV:hggpdfsmrel_GG2HbsmM_2016preVFP_AC_Bin22_13TeV'
p201
aS'wsig_13TeV:hggpdfsmrel_GG2Hsm_2016preVFP_AC_Bin22_13TeV'
p202
aS'wsig_13TeV:hggpdfsmrel_TTHsm_2016preVFP_AC_Bin22_13TeV'
p203
aS'wsig_13TeV:hggpdfsmrel_VBFMf05ph0_2016preVFP_AC_Bin22_13TeV'
p204
aS'wsig_13TeV:hggpdfsmrel_VBFbsmM_2016preVFP_AC_Bin22_13TeV'
p205
aS'wsig_13TeV:hggpdfsmrel_VBFsm_2016preVFP_AC_Bin22_13TeV'
p206
aS'wsig_13TeV:hggpdfsmrel_WHMf05ph0_2016preVFP_AC_Bin22_13TeV'
p207
aS'wsig_13TeV:hggpdfsmrel_WHbsmM_2016preVFP_AC_Bin22_13TeV'
p208
aS'wsig_13TeV:hggpdfsmrel_WHsm_2016preVFP_AC_Bin22_13TeV'
p209
aS'wsig_13TeV:hggpdfsmrel_ZHMf05ph0_2016preVFP_AC_Bin22_13TeV'
p210
aS'wsig_13TeV:hggpdfsmrel_ZHbsmM_2016preVFP_AC_Bin22_13TeV'
p211
aS'wsig_13TeV:hggpdfsmrel_ZHsm_2016preVFP_AC_Bin22_13TeV'
p212
aS'multipdf:CMS_hgg_AC_Bin22_2016preVFP_13TeV_bkgshape'
p213
aS'multipdf:roohist_data_mass_AC_Bin22'
p214
aF0.6717386767132894
aF0.6356606984077189
aF0.6384134831105257
aF0.02596311980101973
aF0.06265121107281857
aF0.04970913099657537
aF0.09730837920653812
aF0.05082454305926376
aF0.04933584364442822
aF0.05166658119742351
aF0.028380163084875676
aF0.022569873954125796
aF0.04010774095263514
ag145
ag145
aF0.00025921564223971874
aF0.0001161230982008769
aF0.00010891952443707531
aF5.964532028153896e-06
aF1.2350969840766604e-05
aF1.472177454962618e-05
aF3.1651426223533836e-05
aF2.7588705467006932e-06
aF2.184700980226852e-06
aF2.5068658641441755e-06
aF7.234147434935549e-06
aF5.094487665102575e-06
aF6.4401505340268096e-06
ag145
ag145
aF0.6903129550614598
aF0.6534552758756726
aF0.656128732008681
aF0.02664660656615272
aF0.06425646185805649
aF0.05088529571276787
aF0.09967386497227029
aF0.052065479912486855
aF0.05061866133147568
aF0.052990467111558484
aF0.029211335981680627
aF0.023085147983462843
aF0.04122019466788797
ag145
ag145
aF0.676075943308916
aF0.639764897003335
aF0.6425395911989735
aF0.026130414633408344
aF0.0630559252266264
aF0.05002779086811156
aF0.09793478145871465
aF0.05114925595773565
aF0.049651613499526535
aF0.051997541761484044
aF0.02856218125702125
aF0.02271565967577782
aF0.04036602974080196
ag145
ag145
aF0.6674153889712192
aF0.63156972730674
aF0.634300688094078
aF0.025796363158610537
aF0.06224780219573246
aF0.0493914913541683
aF0.09668399021365254
aF0.05050086599152061
aF0.04902108277097834
aF0.05133667889655769
aF0.02819872771772071
aF0.022424558222433173
aF0.03985028232631749
ag145
ag145
aF0.6832794458409035
aF0.6465483598953908
aF0.6494122450772026
aF0.026451997496169406
aF0.06368200794558422
aF0.050563717138385096
aF0.09903380321274624
aF0.051671468965587185
aF0.05016869234755385
aF0.05253641215954027
aF0.028817009006289918
aF0.022906311233040287
aF0.04080322540528374
ag145
ag145
aF0.6602961596271545
aF0.6248654565064373
aF0.627510652783705
aF0.025478273844457253
aF0.06162862678724989
aF0.048861223922287304
aF0.09559844582504283
aF0.049984583462551364
aF0.04850958558186774
aF0.05080372281742456
aF0.027946478498555773
aF0.02223572169367185
aF0.03941792241424875
ag145
ag145
aF0.6729986682021298
aF0.6368652972130212
aF0.639627417225586
aF0.026011144258192866
aF0.06276963459515782
aF0.04981273735083203
aF0.09749640256339691
aF0.05092862536989582
aF0.04943772426254014
aF0.051773691531450984
aF0.028435649300436523
aF0.022614679939316193
aF0.04018690133675777
ag145
ag145
aF0.6704799143017057
aF0.6344572797947409
aF0.6372007299878615
aF0.02591514056082968
aF0.06253290574254429
aF0.04960564130734104
aF0.09712053981228412
aF0.05072057230088341
aF0.04923407238476323
aF0.051559584544733854
aF0.028324735054832226
aF0.022525113779933624
aF0.04002866210877258
ag145
ag145
aF0.673223299712582
aF0.6370769598252197
aF0.6398212126272208
aF0.026019593731178473
aF0.06279472486962298
aF0.04981573427517052
aF0.09752273547155496
aF0.05093753915105082
aF0.049447490271615414
aF0.05178267922281075
aF0.028443165549134376
aF0.022621426304327893
aF0.040197876047733075
ag145
ag145
aF0.6702557113261801
aF0.6342460306918917
aF0.6370073193358663
aF0.025906706567466253
aF0.06250786493585817
aF0.04960264295378727
aF0.0970942774611894
aF0.05071167337496144
aF0.049224325369137775
aF0.05155061494781808
aF0.028317230615856916
aF0.022518380144732394
aF0.04001770712098882
ag145
ag145
aF0.6652175072823638
aF0.6286452967410696
aF0.636953467997273
aF0.027409837661139136
aF0.06255811394754573
aF0.05009089008774481
aF0.0937691733408883
aF0.050955162417778865
aF0.05003848702409641
aF0.051308863658618975
aF0.028379853152728174
aF0.022007769586707582
aF0.04015897870704066
ag145
ag145
aF0.6737403709270211
aF0.6368595466256011
aF0.6415269605320191
aF0.0260829187131435
aF0.06257731699366786
aF0.04838711939510176
aF0.08485406587067246
aF0.05074214278232603
aF0.04842782182896599
aF0.05150470276123542
aF0.028646181626754696
aF0.02172815576523135
aF0.04036668840603852
ag145
ag145
aF0.6921583091811954
aF0.6518715903065413
aF0.6516875562165296
aF0.026838497633832503
aF0.06349952929048186
aF0.050364314415674016
aF0.08947944283613651
aF0.051941491245145244
aF0.05033816573978811
aF0.05279253063383749
aF0.028747072701662546
aF0.022577779962375644
aF0.04109658612651401
ag145
ag145
aF0.6572866462419142
aF0.6193243195450577
aF0.6234896069440765
aF0.02697436226986838
aF0.06161261163560994
aF0.04806647858663382
aF0.07990021350246934
aF0.050004726975203084
aF0.04880507471563078
aF0.050448773273728875
aF0.02754684594401624
aF0.024646952222610707
aF0.03953003209517192
ag145
ag145
aF0.6842653423788079
aF0.6434012341876496
aF0.6479043919907781
aF0.025925028518770432
aF0.06286437803049694
aF0.04978322932765877
aF0.08542240399890488
aF0.05140796257518332
aF0.04960437453740951
aF0.05221121586623667
aF0.02856258376959886
aF0.022800827888204367
aF0.040456120314502186
ag145
ag145
aF0.6601198932484067
aF0.6238592498323214
aF0.6285631834211927
aF0.02601432337581855
aF0.06222124574020427
aF0.04960668976764282
aF0.08127079654752833
aF0.0505191693447955
aF0.04905751406380432
aF0.0513382015813022
aF0.028380163084875676
aF0.022461797585492604
aF0.04000757350195272
ag145
ag145
aF0.7086196237621607
aF0.6640094944089014
aF0.6705008663648186
aF0.025565623687668904
aF0.0627522068969597
aF0.04991545376947215
aF0.08021128682025847
aF0.05260977122810573
aF0.05252871830663253
aF0.05316008850616072
aF0.029539996370658628
aF0.024163507574485266
aF0.04045872122287619
ag145
ag145
aF0.636735451904201
aF0.6057729880808438
aF0.6053074939995895
aF0.026528499948938133
aF0.061099496998338054
aF0.048777276150303805
aF0.09369099746311349
aF0.04906521335084335
aF0.0479490344434339
aF0.05061425953829257
aF0.027556695333259995
aF0.022236812126720906
aF0.03919443245081311
ag145
ag145
aF0.671466305885815
aF0.6402128354357046
aF0.6418229599114511
aF0.02562265442492162
aF0.06259855951867621
aF0.04976057381895771
aF0.0961132557719111
aF0.05134613598255555
aF0.049782471974083364
aF0.051700382516855825
aF0.028178051272334415
aF0.02266183027131774
aF0.04023722833130705
ag145
ag145
aF0.6706963440341269
aF0.6307938433794789
aF0.6339363789925301
aF0.025902062861575814
aF0.06251120046721326
aF0.049534047746760734
aF0.08529985294694598
aF0.05105945199710504
aF0.04931098232322029
aF0.05160970995018488
aF0.028182450447275187
aF0.0222899828950176
aF0.04005585041750237
ag145
ag145
atp215
ba(lp216
g15
(g16
(dp217
g18
g19
(g20
(I0
tp218
g22
tp219
Rp220
(I1
(I1
tp221
g29
I00
(lp222
g43
atp223
bsg66
Nstp224
Rp225
ag15
(g16
(dp226
g18
g19
(g20
(I0
tp227
g22
tp228
Rp229
(I1
(I31
tp230
g29
I00
(lp231
g33
ag34
ag35
ag36
ag37
ag38
ag39
ag40
ag41
ag42
ag44
ag45
ag46
ag47
ag48
ag49
ag50
ag51
ag52
ag53
ag54
ag55
ag56
ag57
ag58
ag59
ag60
ag61
ag62
ag63
ag64
atp232
bsg66
Nstp233
Rp234
a(dp235
S'0.14.1'
p236
(dp237
S'axes'
p238
g14
sS'blocks'
p239
(lp240
(dp241
S'mgr_locs'
p242
c__builtin__
slice
p243
(I10
I11
I1
tp244
Rp245
sS'values'
p246
g87
sa(dp247
g242
g19
(g20
(I0
tp248
g22
tp249
Rp250
(I1
(I31
tp251
g77
I00
S'\x00\x00\x00\x00\x00\x00\x00\x00\x01\x00\x00\x00\x00\x00\x00\x00\x02\x00\x00\x00\x00\x00\x00\x00\x03\x00\x00\x00\x00\x00\x00\x00\x04\x00\x00\x00\x00\x00\x00\x00\x05\x00\x00\x00\x00\x00\x00\x00\x06\x00\x00\x00\x00\x00\x00\x00\x07\x00\x00\x00\x00\x00\x00\x00\x08\x00\x00\x00\x00\x00\x00\x00\t\x00\x00\x00\x00\x00\x00\x00\x0b\x00\x00\x00\x00\x00\x00\x00\x0c\x00\x00\x00\x00\x00\x00\x00\r\x00\x00\x00\x00\x00\x00\x00\x0e\x00\x00\x00\x00\x00\x00\x00\x0f\x00\x00\x00\x00\x00\x00\x00\x10\x00\x00\x00\x00\x00\x00\x00\x11\x00\x00\x00\x00\x00\x00\x00\x12\x00\x00\x00\x00\x00\x00\x00\x13\x00\x00\x00\x00\x00\x00\x00\x14\x00\x00\x00\x00\x00\x00\x00\x15\x00\x00\x00\x00\x00\x00\x00\x16\x00\x00\x00\x00\x00\x00\x00\x17\x00\x00\x00\x00\x00\x00\x00\x18\x00\x00\x00\x00\x00\x00\x00\x19\x00\x00\x00\x00\x00\x00\x00\x1a\x00\x00\x00\x00\x00\x00\x00\x1b\x00\x00\x00\x00\x00\x00\x00\x1c\x00\x00\x00\x00\x00\x00\x00\x1d\x00\x00\x00\x00\x00\x00\x00\x1e\x00\x00\x00\x00\x00\x00\x00\x1f\x00\x00\x00\x00\x00\x00\x00'
p252
tp253
bsg246
g98
sasstp254
bsb.