ccopy_reg
_reconstructor
p0
(cpandas.core.frame
DataFrame
p1
c__builtin__
object
p2
Ntp3
Rp4
(dp5
S'_metadata'
p6
(lp7
sS'_typ'
p8
S'dataframe'
p9
sS'_data'
p10
g0
(cpandas.core.internals
BlockManager
p11
g2
Ntp12
Rp13
((lp14
cpandas.core.indexes.base
_new_Index
p15
(cpandas.core.indexes.base
Index
p16
(dp17
S'data'
p18
cnumpy.core.multiarray
_reconstruct
p19
(cnumpy
ndarray
p20
(I0
tp21
S'b'
p22
tp23
Rp24
(I1
(I34
tp25
cnumpy
dtype
p26
(S'O8'
p27
I0
I1
tp28
Rp29
(I3
S'|'
p30
NNNI-1
I-1
I63
tp31
bI00
(lp32
S'year'
p33
aS'type'
p34
aS'procOriginal'
p35
aS'proc'
p36
aS'proc_s0'
p37
aS'cat'
p38
aS'inputWSFile'
p39
aS'nominalDataName'
p40
aS'modelWSFile'
p41
aS'model'
p42
aS'rate'
p43
aS'nominal_yield'
p44
aS'sumw2'
p45
aS'nominal_yield_COWCorr'
p46
aS'LooseMvaSF_up_yield'
p47
aS'LooseMvaSF_down_yield'
p48
aS'PreselSF_up_yield'
p49
aS'PreselSF_down_yield'
p50
aS'electronVetoSF_up_yield'
p51
aS'electronVetoSF_down_yield'
p52
aS'TriggerWeight_up_yield'
p53
aS'TriggerWeight_down_yield'
p54
aS'SigmaEOverEShift_up_yield'
p55
aS'SigmaEOverEShift_down_yield'
p56
aS'MvaShift_up_yield'
p57
aS'MvaShift_down_yield'
p58
aS'PUJIDShift_up_yield'
p59
aS'PUJIDShift_down_yield'
p60
aS'JEC_up_yield'
p61
aS'JEC_down_yield'
p62
aS'JER_up_yield'
p63
aS'JER_down_yield'
p64
aS'JetHEM_up_yield'
p65
aS'JetHEM_down_yield'
p66
atp67
bsS'name'
p68
Nstp69
Rp70
ag15
(cpandas.core.indexes.numeric
Int64Index
p71
(dp72
g18
g19
(g20
(I0
tp73
g22
tp74
Rp75
(I1
(I15
tp76
g26
(S'i8'
p77
I0
I1
tp78
Rp79
(I3
S'<'
p80
NNNI-1
I-1
I0
tp81
bI00
S'\x00\x00\x00\x00\x00\x00\x00\x00\x01\x00\x00\x00\x00\x00\x00\x00\x02\x00\x00\x00\x00\x00\x00\x00\x03\x00\x00\x00\x00\x00\x00\x00\x04\x00\x00\x00\x00\x00\x00\x00\x05\x00\x00\x00\x00\x00\x00\x00\x06\x00\x00\x00\x00\x00\x00\x00\x07\x00\x00\x00\x00\x00\x00\x00\x08\x00\x00\x00\x00\x00\x00\x00\t\x00\x00\x00\x00\x00\x00\x00\n\x00\x00\x00\x00\x00\x00\x00\x0b\x00\x00\x00\x00\x00\x00\x00\x0c\x00\x00\x00\x00\x00\x00\x00\r\x00\x00\x00\x00\x00\x00\x00\x0e\x00\x00\x00\x00\x00\x00\x00'
p82
tp83
bsg68
Nstp84
Rp85
a(lp86
g19
(g20
(I0
tp87
g22
tp88
Rp89
(I1
(I1
I15
tp90
g26
(S'f8'
p91
I0
I1
tp92
Rp93
(I3
S'<'
p94
NNNI-1
I-1
I0
tp95
bI00
S'\x00\x00\x00\x00\x00\x10\xd3@\x00\x00\x00\x00\x00\x10\xd3@\x00\x00\x00\x00\x00\x10\xd3@\x00\x00\x00\x00\x00\x10\xd3@\x00\x00\x00\x00\x00\x10\xd3@\x00\x00\x00\x00\x00\x10\xd3@\x00\x00\x00\x00\x00\x10\xd3@\x00\x00\x00\x00\x00\x10\xd3@\x00\x00\x00\x00\x00\x10\xd3@\x00\x00\x00\x00\x00\x10\xd3@\x00\x00\x00\x00\x00\x10\xd3@\x00\x00\x00\x00\x00\x10\xd3@\x00\x00\x00\x00\x00\x10\xd3@\x00\x00\x00\x00\x00\x00\xf0?\x00\x00\x00\x00\x00\x00\xf0\xbf'
p96
tp97
bag19
(g20
(I0
tp98
g22
tp99
Rp100
(I1
(I33
I15
tp101
g29
I00
(lp102
S'2016preVFP'
p103
ag103
ag103
ag103
ag103
ag103
ag103
ag103
ag103
ag103
ag103
ag103
ag103
ag33
ag33
aS'sig'
p104
ag104
ag104
ag104
ag104
ag104
ag104
ag104
ag104
ag104
ag104
ag104
ag104
aS'bkg'
p105
ag18
aS'GG2HMf05ph0'
p106
aS'GG2HbsmM'
p107
aS'GG2Hsm'
p108
aS'TTHsm'
p109
aS'VBFMf05ph0'
p110
aS'VBFbsmM'
p111
aS'VBFsm'
p112
aS'WHMf05ph0'
p113
aS'WHbsmM'
p114
aS'WHsm'
p115
aS'ZHMf05ph0'
p116
aS'ZHbsmM'
p117
aS'ZHsm'
p118
aS'bkg_mass'
p119
aS'data_obs'
p120
aS'GG2HMf05ph0_2016preVFP_hgg'
p121
aS'GG2HbsmM_2016preVFP_hgg'
p122
aS'GG2Hsm_2016preVFP_hgg'
p123
aS'tth0P_2016preVFP_hgg'
p124
aS'vbf0Mf05ph0_2016preVFP_hgg'
p125
aS'vbf0M_2016preVFP_hgg'
p126
aS'vbf0P_2016preVFP_hgg'
p127
aS'wh0Mf05ph0_2016preVFP_hgg'
p128
aS'wh0M_2016preVFP_hgg'
p129
aS'wh0P_2016preVFP_hgg'
p130
aS'zh0Mf05ph0_2016preVFP_hgg'
p131
aS'zh0M_2016preVFP_hgg'
p132
aS'zh0P_2016preVFP_hgg'
p133
ag119
ag120
aS'jjh0Mf05ph0'
p134
aS'jjh0M'
p135
aS'jjh0P'
p136
aS'tth0P'
p137
aS'vbf0Mf05ph0'
p138
aS'vbf0M'
p139
aS'vbf0P'
p140
aS'wh0Mf05ph0'
p141
aS'wh0M'
p142
aS'wh0P'
p143
aS'zh0Mf05ph0'
p144
aS'zh0M'
p145
aS'zh0P'
p146
aS'-'
p147
ag147
aS'AC_Bin0_2016preVFP'
p148
aS'AC_Bin0_2016preVFP'
p149
aS'AC_Bin0_2016preVFP'
p150
aS'AC_Bin0_2016preVFP'
p151
aS'AC_Bin0_2016preVFP'
p152
aS'AC_Bin0_2016preVFP'
p153
aS'AC_Bin0_2016preVFP'
p154
aS'AC_Bin0_2016preVFP'
p155
aS'AC_Bin0_2016preVFP'
p156
aS'AC_Bin0_2016preVFP'
p157
aS'AC_Bin0_2016preVFP'
p158
aS'AC_Bin0_2016preVFP'
p159
aS'AC_Bin0_2016preVFP'
p160
aS'AC_Bin0_2016preVFP'
p161
ag161
aS'Trees/Opt_2016preVFP/2016PreVFP/Trees2WS_2016preVFP/WS/output_GluGluHToGGPlusTwoJets_MM_M125_TuneCP5_13TeV-amcatnlopowheg-minlo-pythia8_GG2HMf05ph0.root'
p162
aS'Trees/Opt_2016preVFP/2016PreVFP/Trees2WS_2016preVFP/WS/output_GluGluHToGGPlusTwoJets_CPodd_M125_TuneCP5_13TeV-amcatnlopowheg-minlo-pythia8_GG2HbsmM.root'
p163
aS'Trees/Opt_2016preVFP/2016PreVFP/Trees2WS_2016preVFP/WS/output_GluGluHToGGPlusTwoJets_SM_M125_TuneCP5_13TeV-amcatnlopowheg-minlo-pythia8_GG2Hsm.root'
p164
aS'Trees/Opt_2016preVFP/2016PreVFP/Trees2WS_2016preVFP/WS/output_ttHJetToGG_M125_TuneCP5_13TeV-amcatnloFXFX-madspin-pythia8_TTHsm.root'
p165
aS'Trees/Opt_2016preVFP/2016PreVFP/Trees2WS_2016preVFP/WS/output_VBFHiggs0Mf05ph0ToGG_M125_TuneCP5_13TeV-JHUGenV7011-pythia8_VBFMf05ph0.root'
p166
aS'Trees/Opt_2016preVFP/2016PreVFP/Trees2WS_2016preVFP/WS/output_VBFHiggs0MToGG_M125_TuneCP5_13TeV-JHUGenV7011-pythia8_VBFbsmM.root'
p167
aS'Trees/Opt_2016preVFP/2016PreVFP/Trees2WS_2016preVFP/WS/output_VBFHToGG_M125_TuneCP5_13TeV-amcatnlo-pythia8_VBFsm.root'
p168
aS'Trees/Opt_2016preVFP/2016PreVFP/Trees2WS_2016preVFP/WS/output_WHiggs0Mf05ph0ToGG_M125_TuneCP5_13TeV-JHUGenV7011-pythia8_WHMf05ph0.root'
p169
aS'Trees/Opt_2016preVFP/2016PreVFP/Trees2WS_2016preVFP/WS/output_WHiggs0MToGG_M125_TuneCP5_13TeV-JHUGenV7011-pythia8_WHbsmM.root'
p170
aS'Trees/Opt_2016preVFP/2016PreVFP/Trees2WS_2016preVFP/WS/output_WHiggs0PMToGG_M125_TuneCP5_13TeV-JHUGenV7011-pythia8_WHsm.root'
p171
aS'Trees/Opt_2016preVFP/2016PreVFP/Trees2WS_2016preVFP/WS/output_ZHiggs0Mf05ph0ToGG_M125_TuneCP5_13TeV-JHUGenV7011-pythia8_ZHMf05ph0.root'
p172
aS'Trees/Opt_2016preVFP/2016PreVFP/Trees2WS_2016preVFP/WS/output_ZHiggs0MToGG_M125_TuneCP5_13TeV-JHUGenV7011-pythia8_ZHbsmM.root'
p173
aS'Trees/Opt_2016preVFP/2016PreVFP/Trees2WS_2016preVFP/WS/output_ZH_HToGG_ZToAll_M125_TuneCP5_13TeV-powheg-pythia8_ZHsm.root'
p174
ag147
ag147
aS'jjh0Mf05ph0_125_13TeV_AC_Bin0'
p175
aS'jjh0M_125_13TeV_AC_Bin0'
p176
aS'jjh0P_125_13TeV_AC_Bin0'
p177
aS'tth0P_125_13TeV_AC_Bin0'
p178
aS'vbf0Mf05ph0_125_13TeV_AC_Bin0'
p179
aS'vbf0M_125_13TeV_AC_Bin0'
p180
aS'vbf0P_125_13TeV_AC_Bin0'
p181
aS'wh0Mf05ph0_125_13TeV_AC_Bin0'
p182
aS'wh0M_125_13TeV_AC_Bin0'
p183
aS'wh0P_125_13TeV_AC_Bin0'
p184
aS'zh0Mf05ph0_125_13TeV_AC_Bin0'
p185
aS'zh0M_125_13TeV_AC_Bin0'
p186
aS'zh0P_125_13TeV_AC_Bin0'
p187
ag147
ag147
aS'./Models/signal/CMS-HGG_sigfit_packaged_AC_Bin0_2016preVFP.root'
p188
aS'./Models/signal/CMS-HGG_sigfit_packaged_AC_Bin0_2016preVFP.root'
p189
aS'./Models/signal/CMS-HGG_sigfit_packaged_AC_Bin0_2016preVFP.root'
p190
aS'./Models/signal/CMS-HGG_sigfit_packaged_AC_Bin0_2016preVFP.root'
p191
aS'./Models/signal/CMS-HGG_sigfit_packaged_AC_Bin0_2016preVFP.root'
p192
aS'./Models/signal/CMS-HGG_sigfit_packaged_AC_Bin0_2016preVFP.root'
p193
aS'./Models/signal/CMS-HGG_sigfit_packaged_AC_Bin0_2016preVFP.root'
p194
aS'./Models/signal/CMS-HGG_sigfit_packaged_AC_Bin0_2016preVFP.root'
p195
aS'./Models/signal/CMS-HGG_sigfit_packaged_AC_Bin0_2016preVFP.root'
p196
aS'./Models/signal/CMS-HGG_sigfit_packaged_AC_Bin0_2016preVFP.root'
p197
aS'./Models/signal/CMS-HGG_sigfit_packaged_AC_Bin0_2016preVFP.root'
p198
aS'./Models/signal/CMS-HGG_sigfit_packaged_AC_Bin0_2016preVFP.root'
p199
aS'./Models/signal/CMS-HGG_sigfit_packaged_AC_Bin0_2016preVFP.root'
p200
aS'./Models/background/CMS-HGG_multipdf_AC_Bin0_2016preVFP.root'
p201
ag201
aS'wsig_13TeV:hggpdfsmrel_GG2HMf05ph0_2016preVFP_AC_Bin0_13TeV'
p202
aS'wsig_13TeV:hggpdfsmrel_GG2HbsmM_2016preVFP_AC_Bin0_13TeV'
p203
aS'wsig_13TeV:hggpdfsmrel_GG2Hsm_2016preVFP_AC_Bin0_13TeV'
p204
aS'wsig_13TeV:hggpdfsmrel_TTHsm_2016preVFP_AC_Bin0_13TeV'
p205
aS'wsig_13TeV:hggpdfsmrel_VBFMf05ph0_2016preVFP_AC_Bin0_13TeV'
p206
aS'wsig_13TeV:hggpdfsmrel_VBFbsmM_2016preVFP_AC_Bin0_13TeV'
p207
aS'wsig_13TeV:hggpdfsmrel_VBFsm_2016preVFP_AC_Bin0_13TeV'
p208
aS'wsig_13TeV:hggpdfsmrel_WHMf05ph0_2016preVFP_AC_Bin0_13TeV'
p209
aS'wsig_13TeV:hggpdfsmrel_WHbsmM_2016preVFP_AC_Bin0_13TeV'
p210
aS'wsig_13TeV:hggpdfsmrel_WHsm_2016preVFP_AC_Bin0_13TeV'
p211
aS'wsig_13TeV:hggpdfsmrel_ZHMf05ph0_2016preVFP_AC_Bin0_13TeV'
p212
aS'wsig_13TeV:hggpdfsmrel_ZHbsmM_2016preVFP_AC_Bin0_13TeV'
p213
aS'wsig_13TeV:hggpdfsmrel_ZHsm_2016preVFP_AC_Bin0_13TeV'
p214
aS'multipdf:CMS_hgg_AC_Bin0_2016preVFP_13TeV_bkgshape'
p215
aS'multipdf:roohist_data_mass_AC_Bin0'
p216
aF0.013264877762821925
aF0.02221794421393497
aF0.013189626125495124
aF9.509229482773662e-05
aF0.006142320364574516
aF0.0017752016076428845
aF0.0217603184185009
aF0.0002963100409942854
aF0.000157107575205373
aF0.00016354498768578196
aF0.00013355740520637482
aF0.00013496754399966449
aF0.0004725683204469533
ag147
ag147
aF4.074845260512321e-06
aF4.109255230806185e-06
aF1.096719025807637e-06
aF9.789935947995282e-09
aF2.390970906195715e-07
aF5.614123822944039e-08
aF2.6666691831732438e-05
aF4.555418842993667e-09
aF2.0741319563780546e-09
aF1.6434228508948545e-09
aF1.7837580485459797e-08
aF1.821623793330137e-08
aF3.082746061269622e-08
ag147
ag147
aF0.013894501493144383
aF0.02301167289162406
aF0.013608630634403181
aF9.766445777087541e-05
aF0.0063479128862369534
aF0.001842099797569163
aF0.022651983973020488
aF0.0003021027082545893
aF0.0001601326240237669
aF0.00016866335841273595
aF0.00013765911314312645
aF0.00013825736265981342
aF0.0004848753496939225
ag147
ag147
aF0.013349484106368945
aF0.022358384918972622
aF0.013273484047121163
aF9.568186261801065e-05
aF0.006180840940780919
aF0.001786143201311638
aF0.021896648749831032
aF0.0002982136593713571
aF0.00015806874131005894
aF0.00016459888366164035
aF0.00013434730414808098
aF0.00013588790738363108
aF0.0004755241006987995
ag147
ag147
aF0.013180540933414312
aF0.022077945959004842
aF0.013106034102850344
aF9.450454295979247e-05
aF0.006103920675289083
aF0.0017642937067464631
aF0.021624412554011607
aF0.00029441253523977007
aF0.00015614932701455965
aF0.0001624944756004425
aF0.00013276977908361197
aF0.00013405031211247368
aF0.00046962175433949666
ag147
ag147
aF0.01352970040645752
aF0.022673526792479876
aF0.013438447967016216
aF9.621277853092222e-05
aF0.00626893898577975
aF0.0018197687602337336
aF0.022202148959604127
aF0.00030064661780656514
aF0.00016031426525582885
aF0.00016685779615434933
aF0.00013889674100641775
aF0.00013654276104491564
aF0.00048324394090621753
ag147
ag147
aF0.01300235136589702
aF0.021766576935059106
aF0.012943077239509793
aF9.39784071169829e-05
aF0.006017282092154938
aF0.0017313300970086731
aF0.021322457169548656
aF0.0002920164799175113
aF0.00015392946895374045
aF0.0001602635467919962
aF0.0001282708693698703
aF0.00013340145773974905
aF0.0004620352609325421
ag147
ag147
aF0.013292714514480424
aF0.02226718746911348
aF0.01321804847760509
aF9.533412715930387e-05
aF0.006158123458679124
aF0.0017806153061213814
aF0.021813777663020378
aF0.0002969226207674936
aF0.0001575725684915875
aF0.00016387883335293075
aF0.00013390484291516587
aF0.00013510287410506454
aF0.00047362743491813103
ag147
ag147
aF0.013237071652765081
aF0.02216875189888286
aF0.013161235418612069
aF9.48507295578326e-05
aF0.0061265362354543254
aF0.0017697962571832022
aF0.021706908040357412
aF0.000295698282769564
aF0.00015664322648353352
aF0.00016321147356372818
aF0.0001332102464717501
aF0.00013483227157973135
aF0.00047151021486523223
ag147
ag147
aF0.013295949991297056
aF0.022274932468494622
aF0.01321863409234639
aF9.53246737164462e-05
aF0.006157291204357945
aF0.001779204945147225
aF0.0218132247657861
aF0.0002969270044371463
aF0.00015743097732345352
aF0.00016388802895414675
aF0.0001338267301485947
aF0.00013523906949246844
aF0.00047355188895595
ag147
ag147
aF0.013233841606182895
aF0.022161025863713865
aF0.013160650059350503
aF9.486018422574747e-05
aF0.0061273672030686885
aF0.0017712027215217453
aF0.021707475731402186
aF0.00029569371913348304
aF0.0001567845066754281
aF0.00016320230705627045
aF0.00013328835103319875
aF0.00013469629869341417
aF0.0004715857808522427
ag147
ag147
aF0.013731670488368763
aF0.022840645933229098
aF0.01353064327508946
aF0.00013405306617642054
aF0.0064337352793018
aF0.0019007568503184302
aF0.006416147841264319
aF0.00028985580775042763
aF0.00016441134187061834
aF0.00016354498768578196
aF0.00013355740520637482
aF0.00013496754399966449
aF0.0004753057050947973
ag147
ag147
aF0.012311252491826963
aF0.02175072398881639
aF0.012708944846735903
aF0.0001430653754823652
aF0.005831401085174548
aF0.0016652735298521293
aF0.018545454415061613
aF0.00027155906491316273
aF0.00016061746327977744
aF0.0001653435573416573
aF0.0
aF0.00013496754399966449
aF0.0004630710930086934
ag147
ag147
aF0.013279867322580685
aF0.02312727055209507
aF0.013319570697149175
aF0.0001362729382208272
aF0.0060283134712335595
aF0.0017466525972622549
aF0.006176773399374724
aF0.0002892488887482614
aF0.000154292263005118
aF0.00021420624784695974
aF0.00013355740520637482
aF0.00013496754399966449
aF0.000440238019109529
ag147
ag147
aF0.013351973778981119
aF0.021984875348152855
aF0.012797814323903367
aF-0.00026357410808941495
aF0.006083080430130394
aF0.0017551832572735293
aF0.006756713723689245
aF0.00028842632639225485
aF0.0001569235921579093
aF0.00014530076668961556
aF0.00013355740520637482
aF0.00013496754399966449
aF0.0004797128258360317
ag147
ag147
aF0.013649735943545238
aF0.02275859977635264
aF0.013793884535516554
aF9.509229482773662e-05
aF0.0062423930775139524
aF0.0017752016076428845
aF0.005989816014334792
aF0.00029807740077103517
aF0.00016382848616558476
aF0.00016923491841680516
aF0.00013355740520637482
aF0.00013496754399966449
aF0.0004725683204469533
ag147
ag147
aF0.012984274026621279
aF0.02202907845480695
aF0.012959006689698072
aF9.509229482773662e-05
aF0.006089576124054474
aF0.0017658828701314633
aF0.0055622441470859485
aF0.0002855407478818961
aF0.00015248734121087182
aF0.00016354498768578196
aF0.00013355740520637482
aF0.00013496754399966449
aF0.0004725683204469533
ag147
ag147
aF0.01606575268601773
aF0.02359195109670509
aF0.0135754578277556
aF9.731938678214647e-05
aF0.006179100374424706
aF0.0017305688489841486
aF0.02032090889963456
aF0.00031482198630783387
aF0.00017856483236755594
aF0.00017997899158217479
aF0.00013355740520637482
aF0.0
aF0.0004959433344993158
ag147
ag147
aF0.012020696559602584
aF0.02024836647660777
aF0.011699029850205989
aF0.00013070732552478148
aF0.005889058608886444
aF0.0018675153550020696
aF0.007413822291937322
aF0.0002648591096203745
aF0.00018364293964623357
aF0.00013348381639843865
aF0.00013355740520637482
aF0.00013496754399966449
aF0.000451020733862606
ag147
ag147
aF0.013467317194681527
aF0.024440105982193927
aF0.01293070805240859
aF8.594816290496965e-05
aF0.006149549692167966
aF0.001783315758302706
aF0.005645256037496438
aF0.0003063374970224686
aF0.0001716839322511987
aF0.0001640258607267242
aF0.00013355740520637482
aF0.0
aF0.00048094120461428247
ag147
ag147
aF0.012961939142314804
aF0.022051808480000545
aF0.013114604683778452
aF0.0001094294226504644
aF0.0059396666071052096
aF0.001786572373589479
aF0.006559144178368115
aF0.00029134678425180027
aF0.00016053979061325663
aF0.00016281930209061102
aF0.00013355740520637482
aF0.00013496754399966449
aF0.0004754592830522597
ag147
ag147
aF0.013264877762821925
aF0.02221794421393497
aF0.013189626125495124
aF9.509229482773662e-05
aF0.006142320364574516
aF0.0017752016076428845
aF0.0217603184185009
aF0.0002963100409942854
aF0.000157107575205373
aF0.00016354498768578196
aF0.00013355740520637482
aF0.00013496754399966449
aF0.0004725683204469533
ag147
ag147
aF0.013264877762821925
aF0.02221794421393497
aF0.013189626125495124
aF9.509229482773662e-05
aF0.006142320364574516
aF0.0017752016076428845
aF0.0217603184185009
aF0.0002963100409942854
aF0.000157107575205373
aF0.00016354498768578196
aF0.00013355740520637482
aF0.00013496754399966449
aF0.0004725683204469533
ag147
ag147
atp217
ba(lp218
g15
(g16
(dp219
g18
g19
(g20
(I0
tp220
g22
tp221
Rp222
(I1
(I1
tp223
g29
I00
(lp224
g43
atp225
bsg68
Nstp226
Rp227
ag15
(g16
(dp228
g18
g19
(g20
(I0
tp229
g22
tp230
Rp231
(I1
(I33
tp232
g29
I00
(lp233
g33
ag34
ag35
ag36
ag37
ag38
ag39
ag40
ag41
ag42
ag44
ag45
ag46
ag47
ag48
ag49
ag50
ag51
ag52
ag53
ag54
ag55
ag56
ag57
ag58
ag59
ag60
ag61
ag62
ag63
ag64
ag65
ag66
atp234
bsg68
Nstp235
Rp236
a(dp237
S'0.14.1'
p238
(dp239
S'axes'
p240
g14
sS'blocks'
p241
(lp242
(dp243
S'mgr_locs'
p244
c__builtin__
slice
p245
(I10
I11
I1
tp246
Rp247
sS'values'
p248
g89
sa(dp249
g244
g19
(g20
(I0
tp250
g22
tp251
Rp252
(I1
(I33
tp253
g79
I00
S'\x00\x00\x00\x00\x00\x00\x00\x00\x01\x00\x00\x00\x00\x00\x00\x00\x02\x00\x00\x00\x00\x00\x00\x00\x03\x00\x00\x00\x00\x00\x00\x00\x04\x00\x00\x00\x00\x00\x00\x00\x05\x00\x00\x00\x00\x00\x00\x00\x06\x00\x00\x00\x00\x00\x00\x00\x07\x00\x00\x00\x00\x00\x00\x00\x08\x00\x00\x00\x00\x00\x00\x00\t\x00\x00\x00\x00\x00\x00\x00\x0b\x00\x00\x00\x00\x00\x00\x00\x0c\x00\x00\x00\x00\x00\x00\x00\r\x00\x00\x00\x00\x00\x00\x00\x0e\x00\x00\x00\x00\x00\x00\x00\x0f\x00\x00\x00\x00\x00\x00\x00\x10\x00\x00\x00\x00\x00\x00\x00\x11\x00\x00\x00\x00\x00\x00\x00\x12\x00\x00\x00\x00\x00\x00\x00\x13\x00\x00\x00\x00\x00\x00\x00\x14\x00\x00\x00\x00\x00\x00\x00\x15\x00\x00\x00\x00\x00\x00\x00\x16\x00\x00\x00\x00\x00\x00\x00\x17\x00\x00\x00\x00\x00\x00\x00\x18\x00\x00\x00\x00\x00\x00\x00\x19\x00\x00\x00\x00\x00\x00\x00\x1a\x00\x00\x00\x00\x00\x00\x00\x1b\x00\x00\x00\x00\x00\x00\x00\x1c\x00\x00\x00\x00\x00\x00\x00\x1d\x00\x00\x00\x00\x00\x00\x00\x1e\x00\x00\x00\x00\x00\x00\x00\x1f\x00\x00\x00\x00\x00\x00\x00 \x00\x00\x00\x00\x00\x00\x00!\x00\x00\x00\x00\x00\x00\x00'
p254
tp255
bsg248
g100
sasstp256
bsb.