ccopy_reg
_reconstructor
p0
(cpandas.core.frame
DataFrame
p1
c__builtin__
object
p2
Ntp3
Rp4
(dp5
S'_metadata'
p6
(lp7
sS'_typ'
p8
S'dataframe'
p9
sS'_data'
p10
g0
(cpandas.core.internals
BlockManager
p11
g2
Ntp12
Rp13
((lp14
cpandas.core.indexes.base
_new_Index
p15
(cpandas.core.indexes.base
Index
p16
(dp17
S'data'
p18
cnumpy.core.multiarray
_reconstruct
p19
(cnumpy
ndarray
p20
(I0
tp21
S'b'
p22
tp23
Rp24
(I1
(I34
tp25
cnumpy
dtype
p26
(S'O8'
p27
I0
I1
tp28
Rp29
(I3
S'|'
p30
NNNI-1
I-1
I63
tp31
bI00
(lp32
S'year'
p33
aS'type'
p34
aS'procOriginal'
p35
aS'proc'
p36
aS'proc_s0'
p37
aS'cat'
p38
aS'inputWSFile'
p39
aS'nominalDataName'
p40
aS'modelWSFile'
p41
aS'model'
p42
aS'rate'
p43
aS'nominal_yield'
p44
aS'sumw2'
p45
aS'nominal_yield_COWCorr'
p46
aS'LooseMvaSF_up_yield'
p47
aS'LooseMvaSF_down_yield'
p48
aS'PreselSF_up_yield'
p49
aS'PreselSF_down_yield'
p50
aS'electronVetoSF_up_yield'
p51
aS'electronVetoSF_down_yield'
p52
aS'TriggerWeight_up_yield'
p53
aS'TriggerWeight_down_yield'
p54
aS'SigmaEOverEShift_up_yield'
p55
aS'SigmaEOverEShift_down_yield'
p56
aS'MvaShift_up_yield'
p57
aS'MvaShift_down_yield'
p58
aS'PUJIDShift_up_yield'
p59
aS'PUJIDShift_down_yield'
p60
aS'JEC_up_yield'
p61
aS'JEC_down_yield'
p62
aS'JER_up_yield'
p63
aS'JER_down_yield'
p64
aS'JetHEM_up_yield'
p65
aS'JetHEM_down_yield'
p66
atp67
bsS'name'
p68
Nstp69
Rp70
ag15
(cpandas.core.indexes.numeric
Int64Index
p71
(dp72
g18
g19
(g20
(I0
tp73
g22
tp74
Rp75
(I1
(I15
tp76
g26
(S'i8'
p77
I0
I1
tp78
Rp79
(I3
S'<'
p80
NNNI-1
I-1
I0
tp81
bI00
S'\x00\x00\x00\x00\x00\x00\x00\x00\x01\x00\x00\x00\x00\x00\x00\x00\x02\x00\x00\x00\x00\x00\x00\x00\x03\x00\x00\x00\x00\x00\x00\x00\x04\x00\x00\x00\x00\x00\x00\x00\x05\x00\x00\x00\x00\x00\x00\x00\x06\x00\x00\x00\x00\x00\x00\x00\x07\x00\x00\x00\x00\x00\x00\x00\x08\x00\x00\x00\x00\x00\x00\x00\t\x00\x00\x00\x00\x00\x00\x00\n\x00\x00\x00\x00\x00\x00\x00\x0b\x00\x00\x00\x00\x00\x00\x00\x0c\x00\x00\x00\x00\x00\x00\x00\r\x00\x00\x00\x00\x00\x00\x00\x0e\x00\x00\x00\x00\x00\x00\x00'
p82
tp83
bsg68
Nstp84
Rp85
a(lp86
g19
(g20
(I0
tp87
g22
tp88
Rp89
(I1
(I1
I15
tp90
g26
(S'f8'
p91
I0
I1
tp92
Rp93
(I3
S'<'
p94
NNNI-1
I-1
I0
tp95
bI00
S'\x00\x00\x00\x00\x00\x10\xd3@\x00\x00\x00\x00\x00\x10\xd3@\x00\x00\x00\x00\x00\x10\xd3@\x00\x00\x00\x00\x00\x10\xd3@\x00\x00\x00\x00\x00\x10\xd3@\x00\x00\x00\x00\x00\x10\xd3@\x00\x00\x00\x00\x00\x10\xd3@\x00\x00\x00\x00\x00\x10\xd3@\x00\x00\x00\x00\x00\x10\xd3@\x00\x00\x00\x00\x00\x10\xd3@\x00\x00\x00\x00\x00\x10\xd3@\x00\x00\x00\x00\x00\x10\xd3@\x00\x00\x00\x00\x00\x10\xd3@\x00\x00\x00\x00\x00\x00\xf0?\x00\x00\x00\x00\x00\x00\xf0\xbf'
p96
tp97
bag19
(g20
(I0
tp98
g22
tp99
Rp100
(I1
(I33
I15
tp101
g29
I00
(lp102
S'2016preVFP'
p103
ag103
ag103
ag103
ag103
ag103
ag103
ag103
ag103
ag103
ag103
ag103
ag103
ag33
ag33
aS'sig'
p104
ag104
ag104
ag104
ag104
ag104
ag104
ag104
ag104
ag104
ag104
ag104
ag104
aS'bkg'
p105
ag18
aS'GG2HMf05ph0'
p106
aS'GG2HbsmM'
p107
aS'GG2Hsm'
p108
aS'TTHsm'
p109
aS'VBFMf05ph0'
p110
aS'VBFbsmM'
p111
aS'VBFsm'
p112
aS'WHMf05ph0'
p113
aS'WHbsmM'
p114
aS'WHsm'
p115
aS'ZHMf05ph0'
p116
aS'ZHbsmM'
p117
aS'ZHsm'
p118
aS'bkg_mass'
p119
aS'data_obs'
p120
aS'GG2HMf05ph0_2016preVFP_hgg'
p121
aS'GG2HbsmM_2016preVFP_hgg'
p122
aS'GG2Hsm_2016preVFP_hgg'
p123
aS'tth0P_2016preVFP_hgg'
p124
aS'vbf0Mf05ph0_2016preVFP_hgg'
p125
aS'vbf0M_2016preVFP_hgg'
p126
aS'vbf0P_2016preVFP_hgg'
p127
aS'wh0Mf05ph0_2016preVFP_hgg'
p128
aS'wh0M_2016preVFP_hgg'
p129
aS'wh0P_2016preVFP_hgg'
p130
aS'zh0Mf05ph0_2016preVFP_hgg'
p131
aS'zh0M_2016preVFP_hgg'
p132
aS'zh0P_2016preVFP_hgg'
p133
ag119
ag120
aS'jjh0Mf05ph0'
p134
aS'jjh0M'
p135
aS'jjh0P'
p136
aS'tth0P'
p137
aS'vbf0Mf05ph0'
p138
aS'vbf0M'
p139
aS'vbf0P'
p140
aS'wh0Mf05ph0'
p141
aS'wh0M'
p142
aS'wh0P'
p143
aS'zh0Mf05ph0'
p144
aS'zh0M'
p145
aS'zh0P'
p146
aS'-'
p147
ag147
aS'AC_Bin11_2016preVFP'
p148
aS'AC_Bin11_2016preVFP'
p149
aS'AC_Bin11_2016preVFP'
p150
aS'AC_Bin11_2016preVFP'
p151
aS'AC_Bin11_2016preVFP'
p152
aS'AC_Bin11_2016preVFP'
p153
aS'AC_Bin11_2016preVFP'
p154
aS'AC_Bin11_2016preVFP'
p155
aS'AC_Bin11_2016preVFP'
p156
aS'AC_Bin11_2016preVFP'
p157
aS'AC_Bin11_2016preVFP'
p158
aS'AC_Bin11_2016preVFP'
p159
aS'AC_Bin11_2016preVFP'
p160
aS'AC_Bin11_2016preVFP'
p161
ag161
aS'Trees/Opt_2016preVFP/2016PreVFP/Trees2WS_2016preVFP/WS/output_GluGluHToGGPlusTwoJets_MM_M125_TuneCP5_13TeV-amcatnlopowheg-minlo-pythia8_GG2HMf05ph0.root'
p162
aS'Trees/Opt_2016preVFP/2016PreVFP/Trees2WS_2016preVFP/WS/output_GluGluHToGGPlusTwoJets_CPodd_M125_TuneCP5_13TeV-amcatnlopowheg-minlo-pythia8_GG2HbsmM.root'
p163
aS'Trees/Opt_2016preVFP/2016PreVFP/Trees2WS_2016preVFP/WS/output_GluGluHToGGPlusTwoJets_SM_M125_TuneCP5_13TeV-amcatnlopowheg-minlo-pythia8_GG2Hsm.root'
p164
aS'Trees/Opt_2016preVFP/2016PreVFP/Trees2WS_2016preVFP/WS/output_ttHJetToGG_M125_TuneCP5_13TeV-amcatnloFXFX-madspin-pythia8_TTHsm.root'
p165
aS'Trees/Opt_2016preVFP/2016PreVFP/Trees2WS_2016preVFP/WS/output_VBFHiggs0Mf05ph0ToGG_M125_TuneCP5_13TeV-JHUGenV7011-pythia8_VBFMf05ph0.root'
p166
aS'Trees/Opt_2016preVFP/2016PreVFP/Trees2WS_2016preVFP/WS/output_VBFHiggs0MToGG_M125_TuneCP5_13TeV-JHUGenV7011-pythia8_VBFbsmM.root'
p167
aS'Trees/Opt_2016preVFP/2016PreVFP/Trees2WS_2016preVFP/WS/output_VBFHToGG_M125_TuneCP5_13TeV-amcatnlo-pythia8_VBFsm.root'
p168
aS'Trees/Opt_2016preVFP/2016PreVFP/Trees2WS_2016preVFP/WS/output_WHiggs0Mf05ph0ToGG_M125_TuneCP5_13TeV-JHUGenV7011-pythia8_WHMf05ph0.root'
p169
aS'Trees/Opt_2016preVFP/2016PreVFP/Trees2WS_2016preVFP/WS/output_WHiggs0MToGG_M125_TuneCP5_13TeV-JHUGenV7011-pythia8_WHbsmM.root'
p170
aS'Trees/Opt_2016preVFP/2016PreVFP/Trees2WS_2016preVFP/WS/output_WHiggs0PMToGG_M125_TuneCP5_13TeV-JHUGenV7011-pythia8_WHsm.root'
p171
aS'Trees/Opt_2016preVFP/2016PreVFP/Trees2WS_2016preVFP/WS/output_ZHiggs0Mf05ph0ToGG_M125_TuneCP5_13TeV-JHUGenV7011-pythia8_ZHMf05ph0.root'
p172
aS'Trees/Opt_2016preVFP/2016PreVFP/Trees2WS_2016preVFP/WS/output_ZHiggs0MToGG_M125_TuneCP5_13TeV-JHUGenV7011-pythia8_ZHbsmM.root'
p173
aS'Trees/Opt_2016preVFP/2016PreVFP/Trees2WS_2016preVFP/WS/output_ZH_HToGG_ZToAll_M125_TuneCP5_13TeV-powheg-pythia8_ZHsm.root'
p174
ag147
ag147
aS'jjh0Mf05ph0_125_13TeV_AC_Bin11'
p175
aS'jjh0M_125_13TeV_AC_Bin11'
p176
aS'jjh0P_125_13TeV_AC_Bin11'
p177
aS'tth0P_125_13TeV_AC_Bin11'
p178
aS'vbf0Mf05ph0_125_13TeV_AC_Bin11'
p179
aS'vbf0M_125_13TeV_AC_Bin11'
p180
aS'vbf0P_125_13TeV_AC_Bin11'
p181
aS'wh0Mf05ph0_125_13TeV_AC_Bin11'
p182
aS'wh0M_125_13TeV_AC_Bin11'
p183
aS'wh0P_125_13TeV_AC_Bin11'
p184
aS'zh0Mf05ph0_125_13TeV_AC_Bin11'
p185
aS'zh0M_125_13TeV_AC_Bin11'
p186
aS'zh0P_125_13TeV_AC_Bin11'
p187
ag147
ag147
aS'./Models/signal/CMS-HGG_sigfit_packaged_AC_Bin11_2016preVFP.root'
p188
aS'./Models/signal/CMS-HGG_sigfit_packaged_AC_Bin11_2016preVFP.root'
p189
aS'./Models/signal/CMS-HGG_sigfit_packaged_AC_Bin11_2016preVFP.root'
p190
aS'./Models/signal/CMS-HGG_sigfit_packaged_AC_Bin11_2016preVFP.root'
p191
aS'./Models/signal/CMS-HGG_sigfit_packaged_AC_Bin11_2016preVFP.root'
p192
aS'./Models/signal/CMS-HGG_sigfit_packaged_AC_Bin11_2016preVFP.root'
p193
aS'./Models/signal/CMS-HGG_sigfit_packaged_AC_Bin11_2016preVFP.root'
p194
aS'./Models/signal/CMS-HGG_sigfit_packaged_AC_Bin11_2016preVFP.root'
p195
aS'./Models/signal/CMS-HGG_sigfit_packaged_AC_Bin11_2016preVFP.root'
p196
aS'./Models/signal/CMS-HGG_sigfit_packaged_AC_Bin11_2016preVFP.root'
p197
aS'./Models/signal/CMS-HGG_sigfit_packaged_AC_Bin11_2016preVFP.root'
p198
aS'./Models/signal/CMS-HGG_sigfit_packaged_AC_Bin11_2016preVFP.root'
p199
aS'./Models/signal/CMS-HGG_sigfit_packaged_AC_Bin11_2016preVFP.root'
p200
aS'./Models/background/CMS-HGG_multipdf_AC_Bin11_2016preVFP.root'
p201
ag201
aS'wsig_13TeV:hggpdfsmrel_GG2HMf05ph0_2016preVFP_AC_Bin11_13TeV'
p202
aS'wsig_13TeV:hggpdfsmrel_GG2HbsmM_2016preVFP_AC_Bin11_13TeV'
p203
aS'wsig_13TeV:hggpdfsmrel_GG2Hsm_2016preVFP_AC_Bin11_13TeV'
p204
aS'wsig_13TeV:hggpdfsmrel_TTHsm_2016preVFP_AC_Bin11_13TeV'
p205
aS'wsig_13TeV:hggpdfsmrel_VBFMf05ph0_2016preVFP_AC_Bin11_13TeV'
p206
aS'wsig_13TeV:hggpdfsmrel_VBFbsmM_2016preVFP_AC_Bin11_13TeV'
p207
aS'wsig_13TeV:hggpdfsmrel_VBFsm_2016preVFP_AC_Bin11_13TeV'
p208
aS'wsig_13TeV:hggpdfsmrel_WHMf05ph0_2016preVFP_AC_Bin11_13TeV'
p209
aS'wsig_13TeV:hggpdfsmrel_WHbsmM_2016preVFP_AC_Bin11_13TeV'
p210
aS'wsig_13TeV:hggpdfsmrel_WHsm_2016preVFP_AC_Bin11_13TeV'
p211
aS'wsig_13TeV:hggpdfsmrel_ZHMf05ph0_2016preVFP_AC_Bin11_13TeV'
p212
aS'wsig_13TeV:hggpdfsmrel_ZHbsmM_2016preVFP_AC_Bin11_13TeV'
p213
aS'wsig_13TeV:hggpdfsmrel_ZHsm_2016preVFP_AC_Bin11_13TeV'
p214
aS'multipdf:CMS_hgg_AC_Bin11_2016preVFP_13TeV_bkgshape'
p215
aS'multipdf:roohist_data_mass_AC_Bin11'
p216
aF0.05900017150224812
aF0.07378466620139079
aF0.06348384252987671
aF0.007397812567205619
aF0.08683970948811748
aF0.08453538521894188
aF0.033799167457914336
aF0.0030576853333741383
aF0.0028232701062052
aF0.0008799643422889858
aF0.0018012470864050556
aF0.0007474749872926623
aF0.002236837888858645
ag147
ag147
aF7.630471165905206e-06
aF8.263797050217326e-06
aF8.040382016915291e-05
aF1.2648768642265615e-06
aF1.2221170729976267e-05
aF1.5774809416288204e-05
aF1.8856047763976195e-05
aF1.028453613380008e-06
aF5.7114756970026374e-08
aF1.902252650390431e-08
aF6.88951652012543e-07
aF1.235238824134572e-07
aF7.303848124793259e-08
ag147
ag147
aF0.06031520945503804
aF0.07550791698527982
aF0.06497432440154373
aF0.007578682003458663
aF0.08866143028914278
aF0.08632892397802155
aF0.03450100282607451
aF0.003128158652624603
aF0.0028801280226153085
aF0.0008977552410871273
aF0.0018412630071424998
aF0.0007648006741966928
aF0.0022820364343803896
ag147
ag147
aF0.059387628616083446
aF0.07427014284991608
aF0.06390408255129122
aF0.007447061423376366
aF0.08741187414201103
aF0.08509399102549448
aF0.034021029548190154
aF0.003078107815989682
aF0.0028418568427615192
aF0.0008857353189828768
aF0.0018133296200277098
aF0.0007523732693661586
aF0.0022514351735333613
ag147
ag147
aF0.058613984451524215
aF0.0733007841147983
aF0.06306499053585637
aF0.007348727134487119
aF0.08626942793613948
aF0.08397862121884497
aF0.03357803182512281
aF0.0030373309289169564
aF0.0028047444443406867
aF0.0008742122523736721
aF0.0017892049575979336
aF0.0007425927057432874
aF0.002222288109981909
ag147
ag147
aF0.05989696291484068
aF0.07490564520406728
aF0.0644128399835298
aF0.00749378632802524
aF0.08812298236579548
aF0.0857798649271993
aF0.034280407729277616
aF0.003099206178684709
aF0.002863760749896505
aF0.0008930671784049001
aF0.0018271256318603494
aF0.0007608198546187468
aF0.0022721947301612977
ag147
ag147
aF0.0581101357240818
aF0.07267253933615585
aF0.06256145950313406
aF0.007302479172151576
aF0.08556538324242975
aF0.08329967329161186
aF0.033321260807418165
aF0.003016445727626704
aF0.002783059864914532
aF0.0008669523514247347
aF0.0017755469182588017
aF0.0007342341823368075
aF0.002201743734670499
ag147
ag147
aF0.05909365433393037
aF0.07390389253628647
aF0.06358085134104734
aF0.00740769628656669
aF0.08697371215839994
aF0.08466375793912395
aF0.033862559368698475
aF0.0030616983223798124
aF0.0028277393240601317
aF0.0008813442677330069
aF0.0018034236335617787
aF0.0007485943426678473
aF0.0022407403781143356
ag147
ag147
aF0.05890676702975372
aF0.07366554520969876
aF0.06338691061686344
aF0.007387934544410269
aF0.08670582380197732
aF0.08440711029664648
aF0.03373583297621043
aF0.003053674820154408
aF0.0028188045366865115
aF0.0008785854929692279
aF0.0017990717413470547
aF0.000746356327919643
aF0.0022329388013616804
ag147
ag147
aF0.05913200211963102
aF0.07394470253742386
aF0.06361754082660172
aF0.0074148184101516
aF0.0870197266021609
aF0.08470992863963175
aF0.03386970430789945
aF0.0030644417522640785
aF0.0028290515257755307
aF0.000881739735474071
aF0.001804867346786461
aF0.0007489783673080685
aF0.0022413820242422897
ag147
ag147
aF0.05886848679724748
aF0.07362480322872214
aF0.06335028515530693
aF0.0073808261513118555
aF0.08665988178014836
aF0.08436102882544182
aF0.03372870466055206
aF0.0030509364350929102
aF0.0028174947124531688
aF0.0008781907661469586
aF0.001797630605713913
aF0.0007459731625383499
aF0.0022322983951110855
ag147
ag147
aF0.057906237159386365
aF0.07275880530437462
aF0.06297916678545334
aF0.007131666442887763
aF0.0862886324413239
aF0.08414942340652942
aF0.03275624936179611
aF0.0030456490586630025
aF0.0028057643577312774
aF0.0008859558568019565
aF0.0018012470864050556
aF0.0007474749872926623
aF0.0022524246276134363
ag147
ag147
aF0.05948457197564494
aF0.07590223204215363
aF0.0641209348477787
aF0.007694193541738059
aF0.08733459918005337
aF0.08485579756461448
aF0.032356348624261955
aF0.003065495522719175
aF0.0028388526964135963
aF0.0009496033720779451
aF0.0018012470864050556
aF0.0007474749872926623
aF0.002260880165749768
ag147
ag147
aF0.0597984533728777
aF0.07541611580336394
aF0.06451727165767807
aF0.007621473807716939
aF0.08773903616804546
aF0.08559295884060703
aF0.03208448406098796
aF0.003131498887455564
aF0.0028622554488038077
aF0.0009119774639430034
aF0.0018619511138240341
aF0.0007474749872926623
aF0.002281443601305
ag147
ag147
aF0.058054392537314925
aF0.07284838291525375
aF0.06234320508497149
aF0.007416710926236192
aF0.08506870583289583
aF0.0823292981732493
aF0.029124291702146365
aF0.0030259520103754767
aF0.0027911742744208823
aF0.0008782119343777595
aF0.0018012470864050556
aF0.0007474749872926623
aF0.0022395160115138424
ag147
ag147
aF0.05927977583564825
aF0.07421265814991784
aF0.0636211563555662
aF0.007397812567205619
aF0.08696911034655841
aF0.08467020528917146
aF0.034303755772839395
aF0.0030718220035623744
aF0.0028863049675464936
aF0.0008832407476120352
aF0.0019359720645297784
aF0.0007474749872926623
aF0.00225986545797241
ag147
ag147
aF0.058834829791749144
aF0.07318338937056978
aF0.0631552474376349
aF0.007397812567205619
aF0.0867256422355922
aF0.0844010798580257
aF0.032804807710704154
aF0.0030246415393548887
aF0.0027191267232637983
aF0.0008733752644047854
aF0.0018012470864050556
aF0.0007474749872926623
aF0.002236837888858645
ag147
ag147
aF0.06061653821939217
aF0.07683353520383207
aF0.06485183041445453
aF0.007510452493079356
aF0.08758561973979795
aF0.0852268616974925
aF0.031185180235979715
aF0.003199401332267371
aF0.00293742066185132
aF0.006321097706745604
aF0.0018702494962781202
aF0.0007474749872926623
aF0.0022864574948471272
ag147
ag147
aF0.05632383395004581
aF0.07491391265807579
aF0.06327240822679414
aF0.007163457084288893
aF0.08652055948539328
aF0.08410268171314783
aF0.032028735047560986
aF0.0029978131792631757
aF0.0026272341291360135
aF0.0008037379145662271
aF0.0016664893373672385
aF0.0007474749872926623
aF0.0021531895874886686
ag147
ag147
aF0.0593326451332814
aF0.07405944487027227
aF0.06321277792403635
aF0.00751695285759979
aF0.08675144145070135
aF0.08450776133258842
aF0.031941471594223
aF0.0032688133095462035
aF0.002864816684905236
aF0.000841904871663246
aF0.0018702494962781202
aF0.0007474749872926623
aF0.00225311249596416
ag147
ag147
aF0.058877165868807424
aF0.07354104579053455
aF0.06312882473412174
aF0.0074682308368210215
aF0.08715132410100068
aF0.0845551225500003
aF0.033826067150243944
aF0.0031112736786553796
aF0.002750118967810522
aF0.0062841568337717035
aF0.0018012470864050556
aF0.0007474749872926623
aF0.0031802007431451784
ag147
ag147
aF0.05900017150224812
aF0.07378466620139079
aF0.06348384252987671
aF0.007397812567205619
aF0.08683970948811748
aF0.08453538521894188
aF0.033799167457914336
aF0.0030576853333741383
aF0.0028232701062052
aF0.0008799643422889858
aF0.0018012470864050556
aF0.0007474749872926623
aF0.002236837888858645
ag147
ag147
aF0.05900017150224812
aF0.07378466620139079
aF0.06348384252987671
aF0.007397812567205619
aF0.08683970948811748
aF0.08453538521894188
aF0.033799167457914336
aF0.0030576853333741383
aF0.0028232701062052
aF0.0008799643422889858
aF0.0018012470864050556
aF0.0007474749872926623
aF0.002236837888858645
ag147
ag147
atp217
ba(lp218
g15
(g16
(dp219
g18
g19
(g20
(I0
tp220
g22
tp221
Rp222
(I1
(I1
tp223
g29
I00
(lp224
g43
atp225
bsg68
Nstp226
Rp227
ag15
(g16
(dp228
g18
g19
(g20
(I0
tp229
g22
tp230
Rp231
(I1
(I33
tp232
g29
I00
(lp233
g33
ag34
ag35
ag36
ag37
ag38
ag39
ag40
ag41
ag42
ag44
ag45
ag46
ag47
ag48
ag49
ag50
ag51
ag52
ag53
ag54
ag55
ag56
ag57
ag58
ag59
ag60
ag61
ag62
ag63
ag64
ag65
ag66
atp234
bsg68
Nstp235
Rp236
a(dp237
S'0.14.1'
p238
(dp239
S'axes'
p240
g14
sS'blocks'
p241
(lp242
(dp243
S'mgr_locs'
p244
c__builtin__
slice
p245
(I10
I11
I1
tp246
Rp247
sS'values'
p248
g89
sa(dp249
g244
g19
(g20
(I0
tp250
g22
tp251
Rp252
(I1
(I33
tp253
g79
I00
S'\x00\x00\x00\x00\x00\x00\x00\x00\x01\x00\x00\x00\x00\x00\x00\x00\x02\x00\x00\x00\x00\x00\x00\x00\x03\x00\x00\x00\x00\x00\x00\x00\x04\x00\x00\x00\x00\x00\x00\x00\x05\x00\x00\x00\x00\x00\x00\x00\x06\x00\x00\x00\x00\x00\x00\x00\x07\x00\x00\x00\x00\x00\x00\x00\x08\x00\x00\x00\x00\x00\x00\x00\t\x00\x00\x00\x00\x00\x00\x00\x0b\x00\x00\x00\x00\x00\x00\x00\x0c\x00\x00\x00\x00\x00\x00\x00\r\x00\x00\x00\x00\x00\x00\x00\x0e\x00\x00\x00\x00\x00\x00\x00\x0f\x00\x00\x00\x00\x00\x00\x00\x10\x00\x00\x00\x00\x00\x00\x00\x11\x00\x00\x00\x00\x00\x00\x00\x12\x00\x00\x00\x00\x00\x00\x00\x13\x00\x00\x00\x00\x00\x00\x00\x14\x00\x00\x00\x00\x00\x00\x00\x15\x00\x00\x00\x00\x00\x00\x00\x16\x00\x00\x00\x00\x00\x00\x00\x17\x00\x00\x00\x00\x00\x00\x00\x18\x00\x00\x00\x00\x00\x00\x00\x19\x00\x00\x00\x00\x00\x00\x00\x1a\x00\x00\x00\x00\x00\x00\x00\x1b\x00\x00\x00\x00\x00\x00\x00\x1c\x00\x00\x00\x00\x00\x00\x00\x1d\x00\x00\x00\x00\x00\x00\x00\x1e\x00\x00\x00\x00\x00\x00\x00\x1f\x00\x00\x00\x00\x00\x00\x00 \x00\x00\x00\x00\x00\x00\x00!\x00\x00\x00\x00\x00\x00\x00'
p254
tp255
bsg248
g100
sasstp256
bsb.