ccopy_reg
_reconstructor
p0
(cpandas.core.frame
DataFrame
p1
c__builtin__
object
p2
Ntp3
Rp4
(dp5
S'_metadata'
p6
(lp7
sS'_typ'
p8
S'dataframe'
p9
sS'_data'
p10
g0
(cpandas.core.internals
BlockManager
p11
g2
Ntp12
Rp13
((lp14
cpandas.core.indexes.base
_new_Index
p15
(cpandas.core.indexes.base
Index
p16
(dp17
S'data'
p18
cnumpy.core.multiarray
_reconstruct
p19
(cnumpy
ndarray
p20
(I0
tp21
S'b'
p22
tp23
Rp24
(I1
(I32
tp25
cnumpy
dtype
p26
(S'O8'
p27
I0
I1
tp28
Rp29
(I3
S'|'
p30
NNNI-1
I-1
I63
tp31
bI00
(lp32
S'year'
p33
aS'type'
p34
aS'procOriginal'
p35
aS'proc'
p36
aS'proc_s0'
p37
aS'cat'
p38
aS'inputWSFile'
p39
aS'nominalDataName'
p40
aS'modelWSFile'
p41
aS'model'
p42
aS'rate'
p43
aS'nominal_yield'
p44
aS'sumw2'
p45
aS'nominal_yield_COWCorr'
p46
aS'LooseMvaSF_up_yield'
p47
aS'LooseMvaSF_down_yield'
p48
aS'PreselSF_up_yield'
p49
aS'PreselSF_down_yield'
p50
aS'electronVetoSF_up_yield'
p51
aS'electronVetoSF_down_yield'
p52
aS'TriggerWeight_up_yield'
p53
aS'TriggerWeight_down_yield'
p54
aS'SigmaEOverEShift_up_yield'
p55
aS'SigmaEOverEShift_down_yield'
p56
aS'MvaShift_up_yield'
p57
aS'MvaShift_down_yield'
p58
aS'PUJIDShift_up_yield'
p59
aS'PUJIDShift_down_yield'
p60
aS'JEC_up_yield'
p61
aS'JEC_down_yield'
p62
aS'JER_up_yield'
p63
aS'JER_down_yield'
p64
atp65
bsS'name'
p66
Nstp67
Rp68
ag15
(cpandas.core.indexes.numeric
Int64Index
p69
(dp70
g18
g19
(g20
(I0
tp71
g22
tp72
Rp73
(I1
(I15
tp74
g26
(S'i8'
p75
I0
I1
tp76
Rp77
(I3
S'<'
p78
NNNI-1
I-1
I0
tp79
bI00
S'\x00\x00\x00\x00\x00\x00\x00\x00\x01\x00\x00\x00\x00\x00\x00\x00\x02\x00\x00\x00\x00\x00\x00\x00\x03\x00\x00\x00\x00\x00\x00\x00\x04\x00\x00\x00\x00\x00\x00\x00\x05\x00\x00\x00\x00\x00\x00\x00\x06\x00\x00\x00\x00\x00\x00\x00\x07\x00\x00\x00\x00\x00\x00\x00\x08\x00\x00\x00\x00\x00\x00\x00\t\x00\x00\x00\x00\x00\x00\x00\n\x00\x00\x00\x00\x00\x00\x00\x0b\x00\x00\x00\x00\x00\x00\x00\x0c\x00\x00\x00\x00\x00\x00\x00\r\x00\x00\x00\x00\x00\x00\x00\x0e\x00\x00\x00\x00\x00\x00\x00'
p80
tp81
bsg66
Nstp82
Rp83
a(lp84
g19
(g20
(I0
tp85
g22
tp86
Rp87
(I1
(I1
I15
tp88
g26
(S'f8'
p89
I0
I1
tp90
Rp91
(I3
S'<'
p92
NNNI-1
I-1
I0
tp93
bI00
S'\x00\x00\x00\x00\x00\x10\xd3@\x00\x00\x00\x00\x00\x10\xd3@\x00\x00\x00\x00\x00\x10\xd3@\x00\x00\x00\x00\x00\x10\xd3@\x00\x00\x00\x00\x00\x10\xd3@\x00\x00\x00\x00\x00\x10\xd3@\x00\x00\x00\x00\x00\x10\xd3@\x00\x00\x00\x00\x00\x10\xd3@\x00\x00\x00\x00\x00\x10\xd3@\x00\x00\x00\x00\x00\x10\xd3@\x00\x00\x00\x00\x00\x10\xd3@\x00\x00\x00\x00\x00\x10\xd3@\x00\x00\x00\x00\x00\x10\xd3@\x00\x00\x00\x00\x00\x00\xf0?\x00\x00\x00\x00\x00\x00\xf0\xbf'
p94
tp95
bag19
(g20
(I0
tp96
g22
tp97
Rp98
(I1
(I31
I15
tp99
g29
I00
(lp100
S'2016preVFP'
p101
ag101
ag101
ag101
ag101
ag101
ag101
ag101
ag101
ag101
ag101
ag101
ag101
ag33
ag33
aS'sig'
p102
ag102
ag102
ag102
ag102
ag102
ag102
ag102
ag102
ag102
ag102
ag102
ag102
aS'bkg'
p103
ag18
aS'GG2HMf05ph0'
p104
aS'GG2HbsmM'
p105
aS'GG2Hsm'
p106
aS'TTHsm'
p107
aS'VBFMf05ph0'
p108
aS'VBFbsmM'
p109
aS'VBFsm'
p110
aS'WHMf05ph0'
p111
aS'WHbsmM'
p112
aS'WHsm'
p113
aS'ZHMf05ph0'
p114
aS'ZHbsmM'
p115
aS'ZHsm'
p116
aS'bkg_mass'
p117
aS'data_obs'
p118
aS'GG2HMf05ph0_2016preVFP_hgg'
p119
aS'GG2HbsmM_2016preVFP_hgg'
p120
aS'GG2Hsm_2016preVFP_hgg'
p121
aS'tth0P_2016preVFP_hgg'
p122
aS'vbf0Mf05ph0_2016preVFP_hgg'
p123
aS'vbf0M_2016preVFP_hgg'
p124
aS'vbf0P_2016preVFP_hgg'
p125
aS'wh0Mf05ph0_2016preVFP_hgg'
p126
aS'wh0M_2016preVFP_hgg'
p127
aS'wh0P_2016preVFP_hgg'
p128
aS'zh0Mf05ph0_2016preVFP_hgg'
p129
aS'zh0M_2016preVFP_hgg'
p130
aS'zh0P_2016preVFP_hgg'
p131
ag117
ag118
aS'jjh0Mf05ph0'
p132
aS'jjh0M'
p133
aS'jjh0P'
p134
aS'tth0P'
p135
aS'vbf0Mf05ph0'
p136
aS'vbf0M'
p137
aS'vbf0P'
p138
aS'wh0Mf05ph0'
p139
aS'wh0M'
p140
aS'wh0P'
p141
aS'zh0Mf05ph0'
p142
aS'zh0M'
p143
aS'zh0P'
p144
aS'-'
p145
ag145
aS'AC_Bin7_2016preVFP'
p146
aS'AC_Bin7_2016preVFP'
p147
aS'AC_Bin7_2016preVFP'
p148
aS'AC_Bin7_2016preVFP'
p149
aS'AC_Bin7_2016preVFP'
p150
aS'AC_Bin7_2016preVFP'
p151
aS'AC_Bin7_2016preVFP'
p152
aS'AC_Bin7_2016preVFP'
p153
aS'AC_Bin7_2016preVFP'
p154
aS'AC_Bin7_2016preVFP'
p155
aS'AC_Bin7_2016preVFP'
p156
aS'AC_Bin7_2016preVFP'
p157
aS'AC_Bin7_2016preVFP'
p158
aS'AC_Bin7_2016preVFP'
p159
ag159
aS'Trees/Opt_2016preVFP/2016PreVFP/Trees2WS_2016preVFP/WS/output_GluGluHToGGPlusTwoJets_MM_M125_TuneCP5_13TeV-amcatnlopowheg-minlo-pythia8_GG2HMf05ph0.root'
p160
aS'Trees/Opt_2016preVFP/2016PreVFP/Trees2WS_2016preVFP/WS/output_GluGluHToGGPlusTwoJets_CPodd_M125_TuneCP5_13TeV-amcatnlopowheg-minlo-pythia8_GG2HbsmM.root'
p161
aS'Trees/Opt_2016preVFP/2016PreVFP/Trees2WS_2016preVFP/WS/output_GluGluHToGGPlusTwoJets_SM_M125_TuneCP5_13TeV-amcatnlopowheg-minlo-pythia8_GG2Hsm.root'
p162
aS'Trees/Opt_2016preVFP/2016PreVFP/Trees2WS_2016preVFP/WS/output_ttHJetToGG_M125_TuneCP5_13TeV-amcatnloFXFX-madspin-pythia8_TTHsm.root'
p163
aS'Trees/Opt_2016preVFP/2016PreVFP/Trees2WS_2016preVFP/WS/output_VBFHiggs0Mf05ph0ToGG_M125_TuneCP5_13TeV-JHUGenV7011-pythia8_VBFMf05ph0.root'
p164
aS'Trees/Opt_2016preVFP/2016PreVFP/Trees2WS_2016preVFP/WS/output_VBFHiggs0MToGG_M125_TuneCP5_13TeV-JHUGenV7011-pythia8_VBFbsmM.root'
p165
aS'Trees/Opt_2016preVFP/2016PreVFP/Trees2WS_2016preVFP/WS/output_VBFHToGG_M125_TuneCP5_13TeV-amcatnlo-pythia8_VBFsm.root'
p166
aS'Trees/Opt_2016preVFP/2016PreVFP/Trees2WS_2016preVFP/WS/output_WHiggs0Mf05ph0ToGG_M125_TuneCP5_13TeV-JHUGenV7011-pythia8_WHMf05ph0.root'
p167
aS'Trees/Opt_2016preVFP/2016PreVFP/Trees2WS_2016preVFP/WS/output_WHiggs0MToGG_M125_TuneCP5_13TeV-JHUGenV7011-pythia8_WHbsmM.root'
p168
aS'Trees/Opt_2016preVFP/2016PreVFP/Trees2WS_2016preVFP/WS/output_WHiggs0PMToGG_M125_TuneCP5_13TeV-JHUGenV7011-pythia8_WHsm.root'
p169
aS'Trees/Opt_2016preVFP/2016PreVFP/Trees2WS_2016preVFP/WS/output_ZHiggs0Mf05ph0ToGG_M125_TuneCP5_13TeV-JHUGenV7011-pythia8_ZHMf05ph0.root'
p170
aS'Trees/Opt_2016preVFP/2016PreVFP/Trees2WS_2016preVFP/WS/output_ZHiggs0MToGG_M125_TuneCP5_13TeV-JHUGenV7011-pythia8_ZHbsmM.root'
p171
aS'Trees/Opt_2016preVFP/2016PreVFP/Trees2WS_2016preVFP/WS/output_ZH_HToGG_ZToAll_M125_TuneCP5_13TeV-powheg-pythia8_ZHsm.root'
p172
ag145
ag145
aS'jjh0Mf05ph0_125_13TeV_AC_Bin7'
p173
aS'jjh0M_125_13TeV_AC_Bin7'
p174
aS'jjh0P_125_13TeV_AC_Bin7'
p175
aS'tth0P_125_13TeV_AC_Bin7'
p176
aS'vbf0Mf05ph0_125_13TeV_AC_Bin7'
p177
aS'vbf0M_125_13TeV_AC_Bin7'
p178
aS'vbf0P_125_13TeV_AC_Bin7'
p179
aS'wh0Mf05ph0_125_13TeV_AC_Bin7'
p180
aS'wh0M_125_13TeV_AC_Bin7'
p181
aS'wh0P_125_13TeV_AC_Bin7'
p182
aS'zh0Mf05ph0_125_13TeV_AC_Bin7'
p183
aS'zh0M_125_13TeV_AC_Bin7'
p184
aS'zh0P_125_13TeV_AC_Bin7'
p185
ag145
ag145
aS'./Models/signal/CMS-HGG_sigfit_packaged_AC_Bin7_2016preVFP.root'
p186
aS'./Models/signal/CMS-HGG_sigfit_packaged_AC_Bin7_2016preVFP.root'
p187
aS'./Models/signal/CMS-HGG_sigfit_packaged_AC_Bin7_2016preVFP.root'
p188
aS'./Models/signal/CMS-HGG_sigfit_packaged_AC_Bin7_2016preVFP.root'
p189
aS'./Models/signal/CMS-HGG_sigfit_packaged_AC_Bin7_2016preVFP.root'
p190
aS'./Models/signal/CMS-HGG_sigfit_packaged_AC_Bin7_2016preVFP.root'
p191
aS'./Models/signal/CMS-HGG_sigfit_packaged_AC_Bin7_2016preVFP.root'
p192
aS'./Models/signal/CMS-HGG_sigfit_packaged_AC_Bin7_2016preVFP.root'
p193
aS'./Models/signal/CMS-HGG_sigfit_packaged_AC_Bin7_2016preVFP.root'
p194
aS'./Models/signal/CMS-HGG_sigfit_packaged_AC_Bin7_2016preVFP.root'
p195
aS'./Models/signal/CMS-HGG_sigfit_packaged_AC_Bin7_2016preVFP.root'
p196
aS'./Models/signal/CMS-HGG_sigfit_packaged_AC_Bin7_2016preVFP.root'
p197
aS'./Models/signal/CMS-HGG_sigfit_packaged_AC_Bin7_2016preVFP.root'
p198
aS'./Models/background/CMS-HGG_multipdf_AC_Bin7_2016preVFP.root'
p199
ag199
aS'wsig_13TeV:hggpdfsmrel_GG2HMf05ph0_2016preVFP_AC_Bin7_13TeV'
p200
aS'wsig_13TeV:hggpdfsmrel_GG2HbsmM_2016preVFP_AC_Bin7_13TeV'
p201
aS'wsig_13TeV:hggpdfsmrel_GG2Hsm_2016preVFP_AC_Bin7_13TeV'
p202
aS'wsig_13TeV:hggpdfsmrel_TTHsm_2016preVFP_AC_Bin7_13TeV'
p203
aS'wsig_13TeV:hggpdfsmrel_VBFMf05ph0_2016preVFP_AC_Bin7_13TeV'
p204
aS'wsig_13TeV:hggpdfsmrel_VBFbsmM_2016preVFP_AC_Bin7_13TeV'
p205
aS'wsig_13TeV:hggpdfsmrel_VBFsm_2016preVFP_AC_Bin7_13TeV'
p206
aS'wsig_13TeV:hggpdfsmrel_WHMf05ph0_2016preVFP_AC_Bin7_13TeV'
p207
aS'wsig_13TeV:hggpdfsmrel_WHbsmM_2016preVFP_AC_Bin7_13TeV'
p208
aS'wsig_13TeV:hggpdfsmrel_WHsm_2016preVFP_AC_Bin7_13TeV'
p209
aS'wsig_13TeV:hggpdfsmrel_ZHMf05ph0_2016preVFP_AC_Bin7_13TeV'
p210
aS'wsig_13TeV:hggpdfsmrel_ZHbsmM_2016preVFP_AC_Bin7_13TeV'
p211
aS'wsig_13TeV:hggpdfsmrel_ZHsm_2016preVFP_AC_Bin7_13TeV'
p212
aS'multipdf:CMS_hgg_AC_Bin7_2016preVFP_13TeV_bkgshape'
p213
aS'multipdf:roohist_data_mass_AC_Bin7'
p214
aF0.616543144305183
aF0.6772821502744364
aF0.6659852718941011
aF0.035451523398421614
aF0.04550494262207394
aF0.0487796619730716
aF0.08530670047764488
aF0.04652437756692507
aF0.051228768210023645
aF0.05356116108907827
aF0.04513316096017661
aF0.0795049695407215
aF0.04242054916278448
ag145
ag145
aF0.00014820541421389755
aF0.00042835397613048435
aF0.0003165634787339461
aF4.03142595586439e-05
aF2.229094468942496e-06
aF1.705924320505653e-05
aF4.0278429949972126e-05
aF4.083191213415507e-06
aF5.617012387841345e-06
aF5.051069407072992e-06
aF3.8417656316531065e-05
aF0.0010629442965681948
aF8.484053977272186e-06
ag145
ag145
aF0.6331072236097788
aF0.6960985129442854
aF0.6842052489640463
aF0.03643570280461725
aF0.04668568178214822
aF0.0500564684094934
aF0.0875394337244434
aF0.04771873935685341
aF0.05249018028239395
aF0.0548285854242444
aF0.046124740258798876
aF0.08119575036837606
aF0.04351454912355625
ag145
ag145
aF0.6205295189388084
aF0.6816613149921279
aF0.6702867773851797
aF0.03568197263641778
aF0.04579799194692712
aF0.049095924936311715
aF0.08586030111148679
aF0.046822540786057715
aF0.05155765094598886
aF0.05390586916309938
aF0.04542251315816667
aF0.08002896174793482
aF0.04269473106266323
ag145
ag145
aF0.6125696363566335
aF0.6729171198155296
aF0.6616976317668797
aF0.03522182166683961
aF0.04521283534716152
aF0.04846442280648619
aF0.08475489338304676
aF0.046227167812771135
aF0.05090093916411753
aF0.0532175603820005
aF0.04484473604453193
aF0.07898270328681828
aF0.04214725169708278
ag145
ag145
aF0.6269006158777364
aF0.6887534996156064
aF0.6773731138892738
aF0.036075619084298016
aF0.04626281178101971
aF0.04955650039338216
aF0.0867521518352225
aF0.047345311018423354
aF0.052067302231471435
aF0.0544508710297346
aF0.0458349712025609
aF0.0806184224205519
aF0.043140411336334956
ag145
ag145
aF0.6062715784480952
aF0.6659082504495941
aF0.6546903569837861
aF0.034832810701130305
aF0.04475317882496567
aF0.048008718367439446
aF0.08387284985561302
aF0.04571043760604094
aF0.050397125123160066
aF0.05267856072780172
aF0.04443609676424627
aF0.0783993531686208
aF0.041706402259608505
ag145
ag145
aF0.617693154954852
aF0.6785419613171176
aF0.6672335522629026
aF0.03551087769531569
aF0.04559422062137264
aF0.04887059396282036
aF0.08546271887391428
aF0.04661915274681568
aF0.05133261878087532
aF0.053665756766558055
aF0.045225276747590665
aF0.07962542041067248
aF0.04249793136860734
ag145
ag145
aF0.6153942424073882
aF0.6760235736393934
aF0.6647382138164044
aF0.03539222131803353
aF0.04541575168975904
aF0.04868881499693118
aF0.08515083273136435
aF0.04642969907540805
aF0.051125025270546014
aF0.05345667194288826
aF0.04504114831995739
aF0.07938461995874718
aF0.04234323747284746
ag145
ag145
aF0.6179010464431891
aF0.6788050965868246
aF0.6674893750920113
aF0.035530186905594875
aF0.04560611768091171
aF0.04888392889325922
aF0.08549090761172021
aF0.04662770465745382
aF0.05134287821890186
aF0.05367721735968113
aF0.0452280958109203
aF0.07966787850959517
aF0.0425149137449381
ag145
ag145
aF0.6151867554172291
aF0.6757609228766662
aF0.6644828725821394
aF0.03537294877705906
aF0.045403880517290864
aF0.04867550747348394
aF0.08512269359824208
aF0.04642116825001414
aF0.051114788597286166
aF0.05344523157351351
aF0.0450383272657414
aF0.07934223055691932
aF0.04232629013053048
ag145
ag145
aF0.6101096955773073
aF0.6703348823383521
aF0.6645449739247624
aF0.03597920884311634
aF0.046398461145713554
aF0.04997839927091263
aF0.08155646100510694
aF0.04636211987110528
aF0.051240970642254524
aF0.053324922355272975
aF0.04619791560071462
aF0.07902800397278043
aF0.04300825263601382
ag145
ag145
aF0.620511977385263
aF0.6805833462520923
aF0.6687344739801802
aF0.03479572762950056
aF0.04459452397088626
aF0.0485019561253921
aF0.07515659597959257
aF0.04562052376081738
aF0.05103648003063199
aF0.05380801193007301
aF0.044588756614757585
aF0.0781125613139011
aF0.04258005774738649
ag145
ag145
aF0.6287549753342319
aF0.6883887186810398
aF0.6878800447269668
aF0.03684091049302651
aF0.04554648760552027
aF0.04953997903533036
aF0.07600751299366948
aF0.046885940634979306
aF0.05175577955509425
aF0.05539374463182867
aF0.046276831615614356
aF0.08002818991735694
aF0.04347243969812098
ag145
ag145
aF0.6005487622112469
aF0.6636271251533117
aF0.6518664589176524
aF0.036327107093882205
aF0.04505475726136865
aF0.048419618327898206
aF0.07300516774739663
aF0.04549510095375808
aF0.049640807237153695
aF0.05268945836087369
aF0.044275548545556376
aF0.08135527407648624
aF0.04191315401885731
ag145
ag145
aF0.6263779767806454
aF0.7024359408561622
aF0.673789784748692
aF0.035460593565801446
aF0.046241103949455464
aF0.04884983124236442
aF0.08572294340035569
aF0.04677631172114616
aF0.05150438503591204
aF0.05387213951053127
aF0.04531579866488755
aF0.0795049695407215
aF0.042522992571662144
ag145
ag145
aF0.606028754984095
aF0.6680923785630739
aF0.6567187467218218
aF0.035407096981259656
aF0.04515974494461261
aF0.04873870522192192
aF0.07346536162015127
aF0.04609651469911569
aF0.051005940635207025
aF0.05307499447144437
aF0.04513316096017661
aF0.07939027933753096
aF0.042355471654786925
ag145
ag145
aF0.6462102884235037
aF0.7087511740809305
aF0.6952395917620606
aF0.03415791001367552
aF0.04631844721575362
aF0.04923418248813505
aF0.0785608894610732
aF0.048293092969572626
aF0.05241621056592294
aF0.055302006607576004
aF0.044999178740908974
aF0.07956267481131363
aF0.04366746088101081
ag145
ag145
aF0.5908790638817436
aF0.6378726224214688
aF0.6297573052021335
aF0.0362776774297231
aF0.04466418089054969
aF0.048612751111932084
aF0.07117539470891643
aF0.0448748869175688
aF0.050059939986965674
aF0.051166062784318456
aF0.0419837324279797
aF0.07614126464613946
aF0.041340799160138886
ag145
ag145
aF0.6199702214072431
aF0.6696602675996246
aF0.6697408566067224
aF0.03558092775409705
aF0.0460311133375626
aF0.04891750226192926
aF0.0748513654693852
aF0.046625020301576114
aF0.05122197282793195
aF0.05382142892790398
aF0.04505919442999584
aF0.07957294072184595
aF0.04186448918028418
ag145
ag145
aF0.6163360038366363
aF0.6746142811756499
aF0.6636919988119416
aF0.03594760548884324
aF0.045179576506939156
aF0.048899701231562176
aF0.08533471125724645
aF0.04649898179309275
aF0.051260579148959096
aF0.053392502921269624
aF0.04254388049230329
aF0.0795692206302192
aF0.042331583771215264
ag145
ag145
atp215
ba(lp216
g15
(g16
(dp217
g18
g19
(g20
(I0
tp218
g22
tp219
Rp220
(I1
(I1
tp221
g29
I00
(lp222
g43
atp223
bsg66
Nstp224
Rp225
ag15
(g16
(dp226
g18
g19
(g20
(I0
tp227
g22
tp228
Rp229
(I1
(I31
tp230
g29
I00
(lp231
g33
ag34
ag35
ag36
ag37
ag38
ag39
ag40
ag41
ag42
ag44
ag45
ag46
ag47
ag48
ag49
ag50
ag51
ag52
ag53
ag54
ag55
ag56
ag57
ag58
ag59
ag60
ag61
ag62
ag63
ag64
atp232
bsg66
Nstp233
Rp234
a(dp235
S'0.14.1'
p236
(dp237
S'axes'
p238
g14
sS'blocks'
p239
(lp240
(dp241
S'mgr_locs'
p242
c__builtin__
slice
p243
(I10
I11
I1
tp244
Rp245
sS'values'
p246
g87
sa(dp247
g242
g19
(g20
(I0
tp248
g22
tp249
Rp250
(I1
(I31
tp251
g77
I00
S'\x00\x00\x00\x00\x00\x00\x00\x00\x01\x00\x00\x00\x00\x00\x00\x00\x02\x00\x00\x00\x00\x00\x00\x00\x03\x00\x00\x00\x00\x00\x00\x00\x04\x00\x00\x00\x00\x00\x00\x00\x05\x00\x00\x00\x00\x00\x00\x00\x06\x00\x00\x00\x00\x00\x00\x00\x07\x00\x00\x00\x00\x00\x00\x00\x08\x00\x00\x00\x00\x00\x00\x00\t\x00\x00\x00\x00\x00\x00\x00\x0b\x00\x00\x00\x00\x00\x00\x00\x0c\x00\x00\x00\x00\x00\x00\x00\r\x00\x00\x00\x00\x00\x00\x00\x0e\x00\x00\x00\x00\x00\x00\x00\x0f\x00\x00\x00\x00\x00\x00\x00\x10\x00\x00\x00\x00\x00\x00\x00\x11\x00\x00\x00\x00\x00\x00\x00\x12\x00\x00\x00\x00\x00\x00\x00\x13\x00\x00\x00\x00\x00\x00\x00\x14\x00\x00\x00\x00\x00\x00\x00\x15\x00\x00\x00\x00\x00\x00\x00\x16\x00\x00\x00\x00\x00\x00\x00\x17\x00\x00\x00\x00\x00\x00\x00\x18\x00\x00\x00\x00\x00\x00\x00\x19\x00\x00\x00\x00\x00\x00\x00\x1a\x00\x00\x00\x00\x00\x00\x00\x1b\x00\x00\x00\x00\x00\x00\x00\x1c\x00\x00\x00\x00\x00\x00\x00\x1d\x00\x00\x00\x00\x00\x00\x00\x1e\x00\x00\x00\x00\x00\x00\x00\x1f\x00\x00\x00\x00\x00\x00\x00'
p252
tp253
bsg246
g98
sasstp254
bsb.