ccopy_reg
_reconstructor
p0
(cpandas.core.frame
DataFrame
p1
c__builtin__
object
p2
Ntp3
Rp4
(dp5
S'_metadata'
p6
(lp7
sS'_typ'
p8
S'dataframe'
p9
sS'_data'
p10
g0
(cpandas.core.internals
BlockManager
p11
g2
Ntp12
Rp13
((lp14
cpandas.core.indexes.base
_new_Index
p15
(cpandas.core.indexes.base
Index
p16
(dp17
S'data'
p18
cnumpy.core.multiarray
_reconstruct
p19
(cnumpy
ndarray
p20
(I0
tp21
S'b'
p22
tp23
Rp24
(I1
(I32
tp25
cnumpy
dtype
p26
(S'O8'
p27
I0
I1
tp28
Rp29
(I3
S'|'
p30
NNNI-1
I-1
I63
tp31
bI00
(lp32
S'year'
p33
aS'type'
p34
aS'procOriginal'
p35
aS'proc'
p36
aS'proc_s0'
p37
aS'cat'
p38
aS'inputWSFile'
p39
aS'nominalDataName'
p40
aS'modelWSFile'
p41
aS'model'
p42
aS'rate'
p43
aS'nominal_yield'
p44
aS'sumw2'
p45
aS'nominal_yield_COWCorr'
p46
aS'LooseMvaSF_up_yield'
p47
aS'LooseMvaSF_down_yield'
p48
aS'PreselSF_up_yield'
p49
aS'PreselSF_down_yield'
p50
aS'electronVetoSF_up_yield'
p51
aS'electronVetoSF_down_yield'
p52
aS'TriggerWeight_up_yield'
p53
aS'TriggerWeight_down_yield'
p54
aS'SigmaEOverEShift_up_yield'
p55
aS'SigmaEOverEShift_down_yield'
p56
aS'MvaShift_up_yield'
p57
aS'MvaShift_down_yield'
p58
aS'PUJIDShift_up_yield'
p59
aS'PUJIDShift_down_yield'
p60
aS'JEC_up_yield'
p61
aS'JEC_down_yield'
p62
aS'JER_up_yield'
p63
aS'JER_down_yield'
p64
atp65
bsS'name'
p66
Nstp67
Rp68
ag15
(cpandas.core.indexes.numeric
Int64Index
p69
(dp70
g18
g19
(g20
(I0
tp71
g22
tp72
Rp73
(I1
(I15
tp74
g26
(S'i8'
p75
I0
I1
tp76
Rp77
(I3
S'<'
p78
NNNI-1
I-1
I0
tp79
bI00
S'\x00\x00\x00\x00\x00\x00\x00\x00\x01\x00\x00\x00\x00\x00\x00\x00\x02\x00\x00\x00\x00\x00\x00\x00\x03\x00\x00\x00\x00\x00\x00\x00\x04\x00\x00\x00\x00\x00\x00\x00\x05\x00\x00\x00\x00\x00\x00\x00\x06\x00\x00\x00\x00\x00\x00\x00\x07\x00\x00\x00\x00\x00\x00\x00\x08\x00\x00\x00\x00\x00\x00\x00\t\x00\x00\x00\x00\x00\x00\x00\n\x00\x00\x00\x00\x00\x00\x00\x0b\x00\x00\x00\x00\x00\x00\x00\x0c\x00\x00\x00\x00\x00\x00\x00\r\x00\x00\x00\x00\x00\x00\x00\x0e\x00\x00\x00\x00\x00\x00\x00'
p80
tp81
bsg66
Nstp82
Rp83
a(lp84
g19
(g20
(I0
tp85
g22
tp86
Rp87
(I1
(I1
I15
tp88
g26
(S'f8'
p89
I0
I1
tp90
Rp91
(I3
S'<'
p92
NNNI-1
I-1
I0
tp93
bI00
S'\x00\x00\x00\x00\x00\x10\xd3@\x00\x00\x00\x00\x00\x10\xd3@\x00\x00\x00\x00\x00\x10\xd3@\x00\x00\x00\x00\x00\x10\xd3@\x00\x00\x00\x00\x00\x10\xd3@\x00\x00\x00\x00\x00\x10\xd3@\x00\x00\x00\x00\x00\x10\xd3@\x00\x00\x00\x00\x00\x10\xd3@\x00\x00\x00\x00\x00\x10\xd3@\x00\x00\x00\x00\x00\x10\xd3@\x00\x00\x00\x00\x00\x10\xd3@\x00\x00\x00\x00\x00\x10\xd3@\x00\x00\x00\x00\x00\x10\xd3@\x00\x00\x00\x00\x00\x00\xf0?\x00\x00\x00\x00\x00\x00\xf0\xbf'
p94
tp95
bag19
(g20
(I0
tp96
g22
tp97
Rp98
(I1
(I31
I15
tp99
g29
I00
(lp100
S'2016preVFP'
p101
ag101
ag101
ag101
ag101
ag101
ag101
ag101
ag101
ag101
ag101
ag101
ag101
ag33
ag33
aS'sig'
p102
ag102
ag102
ag102
ag102
ag102
ag102
ag102
ag102
ag102
ag102
ag102
ag102
aS'bkg'
p103
ag18
aS'GG2HMf05ph0'
p104
aS'GG2HbsmM'
p105
aS'GG2Hsm'
p106
aS'TTHsm'
p107
aS'VBFMf05ph0'
p108
aS'VBFbsmM'
p109
aS'VBFsm'
p110
aS'WHMf05ph0'
p111
aS'WHbsmM'
p112
aS'WHsm'
p113
aS'ZHMf05ph0'
p114
aS'ZHbsmM'
p115
aS'ZHsm'
p116
aS'bkg_mass'
p117
aS'data_obs'
p118
aS'GG2HMf05ph0_2016preVFP_hgg'
p119
aS'GG2HbsmM_2016preVFP_hgg'
p120
aS'GG2Hsm_2016preVFP_hgg'
p121
aS'tth0P_2016preVFP_hgg'
p122
aS'vbf0Mf05ph0_2016preVFP_hgg'
p123
aS'vbf0M_2016preVFP_hgg'
p124
aS'vbf0P_2016preVFP_hgg'
p125
aS'wh0Mf05ph0_2016preVFP_hgg'
p126
aS'wh0M_2016preVFP_hgg'
p127
aS'wh0P_2016preVFP_hgg'
p128
aS'zh0Mf05ph0_2016preVFP_hgg'
p129
aS'zh0M_2016preVFP_hgg'
p130
aS'zh0P_2016preVFP_hgg'
p131
ag117
ag118
aS'jjh0Mf05ph0'
p132
aS'jjh0M'
p133
aS'jjh0P'
p134
aS'tth0P'
p135
aS'vbf0Mf05ph0'
p136
aS'vbf0M'
p137
aS'vbf0P'
p138
aS'wh0Mf05ph0'
p139
aS'wh0M'
p140
aS'wh0P'
p141
aS'zh0Mf05ph0'
p142
aS'zh0M'
p143
aS'zh0P'
p144
aS'-'
p145
ag145
aS'AC_Bin17_2016preVFP'
p146
aS'AC_Bin17_2016preVFP'
p147
aS'AC_Bin17_2016preVFP'
p148
aS'AC_Bin17_2016preVFP'
p149
aS'AC_Bin17_2016preVFP'
p150
aS'AC_Bin17_2016preVFP'
p151
aS'AC_Bin17_2016preVFP'
p152
aS'AC_Bin17_2016preVFP'
p153
aS'AC_Bin17_2016preVFP'
p154
aS'AC_Bin17_2016preVFP'
p155
aS'AC_Bin17_2016preVFP'
p156
aS'AC_Bin17_2016preVFP'
p157
aS'AC_Bin17_2016preVFP'
p158
aS'AC_Bin17_2016preVFP'
p159
ag159
aS'Trees/Opt_2016preVFP/2016PreVFP/Trees2WS_2016preVFP/WS/output_GluGluHToGGPlusTwoJets_MM_M125_TuneCP5_13TeV-amcatnlopowheg-minlo-pythia8_GG2HMf05ph0.root'
p160
aS'Trees/Opt_2016preVFP/2016PreVFP/Trees2WS_2016preVFP/WS/output_GluGluHToGGPlusTwoJets_CPodd_M125_TuneCP5_13TeV-amcatnlopowheg-minlo-pythia8_GG2HbsmM.root'
p161
aS'Trees/Opt_2016preVFP/2016PreVFP/Trees2WS_2016preVFP/WS/output_GluGluHToGGPlusTwoJets_SM_M125_TuneCP5_13TeV-amcatnlopowheg-minlo-pythia8_GG2Hsm.root'
p162
aS'Trees/Opt_2016preVFP/2016PreVFP/Trees2WS_2016preVFP/WS/output_ttHJetToGG_M125_TuneCP5_13TeV-amcatnloFXFX-madspin-pythia8_TTHsm.root'
p163
aS'Trees/Opt_2016preVFP/2016PreVFP/Trees2WS_2016preVFP/WS/output_VBFHiggs0Mf05ph0ToGG_M125_TuneCP5_13TeV-JHUGenV7011-pythia8_VBFMf05ph0.root'
p164
aS'Trees/Opt_2016preVFP/2016PreVFP/Trees2WS_2016preVFP/WS/output_VBFHiggs0MToGG_M125_TuneCP5_13TeV-JHUGenV7011-pythia8_VBFbsmM.root'
p165
aS'Trees/Opt_2016preVFP/2016PreVFP/Trees2WS_2016preVFP/WS/output_VBFHToGG_M125_TuneCP5_13TeV-amcatnlo-pythia8_VBFsm.root'
p166
aS'Trees/Opt_2016preVFP/2016PreVFP/Trees2WS_2016preVFP/WS/output_WHiggs0Mf05ph0ToGG_M125_TuneCP5_13TeV-JHUGenV7011-pythia8_WHMf05ph0.root'
p167
aS'Trees/Opt_2016preVFP/2016PreVFP/Trees2WS_2016preVFP/WS/output_WHiggs0MToGG_M125_TuneCP5_13TeV-JHUGenV7011-pythia8_WHbsmM.root'
p168
aS'Trees/Opt_2016preVFP/2016PreVFP/Trees2WS_2016preVFP/WS/output_WHiggs0PMToGG_M125_TuneCP5_13TeV-JHUGenV7011-pythia8_WHsm.root'
p169
aS'Trees/Opt_2016preVFP/2016PreVFP/Trees2WS_2016preVFP/WS/output_ZHiggs0Mf05ph0ToGG_M125_TuneCP5_13TeV-JHUGenV7011-pythia8_ZHMf05ph0.root'
p170
aS'Trees/Opt_2016preVFP/2016PreVFP/Trees2WS_2016preVFP/WS/output_ZHiggs0MToGG_M125_TuneCP5_13TeV-JHUGenV7011-pythia8_ZHbsmM.root'
p171
aS'Trees/Opt_2016preVFP/2016PreVFP/Trees2WS_2016preVFP/WS/output_ZH_HToGG_ZToAll_M125_TuneCP5_13TeV-powheg-pythia8_ZHsm.root'
p172
ag145
ag145
aS'jjh0Mf05ph0_125_13TeV_AC_Bin17'
p173
aS'jjh0M_125_13TeV_AC_Bin17'
p174
aS'jjh0P_125_13TeV_AC_Bin17'
p175
aS'tth0P_125_13TeV_AC_Bin17'
p176
aS'vbf0Mf05ph0_125_13TeV_AC_Bin17'
p177
aS'vbf0M_125_13TeV_AC_Bin17'
p178
aS'vbf0P_125_13TeV_AC_Bin17'
p179
aS'wh0Mf05ph0_125_13TeV_AC_Bin17'
p180
aS'wh0M_125_13TeV_AC_Bin17'
p181
aS'wh0P_125_13TeV_AC_Bin17'
p182
aS'zh0Mf05ph0_125_13TeV_AC_Bin17'
p183
aS'zh0M_125_13TeV_AC_Bin17'
p184
aS'zh0P_125_13TeV_AC_Bin17'
p185
ag145
ag145
aS'./Models/signal/CMS-HGG_sigfit_packaged_AC_Bin17_2016preVFP.root'
p186
aS'./Models/signal/CMS-HGG_sigfit_packaged_AC_Bin17_2016preVFP.root'
p187
aS'./Models/signal/CMS-HGG_sigfit_packaged_AC_Bin17_2016preVFP.root'
p188
aS'./Models/signal/CMS-HGG_sigfit_packaged_AC_Bin17_2016preVFP.root'
p189
aS'./Models/signal/CMS-HGG_sigfit_packaged_AC_Bin17_2016preVFP.root'
p190
aS'./Models/signal/CMS-HGG_sigfit_packaged_AC_Bin17_2016preVFP.root'
p191
aS'./Models/signal/CMS-HGG_sigfit_packaged_AC_Bin17_2016preVFP.root'
p192
aS'./Models/signal/CMS-HGG_sigfit_packaged_AC_Bin17_2016preVFP.root'
p193
aS'./Models/signal/CMS-HGG_sigfit_packaged_AC_Bin17_2016preVFP.root'
p194
aS'./Models/signal/CMS-HGG_sigfit_packaged_AC_Bin17_2016preVFP.root'
p195
aS'./Models/signal/CMS-HGG_sigfit_packaged_AC_Bin17_2016preVFP.root'
p196
aS'./Models/signal/CMS-HGG_sigfit_packaged_AC_Bin17_2016preVFP.root'
p197
aS'./Models/signal/CMS-HGG_sigfit_packaged_AC_Bin17_2016preVFP.root'
p198
aS'./Models/background/CMS-HGG_multipdf_AC_Bin17_2016preVFP.root'
p199
ag199
aS'wsig_13TeV:hggpdfsmrel_GG2HMf05ph0_2016preVFP_AC_Bin17_13TeV'
p200
aS'wsig_13TeV:hggpdfsmrel_GG2HbsmM_2016preVFP_AC_Bin17_13TeV'
p201
aS'wsig_13TeV:hggpdfsmrel_GG2Hsm_2016preVFP_AC_Bin17_13TeV'
p202
aS'wsig_13TeV:hggpdfsmrel_TTHsm_2016preVFP_AC_Bin17_13TeV'
p203
aS'wsig_13TeV:hggpdfsmrel_VBFMf05ph0_2016preVFP_AC_Bin17_13TeV'
p204
aS'wsig_13TeV:hggpdfsmrel_VBFbsmM_2016preVFP_AC_Bin17_13TeV'
p205
aS'wsig_13TeV:hggpdfsmrel_VBFsm_2016preVFP_AC_Bin17_13TeV'
p206
aS'wsig_13TeV:hggpdfsmrel_WHMf05ph0_2016preVFP_AC_Bin17_13TeV'
p207
aS'wsig_13TeV:hggpdfsmrel_WHbsmM_2016preVFP_AC_Bin17_13TeV'
p208
aS'wsig_13TeV:hggpdfsmrel_WHsm_2016preVFP_AC_Bin17_13TeV'
p209
aS'wsig_13TeV:hggpdfsmrel_ZHMf05ph0_2016preVFP_AC_Bin17_13TeV'
p210
aS'wsig_13TeV:hggpdfsmrel_ZHbsmM_2016preVFP_AC_Bin17_13TeV'
p211
aS'wsig_13TeV:hggpdfsmrel_ZHsm_2016preVFP_AC_Bin17_13TeV'
p212
aS'multipdf:CMS_hgg_AC_Bin17_2016preVFP_13TeV_bkgshape'
p213
aS'multipdf:roohist_data_mass_AC_Bin17'
p214
aF0.27801611789732306
aF0.2355036488775113
aF0.23699915685745054
aF0.00421351846455309
aF0.01868175800058225
aF0.006157454627782499
aF0.02982564487217587
aF0.013107595866244992
aF0.011596724409230319
aF0.016477908410763575
aF0.00723549114081834
aF0.005229952104855329
aF0.016154732895188317
ag145
ag145
aF0.00043619780294509056
aF4.051128819670295e-05
aF4.947005097016717e-05
aF4.635968091405117e-07
aF3.7857102242587608e-06
aF5.118701742514307e-07
aF1.174342076904919e-05
aF5.33303030027264e-07
aF2.353732023508548e-06
aF6.419755324776705e-07
aF2.768588262747483e-06
aF1.0652544174841925e-06
aF5.728962097664617e-06
ag145
ag145
aF0.28728949679569793
aF0.24344846813810048
aF0.2452800210320716
aF0.004362561179505195
aF0.019346544954289932
aF0.006347967778835623
aF0.030587205478353505
aF0.013486428537751397
aF0.011952596021582903
aF0.017100178572033192
aF0.0075366695249956105
aF0.00549334233735585
aF0.016575536727152985
ag145
ag145
aF0.2797920440422297
aF0.23699381854795806
aF0.23850240909695766
aF0.004239948797724598
aF0.018800020686391306
aF0.006196936693048827
aF0.030017630868123393
aF0.013190598691843497
aF0.01167079581066432
aF0.016582035800740826
aF0.007281132142005741
aF0.00526334324675056
aF0.016257369228042294
ag145
ag145
aF0.2762458528647275
aF0.234018181648409
aF0.2355006611790341
aF0.004187170658939612
aF0.01856386841776548
aF0.006118098924658971
aF0.029634275331406588
aF0.013024855360783022
aF0.011522889116744053
aF0.016374109370498553
aF0.007189993904759032
aF0.005196667350168188
aF0.0160524219003482
ag145
ag145
aF0.28292239258318047
aF0.24006779233236697
aF0.24148117745276862
aF0.004307716328330797
aF0.019026834539738652
aF0.006266420954712864
aF0.030333528382438246
aF0.013346049645474412
aF0.011800290595064714
aF0.01679546711720569
aF0.007374445364238925
aF0.005323695570378863
aF0.01642757109406299
ag145
ag145
aF0.27315224766340424
aF0.23098178890870436
aF0.2325576752400874
aF0.004120219643738852
aF0.018339752789343886
aF0.0060493830408565675
aF0.02932175011431311
aF0.012871186762065667
aF0.011394896336241984
aF0.016163132573224635
aF0.007097643599646959
aF0.005137136910235555
aF0.015884290863679595
ag145
ag145
aF0.2786058583016942
aF0.23603681905813945
aF0.23754111736535197
aF0.004222931427099753
aF0.018725683409467214
aF0.0061711051978920435
aF0.029887389901431426
aF0.013137734819721074
aF0.011622321068086425
aF0.016517741315937043
aF0.007256566579516704
aF0.005243872605623306
aF0.016189070103167592
ag145
ag145
aF0.2774269898521819
aF0.23497106185982977
aF0.23645780863802693
aF0.004204115448150915
aF0.018637879020128565
aF0.0061438189401060855
aF0.02976397383601075
aF0.01307748996748588
aF0.011571155443380518
aF0.016438124760853597
aF0.007214440832663322
aF0.005216047107537658
aF0.01612042983129663
ag145
ag145
aF0.27865238182709035
aF0.23605105513887661
aF0.23753741069560413
aF0.004223462304429017
aF0.01872577939912027
aF0.00617123961422981
aF0.029887478144405916
aF0.01313733333604368
aF0.011622306954995753
aF0.016518076933564288
aF0.0072538863765130145
aF0.005249976513807141
aF0.016189450699169657
ag145
ag145
aF0.27738059156045775
aF0.23495688268893022
aF0.23646152498800133
aF0.004203586286821882
aF0.018637787570799532
aF0.00614368495505082
aF0.029763878500473653
aF0.013077891948691776
aF0.011571170125063186
aF0.01643778893367072
aF0.00721711826196228
aF0.005209957526537637
aF0.016120052371168203
ag145
ag145
aF0.2896104061510414
aF0.2479816998345541
aF0.24619468433127167
aF0.0044003100820759755
aF0.019633605491947037
aF0.006583902680858955
aF0.02482597252208052
aF0.013853310183890244
aF0.011964016740591887
aF0.01724531648625316
aF0.007399916939903051
aF0.005872197554708691
aF0.016655178872383658
ag145
ag145
aF0.2686375343155305
aF0.22871373656039395
aF0.2278382468472273
aF0.003893414456001665
aF0.01787171113818431
aF0.005892321795272437
aF0.018265260628140823
aF0.012575008575936408
aF0.011049708985126472
aF0.0158799845466433
aF0.0066495980081526795
aF0.0048408097645733505
aF0.015523065413049153
ag145
ag145
aF0.27417699963996256
aF0.24766892915863536
aF0.23948464537431846
aF0.004099990518909635
aF0.018785951453708094
aF0.006036619397036702
aF0.03284879614420788
aF0.013433299121516029
aF0.011436970058241513
aF0.01613748356663791
aF0.012284916612770758
aF0.004803107876796275
aF0.015884837812677688
ag145
ag145
aF0.2770579848320267
aF0.2355765576784279
aF0.2350279433370588
aF0.004115924692541739
aF0.018881758730401543
aF0.006525141045358396
aF0.0228539327110866
aF0.01203902881815111
aF0.010641606928118108
aF0.01615550827006018
aF0.0076244460560701555
aF0.0052364376169862226
aF0.01564118700605377
ag145
ag145
aF0.2830382678798742
aF0.240978751421153
aF0.2419239865249665
aF0.004233054849578366
aF0.018821041849435005
aF0.006330075317009687
aF0.03589773104181404
aF0.013210334699692794
aF0.011777955476134139
aF0.016530904042554084
aF0.00723549114081834
aF0.005229952104855329
aF0.016253421148007874
ag145
ag145
aF0.2731131847517645
aF0.23175624574332687
aF0.23181751267554773
aF0.004196555374392119
aF0.018534243790043092
aF0.006133742042720769
aF0.024388728945041294
aF0.012976459330047874
aF0.011460786389250188
aF0.01607679158138353
aF0.00723549114081834
aF0.005229952104855329
aF0.016079161759876115
ag145
ag145
aF0.2878630489126408
aF0.2526256998905865
aF0.25131356176245845
aF0.004569532860955405
aF0.017187722429241603
aF0.006352240068963511
aF0.025932502340424435
aF0.013493751263126796
aF0.012056360640542607
aF0.01692385771247018
aF0.007240210465170094
aF0.004951632017764496
aF0.016402015700236916
ag145
ag145
aF0.2654745171473678
aF0.22038213826272113
aF0.22249375014382622
aF0.00416314554007613
aF0.018160782739471415
aF0.006166221847138331
aF0.02512025047269617
aF0.012356278597508208
aF0.011364635741585971
aF0.0162724254903992
aF0.006803908132496872
aF0.004400789795909077
aF0.015810983681490143
ag145
ag145
aF0.28057839294274345
aF0.23899355801154343
aF0.23790097947619415
aF0.004273039241866172
aF0.018680314483788152
aF0.006115288198657254
aF0.0212048071953177
aF0.013104908407512994
aF0.011642987251264003
aF0.016734118717465662
aF0.007186804263255908
aF0.004876422743109288
aF0.01621055765951951
ag145
ag145
aF0.2769736965761922
aF0.235312247593356
aF0.23440369755314805
aF0.004302735575720362
aF0.018759076031471977
aF0.0061796706272616575
aF0.024293222993264862
aF0.012775292656897363
aF0.011706280197643082
aF0.016839825243721407
aF0.0072863801160565345
aF0.005075559442047961
aF0.01599054844461989
ag145
ag145
atp215
ba(lp216
g15
(g16
(dp217
g18
g19
(g20
(I0
tp218
g22
tp219
Rp220
(I1
(I1
tp221
g29
I00
(lp222
g43
atp223
bsg66
Nstp224
Rp225
ag15
(g16
(dp226
g18
g19
(g20
(I0
tp227
g22
tp228
Rp229
(I1
(I31
tp230
g29
I00
(lp231
g33
ag34
ag35
ag36
ag37
ag38
ag39
ag40
ag41
ag42
ag44
ag45
ag46
ag47
ag48
ag49
ag50
ag51
ag52
ag53
ag54
ag55
ag56
ag57
ag58
ag59
ag60
ag61
ag62
ag63
ag64
atp232
bsg66
Nstp233
Rp234
a(dp235
S'0.14.1'
p236
(dp237
S'axes'
p238
g14
sS'blocks'
p239
(lp240
(dp241
S'mgr_locs'
p242
c__builtin__
slice
p243
(I10
I11
I1
tp244
Rp245
sS'values'
p246
g87
sa(dp247
g242
g19
(g20
(I0
tp248
g22
tp249
Rp250
(I1
(I31
tp251
g77
I00
S'\x00\x00\x00\x00\x00\x00\x00\x00\x01\x00\x00\x00\x00\x00\x00\x00\x02\x00\x00\x00\x00\x00\x00\x00\x03\x00\x00\x00\x00\x00\x00\x00\x04\x00\x00\x00\x00\x00\x00\x00\x05\x00\x00\x00\x00\x00\x00\x00\x06\x00\x00\x00\x00\x00\x00\x00\x07\x00\x00\x00\x00\x00\x00\x00\x08\x00\x00\x00\x00\x00\x00\x00\t\x00\x00\x00\x00\x00\x00\x00\x0b\x00\x00\x00\x00\x00\x00\x00\x0c\x00\x00\x00\x00\x00\x00\x00\r\x00\x00\x00\x00\x00\x00\x00\x0e\x00\x00\x00\x00\x00\x00\x00\x0f\x00\x00\x00\x00\x00\x00\x00\x10\x00\x00\x00\x00\x00\x00\x00\x11\x00\x00\x00\x00\x00\x00\x00\x12\x00\x00\x00\x00\x00\x00\x00\x13\x00\x00\x00\x00\x00\x00\x00\x14\x00\x00\x00\x00\x00\x00\x00\x15\x00\x00\x00\x00\x00\x00\x00\x16\x00\x00\x00\x00\x00\x00\x00\x17\x00\x00\x00\x00\x00\x00\x00\x18\x00\x00\x00\x00\x00\x00\x00\x19\x00\x00\x00\x00\x00\x00\x00\x1a\x00\x00\x00\x00\x00\x00\x00\x1b\x00\x00\x00\x00\x00\x00\x00\x1c\x00\x00\x00\x00\x00\x00\x00\x1d\x00\x00\x00\x00\x00\x00\x00\x1e\x00\x00\x00\x00\x00\x00\x00\x1f\x00\x00\x00\x00\x00\x00\x00'
p252
tp253
bsg246
g98
sasstp254
bsb.