ccopy_reg
_reconstructor
p0
(cpandas.core.frame
DataFrame
p1
c__builtin__
object
p2
Ntp3
Rp4
(dp5
S'_metadata'
p6
(lp7
sS'_typ'
p8
S'dataframe'
p9
sS'_data'
p10
g0
(cpandas.core.internals
BlockManager
p11
g2
Ntp12
Rp13
((lp14
cpandas.core.indexes.base
_new_Index
p15
(cpandas.core.indexes.base
Index
p16
(dp17
S'data'
p18
cnumpy.core.multiarray
_reconstruct
p19
(cnumpy
ndarray
p20
(I0
tp21
S'b'
p22
tp23
Rp24
(I1
(I32
tp25
cnumpy
dtype
p26
(S'O8'
p27
I0
I1
tp28
Rp29
(I3
S'|'
p30
NNNI-1
I-1
I63
tp31
bI00
(lp32
S'year'
p33
aS'type'
p34
aS'procOriginal'
p35
aS'proc'
p36
aS'proc_s0'
p37
aS'cat'
p38
aS'inputWSFile'
p39
aS'nominalDataName'
p40
aS'modelWSFile'
p41
aS'model'
p42
aS'rate'
p43
aS'nominal_yield'
p44
aS'sumw2'
p45
aS'nominal_yield_COWCorr'
p46
aS'LooseMvaSF_up_yield'
p47
aS'LooseMvaSF_down_yield'
p48
aS'PreselSF_up_yield'
p49
aS'PreselSF_down_yield'
p50
aS'electronVetoSF_up_yield'
p51
aS'electronVetoSF_down_yield'
p52
aS'TriggerWeight_up_yield'
p53
aS'TriggerWeight_down_yield'
p54
aS'SigmaEOverEShift_up_yield'
p55
aS'SigmaEOverEShift_down_yield'
p56
aS'MvaShift_up_yield'
p57
aS'MvaShift_down_yield'
p58
aS'PUJIDShift_up_yield'
p59
aS'PUJIDShift_down_yield'
p60
aS'JEC_up_yield'
p61
aS'JEC_down_yield'
p62
aS'JER_up_yield'
p63
aS'JER_down_yield'
p64
atp65
bsS'name'
p66
Nstp67
Rp68
ag15
(cpandas.core.indexes.numeric
Int64Index
p69
(dp70
g18
g19
(g20
(I0
tp71
g22
tp72
Rp73
(I1
(I15
tp74
g26
(S'i8'
p75
I0
I1
tp76
Rp77
(I3
S'<'
p78
NNNI-1
I-1
I0
tp79
bI00
S'\x00\x00\x00\x00\x00\x00\x00\x00\x01\x00\x00\x00\x00\x00\x00\x00\x02\x00\x00\x00\x00\x00\x00\x00\x03\x00\x00\x00\x00\x00\x00\x00\x04\x00\x00\x00\x00\x00\x00\x00\x05\x00\x00\x00\x00\x00\x00\x00\x06\x00\x00\x00\x00\x00\x00\x00\x07\x00\x00\x00\x00\x00\x00\x00\x08\x00\x00\x00\x00\x00\x00\x00\t\x00\x00\x00\x00\x00\x00\x00\n\x00\x00\x00\x00\x00\x00\x00\x0b\x00\x00\x00\x00\x00\x00\x00\x0c\x00\x00\x00\x00\x00\x00\x00\r\x00\x00\x00\x00\x00\x00\x00\x0e\x00\x00\x00\x00\x00\x00\x00'
p80
tp81
bsg66
Nstp82
Rp83
a(lp84
g19
(g20
(I0
tp85
g22
tp86
Rp87
(I1
(I1
I15
tp88
g26
(S'f8'
p89
I0
I1
tp90
Rp91
(I3
S'<'
p92
NNNI-1
I-1
I0
tp93
bI00
S'\x00\x00\x00\x00\x00\x10\xd3@\x00\x00\x00\x00\x00\x10\xd3@\x00\x00\x00\x00\x00\x10\xd3@\x00\x00\x00\x00\x00\x10\xd3@\x00\x00\x00\x00\x00\x10\xd3@\x00\x00\x00\x00\x00\x10\xd3@\x00\x00\x00\x00\x00\x10\xd3@\x00\x00\x00\x00\x00\x10\xd3@\x00\x00\x00\x00\x00\x10\xd3@\x00\x00\x00\x00\x00\x10\xd3@\x00\x00\x00\x00\x00\x10\xd3@\x00\x00\x00\x00\x00\x10\xd3@\x00\x00\x00\x00\x00\x10\xd3@\x00\x00\x00\x00\x00\x00\xf0?\x00\x00\x00\x00\x00\x00\xf0\xbf'
p94
tp95
bag19
(g20
(I0
tp96
g22
tp97
Rp98
(I1
(I31
I15
tp99
g29
I00
(lp100
S'2016preVFP'
p101
ag101
ag101
ag101
ag101
ag101
ag101
ag101
ag101
ag101
ag101
ag101
ag101
ag33
ag33
aS'sig'
p102
ag102
ag102
ag102
ag102
ag102
ag102
ag102
ag102
ag102
ag102
ag102
ag102
aS'bkg'
p103
ag18
aS'GG2HMf05ph0'
p104
aS'GG2HbsmM'
p105
aS'GG2Hsm'
p106
aS'TTHsm'
p107
aS'VBFMf05ph0'
p108
aS'VBFbsmM'
p109
aS'VBFsm'
p110
aS'WHMf05ph0'
p111
aS'WHbsmM'
p112
aS'WHsm'
p113
aS'ZHMf05ph0'
p114
aS'ZHbsmM'
p115
aS'ZHsm'
p116
aS'bkg_mass'
p117
aS'data_obs'
p118
aS'GG2HMf05ph0_2016preVFP_hgg'
p119
aS'GG2HbsmM_2016preVFP_hgg'
p120
aS'GG2Hsm_2016preVFP_hgg'
p121
aS'tth0P_2016preVFP_hgg'
p122
aS'vbf0Mf05ph0_2016preVFP_hgg'
p123
aS'vbf0M_2016preVFP_hgg'
p124
aS'vbf0P_2016preVFP_hgg'
p125
aS'wh0Mf05ph0_2016preVFP_hgg'
p126
aS'wh0M_2016preVFP_hgg'
p127
aS'wh0P_2016preVFP_hgg'
p128
aS'zh0Mf05ph0_2016preVFP_hgg'
p129
aS'zh0M_2016preVFP_hgg'
p130
aS'zh0P_2016preVFP_hgg'
p131
ag117
ag118
aS'jjh0Mf05ph0'
p132
aS'jjh0M'
p133
aS'jjh0P'
p134
aS'tth0P'
p135
aS'vbf0Mf05ph0'
p136
aS'vbf0M'
p137
aS'vbf0P'
p138
aS'wh0Mf05ph0'
p139
aS'wh0M'
p140
aS'wh0P'
p141
aS'zh0Mf05ph0'
p142
aS'zh0M'
p143
aS'zh0P'
p144
aS'-'
p145
ag145
aS'AC_Bin10_2016preVFP'
p146
aS'AC_Bin10_2016preVFP'
p147
aS'AC_Bin10_2016preVFP'
p148
aS'AC_Bin10_2016preVFP'
p149
aS'AC_Bin10_2016preVFP'
p150
aS'AC_Bin10_2016preVFP'
p151
aS'AC_Bin10_2016preVFP'
p152
aS'AC_Bin10_2016preVFP'
p153
aS'AC_Bin10_2016preVFP'
p154
aS'AC_Bin10_2016preVFP'
p155
aS'AC_Bin10_2016preVFP'
p156
aS'AC_Bin10_2016preVFP'
p157
aS'AC_Bin10_2016preVFP'
p158
aS'AC_Bin10_2016preVFP'
p159
ag159
aS'Trees/Opt_2016preVFP/2016PreVFP/Trees2WS_2016preVFP/WS/output_GluGluHToGGPlusTwoJets_MM_M125_TuneCP5_13TeV-amcatnlopowheg-minlo-pythia8_GG2HMf05ph0.root'
p160
aS'Trees/Opt_2016preVFP/2016PreVFP/Trees2WS_2016preVFP/WS/output_GluGluHToGGPlusTwoJets_CPodd_M125_TuneCP5_13TeV-amcatnlopowheg-minlo-pythia8_GG2HbsmM.root'
p161
aS'Trees/Opt_2016preVFP/2016PreVFP/Trees2WS_2016preVFP/WS/output_GluGluHToGGPlusTwoJets_SM_M125_TuneCP5_13TeV-amcatnlopowheg-minlo-pythia8_GG2Hsm.root'
p162
aS'Trees/Opt_2016preVFP/2016PreVFP/Trees2WS_2016preVFP/WS/output_ttHJetToGG_M125_TuneCP5_13TeV-amcatnloFXFX-madspin-pythia8_TTHsm.root'
p163
aS'Trees/Opt_2016preVFP/2016PreVFP/Trees2WS_2016preVFP/WS/output_VBFHiggs0Mf05ph0ToGG_M125_TuneCP5_13TeV-JHUGenV7011-pythia8_VBFMf05ph0.root'
p164
aS'Trees/Opt_2016preVFP/2016PreVFP/Trees2WS_2016preVFP/WS/output_VBFHiggs0MToGG_M125_TuneCP5_13TeV-JHUGenV7011-pythia8_VBFbsmM.root'
p165
aS'Trees/Opt_2016preVFP/2016PreVFP/Trees2WS_2016preVFP/WS/output_VBFHToGG_M125_TuneCP5_13TeV-amcatnlo-pythia8_VBFsm.root'
p166
aS'Trees/Opt_2016preVFP/2016PreVFP/Trees2WS_2016preVFP/WS/output_WHiggs0Mf05ph0ToGG_M125_TuneCP5_13TeV-JHUGenV7011-pythia8_WHMf05ph0.root'
p167
aS'Trees/Opt_2016preVFP/2016PreVFP/Trees2WS_2016preVFP/WS/output_WHiggs0MToGG_M125_TuneCP5_13TeV-JHUGenV7011-pythia8_WHbsmM.root'
p168
aS'Trees/Opt_2016preVFP/2016PreVFP/Trees2WS_2016preVFP/WS/output_WHiggs0PMToGG_M125_TuneCP5_13TeV-JHUGenV7011-pythia8_WHsm.root'
p169
aS'Trees/Opt_2016preVFP/2016PreVFP/Trees2WS_2016preVFP/WS/output_ZHiggs0Mf05ph0ToGG_M125_TuneCP5_13TeV-JHUGenV7011-pythia8_ZHMf05ph0.root'
p170
aS'Trees/Opt_2016preVFP/2016PreVFP/Trees2WS_2016preVFP/WS/output_ZHiggs0MToGG_M125_TuneCP5_13TeV-JHUGenV7011-pythia8_ZHbsmM.root'
p171
aS'Trees/Opt_2016preVFP/2016PreVFP/Trees2WS_2016preVFP/WS/output_ZH_HToGG_ZToAll_M125_TuneCP5_13TeV-powheg-pythia8_ZHsm.root'
p172
ag145
ag145
aS'jjh0Mf05ph0_125_13TeV_AC_Bin10'
p173
aS'jjh0M_125_13TeV_AC_Bin10'
p174
aS'jjh0P_125_13TeV_AC_Bin10'
p175
aS'tth0P_125_13TeV_AC_Bin10'
p176
aS'vbf0Mf05ph0_125_13TeV_AC_Bin10'
p177
aS'vbf0M_125_13TeV_AC_Bin10'
p178
aS'vbf0P_125_13TeV_AC_Bin10'
p179
aS'wh0Mf05ph0_125_13TeV_AC_Bin10'
p180
aS'wh0M_125_13TeV_AC_Bin10'
p181
aS'wh0P_125_13TeV_AC_Bin10'
p182
aS'zh0Mf05ph0_125_13TeV_AC_Bin10'
p183
aS'zh0M_125_13TeV_AC_Bin10'
p184
aS'zh0P_125_13TeV_AC_Bin10'
p185
ag145
ag145
aS'./Models/signal/CMS-HGG_sigfit_packaged_AC_Bin10_2016preVFP.root'
p186
aS'./Models/signal/CMS-HGG_sigfit_packaged_AC_Bin10_2016preVFP.root'
p187
aS'./Models/signal/CMS-HGG_sigfit_packaged_AC_Bin10_2016preVFP.root'
p188
aS'./Models/signal/CMS-HGG_sigfit_packaged_AC_Bin10_2016preVFP.root'
p189
aS'./Models/signal/CMS-HGG_sigfit_packaged_AC_Bin10_2016preVFP.root'
p190
aS'./Models/signal/CMS-HGG_sigfit_packaged_AC_Bin10_2016preVFP.root'
p191
aS'./Models/signal/CMS-HGG_sigfit_packaged_AC_Bin10_2016preVFP.root'
p192
aS'./Models/signal/CMS-HGG_sigfit_packaged_AC_Bin10_2016preVFP.root'
p193
aS'./Models/signal/CMS-HGG_sigfit_packaged_AC_Bin10_2016preVFP.root'
p194
aS'./Models/signal/CMS-HGG_sigfit_packaged_AC_Bin10_2016preVFP.root'
p195
aS'./Models/signal/CMS-HGG_sigfit_packaged_AC_Bin10_2016preVFP.root'
p196
aS'./Models/signal/CMS-HGG_sigfit_packaged_AC_Bin10_2016preVFP.root'
p197
aS'./Models/signal/CMS-HGG_sigfit_packaged_AC_Bin10_2016preVFP.root'
p198
aS'./Models/background/CMS-HGG_multipdf_AC_Bin10_2016preVFP.root'
p199
ag199
aS'wsig_13TeV:hggpdfsmrel_GG2HMf05ph0_2016preVFP_AC_Bin10_13TeV'
p200
aS'wsig_13TeV:hggpdfsmrel_GG2HbsmM_2016preVFP_AC_Bin10_13TeV'
p201
aS'wsig_13TeV:hggpdfsmrel_GG2Hsm_2016preVFP_AC_Bin10_13TeV'
p202
aS'wsig_13TeV:hggpdfsmrel_TTHsm_2016preVFP_AC_Bin10_13TeV'
p203
aS'wsig_13TeV:hggpdfsmrel_VBFMf05ph0_2016preVFP_AC_Bin10_13TeV'
p204
aS'wsig_13TeV:hggpdfsmrel_VBFbsmM_2016preVFP_AC_Bin10_13TeV'
p205
aS'wsig_13TeV:hggpdfsmrel_VBFsm_2016preVFP_AC_Bin10_13TeV'
p206
aS'wsig_13TeV:hggpdfsmrel_WHMf05ph0_2016preVFP_AC_Bin10_13TeV'
p207
aS'wsig_13TeV:hggpdfsmrel_WHbsmM_2016preVFP_AC_Bin10_13TeV'
p208
aS'wsig_13TeV:hggpdfsmrel_WHsm_2016preVFP_AC_Bin10_13TeV'
p209
aS'wsig_13TeV:hggpdfsmrel_ZHMf05ph0_2016preVFP_AC_Bin10_13TeV'
p210
aS'wsig_13TeV:hggpdfsmrel_ZHbsmM_2016preVFP_AC_Bin10_13TeV'
p211
aS'wsig_13TeV:hggpdfsmrel_ZHsm_2016preVFP_AC_Bin10_13TeV'
p212
aS'multipdf:CMS_hgg_AC_Bin10_2016preVFP_13TeV_bkgshape'
p213
aS'multipdf:roohist_data_mass_AC_Bin10'
p214
aF0.028354411102327504
aF0.04845419885214142
aF0.023354188605935633
aF0.002409198605619167
aF0.0772988541605173
aF0.0858904155916207
aF0.042327510348627584
aF0.0005597355642521507
aF0.0011807093754896414
aF0.0002089327206249436
aF8.808414713712409e-05
aF0.00025684423599159345
aF0.0007584749914713029
ag145
ag145
aF3.7810240826531486e-06
aF1.4809634334957784e-05
aF6.09447945180308e-06
aF2.775259106111335e-07
aF1.588481053537138e-05
aF7.06165222956047e-06
aF0.00011139686835123654
aF1.683701243916072e-08
aF6.415375597653827e-08
aF4.9041723535746726e-09
aF2.710626899193769e-09
aF3.307816151329421e-08
aF1.9500333205144614e-07
ag145
ag145
aF0.029003138210494744
aF0.04954302399081556
aF0.02387925396396193
aF0.002461554392323398
aF0.07896758825908214
aF0.08776346165613705
aF0.04285316129358139
aF0.0005720372651124928
aF0.001209172047125688
aF0.00021363533492214627
aF8.999477784255632e-05
aF0.00026247569460309734
aF0.0007744260703853601
ag145
ag145
aF0.02854204892032885
aF0.048771124271468264
aF0.02350787964052594
aF0.0024253009429479407
aF0.077814329924137
aF0.08646055448612165
aF0.04261102770232308
aF0.0005634312385507957
aF0.001188644564723599
aF0.0002103143829291981
aF8.868480329626809e-05
aF0.0002585956891743107
aF0.0007635084594141873
ag145
ag145
aF0.028167392757588474
aF0.04813830722579241
aF0.023201001741445484
aF0.0023931499359350883
aF0.07678509313002561
aF0.08532216532701788
aF0.042044938591106425
aF0.0005560520559148526
aF0.0011728007834624539
aF0.00020755561240089638
aF8.748553086696515e-05
aF0.00025509873606246276
aF0.0007534582375054712
ag145
ag145
aF0.028789662930370233
aF0.04925254488463697
aF0.02374707177376522
aF0.002443710645445625
aF0.07838716986833441
aF0.0871154132645347
aF0.042828999862142225
aF0.0005688386155375131
aF0.0011971049563385633
aF0.00021229966805342055
aF8.911218186027816e-05
aF0.0002598418838684586
aF0.0007698259093849444
ag145
ag145
aF0.027922288764665515
aF0.047661883177631335
aF0.02296432180191593
aF0.0023749253578686726
aF0.07621800820226138
aF0.08467425032072333
aF0.04182712708785703
aF0.0005507070615243065
aF0.0011644342132686488
aF0.00020559070815325353
aF8.706207044308988e-05
aF0.00025386396945479715
aF0.0007471964066981538
ag145
ag145
aF0.028396923295460102
aF0.04853203095540949
aF0.023388829062591585
aF0.0024122784503669463
aF0.07740289690122894
aF0.08601349659635646
aF0.04238560257469064
aF0.0005605734221822385
aF0.001182359313476157
aF0.00020922318555708998
aF8.817246488264928e-05
aF0.0002571017620490568
aF0.0007595232083325509
ag145
ag145
aF0.02831193091503474
aF0.04837642767046977
aF0.02331957176139161
aF0.002406120480543481
aF0.07719487896043488
aF0.08576742590557436
aF0.042269455050162094
aF0.0005588982921454997
aF0.0011790605998236142
aF0.000208642439347157
aF8.799586306973547e-05
aF0.00025658681204353506
aF0.000757427654357216
ag145
ag145
aF0.028413349364058864
aF0.0485551236670759
aF0.023402598434177493
aF0.002414094625143284
aF0.07745741989456996
aF0.08607955863800186
aF0.04232184841985535
aF0.0005608698365499288
aF0.0011833193780434817
aF0.00020935433799430147
aF8.826111513295715e-05
aF0.000257360315767766
aF0.00076001560231304
ag145
ag145
aF0.028295534137533353
aF0.048353379414971795
aF0.023305829048509863
aF0.002404307662187676
aF0.07714045360908464
aF0.08570148213076235
aF0.04233307523451829
aF0.0005586024649243142
aF0.001178102261356046
aF0.00020851153745994464
aF8.790735833002423e-05
aF0.0002563286733296417
aF0.0007569359847832813
ag145
ag145
aF0.02810534943409948
aF0.04629454978544345
aF0.02277791088658887
aF0.0023996930322027765
aF0.07682081886616743
aF0.08524894577385567
aF0.041071416025715735
aF0.0005510932454626527
aF0.0011807093754896414
aF0.0002089327206249436
aF8.808414713712409e-05
aF0.00025684423599159345
aF0.0007557266289950348
ag145
ag145
aF0.028927783085919145
aF0.04951342793151525
aF0.023570158246911888
aF0.002371312178070184
aF0.07762910551582536
aF0.08639041970604922
aF0.04393721163057762
aF0.0005700483824284674
aF0.00118801919904854
aF0.00021034630526628462
aF8.808414713712409e-05
aF0.00025684423599159345
aF0.0007807834758750687
ag145
ag145
aF0.028920249983457325
aF0.04897826678711681
aF0.023510195194830885
aF0.002484070486161727
aF0.07803181779195256
aF0.08687235318859621
aF0.04308242907495696
aF0.0005842399053790359
aF0.0011943524573325703
aF0.00021351489544940705
aF8.808414713712409e-05
aF0.00025684423599159345
aF0.0007584749914713029
ag145
ag145
aF0.028011086286596765
aF0.04700694919165471
aF0.022670906998200735
aF0.002313774847834793
aF0.07625215057498735
aF0.08455178084000181
aF0.0415499050826611
aF0.0005518508506838771
aF0.0011824949733636458
aF0.00020141219124525378
aF8.808414713712409e-05
aF0.00025684423599159345
aF0.0007584749914713029
ag145
ag145
aF0.028506242186495
aF0.04866268074920299
aF0.02359734739366104
aF0.002381686147145956
aF0.07740475176035488
aF0.08593857323398879
aF0.04227014927653272
aF0.0005597355642521507
aF0.0011879439856556928
aF0.00021183211151765136
aF8.808414713712409e-05
aF0.00025684423599159345
aF0.0007584749914713029
ag145
ag145
aF0.028180646006376264
aF0.04786057003730093
aF0.023077678454001216
aF0.002501845638562372
aF0.07713923316600813
aF0.085837069128047
aF0.04202536640184462
aF0.0005485930649911097
aF0.0011700437040644829
aF0.000200962409735439
aF8.808414713712409e-05
aF0.00025684423599159345
aF0.0007584749914713029
ag145
ag145
aF0.030313028203181602
aF0.04992532222468071
aF0.02408713780846483
aF0.002188492772347672
aF0.07884902531759508
aF0.08693205937834136
aF0.043837738121396796
aF0.0005960879462918456
aF0.0012367114325115836
aF0.000269930974241106
aF8.808414713712409e-05
aF0.0002891617295972537
aF0.0007584749914713029
ag145
ag145
aF0.027397106705848273
aF0.04294305084363259
aF0.020260327956520996
aF0.0023210934873532096
aF0.07704909182757547
aF0.08474815012812087
aF0.04944270582507215
aF0.000462725440684153
aF0.0010863544454196017
aF0.00020947190682818473
aF8.808414713712409e-05
aF0.00045333931484492496
aF0.0007451552376096515
ag145
ag145
aF0.02902917286905904
aF0.048236919003329604
aF0.02387823514231968
aF0.0023996498814540246
aF0.07716129202685806
aF0.08580916399046146
aF0.041542625467059224
aF0.0005630605024862234
aF0.001182885795628863
aF0.00021200516437147598
aF8.808414713712409e-05
aF0.00025684423599159345
aF0.0007489716210784536
ag145
ag145
aF0.028339991004941112
aF0.047890668549371185
aF0.023266650094456054
aF0.0023318271073549113
aF0.07728888389362965
aF0.0855543567914765
aF0.041434533398955864
aF0.0005106071997715844
aF0.0011673248518491164
aF0.00019890717862836027
aF8.808414713712409e-05
aF0.00025684423599159345
aF0.0007620673959536362
ag145
ag145
atp215
ba(lp216
g15
(g16
(dp217
g18
g19
(g20
(I0
tp218
g22
tp219
Rp220
(I1
(I1
tp221
g29
I00
(lp222
g43
atp223
bsg66
Nstp224
Rp225
ag15
(g16
(dp226
g18
g19
(g20
(I0
tp227
g22
tp228
Rp229
(I1
(I31
tp230
g29
I00
(lp231
g33
ag34
ag35
ag36
ag37
ag38
ag39
ag40
ag41
ag42
ag44
ag45
ag46
ag47
ag48
ag49
ag50
ag51
ag52
ag53
ag54
ag55
ag56
ag57
ag58
ag59
ag60
ag61
ag62
ag63
ag64
atp232
bsg66
Nstp233
Rp234
a(dp235
S'0.14.1'
p236
(dp237
S'axes'
p238
g14
sS'blocks'
p239
(lp240
(dp241
S'mgr_locs'
p242
c__builtin__
slice
p243
(I10
I11
I1
tp244
Rp245
sS'values'
p246
g87
sa(dp247
g242
g19
(g20
(I0
tp248
g22
tp249
Rp250
(I1
(I31
tp251
g77
I00
S'\x00\x00\x00\x00\x00\x00\x00\x00\x01\x00\x00\x00\x00\x00\x00\x00\x02\x00\x00\x00\x00\x00\x00\x00\x03\x00\x00\x00\x00\x00\x00\x00\x04\x00\x00\x00\x00\x00\x00\x00\x05\x00\x00\x00\x00\x00\x00\x00\x06\x00\x00\x00\x00\x00\x00\x00\x07\x00\x00\x00\x00\x00\x00\x00\x08\x00\x00\x00\x00\x00\x00\x00\t\x00\x00\x00\x00\x00\x00\x00\x0b\x00\x00\x00\x00\x00\x00\x00\x0c\x00\x00\x00\x00\x00\x00\x00\r\x00\x00\x00\x00\x00\x00\x00\x0e\x00\x00\x00\x00\x00\x00\x00\x0f\x00\x00\x00\x00\x00\x00\x00\x10\x00\x00\x00\x00\x00\x00\x00\x11\x00\x00\x00\x00\x00\x00\x00\x12\x00\x00\x00\x00\x00\x00\x00\x13\x00\x00\x00\x00\x00\x00\x00\x14\x00\x00\x00\x00\x00\x00\x00\x15\x00\x00\x00\x00\x00\x00\x00\x16\x00\x00\x00\x00\x00\x00\x00\x17\x00\x00\x00\x00\x00\x00\x00\x18\x00\x00\x00\x00\x00\x00\x00\x19\x00\x00\x00\x00\x00\x00\x00\x1a\x00\x00\x00\x00\x00\x00\x00\x1b\x00\x00\x00\x00\x00\x00\x00\x1c\x00\x00\x00\x00\x00\x00\x00\x1d\x00\x00\x00\x00\x00\x00\x00\x1e\x00\x00\x00\x00\x00\x00\x00\x1f\x00\x00\x00\x00\x00\x00\x00'
p252
tp253
bsg246
g98
sasstp254
bsb.