ccopy_reg
_reconstructor
p0
(cpandas.core.frame
DataFrame
p1
c__builtin__
object
p2
Ntp3
Rp4
(dp5
S'_metadata'
p6
(lp7
sS'_typ'
p8
S'dataframe'
p9
sS'_data'
p10
g0
(cpandas.core.internals
BlockManager
p11
g2
Ntp12
Rp13
((lp14
cpandas.core.indexes.base
_new_Index
p15
(cpandas.core.indexes.base
Index
p16
(dp17
S'data'
p18
cnumpy.core.multiarray
_reconstruct
p19
(cnumpy
ndarray
p20
(I0
tp21
S'b'
p22
tp23
Rp24
(I1
(I34
tp25
cnumpy
dtype
p26
(S'O8'
p27
I0
I1
tp28
Rp29
(I3
S'|'
p30
NNNI-1
I-1
I63
tp31
bI00
(lp32
S'year'
p33
aS'type'
p34
aS'procOriginal'
p35
aS'proc'
p36
aS'proc_s0'
p37
aS'cat'
p38
aS'inputWSFile'
p39
aS'nominalDataName'
p40
aS'modelWSFile'
p41
aS'model'
p42
aS'rate'
p43
aS'nominal_yield'
p44
aS'sumw2'
p45
aS'nominal_yield_COWCorr'
p46
aS'LooseMvaSF_up_yield'
p47
aS'LooseMvaSF_down_yield'
p48
aS'PreselSF_up_yield'
p49
aS'PreselSF_down_yield'
p50
aS'electronVetoSF_up_yield'
p51
aS'electronVetoSF_down_yield'
p52
aS'TriggerWeight_up_yield'
p53
aS'TriggerWeight_down_yield'
p54
aS'SigmaEOverEShift_up_yield'
p55
aS'SigmaEOverEShift_down_yield'
p56
aS'MvaShift_up_yield'
p57
aS'MvaShift_down_yield'
p58
aS'PUJIDShift_up_yield'
p59
aS'PUJIDShift_down_yield'
p60
aS'JEC_up_yield'
p61
aS'JEC_down_yield'
p62
aS'JER_up_yield'
p63
aS'JER_down_yield'
p64
aS'JetHEM_up_yield'
p65
aS'JetHEM_down_yield'
p66
atp67
bsS'name'
p68
Nstp69
Rp70
ag15
(cpandas.core.indexes.numeric
Int64Index
p71
(dp72
g18
g19
(g20
(I0
tp73
g22
tp74
Rp75
(I1
(I15
tp76
g26
(S'i8'
p77
I0
I1
tp78
Rp79
(I3
S'<'
p80
NNNI-1
I-1
I0
tp81
bI00
S'\x00\x00\x00\x00\x00\x00\x00\x00\x01\x00\x00\x00\x00\x00\x00\x00\x02\x00\x00\x00\x00\x00\x00\x00\x03\x00\x00\x00\x00\x00\x00\x00\x04\x00\x00\x00\x00\x00\x00\x00\x05\x00\x00\x00\x00\x00\x00\x00\x06\x00\x00\x00\x00\x00\x00\x00\x07\x00\x00\x00\x00\x00\x00\x00\x08\x00\x00\x00\x00\x00\x00\x00\t\x00\x00\x00\x00\x00\x00\x00\n\x00\x00\x00\x00\x00\x00\x00\x0b\x00\x00\x00\x00\x00\x00\x00\x0c\x00\x00\x00\x00\x00\x00\x00\r\x00\x00\x00\x00\x00\x00\x00\x0e\x00\x00\x00\x00\x00\x00\x00'
p82
tp83
bsg68
Nstp84
Rp85
a(lp86
g19
(g20
(I0
tp87
g22
tp88
Rp89
(I1
(I1
I15
tp90
g26
(S'f8'
p91
I0
I1
tp92
Rp93
(I3
S'<'
p94
NNNI-1
I-1
I0
tp95
bI00
S'\x00\x00\x00\x00\x00\x10\xd3@\x00\x00\x00\x00\x00\x10\xd3@\x00\x00\x00\x00\x00\x10\xd3@\x00\x00\x00\x00\x00\x10\xd3@\x00\x00\x00\x00\x00\x10\xd3@\x00\x00\x00\x00\x00\x10\xd3@\x00\x00\x00\x00\x00\x10\xd3@\x00\x00\x00\x00\x00\x10\xd3@\x00\x00\x00\x00\x00\x10\xd3@\x00\x00\x00\x00\x00\x10\xd3@\x00\x00\x00\x00\x00\x10\xd3@\x00\x00\x00\x00\x00\x10\xd3@\x00\x00\x00\x00\x00\x10\xd3@\x00\x00\x00\x00\x00\x00\xf0?\x00\x00\x00\x00\x00\x00\xf0\xbf'
p96
tp97
bag19
(g20
(I0
tp98
g22
tp99
Rp100
(I1
(I33
I15
tp101
g29
I00
(lp102
S'2016preVFP'
p103
ag103
ag103
ag103
ag103
ag103
ag103
ag103
ag103
ag103
ag103
ag103
ag103
ag33
ag33
aS'sig'
p104
ag104
ag104
ag104
ag104
ag104
ag104
ag104
ag104
ag104
ag104
ag104
ag104
aS'bkg'
p105
ag18
aS'GG2HMf05ph0'
p106
aS'GG2HbsmM'
p107
aS'GG2Hsm'
p108
aS'TTHsm'
p109
aS'VBFMf05ph0'
p110
aS'VBFbsmM'
p111
aS'VBFsm'
p112
aS'WHMf05ph0'
p113
aS'WHbsmM'
p114
aS'WHsm'
p115
aS'ZHMf05ph0'
p116
aS'ZHbsmM'
p117
aS'ZHsm'
p118
aS'bkg_mass'
p119
aS'data_obs'
p120
aS'GG2HMf05ph0_2016preVFP_hgg'
p121
aS'GG2HbsmM_2016preVFP_hgg'
p122
aS'GG2Hsm_2016preVFP_hgg'
p123
aS'tth0P_2016preVFP_hgg'
p124
aS'vbf0Mf05ph0_2016preVFP_hgg'
p125
aS'vbf0M_2016preVFP_hgg'
p126
aS'vbf0P_2016preVFP_hgg'
p127
aS'wh0Mf05ph0_2016preVFP_hgg'
p128
aS'wh0M_2016preVFP_hgg'
p129
aS'wh0P_2016preVFP_hgg'
p130
aS'zh0Mf05ph0_2016preVFP_hgg'
p131
aS'zh0M_2016preVFP_hgg'
p132
aS'zh0P_2016preVFP_hgg'
p133
ag119
ag120
aS'jjh0Mf05ph0'
p134
aS'jjh0M'
p135
aS'jjh0P'
p136
aS'tth0P'
p137
aS'vbf0Mf05ph0'
p138
aS'vbf0M'
p139
aS'vbf0P'
p140
aS'wh0Mf05ph0'
p141
aS'wh0M'
p142
aS'wh0P'
p143
aS'zh0Mf05ph0'
p144
aS'zh0M'
p145
aS'zh0P'
p146
aS'-'
p147
ag147
aS'AC_Bin4_2016preVFP'
p148
aS'AC_Bin4_2016preVFP'
p149
aS'AC_Bin4_2016preVFP'
p150
aS'AC_Bin4_2016preVFP'
p151
aS'AC_Bin4_2016preVFP'
p152
aS'AC_Bin4_2016preVFP'
p153
aS'AC_Bin4_2016preVFP'
p154
aS'AC_Bin4_2016preVFP'
p155
aS'AC_Bin4_2016preVFP'
p156
aS'AC_Bin4_2016preVFP'
p157
aS'AC_Bin4_2016preVFP'
p158
aS'AC_Bin4_2016preVFP'
p159
aS'AC_Bin4_2016preVFP'
p160
aS'AC_Bin4_2016preVFP'
p161
ag161
aS'Trees/Opt_2016preVFP/2016PreVFP/Trees2WS_2016preVFP/WS/output_GluGluHToGGPlusTwoJets_MM_M125_TuneCP5_13TeV-amcatnlopowheg-minlo-pythia8_GG2HMf05ph0.root'
p162
aS'Trees/Opt_2016preVFP/2016PreVFP/Trees2WS_2016preVFP/WS/output_GluGluHToGGPlusTwoJets_CPodd_M125_TuneCP5_13TeV-amcatnlopowheg-minlo-pythia8_GG2HbsmM.root'
p163
aS'Trees/Opt_2016preVFP/2016PreVFP/Trees2WS_2016preVFP/WS/output_GluGluHToGGPlusTwoJets_SM_M125_TuneCP5_13TeV-amcatnlopowheg-minlo-pythia8_GG2Hsm.root'
p164
aS'Trees/Opt_2016preVFP/2016PreVFP/Trees2WS_2016preVFP/WS/output_ttHJetToGG_M125_TuneCP5_13TeV-amcatnloFXFX-madspin-pythia8_TTHsm.root'
p165
aS'Trees/Opt_2016preVFP/2016PreVFP/Trees2WS_2016preVFP/WS/output_VBFHiggs0Mf05ph0ToGG_M125_TuneCP5_13TeV-JHUGenV7011-pythia8_VBFMf05ph0.root'
p166
aS'Trees/Opt_2016preVFP/2016PreVFP/Trees2WS_2016preVFP/WS/output_VBFHiggs0MToGG_M125_TuneCP5_13TeV-JHUGenV7011-pythia8_VBFbsmM.root'
p167
aS'Trees/Opt_2016preVFP/2016PreVFP/Trees2WS_2016preVFP/WS/output_VBFHToGG_M125_TuneCP5_13TeV-amcatnlo-pythia8_VBFsm.root'
p168
aS'Trees/Opt_2016preVFP/2016PreVFP/Trees2WS_2016preVFP/WS/output_WHiggs0Mf05ph0ToGG_M125_TuneCP5_13TeV-JHUGenV7011-pythia8_WHMf05ph0.root'
p169
aS'Trees/Opt_2016preVFP/2016PreVFP/Trees2WS_2016preVFP/WS/output_WHiggs0MToGG_M125_TuneCP5_13TeV-JHUGenV7011-pythia8_WHbsmM.root'
p170
aS'Trees/Opt_2016preVFP/2016PreVFP/Trees2WS_2016preVFP/WS/output_WHiggs0PMToGG_M125_TuneCP5_13TeV-JHUGenV7011-pythia8_WHsm.root'
p171
aS'Trees/Opt_2016preVFP/2016PreVFP/Trees2WS_2016preVFP/WS/output_ZHiggs0Mf05ph0ToGG_M125_TuneCP5_13TeV-JHUGenV7011-pythia8_ZHMf05ph0.root'
p172
aS'Trees/Opt_2016preVFP/2016PreVFP/Trees2WS_2016preVFP/WS/output_ZHiggs0MToGG_M125_TuneCP5_13TeV-JHUGenV7011-pythia8_ZHbsmM.root'
p173
aS'Trees/Opt_2016preVFP/2016PreVFP/Trees2WS_2016preVFP/WS/output_ZH_HToGG_ZToAll_M125_TuneCP5_13TeV-powheg-pythia8_ZHsm.root'
p174
ag147
ag147
aS'jjh0Mf05ph0_125_13TeV_AC_Bin4'
p175
aS'jjh0M_125_13TeV_AC_Bin4'
p176
aS'jjh0P_125_13TeV_AC_Bin4'
p177
aS'tth0P_125_13TeV_AC_Bin4'
p178
aS'vbf0Mf05ph0_125_13TeV_AC_Bin4'
p179
aS'vbf0M_125_13TeV_AC_Bin4'
p180
aS'vbf0P_125_13TeV_AC_Bin4'
p181
aS'wh0Mf05ph0_125_13TeV_AC_Bin4'
p182
aS'wh0M_125_13TeV_AC_Bin4'
p183
aS'wh0P_125_13TeV_AC_Bin4'
p184
aS'zh0Mf05ph0_125_13TeV_AC_Bin4'
p185
aS'zh0M_125_13TeV_AC_Bin4'
p186
aS'zh0P_125_13TeV_AC_Bin4'
p187
ag147
ag147
aS'./Models/signal/CMS-HGG_sigfit_packaged_AC_Bin4_2016preVFP.root'
p188
aS'./Models/signal/CMS-HGG_sigfit_packaged_AC_Bin4_2016preVFP.root'
p189
aS'./Models/signal/CMS-HGG_sigfit_packaged_AC_Bin4_2016preVFP.root'
p190
aS'./Models/signal/CMS-HGG_sigfit_packaged_AC_Bin4_2016preVFP.root'
p191
aS'./Models/signal/CMS-HGG_sigfit_packaged_AC_Bin4_2016preVFP.root'
p192
aS'./Models/signal/CMS-HGG_sigfit_packaged_AC_Bin4_2016preVFP.root'
p193
aS'./Models/signal/CMS-HGG_sigfit_packaged_AC_Bin4_2016preVFP.root'
p194
aS'./Models/signal/CMS-HGG_sigfit_packaged_AC_Bin4_2016preVFP.root'
p195
aS'./Models/signal/CMS-HGG_sigfit_packaged_AC_Bin4_2016preVFP.root'
p196
aS'./Models/signal/CMS-HGG_sigfit_packaged_AC_Bin4_2016preVFP.root'
p197
aS'./Models/signal/CMS-HGG_sigfit_packaged_AC_Bin4_2016preVFP.root'
p198
aS'./Models/signal/CMS-HGG_sigfit_packaged_AC_Bin4_2016preVFP.root'
p199
aS'./Models/signal/CMS-HGG_sigfit_packaged_AC_Bin4_2016preVFP.root'
p200
aS'./Models/background/CMS-HGG_multipdf_AC_Bin4_2016preVFP.root'
p201
ag201
aS'wsig_13TeV:hggpdfsmrel_GG2HMf05ph0_2016preVFP_AC_Bin4_13TeV'
p202
aS'wsig_13TeV:hggpdfsmrel_GG2HbsmM_2016preVFP_AC_Bin4_13TeV'
p203
aS'wsig_13TeV:hggpdfsmrel_GG2Hsm_2016preVFP_AC_Bin4_13TeV'
p204
aS'wsig_13TeV:hggpdfsmrel_TTHsm_2016preVFP_AC_Bin4_13TeV'
p205
aS'wsig_13TeV:hggpdfsmrel_VBFMf05ph0_2016preVFP_AC_Bin4_13TeV'
p206
aS'wsig_13TeV:hggpdfsmrel_VBFbsmM_2016preVFP_AC_Bin4_13TeV'
p207
aS'wsig_13TeV:hggpdfsmrel_VBFsm_2016preVFP_AC_Bin4_13TeV'
p208
aS'wsig_13TeV:hggpdfsmrel_WHMf05ph0_2016preVFP_AC_Bin4_13TeV'
p209
aS'wsig_13TeV:hggpdfsmrel_WHbsmM_2016preVFP_AC_Bin4_13TeV'
p210
aS'wsig_13TeV:hggpdfsmrel_WHsm_2016preVFP_AC_Bin4_13TeV'
p211
aS'wsig_13TeV:hggpdfsmrel_ZHMf05ph0_2016preVFP_AC_Bin4_13TeV'
p212
aS'wsig_13TeV:hggpdfsmrel_ZHbsmM_2016preVFP_AC_Bin4_13TeV'
p213
aS'wsig_13TeV:hggpdfsmrel_ZHsm_2016preVFP_AC_Bin4_13TeV'
p214
aS'multipdf:CMS_hgg_AC_Bin4_2016preVFP_13TeV_bkgshape'
p215
aS'multipdf:roohist_data_mass_AC_Bin4'
p216
aF0.01043142337266545
aF0.010667859110071731
aF0.014784858327175243
aF0.0001862419204599064
aF0.0026209109601040836
aF0.00017360165531954408
aF0.006382415210168801
aF5.3268925626070995e-05
aF0.00019495682249726087
aF0.00014988249483849359
aI0
aI0
aF0.00019159971589033375
ag147
ag147
aF1.1652510918654913e-06
aF1.0751627188265957e-06
aF9.547406355607297e-07
aF1.1901901197198916e-08
aF1.6618817388438675e-07
aF3.5272614503501966e-09
aF1.6054450725568258e-06
aF2.378127162991759e-10
aF8.40752308363588e-09
aF1.8729767245671373e-09
aI0
aI0
aF3.8043351990038006e-09
ag147
ag147
aF0.010769115224900714
aF0.010884077961611982
aF0.01545856051170071
aF0.00018459024786816487
aF0.002701448980061348
aF0.00018292155665691423
aF0.006600573507577363
aF5.424498145295357e-05
aF0.000200990307745239
aF0.00015476649309277825
aI0
aI0
aF0.00019851485701389887
ag147
ag147
aF0.010497393100511215
aF0.010735023487254943
aF0.014879865463264023
aF0.0001874114184020733
aF0.0026376244227607256
aF0.0001746800385316102
aF0.00642302120259067
aF5.3602463315040074e-05
aF0.00019611961467184313
aF0.00015083816669152227
aI0
aI0
aF0.00019279067723570488
ag147
ag147
aF0.010365661718914433
aF0.010600905816385663
aF0.014690155824689391
aF0.0001850760602703497
aF0.002604250643990856
aF0.00017252661983314764
aF0.00634193799102003
aF5.29364294642883e-05
aF0.0001937975070111667
aF0.00014892986209327923
aI0
aI0
aF0.00019041242628208688
ag147
ag147
aF0.010652306807023353
aF0.010882782977288667
aF0.01504583473402429
aF0.0001912237083820468
aF0.0026730298593415232
aF0.00017648200608897
aF0.006504670053301968
aF5.432848533102172e-05
aF0.00020017658506213222
aF0.00015260921111245307
aI0
aI0
aF0.00019560670951620888
ag147
ag147
aF0.010212766976746094
aF0.010454933696136315
aF0.014526324922912929
aF0.00018129832064603036
aF0.0025692530771818066
aF0.00017073991513866102
aF0.006261181918415502
aF5.221720188774112e-05
aF0.00018977420521116794
aF0.00014718743094434305
aI0
aI0
aF0.00018762619848765026
ag147
ag147
aF0.010454810290786624
aF0.010693337890392538
aF0.014815956174072095
aF0.00018658988017511535
aF0.0026286270909762076
aF0.0001740511274660765
aF0.006398310984867361
aF5.343649657384907e-05
aF0.00019563994349455375
aF0.00015029880521538896
aI0
aI0
aF0.00019205754876980798
ag147
ag147
aF0.010408062046134014
aF0.01064240662324102
aF0.014753791484102751
aF0.0001858938614005505
aF0.0026132029493963977
aF0.00017315268583109372
aF0.006366527191463168
aF5.310152923392614e-05
aF0.00019427462025709138
aF0.00014946668588192914
aI0
aI0
aF0.00019114238607064937
ag147
ag147
aF0.010454470858162009
aF0.01069572285084166
aF0.014818830914216038
aF0.00018625510902704802
aF0.0026274581221981848
aF0.00017404946278199744
aF0.006397744540873061
aF5.337855072975322e-05
aF0.0001955485629363832
aF0.00015022511938811886
aI0
aI0
aF0.00019211614065149085
ag147
ag147
aF0.010408401609616478
aF0.010640030276084017
aF0.014750925275460246
aF0.00018622839470262137
aF0.002614371697081131
aF0.00017315440366754
aF0.0063671042891754615
aF5.315941537279525e-05
aF0.00019436588485686516
aF0.00014954026086088046
aI0
aI0
aF0.00019108393778978177
ag147
ag147
aF0.010692932061829197
aF0.010708695004041147
aF0.01605027339951448
aF0.0001862419204599064
aF0.0028092465211102535
aF0.00017360165531954408
aF0.006199487811045401
aF6.641844208843395e-05
aF0.00028367170625642757
aF0.0001530122100348308
aF0.0
aF0.0
aF0.00019159971589033375
ag147
ag147
aF0.010102058428401506
aF0.009832853772195449
aF0.014405336946765601
aF0.0001720063484071943
aF0.0025697748476432025
aF0.00016004191400043055
aF0.005213557062688778
aF5.3268925626070995e-05
aF0.00019661683109006844
aF0.00014988249483849359
aF0.0
aF0.0
aF0.00018230324030810152
ag147
ag147
aF0.010304371848405935
aF0.009975690413511984
aF0.014726598567563087
aF9.898957432596944e-05
aF0.0024475718714711547
aF0.00034236896624406654
aF0.0050666502862668494
aF5.743440362948604e-05
aF0.000195755855202151
aF0.00015401786799884576
aF0.0
aF0.0
aF0.0002153583650397195
ag147
ag147
aF0.010168759126827354
aF0.011057692260237673
aF0.015114512711988937
aF0.0001927597313624574
aF0.0028820340914990084
aF0.00014408245817776333
aF0.005667103760515602
aF6.361716361880099e-05
aF0.00012636829387702164
aF0.0001533505046609207
aF0.0
aF0.0
aF0.0001839119468058925
ag147
ag147
aF0.010902182757718037
aF0.011001388881140883
aF0.015362318661345853
aF0.00018887304906911595
aF0.002638486443856891
aF0.00017360165531954408
aF0.016309932186800324
aF8.355713828223088e-05
aF0.00019495682249726087
aF0.00015499697735776863
aF0.0
aF0.0
aF0.00019159971589033375
ag147
ag147
aF0.009980311980143597
aF0.01055349451917209
aF0.014595560181760447
aF0.0001862419204599064
aF0.002611362223433389
aF0.00017360165531954408
aF0.013462466319651867
aF5.151632308297849e-05
aF0.00019495682249726087
aF0.00014988249483849359
aF0.0
aF0.0
aF0.00019159971589033375
ag147
ag147
aF0.010360589214542415
aF0.011952803243502785
aF0.017488376990741017
aF0.0002600982232934257
aF0.002604916053087436
aF0.00017520852873076365
aF0.004931504496425987
aF5.969799269678333e-05
aF0.0001935681048053084
aF0.0001533414932737287
aF0.0
aF0.0
aF0.00020587308108588331
ag147
ag147
aF0.01005541214249206
aF0.009128841843903501
aF0.013897008373078279
aF0.0002656822017570448
aF0.0027224289817695535
aF0.0001648879066351583
aF0.005447874961419075
aF7.202859239896497e-05
aF0.00019652497178412887
aF0.00010531788120715646
aF0.0
aF0.0
aF0.000181471027644875
ag147
ag147
aF0.010480498354581869
aF0.010952124525829277
aF0.01517532452839987
aF0.00026510603413498757
aF0.002578696989985474
aF0.00017520852873076365
aF0.009787778475583764
aF5.6290556813110015e-05
aF0.000187542238450078
aF0.00014988249483849359
aF0.0
aF0.0
aF0.00019159971589033375
ag147
ag147
aF0.009278294786554397
aF0.010192273846541866
aF0.014682290201790238
aF0.00026887716512646875
aF0.0026337905496802705
aF0.00017360165531954408
aF0.008062754487809798
aF5.878335207398777e-05
aF0.00019323205719956604
aF0.0001464136324784704
aF0.0
aF0.0
aF0.00019159971589033375
ag147
ag147
aF0.01043142337266545
aF0.010667859110071731
aF0.014784858327175243
aF0.0001862419204599064
aF0.0026209109601040836
aF0.00017360165531954408
aF0.006382415210168801
aF5.3268925626070995e-05
aF0.00019495682249726087
aF0.00014988249483849359
aF0.0
aF0.0
aF0.00019159971589033375
ag147
ag147
aF0.01043142337266545
aF0.010667859110071731
aF0.014784858327175243
aF0.0001862419204599064
aF0.0026209109601040836
aF0.00017360165531954408
aF0.006382415210168801
aF5.3268925626070995e-05
aF0.00019495682249726087
aF0.00014988249483849359
aF0.0
aF0.0
aF0.00019159971589033375
ag147
ag147
atp217
ba(lp218
g15
(g16
(dp219
g18
g19
(g20
(I0
tp220
g22
tp221
Rp222
(I1
(I1
tp223
g29
I00
(lp224
g43
atp225
bsg68
Nstp226
Rp227
ag15
(g16
(dp228
g18
g19
(g20
(I0
tp229
g22
tp230
Rp231
(I1
(I33
tp232
g29
I00
(lp233
g33
ag34
ag35
ag36
ag37
ag38
ag39
ag40
ag41
ag42
ag44
ag45
ag46
ag47
ag48
ag49
ag50
ag51
ag52
ag53
ag54
ag55
ag56
ag57
ag58
ag59
ag60
ag61
ag62
ag63
ag64
ag65
ag66
atp234
bsg68
Nstp235
Rp236
a(dp237
S'0.14.1'
p238
(dp239
S'axes'
p240
g14
sS'blocks'
p241
(lp242
(dp243
S'mgr_locs'
p244
c__builtin__
slice
p245
(I10
I11
I1
tp246
Rp247
sS'values'
p248
g89
sa(dp249
g244
g19
(g20
(I0
tp250
g22
tp251
Rp252
(I1
(I33
tp253
g79
I00
S'\x00\x00\x00\x00\x00\x00\x00\x00\x01\x00\x00\x00\x00\x00\x00\x00\x02\x00\x00\x00\x00\x00\x00\x00\x03\x00\x00\x00\x00\x00\x00\x00\x04\x00\x00\x00\x00\x00\x00\x00\x05\x00\x00\x00\x00\x00\x00\x00\x06\x00\x00\x00\x00\x00\x00\x00\x07\x00\x00\x00\x00\x00\x00\x00\x08\x00\x00\x00\x00\x00\x00\x00\t\x00\x00\x00\x00\x00\x00\x00\x0b\x00\x00\x00\x00\x00\x00\x00\x0c\x00\x00\x00\x00\x00\x00\x00\r\x00\x00\x00\x00\x00\x00\x00\x0e\x00\x00\x00\x00\x00\x00\x00\x0f\x00\x00\x00\x00\x00\x00\x00\x10\x00\x00\x00\x00\x00\x00\x00\x11\x00\x00\x00\x00\x00\x00\x00\x12\x00\x00\x00\x00\x00\x00\x00\x13\x00\x00\x00\x00\x00\x00\x00\x14\x00\x00\x00\x00\x00\x00\x00\x15\x00\x00\x00\x00\x00\x00\x00\x16\x00\x00\x00\x00\x00\x00\x00\x17\x00\x00\x00\x00\x00\x00\x00\x18\x00\x00\x00\x00\x00\x00\x00\x19\x00\x00\x00\x00\x00\x00\x00\x1a\x00\x00\x00\x00\x00\x00\x00\x1b\x00\x00\x00\x00\x00\x00\x00\x1c\x00\x00\x00\x00\x00\x00\x00\x1d\x00\x00\x00\x00\x00\x00\x00\x1e\x00\x00\x00\x00\x00\x00\x00\x1f\x00\x00\x00\x00\x00\x00\x00 \x00\x00\x00\x00\x00\x00\x00!\x00\x00\x00\x00\x00\x00\x00'
p254
tp255
bsg248
g100
sasstp256
bsb.