ccopy_reg
_reconstructor
p0
(cpandas.core.frame
DataFrame
p1
c__builtin__
object
p2
Ntp3
Rp4
(dp5
S'_metadata'
p6
(lp7
sS'_typ'
p8
S'dataframe'
p9
sS'_data'
p10
g0
(cpandas.core.internals
BlockManager
p11
g2
Ntp12
Rp13
((lp14
cpandas.core.indexes.base
_new_Index
p15
(cpandas.core.indexes.base
Index
p16
(dp17
S'data'
p18
cnumpy.core.multiarray
_reconstruct
p19
(cnumpy
ndarray
p20
(I0
tp21
S'b'
p22
tp23
Rp24
(I1
(I34
tp25
cnumpy
dtype
p26
(S'O8'
p27
I0
I1
tp28
Rp29
(I3
S'|'
p30
NNNI-1
I-1
I63
tp31
bI00
(lp32
S'year'
p33
aS'type'
p34
aS'procOriginal'
p35
aS'proc'
p36
aS'proc_s0'
p37
aS'cat'
p38
aS'inputWSFile'
p39
aS'nominalDataName'
p40
aS'modelWSFile'
p41
aS'model'
p42
aS'rate'
p43
aS'nominal_yield'
p44
aS'sumw2'
p45
aS'nominal_yield_COWCorr'
p46
aS'LooseMvaSF_up_yield'
p47
aS'LooseMvaSF_down_yield'
p48
aS'PreselSF_up_yield'
p49
aS'PreselSF_down_yield'
p50
aS'electronVetoSF_up_yield'
p51
aS'electronVetoSF_down_yield'
p52
aS'TriggerWeight_up_yield'
p53
aS'TriggerWeight_down_yield'
p54
aS'SigmaEOverEShift_up_yield'
p55
aS'SigmaEOverEShift_down_yield'
p56
aS'MvaShift_up_yield'
p57
aS'MvaShift_down_yield'
p58
aS'PUJIDShift_up_yield'
p59
aS'PUJIDShift_down_yield'
p60
aS'JEC_up_yield'
p61
aS'JEC_down_yield'
p62
aS'JER_up_yield'
p63
aS'JER_down_yield'
p64
aS'JetHEM_up_yield'
p65
aS'JetHEM_down_yield'
p66
atp67
bsS'name'
p68
Nstp69
Rp70
ag15
(cpandas.core.indexes.numeric
Int64Index
p71
(dp72
g18
g19
(g20
(I0
tp73
g22
tp74
Rp75
(I1
(I15
tp76
g26
(S'i8'
p77
I0
I1
tp78
Rp79
(I3
S'<'
p80
NNNI-1
I-1
I0
tp81
bI00
S'\x00\x00\x00\x00\x00\x00\x00\x00\x01\x00\x00\x00\x00\x00\x00\x00\x02\x00\x00\x00\x00\x00\x00\x00\x03\x00\x00\x00\x00\x00\x00\x00\x04\x00\x00\x00\x00\x00\x00\x00\x05\x00\x00\x00\x00\x00\x00\x00\x06\x00\x00\x00\x00\x00\x00\x00\x07\x00\x00\x00\x00\x00\x00\x00\x08\x00\x00\x00\x00\x00\x00\x00\t\x00\x00\x00\x00\x00\x00\x00\n\x00\x00\x00\x00\x00\x00\x00\x0b\x00\x00\x00\x00\x00\x00\x00\x0c\x00\x00\x00\x00\x00\x00\x00\r\x00\x00\x00\x00\x00\x00\x00\x0e\x00\x00\x00\x00\x00\x00\x00'
p82
tp83
bsg68
Nstp84
Rp85
a(lp86
g19
(g20
(I0
tp87
g22
tp88
Rp89
(I1
(I1
I15
tp90
g26
(S'f8'
p91
I0
I1
tp92
Rp93
(I3
S'<'
p94
NNNI-1
I-1
I0
tp95
bI00
S'\x00\x00\x00\x00\x00\x10\xd3@\x00\x00\x00\x00\x00\x10\xd3@\x00\x00\x00\x00\x00\x10\xd3@\x00\x00\x00\x00\x00\x10\xd3@\x00\x00\x00\x00\x00\x10\xd3@\x00\x00\x00\x00\x00\x10\xd3@\x00\x00\x00\x00\x00\x10\xd3@\x00\x00\x00\x00\x00\x10\xd3@\x00\x00\x00\x00\x00\x10\xd3@\x00\x00\x00\x00\x00\x10\xd3@\x00\x00\x00\x00\x00\x10\xd3@\x00\x00\x00\x00\x00\x10\xd3@\x00\x00\x00\x00\x00\x10\xd3@\x00\x00\x00\x00\x00\x00\xf0?\x00\x00\x00\x00\x00\x00\xf0\xbf'
p96
tp97
bag19
(g20
(I0
tp98
g22
tp99
Rp100
(I1
(I33
I15
tp101
g29
I00
(lp102
S'2016preVFP'
p103
ag103
ag103
ag103
ag103
ag103
ag103
ag103
ag103
ag103
ag103
ag103
ag103
ag33
ag33
aS'sig'
p104
ag104
ag104
ag104
ag104
ag104
ag104
ag104
ag104
ag104
ag104
ag104
ag104
aS'bkg'
p105
ag18
aS'GG2HMf05ph0'
p106
aS'GG2HbsmM'
p107
aS'GG2Hsm'
p108
aS'TTHsm'
p109
aS'VBFMf05ph0'
p110
aS'VBFbsmM'
p111
aS'VBFsm'
p112
aS'WHMf05ph0'
p113
aS'WHbsmM'
p114
aS'WHsm'
p115
aS'ZHMf05ph0'
p116
aS'ZHbsmM'
p117
aS'ZHsm'
p118
aS'bkg_mass'
p119
aS'data_obs'
p120
aS'GG2HMf05ph0_2016preVFP_hgg'
p121
aS'GG2HbsmM_2016preVFP_hgg'
p122
aS'GG2Hsm_2016preVFP_hgg'
p123
aS'tth0P_2016preVFP_hgg'
p124
aS'vbf0Mf05ph0_2016preVFP_hgg'
p125
aS'vbf0M_2016preVFP_hgg'
p126
aS'vbf0P_2016preVFP_hgg'
p127
aS'wh0Mf05ph0_2016preVFP_hgg'
p128
aS'wh0M_2016preVFP_hgg'
p129
aS'wh0P_2016preVFP_hgg'
p130
aS'zh0Mf05ph0_2016preVFP_hgg'
p131
aS'zh0M_2016preVFP_hgg'
p132
aS'zh0P_2016preVFP_hgg'
p133
ag119
ag120
aS'jjh0Mf05ph0'
p134
aS'jjh0M'
p135
aS'jjh0P'
p136
aS'tth0P'
p137
aS'vbf0Mf05ph0'
p138
aS'vbf0M'
p139
aS'vbf0P'
p140
aS'wh0Mf05ph0'
p141
aS'wh0M'
p142
aS'wh0P'
p143
aS'zh0Mf05ph0'
p144
aS'zh0M'
p145
aS'zh0P'
p146
aS'-'
p147
ag147
aS'AC_Bin20_2016preVFP'
p148
aS'AC_Bin20_2016preVFP'
p149
aS'AC_Bin20_2016preVFP'
p150
aS'AC_Bin20_2016preVFP'
p151
aS'AC_Bin20_2016preVFP'
p152
aS'AC_Bin20_2016preVFP'
p153
aS'AC_Bin20_2016preVFP'
p154
aS'AC_Bin20_2016preVFP'
p155
aS'AC_Bin20_2016preVFP'
p156
aS'AC_Bin20_2016preVFP'
p157
aS'AC_Bin20_2016preVFP'
p158
aS'AC_Bin20_2016preVFP'
p159
aS'AC_Bin20_2016preVFP'
p160
aS'AC_Bin20_2016preVFP'
p161
ag161
aS'Trees/Opt_2016preVFP/2016PreVFP/Trees2WS_2016preVFP/WS/output_GluGluHToGGPlusTwoJets_MM_M125_TuneCP5_13TeV-amcatnlopowheg-minlo-pythia8_GG2HMf05ph0.root'
p162
aS'Trees/Opt_2016preVFP/2016PreVFP/Trees2WS_2016preVFP/WS/output_GluGluHToGGPlusTwoJets_CPodd_M125_TuneCP5_13TeV-amcatnlopowheg-minlo-pythia8_GG2HbsmM.root'
p163
aS'Trees/Opt_2016preVFP/2016PreVFP/Trees2WS_2016preVFP/WS/output_GluGluHToGGPlusTwoJets_SM_M125_TuneCP5_13TeV-amcatnlopowheg-minlo-pythia8_GG2Hsm.root'
p164
aS'Trees/Opt_2016preVFP/2016PreVFP/Trees2WS_2016preVFP/WS/output_ttHJetToGG_M125_TuneCP5_13TeV-amcatnloFXFX-madspin-pythia8_TTHsm.root'
p165
aS'Trees/Opt_2016preVFP/2016PreVFP/Trees2WS_2016preVFP/WS/output_VBFHiggs0Mf05ph0ToGG_M125_TuneCP5_13TeV-JHUGenV7011-pythia8_VBFMf05ph0.root'
p166
aS'Trees/Opt_2016preVFP/2016PreVFP/Trees2WS_2016preVFP/WS/output_VBFHiggs0MToGG_M125_TuneCP5_13TeV-JHUGenV7011-pythia8_VBFbsmM.root'
p167
aS'Trees/Opt_2016preVFP/2016PreVFP/Trees2WS_2016preVFP/WS/output_VBFHToGG_M125_TuneCP5_13TeV-amcatnlo-pythia8_VBFsm.root'
p168
aS'Trees/Opt_2016preVFP/2016PreVFP/Trees2WS_2016preVFP/WS/output_WHiggs0Mf05ph0ToGG_M125_TuneCP5_13TeV-JHUGenV7011-pythia8_WHMf05ph0.root'
p169
aS'Trees/Opt_2016preVFP/2016PreVFP/Trees2WS_2016preVFP/WS/output_WHiggs0MToGG_M125_TuneCP5_13TeV-JHUGenV7011-pythia8_WHbsmM.root'
p170
aS'Trees/Opt_2016preVFP/2016PreVFP/Trees2WS_2016preVFP/WS/output_WHiggs0PMToGG_M125_TuneCP5_13TeV-JHUGenV7011-pythia8_WHsm.root'
p171
aS'Trees/Opt_2016preVFP/2016PreVFP/Trees2WS_2016preVFP/WS/output_ZHiggs0Mf05ph0ToGG_M125_TuneCP5_13TeV-JHUGenV7011-pythia8_ZHMf05ph0.root'
p172
aS'Trees/Opt_2016preVFP/2016PreVFP/Trees2WS_2016preVFP/WS/output_ZHiggs0MToGG_M125_TuneCP5_13TeV-JHUGenV7011-pythia8_ZHbsmM.root'
p173
aS'Trees/Opt_2016preVFP/2016PreVFP/Trees2WS_2016preVFP/WS/output_ZH_HToGG_ZToAll_M125_TuneCP5_13TeV-powheg-pythia8_ZHsm.root'
p174
ag147
ag147
aS'jjh0Mf05ph0_125_13TeV_AC_Bin20'
p175
aS'jjh0M_125_13TeV_AC_Bin20'
p176
aS'jjh0P_125_13TeV_AC_Bin20'
p177
aS'tth0P_125_13TeV_AC_Bin20'
p178
aS'vbf0Mf05ph0_125_13TeV_AC_Bin20'
p179
aS'vbf0M_125_13TeV_AC_Bin20'
p180
aS'vbf0P_125_13TeV_AC_Bin20'
p181
aS'wh0Mf05ph0_125_13TeV_AC_Bin20'
p182
aS'wh0M_125_13TeV_AC_Bin20'
p183
aS'wh0P_125_13TeV_AC_Bin20'
p184
aS'zh0Mf05ph0_125_13TeV_AC_Bin20'
p185
aS'zh0M_125_13TeV_AC_Bin20'
p186
aS'zh0P_125_13TeV_AC_Bin20'
p187
ag147
ag147
aS'./Models/signal/CMS-HGG_sigfit_packaged_AC_Bin20_2016preVFP.root'
p188
aS'./Models/signal/CMS-HGG_sigfit_packaged_AC_Bin20_2016preVFP.root'
p189
aS'./Models/signal/CMS-HGG_sigfit_packaged_AC_Bin20_2016preVFP.root'
p190
aS'./Models/signal/CMS-HGG_sigfit_packaged_AC_Bin20_2016preVFP.root'
p191
aS'./Models/signal/CMS-HGG_sigfit_packaged_AC_Bin20_2016preVFP.root'
p192
aS'./Models/signal/CMS-HGG_sigfit_packaged_AC_Bin20_2016preVFP.root'
p193
aS'./Models/signal/CMS-HGG_sigfit_packaged_AC_Bin20_2016preVFP.root'
p194
aS'./Models/signal/CMS-HGG_sigfit_packaged_AC_Bin20_2016preVFP.root'
p195
aS'./Models/signal/CMS-HGG_sigfit_packaged_AC_Bin20_2016preVFP.root'
p196
aS'./Models/signal/CMS-HGG_sigfit_packaged_AC_Bin20_2016preVFP.root'
p197
aS'./Models/signal/CMS-HGG_sigfit_packaged_AC_Bin20_2016preVFP.root'
p198
aS'./Models/signal/CMS-HGG_sigfit_packaged_AC_Bin20_2016preVFP.root'
p199
aS'./Models/signal/CMS-HGG_sigfit_packaged_AC_Bin20_2016preVFP.root'
p200
aS'./Models/background/CMS-HGG_multipdf_AC_Bin20_2016preVFP.root'
p201
ag201
aS'wsig_13TeV:hggpdfsmrel_GG2HMf05ph0_2016preVFP_AC_Bin20_13TeV'
p202
aS'wsig_13TeV:hggpdfsmrel_GG2HbsmM_2016preVFP_AC_Bin20_13TeV'
p203
aS'wsig_13TeV:hggpdfsmrel_GG2Hsm_2016preVFP_AC_Bin20_13TeV'
p204
aS'wsig_13TeV:hggpdfsmrel_TTHsm_2016preVFP_AC_Bin20_13TeV'
p205
aS'wsig_13TeV:hggpdfsmrel_VBFMf05ph0_2016preVFP_AC_Bin20_13TeV'
p206
aS'wsig_13TeV:hggpdfsmrel_VBFbsmM_2016preVFP_AC_Bin20_13TeV'
p207
aS'wsig_13TeV:hggpdfsmrel_VBFsm_2016preVFP_AC_Bin20_13TeV'
p208
aS'wsig_13TeV:hggpdfsmrel_WHMf05ph0_2016preVFP_AC_Bin20_13TeV'
p209
aS'wsig_13TeV:hggpdfsmrel_WHbsmM_2016preVFP_AC_Bin20_13TeV'
p210
aS'wsig_13TeV:hggpdfsmrel_WHsm_2016preVFP_AC_Bin20_13TeV'
p211
aS'wsig_13TeV:hggpdfsmrel_ZHMf05ph0_2016preVFP_AC_Bin20_13TeV'
p212
aS'wsig_13TeV:hggpdfsmrel_ZHbsmM_2016preVFP_AC_Bin20_13TeV'
p213
aS'wsig_13TeV:hggpdfsmrel_ZHsm_2016preVFP_AC_Bin20_13TeV'
p214
aS'multipdf:CMS_hgg_AC_Bin20_2016preVFP_13TeV_bkgshape'
p215
aS'multipdf:roohist_data_mass_AC_Bin20'
p216
aF0.047404478020780516
aF0.060751349545398625
aF0.04337931840223064
aF0.0006330821703386391
aF0.03717977880978651
aF0.018421024489953197
aF0.06589462543217905
aF0.0006265534113936155
aF0.0006672890722256852
aF0.0005355529929147451
aF9.627427061786875e-05
aF0.0003446916816756129
aF0.0010136639893971733
ag147
ag147
aF4.519700444487165e-06
aF1.4745439240222194e-05
aF0.00018043569544718473
aF7.610039022951444e-08
aF4.450286910482975e-06
aF1.2649534027029358e-06
aF6.254264809103898e-05
aF9.188746197862758e-09
aF2.4032462327100296e-08
aF5.721109855998019e-09
aF9.268735183002626e-09
aF4.761928842302462e-08
aF7.163756479771149e-08
ag147
ag147
aF0.04863599788055559
aF0.06246410239530094
aF0.044501753640296945
aF0.0006396338955796888
aF0.038187288436034
aF0.018891617452467393
aF0.06736822210609772
aF0.0006455988578941397
aF0.0006809298081116234
aF0.0005474483403980265
aF9.760010121259065e-05
aF0.000352543916614816
aF0.0010424936347643646
ag147
ag147
aF0.04771150943945614
aF0.06114343838466064
aF0.04366428422195391
aF0.0006371527826213145
aF0.03741891652794474
aF0.018540869499535494
aF0.06631905563686318
aF0.000630600898352342
aF0.0006716733813675928
aF0.0005389120117149326
aF9.688197569676688e-05
aF0.0003470421721140812
aF0.0010200088156794582
ag147
ag147
aF0.04709843941560261
aF0.06036052297794208
aF0.04309528686911063
aF0.000629024646434017
aF0.036941408243475214
aF0.018301568276005525
aF0.06547155874432431
aF0.0006225189791624129
aF0.0006629191410911046
aF0.0005322045051816157
aF9.566846783510228e-05
aF0.0003423491762740133
aF0.0010073391579277645
ag147
ag147
aF0.048204607968596616
aF0.06178914155721908
aF0.04407596743355349
aF0.0006435924842550874
aF0.037831055621328206
aF0.0187200567355647
aF0.06690053384721326
aF0.0006381730581694013
aF0.0006762706470016612
aF0.0005458638026218817
aF9.719113081396514e-05
aF0.00034871459343763445
aF0.0010370236255259973
ag147
ag147
aF0.04661113877418787
aF0.05972204151101665
aF0.042688342587845575
aF0.0006226619705606448
aF0.03653399636469364
aF0.018124258640701347
aF0.06489647134096134
aF0.0006150256491919069
aF0.0006583694197699911
aF0.0005253325689070014
aF9.536152333726187e-05
aF0.00034069208029175845
aF0.0009907437368308271
ag147
ag147
aF0.04749067526695487
aF0.060867448405605935
aF0.043449077826358665
aF0.0006343634638582837
aF0.03725209618084676
aF0.01845426017151513
aF0.0660236929379537
aF0.0006277197446856902
aF0.0006683531524628653
aF0.0005367789321892142
aF9.647708912653405e-05
aF0.0003450372967210914
aF0.0010159078609725384
ag147
ag147
aF0.04731836302286783
aF0.06063535929802152
aF0.04330961865594836
aF0.000631802225491718
aF0.037107528650026624
aF0.018387817932440084
aF0.06576567982566457
aF0.0006253881671222048
aF0.0006662258118387944
aF0.0005343285855671674
aF9.607160336210687e-05
aF0.00034434621372291885
aF0.0010114234452192406
ag147
ag147
aF0.047506828085221095
aF0.060888456075698795
aF0.043472800653458515
aF0.0006341951260437609
aF0.03726086203528796
aF0.018460043270945255
aF0.06603795536333323
aF0.0006280609994067573
aF0.0006686436353980009
aF0.0005366942261575416
aF9.646778125555355e-05
aF0.0003453845089405306
aF0.0010158321741262028
ag147
ag147
aF0.04730224182231215
aF0.06061439744552031
aF0.04328593857502212
aF0.0006319701820941086
aF0.03709878471474145
aF0.018382047379468202
aF0.06575145294516185
aF0.0006250476056715612
aF0.0006659359052078615
aF0.0005344129901984545
aF9.608094613760355e-05
aF0.0003439995780919352
aF0.0010114981472169042
ag147
ag147
aF0.04680112837991146
aF0.06058933634585628
aF0.04321676293375276
aF0.0006579398382200452
aF0.03768041629086838
aF0.019015170074112575
aF0.052042548665440336
aF0.0006377058876978481
aF0.000670562481673187
aF0.0005298441649301822
aF9.627427061786875e-05
aF0.0003446916816756129
aF0.0010222460996374139
ag147
ag147
aF0.047362443331849136
aF0.0612358974392464
aF0.043605210194300525
aF0.00063053916642275
aF0.03697418480123815
aF0.0180365699397953
aF0.05082547518645697
aF0.0006080699965878011
aF0.0006672827900047196
aF0.0005405462846965747
aF9.627427061786875e-05
aF0.0006128896202426404
aF0.0010234125229544588
ag147
ag147
aF0.048402529602526556
aF0.0624172861948864
aF0.043948964382025224
aF0.0006748216280811903
aF0.03782466589439082
aF0.01845597843316682
aF0.05166218456599836
aF0.0006272800902706877
aF0.0006857163164113445
aF0.0005594517674580857
aF0.0001216744385601487
aF0.0003446916816756129
aF0.001058549067693093
ag147
ag147
aF0.0460570645423104
aF0.058698717260540434
aF0.04144058079759816
aF0.0007614341055841578
aF0.03657185940483032
aF0.017854720359991916
aF0.06469992483198439
aF0.0006152715907319362
aF0.0006796214228188546
aF0.0005110204651828099
aF9.627427061786875e-05
aF0.0006128896202426404
aF0.001015449245187483
ag147
ag147
aF0.048156903553262964
aF0.06185778205940551
aF0.044253326625039335
aF0.0006388856119201591
aF0.037405631952651675
aF0.01843704318912387
aF0.05170413474115776
aF0.0007169692478328216
aF0.0006687053156611
aF0.000542437479793989
aF9.627427061786875e-05
aF0.0003446916816756129
aF0.0010203108067798894
ag147
ag147
aF0.04655444062132119
aF0.0590877606111917
aF0.04284164493537901
aF0.0006330821703386391
aF0.037089511429485356
aF0.01841129265562813
aF0.05071329622501253
aF0.0005813961599869799
aF0.0006658711772615789
aF0.0005318357407304575
aF9.627427061786875e-05
aF0.0003446916816756129
aF0.0010052093048216193
ag147
ag147
aF0.051999456700741575
aF0.06431818361988917
aF0.04528560991911945
aF0.0006243720621341708
aF0.039262360300426735
aF0.018621685808511756
aF0.051257206746299744
aF0.0006160266069628051
aF0.0007348527527710758
aF0.0005822232939181049
aF0.0
aF0.0003446916816756129
aF0.0010443389699048566
ag147
ag147
aF0.04423580103321001
aF0.055909539643607786
aF0.02806782617585668
aF0.0006230522714076869
aF0.03580311312896356
aF0.018138703259523936
aF0.050375771076119236
aF0.000574800288404731
aF0.0005751540494429719
aF0.0005420116759751181
aF9.627427061786875e-05
aF0.00030262496147770435
aF0.0008896339024886402
ag147
ag147
aF0.04750099128796137
aF0.06092859817977114
aF0.04323466181335789
aF0.0006304124984808368
aF0.037629677752647694
aF0.018505453275793116
aF0.05134395189361385
aF0.0006749861711341509
aF0.0006694496704540143
aF0.0005466259881359292
aF9.627427061786875e-05
aF0.00019335538672748953
aF0.0010183287308791478
ag147
ag147
aF0.04756587673637114
aF0.060890560203461064
aF0.02989511729788319
aF0.0006480695993786867
aF0.037106455382627246
aF0.01852865690239014
aF0.05089034035677287
aF0.0005824364269528814
aF0.0006674746720136682
aF0.0005207606068324822
aF9.627427061786875e-05
aF0.0003446916816756129
aF0.0010116189487234806
ag147
ag147
aF0.047404478020780516
aF0.060751349545398625
aF0.04337931840223064
aF0.0006330821703386391
aF0.03717977880978651
aF0.018421024489953197
aF0.06589462543217905
aF0.0006265534113936155
aF0.0006672890722256852
aF0.0005355529929147451
aF9.627427061786875e-05
aF0.0003446916816756129
aF0.0010136639893971733
ag147
ag147
aF0.047404478020780516
aF0.060751349545398625
aF0.04337931840223064
aF0.0006330821703386391
aF0.03717977880978651
aF0.018421024489953197
aF0.06589462543217905
aF0.0006265534113936155
aF0.0006672890722256852
aF0.0005355529929147451
aF9.627427061786875e-05
aF0.0003446916816756129
aF0.0010136639893971733
ag147
ag147
atp217
ba(lp218
g15
(g16
(dp219
g18
g19
(g20
(I0
tp220
g22
tp221
Rp222
(I1
(I1
tp223
g29
I00
(lp224
g43
atp225
bsg68
Nstp226
Rp227
ag15
(g16
(dp228
g18
g19
(g20
(I0
tp229
g22
tp230
Rp231
(I1
(I33
tp232
g29
I00
(lp233
g33
ag34
ag35
ag36
ag37
ag38
ag39
ag40
ag41
ag42
ag44
ag45
ag46
ag47
ag48
ag49
ag50
ag51
ag52
ag53
ag54
ag55
ag56
ag57
ag58
ag59
ag60
ag61
ag62
ag63
ag64
ag65
ag66
atp234
bsg68
Nstp235
Rp236
a(dp237
S'0.14.1'
p238
(dp239
S'axes'
p240
g14
sS'blocks'
p241
(lp242
(dp243
S'mgr_locs'
p244
c__builtin__
slice
p245
(I10
I11
I1
tp246
Rp247
sS'values'
p248
g89
sa(dp249
g244
g19
(g20
(I0
tp250
g22
tp251
Rp252
(I1
(I33
tp253
g79
I00
S'\x00\x00\x00\x00\x00\x00\x00\x00\x01\x00\x00\x00\x00\x00\x00\x00\x02\x00\x00\x00\x00\x00\x00\x00\x03\x00\x00\x00\x00\x00\x00\x00\x04\x00\x00\x00\x00\x00\x00\x00\x05\x00\x00\x00\x00\x00\x00\x00\x06\x00\x00\x00\x00\x00\x00\x00\x07\x00\x00\x00\x00\x00\x00\x00\x08\x00\x00\x00\x00\x00\x00\x00\t\x00\x00\x00\x00\x00\x00\x00\x0b\x00\x00\x00\x00\x00\x00\x00\x0c\x00\x00\x00\x00\x00\x00\x00\r\x00\x00\x00\x00\x00\x00\x00\x0e\x00\x00\x00\x00\x00\x00\x00\x0f\x00\x00\x00\x00\x00\x00\x00\x10\x00\x00\x00\x00\x00\x00\x00\x11\x00\x00\x00\x00\x00\x00\x00\x12\x00\x00\x00\x00\x00\x00\x00\x13\x00\x00\x00\x00\x00\x00\x00\x14\x00\x00\x00\x00\x00\x00\x00\x15\x00\x00\x00\x00\x00\x00\x00\x16\x00\x00\x00\x00\x00\x00\x00\x17\x00\x00\x00\x00\x00\x00\x00\x18\x00\x00\x00\x00\x00\x00\x00\x19\x00\x00\x00\x00\x00\x00\x00\x1a\x00\x00\x00\x00\x00\x00\x00\x1b\x00\x00\x00\x00\x00\x00\x00\x1c\x00\x00\x00\x00\x00\x00\x00\x1d\x00\x00\x00\x00\x00\x00\x00\x1e\x00\x00\x00\x00\x00\x00\x00\x1f\x00\x00\x00\x00\x00\x00\x00 \x00\x00\x00\x00\x00\x00\x00!\x00\x00\x00\x00\x00\x00\x00'
p254
tp255
bsg248
g100
sasstp256
bsb.