ccopy_reg
_reconstructor
p0
(cpandas.core.frame
DataFrame
p1
c__builtin__
object
p2
Ntp3
Rp4
(dp5
S'_metadata'
p6
(lp7
sS'_typ'
p8
S'dataframe'
p9
sS'_data'
p10
g0
(cpandas.core.internals
BlockManager
p11
g2
Ntp12
Rp13
((lp14
cpandas.core.indexes.base
_new_Index
p15
(cpandas.core.indexes.base
Index
p16
(dp17
S'data'
p18
cnumpy.core.multiarray
_reconstruct
p19
(cnumpy
ndarray
p20
(I0
tp21
S'b'
p22
tp23
Rp24
(I1
(I34
tp25
cnumpy
dtype
p26
(S'O8'
p27
I0
I1
tp28
Rp29
(I3
S'|'
p30
NNNI-1
I-1
I63
tp31
bI00
(lp32
S'year'
p33
aS'type'
p34
aS'procOriginal'
p35
aS'proc'
p36
aS'proc_s0'
p37
aS'cat'
p38
aS'inputWSFile'
p39
aS'nominalDataName'
p40
aS'modelWSFile'
p41
aS'model'
p42
aS'rate'
p43
aS'nominal_yield'
p44
aS'sumw2'
p45
aS'nominal_yield_COWCorr'
p46
aS'LooseMvaSF_up_yield'
p47
aS'LooseMvaSF_down_yield'
p48
aS'PreselSF_up_yield'
p49
aS'PreselSF_down_yield'
p50
aS'electronVetoSF_up_yield'
p51
aS'electronVetoSF_down_yield'
p52
aS'TriggerWeight_up_yield'
p53
aS'TriggerWeight_down_yield'
p54
aS'SigmaEOverEShift_up_yield'
p55
aS'SigmaEOverEShift_down_yield'
p56
aS'MvaShift_up_yield'
p57
aS'MvaShift_down_yield'
p58
aS'PUJIDShift_up_yield'
p59
aS'PUJIDShift_down_yield'
p60
aS'JEC_up_yield'
p61
aS'JEC_down_yield'
p62
aS'JER_up_yield'
p63
aS'JER_down_yield'
p64
aS'JetHEM_up_yield'
p65
aS'JetHEM_down_yield'
p66
atp67
bsS'name'
p68
Nstp69
Rp70
ag15
(cpandas.core.indexes.numeric
Int64Index
p71
(dp72
g18
g19
(g20
(I0
tp73
g22
tp74
Rp75
(I1
(I15
tp76
g26
(S'i8'
p77
I0
I1
tp78
Rp79
(I3
S'<'
p80
NNNI-1
I-1
I0
tp81
bI00
S'\x00\x00\x00\x00\x00\x00\x00\x00\x01\x00\x00\x00\x00\x00\x00\x00\x02\x00\x00\x00\x00\x00\x00\x00\x03\x00\x00\x00\x00\x00\x00\x00\x04\x00\x00\x00\x00\x00\x00\x00\x05\x00\x00\x00\x00\x00\x00\x00\x06\x00\x00\x00\x00\x00\x00\x00\x07\x00\x00\x00\x00\x00\x00\x00\x08\x00\x00\x00\x00\x00\x00\x00\t\x00\x00\x00\x00\x00\x00\x00\n\x00\x00\x00\x00\x00\x00\x00\x0b\x00\x00\x00\x00\x00\x00\x00\x0c\x00\x00\x00\x00\x00\x00\x00\r\x00\x00\x00\x00\x00\x00\x00\x0e\x00\x00\x00\x00\x00\x00\x00'
p82
tp83
bsg68
Nstp84
Rp85
a(lp86
g19
(g20
(I0
tp87
g22
tp88
Rp89
(I1
(I1
I15
tp90
g26
(S'f8'
p91
I0
I1
tp92
Rp93
(I3
S'<'
p94
NNNI-1
I-1
I0
tp95
bI00
S'\x00\x00\x00\x00\x00\x10\xd3@\x00\x00\x00\x00\x00\x10\xd3@\x00\x00\x00\x00\x00\x10\xd3@\x00\x00\x00\x00\x00\x10\xd3@\x00\x00\x00\x00\x00\x10\xd3@\x00\x00\x00\x00\x00\x10\xd3@\x00\x00\x00\x00\x00\x10\xd3@\x00\x00\x00\x00\x00\x10\xd3@\x00\x00\x00\x00\x00\x10\xd3@\x00\x00\x00\x00\x00\x10\xd3@\x00\x00\x00\x00\x00\x10\xd3@\x00\x00\x00\x00\x00\x10\xd3@\x00\x00\x00\x00\x00\x10\xd3@\x00\x00\x00\x00\x00\x00\xf0?\x00\x00\x00\x00\x00\x00\xf0\xbf'
p96
tp97
bag19
(g20
(I0
tp98
g22
tp99
Rp100
(I1
(I33
I15
tp101
g29
I00
(lp102
S'2016preVFP'
p103
ag103
ag103
ag103
ag103
ag103
ag103
ag103
ag103
ag103
ag103
ag103
ag103
ag33
ag33
aS'sig'
p104
ag104
ag104
ag104
ag104
ag104
ag104
ag104
ag104
ag104
ag104
ag104
ag104
aS'bkg'
p105
ag18
aS'GG2HMf05ph0'
p106
aS'GG2HbsmM'
p107
aS'GG2Hsm'
p108
aS'TTHsm'
p109
aS'VBFMf05ph0'
p110
aS'VBFbsmM'
p111
aS'VBFsm'
p112
aS'WHMf05ph0'
p113
aS'WHbsmM'
p114
aS'WHsm'
p115
aS'ZHMf05ph0'
p116
aS'ZHbsmM'
p117
aS'ZHsm'
p118
aS'bkg_mass'
p119
aS'data_obs'
p120
aS'GG2HMf05ph0_2016preVFP_hgg'
p121
aS'GG2HbsmM_2016preVFP_hgg'
p122
aS'GG2Hsm_2016preVFP_hgg'
p123
aS'tth0P_2016preVFP_hgg'
p124
aS'vbf0Mf05ph0_2016preVFP_hgg'
p125
aS'vbf0M_2016preVFP_hgg'
p126
aS'vbf0P_2016preVFP_hgg'
p127
aS'wh0Mf05ph0_2016preVFP_hgg'
p128
aS'wh0M_2016preVFP_hgg'
p129
aS'wh0P_2016preVFP_hgg'
p130
aS'zh0Mf05ph0_2016preVFP_hgg'
p131
aS'zh0M_2016preVFP_hgg'
p132
aS'zh0P_2016preVFP_hgg'
p133
ag119
ag120
aS'jjh0Mf05ph0'
p134
aS'jjh0M'
p135
aS'jjh0P'
p136
aS'tth0P'
p137
aS'vbf0Mf05ph0'
p138
aS'vbf0M'
p139
aS'vbf0P'
p140
aS'wh0Mf05ph0'
p141
aS'wh0M'
p142
aS'wh0P'
p143
aS'zh0Mf05ph0'
p144
aS'zh0M'
p145
aS'zh0P'
p146
aS'-'
p147
ag147
aS'AC_Bin10_2016preVFP'
p148
aS'AC_Bin10_2016preVFP'
p149
aS'AC_Bin10_2016preVFP'
p150
aS'AC_Bin10_2016preVFP'
p151
aS'AC_Bin10_2016preVFP'
p152
aS'AC_Bin10_2016preVFP'
p153
aS'AC_Bin10_2016preVFP'
p154
aS'AC_Bin10_2016preVFP'
p155
aS'AC_Bin10_2016preVFP'
p156
aS'AC_Bin10_2016preVFP'
p157
aS'AC_Bin10_2016preVFP'
p158
aS'AC_Bin10_2016preVFP'
p159
aS'AC_Bin10_2016preVFP'
p160
aS'AC_Bin10_2016preVFP'
p161
ag161
aS'Trees/Opt_2016preVFP/2016PreVFP/Trees2WS_2016preVFP/WS/output_GluGluHToGGPlusTwoJets_MM_M125_TuneCP5_13TeV-amcatnlopowheg-minlo-pythia8_GG2HMf05ph0.root'
p162
aS'Trees/Opt_2016preVFP/2016PreVFP/Trees2WS_2016preVFP/WS/output_GluGluHToGGPlusTwoJets_CPodd_M125_TuneCP5_13TeV-amcatnlopowheg-minlo-pythia8_GG2HbsmM.root'
p163
aS'Trees/Opt_2016preVFP/2016PreVFP/Trees2WS_2016preVFP/WS/output_GluGluHToGGPlusTwoJets_SM_M125_TuneCP5_13TeV-amcatnlopowheg-minlo-pythia8_GG2Hsm.root'
p164
aS'Trees/Opt_2016preVFP/2016PreVFP/Trees2WS_2016preVFP/WS/output_ttHJetToGG_M125_TuneCP5_13TeV-amcatnloFXFX-madspin-pythia8_TTHsm.root'
p165
aS'Trees/Opt_2016preVFP/2016PreVFP/Trees2WS_2016preVFP/WS/output_VBFHiggs0Mf05ph0ToGG_M125_TuneCP5_13TeV-JHUGenV7011-pythia8_VBFMf05ph0.root'
p166
aS'Trees/Opt_2016preVFP/2016PreVFP/Trees2WS_2016preVFP/WS/output_VBFHiggs0MToGG_M125_TuneCP5_13TeV-JHUGenV7011-pythia8_VBFbsmM.root'
p167
aS'Trees/Opt_2016preVFP/2016PreVFP/Trees2WS_2016preVFP/WS/output_VBFHToGG_M125_TuneCP5_13TeV-amcatnlo-pythia8_VBFsm.root'
p168
aS'Trees/Opt_2016preVFP/2016PreVFP/Trees2WS_2016preVFP/WS/output_WHiggs0Mf05ph0ToGG_M125_TuneCP5_13TeV-JHUGenV7011-pythia8_WHMf05ph0.root'
p169
aS'Trees/Opt_2016preVFP/2016PreVFP/Trees2WS_2016preVFP/WS/output_WHiggs0MToGG_M125_TuneCP5_13TeV-JHUGenV7011-pythia8_WHbsmM.root'
p170
aS'Trees/Opt_2016preVFP/2016PreVFP/Trees2WS_2016preVFP/WS/output_WHiggs0PMToGG_M125_TuneCP5_13TeV-JHUGenV7011-pythia8_WHsm.root'
p171
aS'Trees/Opt_2016preVFP/2016PreVFP/Trees2WS_2016preVFP/WS/output_ZHiggs0Mf05ph0ToGG_M125_TuneCP5_13TeV-JHUGenV7011-pythia8_ZHMf05ph0.root'
p172
aS'Trees/Opt_2016preVFP/2016PreVFP/Trees2WS_2016preVFP/WS/output_ZHiggs0MToGG_M125_TuneCP5_13TeV-JHUGenV7011-pythia8_ZHbsmM.root'
p173
aS'Trees/Opt_2016preVFP/2016PreVFP/Trees2WS_2016preVFP/WS/output_ZH_HToGG_ZToAll_M125_TuneCP5_13TeV-powheg-pythia8_ZHsm.root'
p174
ag147
ag147
aS'jjh0Mf05ph0_125_13TeV_AC_Bin10'
p175
aS'jjh0M_125_13TeV_AC_Bin10'
p176
aS'jjh0P_125_13TeV_AC_Bin10'
p177
aS'tth0P_125_13TeV_AC_Bin10'
p178
aS'vbf0Mf05ph0_125_13TeV_AC_Bin10'
p179
aS'vbf0M_125_13TeV_AC_Bin10'
p180
aS'vbf0P_125_13TeV_AC_Bin10'
p181
aS'wh0Mf05ph0_125_13TeV_AC_Bin10'
p182
aS'wh0M_125_13TeV_AC_Bin10'
p183
aS'wh0P_125_13TeV_AC_Bin10'
p184
aS'zh0Mf05ph0_125_13TeV_AC_Bin10'
p185
aS'zh0M_125_13TeV_AC_Bin10'
p186
aS'zh0P_125_13TeV_AC_Bin10'
p187
ag147
ag147
aS'./Models/signal/CMS-HGG_sigfit_packaged_AC_Bin10_2016preVFP.root'
p188
aS'./Models/signal/CMS-HGG_sigfit_packaged_AC_Bin10_2016preVFP.root'
p189
aS'./Models/signal/CMS-HGG_sigfit_packaged_AC_Bin10_2016preVFP.root'
p190
aS'./Models/signal/CMS-HGG_sigfit_packaged_AC_Bin10_2016preVFP.root'
p191
aS'./Models/signal/CMS-HGG_sigfit_packaged_AC_Bin10_2016preVFP.root'
p192
aS'./Models/signal/CMS-HGG_sigfit_packaged_AC_Bin10_2016preVFP.root'
p193
aS'./Models/signal/CMS-HGG_sigfit_packaged_AC_Bin10_2016preVFP.root'
p194
aS'./Models/signal/CMS-HGG_sigfit_packaged_AC_Bin10_2016preVFP.root'
p195
aS'./Models/signal/CMS-HGG_sigfit_packaged_AC_Bin10_2016preVFP.root'
p196
aS'./Models/signal/CMS-HGG_sigfit_packaged_AC_Bin10_2016preVFP.root'
p197
aS'./Models/signal/CMS-HGG_sigfit_packaged_AC_Bin10_2016preVFP.root'
p198
aS'./Models/signal/CMS-HGG_sigfit_packaged_AC_Bin10_2016preVFP.root'
p199
aS'./Models/signal/CMS-HGG_sigfit_packaged_AC_Bin10_2016preVFP.root'
p200
aS'./Models/background/CMS-HGG_multipdf_AC_Bin10_2016preVFP.root'
p201
ag201
aS'wsig_13TeV:hggpdfsmrel_GG2HMf05ph0_2016preVFP_AC_Bin10_13TeV'
p202
aS'wsig_13TeV:hggpdfsmrel_GG2HbsmM_2016preVFP_AC_Bin10_13TeV'
p203
aS'wsig_13TeV:hggpdfsmrel_GG2Hsm_2016preVFP_AC_Bin10_13TeV'
p204
aS'wsig_13TeV:hggpdfsmrel_TTHsm_2016preVFP_AC_Bin10_13TeV'
p205
aS'wsig_13TeV:hggpdfsmrel_VBFMf05ph0_2016preVFP_AC_Bin10_13TeV'
p206
aS'wsig_13TeV:hggpdfsmrel_VBFbsmM_2016preVFP_AC_Bin10_13TeV'
p207
aS'wsig_13TeV:hggpdfsmrel_VBFsm_2016preVFP_AC_Bin10_13TeV'
p208
aS'wsig_13TeV:hggpdfsmrel_WHMf05ph0_2016preVFP_AC_Bin10_13TeV'
p209
aS'wsig_13TeV:hggpdfsmrel_WHbsmM_2016preVFP_AC_Bin10_13TeV'
p210
aS'wsig_13TeV:hggpdfsmrel_WHsm_2016preVFP_AC_Bin10_13TeV'
p211
aS'wsig_13TeV:hggpdfsmrel_ZHMf05ph0_2016preVFP_AC_Bin10_13TeV'
p212
aS'wsig_13TeV:hggpdfsmrel_ZHbsmM_2016preVFP_AC_Bin10_13TeV'
p213
aS'wsig_13TeV:hggpdfsmrel_ZHsm_2016preVFP_AC_Bin10_13TeV'
p214
aS'multipdf:CMS_hgg_AC_Bin10_2016preVFP_13TeV_bkgshape'
p215
aS'multipdf:roohist_data_mass_AC_Bin10'
p216
aF0.02835122681676694
aF0.04835690037270979
aF0.023337042192224544
aF0.0023974868067853095
aF0.09886347890721936
aF0.07989222107539717
aF0.042317145563743
aF0.0005597355642521507
aF0.0011807093754896414
aF0.0002089327206249436
aF8.808414713712409e-05
aF0.00025684423599159345
aF0.0007584749914713029
ag147
ag147
aF3.7810139429786177e-06
aF1.4801073785974087e-05
aF6.094276455406534e-06
aF2.769470176439613e-07
aF2.5987808671910075e-05
aF6.110660813849656e-06
aF0.0001113967920666728
aF1.683701243916072e-08
aF6.415375597653827e-08
aF4.9041723535746726e-09
aF2.710626899193769e-09
aF3.307816151329421e-08
aF1.9500333205144614e-07
ag147
ag147
aF0.028999851001567004
aF0.04944344248935549
aF0.023861670733972013
aF0.0024494790482149265
aF0.1009979004920052
aF0.08163449610835359
aF0.0428425461688861
aF0.0005720372651124928
aF0.001209172047125688
aF0.00021363533492214627
aF8.999477784255632e-05
aF0.00026247569460309734
aF0.0007744260703853601
ag147
ag147
aF0.0285388458018919
aF0.04867316230170757
aF0.023490620934638107
aF0.0024135056333422344
aF0.09952276687216735
aF0.08042254461687809
aF0.042600595058413175
aF0.0005634312385507957
aF0.001188644564723599
aF0.0002103143829291981
aF8.868480329626809e-05
aF0.0002585956891743107
aF0.0007635084594141873
ag147
ag147
aF0.028164227250630867
aF0.04804166998119224
aF0.023183967250076053
aF0.002381521351251626
aF0.09820638408575287
aF0.07936365427429763
aF0.04203464144436272
aF0.0005560520559148526
aF0.0011728007834624539
aF0.00020755561240089638
aF8.748553086696515e-05
aF0.00025509873606246276
aF0.0007534582375054712
ag147
ag147
aF0.028786351344252267
aF0.04915411083025273
aF0.02372963959001509
aF0.002431828671724639
aF0.10025545786745138
aF0.08103169242641198
aF0.04281842590139746
aF0.0005688386155375131
aF0.0011971049563385633
aF0.00021229966805342055
aF8.911218186027816e-05
aF0.0002598418838684586
aF0.0007698259093849444
ag147
ag147
aF0.027919230520989272
aF0.04756571369036148
aF0.022947459399467515
aF0.002363382552342308
aF0.09748105408380356
aF0.07876096559619826
aF0.041816969757160746
aF0.0005507070615243065
aF0.0011644342132686488
aF0.00020559070815325353
aF8.706207044308988e-05
aF0.00025386396945479715
aF0.0007471964066981538
ag147
ag147
aF0.02839373072644346
aF0.048434634917975956
aF0.023371656581284
aF0.00240056305847324
aF0.09899653387000858
aF0.08000670568773612
aF0.04237522241578026
aF0.0005605734221822385
aF0.001182359313476157
aF0.00020922318555708998
aF8.817246488264928e-05
aF0.0002571017620490568
aF0.0007595232083325509
ag147
ag147
aF0.02830875490646447
aF0.04827922670749141
aF0.023302451388373575
aF0.0023944122784686594
aF0.09873051029650887
aF0.0797778214047453
aF0.04225910563015038
aF0.0005588982921454997
aF0.0011790605998236142
aF0.000208642439347157
aF8.799586306973547e-05
aF0.00025658681204353506
aF0.000757427654357216
ag147
ag147
aF0.028410158657972424
aF0.0484576296977027
aF0.023385417512542247
aF0.002402359260268767
aF0.09906628120434631
aF0.08006815624283908
aF0.04231146279041602
aF0.0005608698365499288
aF0.0011833193780434817
aF0.00020935433799430147
aF8.826111513295715e-05
aF0.000257360315767766
aF0.00076001560231304
ag147
ag147
aF0.028292356266032877
aF0.048256276229609575
aF0.02328871710813754
aF0.002392619404533009
aF0.09866088787611715
aF0.07971648085902222
aF0.04232273127282756
aF0.0005586024649243142
aF0.001178102261356046
aF0.00020851153745994464
aF8.790735833002423e-05
aF0.0002563286733296417
aF0.0007569359847832813
ag147
ag147
aF0.028102165148538916
aF0.04619725130601182
aF0.02276076447287778
aF0.0023879812333689188
aF0.0982520384208101
aF0.07929550497021864
aF0.03770730261362587
aF0.0005510932454626527
aF0.0011807093754896414
aF0.0002089327206249436
aF8.808414713712409e-05
aF0.00025684423599159345
aF0.0007557266289950348
ag147
ag147
aF0.02892459880035858
aF0.049416129452083624
aF0.02353728070534089
aF0.002361890667884836
aF0.099285893440765
aF0.08035734118084292
aF0.03988392193571144
aF0.0005700483824284674
aF0.00118801919904854
aF0.00021034630526628462
aF8.808414713712409e-05
aF0.00025684423599159345
aF0.0007807834758750687
ag147
ag147
aF0.02891706569789676
aF0.04888096830768518
aF0.023493048781119796
aF0.0024816661741624557
aF0.09980099052052083
aF0.08080565140699036
aF0.04294764164205844
aF0.0005842399053790359
aF0.0011943524573325703
aF0.00021351489544940705
aF8.808414713712409e-05
aF0.00025684423599159345
aF0.0007584749914713029
ag147
ag147
aF0.0280079020010362
aF0.04690965071222308
aF0.022653760584489646
aF0.0023020630490009353
aF0.09752467199984949
aF0.07864697942841303
aF0.037785080997650766
aF0.0005518508506838771
aF0.0011824949733636458
aF0.00020141219124525378
aF8.808414713712409e-05
aF0.00025684423599159345
aF0.0007584749914713029
ag147
ag147
aF0.028503057900934436
aF0.04856538226977136
aF0.02358020097994995
aF0.0023699743483120983
aF0.09899892932492094
aF0.07993701888221949
aF0.03839667797171842
aF0.0005597355642521507
aF0.0011879439856556928
aF0.00021183211151765136
aF8.808414713712409e-05
aF0.00025684423599159345
aF0.0007584749914713029
ag147
ag147
aF0.0281774617208157
aF0.0477632715578693
aF0.023060532040290127
aF0.0024901338397285144
aF0.09865931252204518
aF0.07984259645786551
aF0.03818865414484662
aF0.0005485930649911097
aF0.0011700437040644829
aF0.000200962409735439
aF8.808414713712409e-05
aF0.00025684423599159345
aF0.0007584749914713029
ag147
ag147
aF0.030313028203181602
aF0.049821950400200876
aF0.02407792846315715
aF0.002158622096885665
aF0.10084972241509149
aF0.08086119205870546
aF0.04042770080388891
aF0.0005960879462918456
aF0.0012367114325115836
aF0.000269930974241106
aF8.808414713712409e-05
aF0.0002891617295972537
aF0.0007584749914713029
ag147
ag147
aF0.027397106705848273
aF0.0429381454716804
aF0.020243181542809907
aF0.002306930874055979
aF0.09854401544009761
aF0.07882964853354224
aF0.04967435000241949
aF0.000462725440684153
aF0.0010863544454196017
aF0.00020947190682818473
aF8.808414713712409e-05
aF0.00045333931484492496
aF0.0007451552376096515
ag147
ag147
aF0.029025988583498474
aF0.048139620523897975
aF0.023861088728608593
aF0.0023697792059920175
aF0.09868752734189457
aF0.0798166381904366
aF0.03835724595080592
aF0.0005630605024862234
aF0.001182885795628863
aF0.00021200516437147598
aF8.808414713712409e-05
aF0.00025684423599159345
aF0.0007489716210784536
ag147
ag147
aF0.028336806719380547
aF0.047793370069939556
aF0.023249503680744965
aF0.0023201153085210535
aF0.0988507262558187
aF0.07957960822841414
aF0.037564864544378906
aF0.0005106071997715844
aF0.0011673248518491164
aF0.00019890717862836027
aF8.808414713712409e-05
aF0.00025684423599159345
aF0.0007620673959536362
ag147
ag147
aF0.02835122681676694
aF0.04835690037270979
aF0.023337042192224544
aF0.0023974868067853095
aF0.09886347890721936
aF0.07989222107539717
aF0.042317145563743
aF0.0005597355642521507
aF0.0011807093754896414
aF0.0002089327206249436
aF8.808414713712409e-05
aF0.00025684423599159345
aF0.0007584749914713029
ag147
ag147
aF0.02835122681676694
aF0.04835690037270979
aF0.023337042192224544
aF0.0023974868067853095
aF0.09886347890721936
aF0.07989222107539717
aF0.042317145563743
aF0.0005597355642521507
aF0.0011807093754896414
aF0.0002089327206249436
aF8.808414713712409e-05
aF0.00025684423599159345
aF0.0007584749914713029
ag147
ag147
atp217
ba(lp218
g15
(g16
(dp219
g18
g19
(g20
(I0
tp220
g22
tp221
Rp222
(I1
(I1
tp223
g29
I00
(lp224
g43
atp225
bsg68
Nstp226
Rp227
ag15
(g16
(dp228
g18
g19
(g20
(I0
tp229
g22
tp230
Rp231
(I1
(I33
tp232
g29
I00
(lp233
g33
ag34
ag35
ag36
ag37
ag38
ag39
ag40
ag41
ag42
ag44
ag45
ag46
ag47
ag48
ag49
ag50
ag51
ag52
ag53
ag54
ag55
ag56
ag57
ag58
ag59
ag60
ag61
ag62
ag63
ag64
ag65
ag66
atp234
bsg68
Nstp235
Rp236
a(dp237
S'0.14.1'
p238
(dp239
S'axes'
p240
g14
sS'blocks'
p241
(lp242
(dp243
S'mgr_locs'
p244
c__builtin__
slice
p245
(I10
I11
I1
tp246
Rp247
sS'values'
p248
g89
sa(dp249
g244
g19
(g20
(I0
tp250
g22
tp251
Rp252
(I1
(I33
tp253
g79
I00
S'\x00\x00\x00\x00\x00\x00\x00\x00\x01\x00\x00\x00\x00\x00\x00\x00\x02\x00\x00\x00\x00\x00\x00\x00\x03\x00\x00\x00\x00\x00\x00\x00\x04\x00\x00\x00\x00\x00\x00\x00\x05\x00\x00\x00\x00\x00\x00\x00\x06\x00\x00\x00\x00\x00\x00\x00\x07\x00\x00\x00\x00\x00\x00\x00\x08\x00\x00\x00\x00\x00\x00\x00\t\x00\x00\x00\x00\x00\x00\x00\x0b\x00\x00\x00\x00\x00\x00\x00\x0c\x00\x00\x00\x00\x00\x00\x00\r\x00\x00\x00\x00\x00\x00\x00\x0e\x00\x00\x00\x00\x00\x00\x00\x0f\x00\x00\x00\x00\x00\x00\x00\x10\x00\x00\x00\x00\x00\x00\x00\x11\x00\x00\x00\x00\x00\x00\x00\x12\x00\x00\x00\x00\x00\x00\x00\x13\x00\x00\x00\x00\x00\x00\x00\x14\x00\x00\x00\x00\x00\x00\x00\x15\x00\x00\x00\x00\x00\x00\x00\x16\x00\x00\x00\x00\x00\x00\x00\x17\x00\x00\x00\x00\x00\x00\x00\x18\x00\x00\x00\x00\x00\x00\x00\x19\x00\x00\x00\x00\x00\x00\x00\x1a\x00\x00\x00\x00\x00\x00\x00\x1b\x00\x00\x00\x00\x00\x00\x00\x1c\x00\x00\x00\x00\x00\x00\x00\x1d\x00\x00\x00\x00\x00\x00\x00\x1e\x00\x00\x00\x00\x00\x00\x00\x1f\x00\x00\x00\x00\x00\x00\x00 \x00\x00\x00\x00\x00\x00\x00!\x00\x00\x00\x00\x00\x00\x00'
p254
tp255
bsg248
g100
sasstp256
bsb.