ccopy_reg
_reconstructor
p0
(cpandas.core.frame
DataFrame
p1
c__builtin__
object
p2
Ntp3
Rp4
(dp5
S'_metadata'
p6
(lp7
sS'_typ'
p8
S'dataframe'
p9
sS'_data'
p10
g0
(cpandas.core.internals
BlockManager
p11
g2
Ntp12
Rp13
((lp14
cpandas.core.indexes.base
_new_Index
p15
(cpandas.core.indexes.base
Index
p16
(dp17
S'data'
p18
cnumpy.core.multiarray
_reconstruct
p19
(cnumpy
ndarray
p20
(I0
tp21
S'b'
p22
tp23
Rp24
(I1
(I34
tp25
cnumpy
dtype
p26
(S'O8'
p27
I0
I1
tp28
Rp29
(I3
S'|'
p30
NNNI-1
I-1
I63
tp31
bI00
(lp32
S'year'
p33
aS'type'
p34
aS'procOriginal'
p35
aS'proc'
p36
aS'proc_s0'
p37
aS'cat'
p38
aS'inputWSFile'
p39
aS'nominalDataName'
p40
aS'modelWSFile'
p41
aS'model'
p42
aS'rate'
p43
aS'nominal_yield'
p44
aS'sumw2'
p45
aS'nominal_yield_COWCorr'
p46
aS'LooseMvaSF_up_yield'
p47
aS'LooseMvaSF_down_yield'
p48
aS'PreselSF_up_yield'
p49
aS'PreselSF_down_yield'
p50
aS'electronVetoSF_up_yield'
p51
aS'electronVetoSF_down_yield'
p52
aS'TriggerWeight_up_yield'
p53
aS'TriggerWeight_down_yield'
p54
aS'SigmaEOverEShift_up_yield'
p55
aS'SigmaEOverEShift_down_yield'
p56
aS'MvaShift_up_yield'
p57
aS'MvaShift_down_yield'
p58
aS'PUJIDShift_up_yield'
p59
aS'PUJIDShift_down_yield'
p60
aS'JEC_up_yield'
p61
aS'JEC_down_yield'
p62
aS'JER_up_yield'
p63
aS'JER_down_yield'
p64
aS'JetHEM_up_yield'
p65
aS'JetHEM_down_yield'
p66
atp67
bsS'name'
p68
Nstp69
Rp70
ag15
(cpandas.core.indexes.numeric
Int64Index
p71
(dp72
g18
g19
(g20
(I0
tp73
g22
tp74
Rp75
(I1
(I15
tp76
g26
(S'i8'
p77
I0
I1
tp78
Rp79
(I3
S'<'
p80
NNNI-1
I-1
I0
tp81
bI00
S'\x00\x00\x00\x00\x00\x00\x00\x00\x01\x00\x00\x00\x00\x00\x00\x00\x02\x00\x00\x00\x00\x00\x00\x00\x03\x00\x00\x00\x00\x00\x00\x00\x04\x00\x00\x00\x00\x00\x00\x00\x05\x00\x00\x00\x00\x00\x00\x00\x06\x00\x00\x00\x00\x00\x00\x00\x07\x00\x00\x00\x00\x00\x00\x00\x08\x00\x00\x00\x00\x00\x00\x00\t\x00\x00\x00\x00\x00\x00\x00\n\x00\x00\x00\x00\x00\x00\x00\x0b\x00\x00\x00\x00\x00\x00\x00\x0c\x00\x00\x00\x00\x00\x00\x00\r\x00\x00\x00\x00\x00\x00\x00\x0e\x00\x00\x00\x00\x00\x00\x00'
p82
tp83
bsg68
Nstp84
Rp85
a(lp86
g19
(g20
(I0
tp87
g22
tp88
Rp89
(I1
(I1
I15
tp90
g26
(S'f8'
p91
I0
I1
tp92
Rp93
(I3
S'<'
p94
NNNI-1
I-1
I0
tp95
bI00
S'\x00\x00\x00\x00\x00\x10\xd3@\x00\x00\x00\x00\x00\x10\xd3@\x00\x00\x00\x00\x00\x10\xd3@\x00\x00\x00\x00\x00\x10\xd3@\x00\x00\x00\x00\x00\x10\xd3@\x00\x00\x00\x00\x00\x10\xd3@\x00\x00\x00\x00\x00\x10\xd3@\x00\x00\x00\x00\x00\x10\xd3@\x00\x00\x00\x00\x00\x10\xd3@\x00\x00\x00\x00\x00\x10\xd3@\x00\x00\x00\x00\x00\x10\xd3@\x00\x00\x00\x00\x00\x10\xd3@\x00\x00\x00\x00\x00\x10\xd3@\x00\x00\x00\x00\x00\x00\xf0?\x00\x00\x00\x00\x00\x00\xf0\xbf'
p96
tp97
bag19
(g20
(I0
tp98
g22
tp99
Rp100
(I1
(I33
I15
tp101
g29
I00
(lp102
S'2016preVFP'
p103
ag103
ag103
ag103
ag103
ag103
ag103
ag103
ag103
ag103
ag103
ag103
ag103
ag33
ag33
aS'sig'
p104
ag104
ag104
ag104
ag104
ag104
ag104
ag104
ag104
ag104
ag104
ag104
ag104
aS'bkg'
p105
ag18
aS'GG2HMf05ph0'
p106
aS'GG2HbsmM'
p107
aS'GG2Hsm'
p108
aS'TTHsm'
p109
aS'VBFMf05ph0'
p110
aS'VBFbsmM'
p111
aS'VBFsm'
p112
aS'WHMf05ph0'
p113
aS'WHbsmM'
p114
aS'WHsm'
p115
aS'ZHMf05ph0'
p116
aS'ZHbsmM'
p117
aS'ZHsm'
p118
aS'bkg_mass'
p119
aS'data_obs'
p120
aS'GG2HMf05ph0_2016preVFP_hgg'
p121
aS'GG2HbsmM_2016preVFP_hgg'
p122
aS'GG2Hsm_2016preVFP_hgg'
p123
aS'tth0P_2016preVFP_hgg'
p124
aS'vbf0Mf05ph0_2016preVFP_hgg'
p125
aS'vbf0M_2016preVFP_hgg'
p126
aS'vbf0P_2016preVFP_hgg'
p127
aS'wh0Mf05ph0_2016preVFP_hgg'
p128
aS'wh0M_2016preVFP_hgg'
p129
aS'wh0P_2016preVFP_hgg'
p130
aS'zh0Mf05ph0_2016preVFP_hgg'
p131
aS'zh0M_2016preVFP_hgg'
p132
aS'zh0P_2016preVFP_hgg'
p133
ag119
ag120
aS'jjh0Mf05ph0'
p134
aS'jjh0M'
p135
aS'jjh0P'
p136
aS'tth0P'
p137
aS'vbf0Mf05ph0'
p138
aS'vbf0M'
p139
aS'vbf0P'
p140
aS'wh0Mf05ph0'
p141
aS'wh0M'
p142
aS'wh0P'
p143
aS'zh0Mf05ph0'
p144
aS'zh0M'
p145
aS'zh0P'
p146
aS'-'
p147
ag147
aS'AC_Bin3_2016preVFP'
p148
aS'AC_Bin3_2016preVFP'
p149
aS'AC_Bin3_2016preVFP'
p150
aS'AC_Bin3_2016preVFP'
p151
aS'AC_Bin3_2016preVFP'
p152
aS'AC_Bin3_2016preVFP'
p153
aS'AC_Bin3_2016preVFP'
p154
aS'AC_Bin3_2016preVFP'
p155
aS'AC_Bin3_2016preVFP'
p156
aS'AC_Bin3_2016preVFP'
p157
aS'AC_Bin3_2016preVFP'
p158
aS'AC_Bin3_2016preVFP'
p159
aS'AC_Bin3_2016preVFP'
p160
aS'AC_Bin3_2016preVFP'
p161
ag161
aS'Trees/Opt_2016preVFP/2016PreVFP/Trees2WS_2016preVFP/WS/output_GluGluHToGGPlusTwoJets_MM_M125_TuneCP5_13TeV-amcatnlopowheg-minlo-pythia8_GG2HMf05ph0.root'
p162
aS'Trees/Opt_2016preVFP/2016PreVFP/Trees2WS_2016preVFP/WS/output_GluGluHToGGPlusTwoJets_CPodd_M125_TuneCP5_13TeV-amcatnlopowheg-minlo-pythia8_GG2HbsmM.root'
p163
aS'Trees/Opt_2016preVFP/2016PreVFP/Trees2WS_2016preVFP/WS/output_GluGluHToGGPlusTwoJets_SM_M125_TuneCP5_13TeV-amcatnlopowheg-minlo-pythia8_GG2Hsm.root'
p164
aS'Trees/Opt_2016preVFP/2016PreVFP/Trees2WS_2016preVFP/WS/output_ttHJetToGG_M125_TuneCP5_13TeV-amcatnloFXFX-madspin-pythia8_TTHsm.root'
p165
aS'Trees/Opt_2016preVFP/2016PreVFP/Trees2WS_2016preVFP/WS/output_VBFHiggs0Mf05ph0ToGG_M125_TuneCP5_13TeV-JHUGenV7011-pythia8_VBFMf05ph0.root'
p166
aS'Trees/Opt_2016preVFP/2016PreVFP/Trees2WS_2016preVFP/WS/output_VBFHiggs0MToGG_M125_TuneCP5_13TeV-JHUGenV7011-pythia8_VBFbsmM.root'
p167
aS'Trees/Opt_2016preVFP/2016PreVFP/Trees2WS_2016preVFP/WS/output_VBFHToGG_M125_TuneCP5_13TeV-amcatnlo-pythia8_VBFsm.root'
p168
aS'Trees/Opt_2016preVFP/2016PreVFP/Trees2WS_2016preVFP/WS/output_WHiggs0Mf05ph0ToGG_M125_TuneCP5_13TeV-JHUGenV7011-pythia8_WHMf05ph0.root'
p169
aS'Trees/Opt_2016preVFP/2016PreVFP/Trees2WS_2016preVFP/WS/output_WHiggs0MToGG_M125_TuneCP5_13TeV-JHUGenV7011-pythia8_WHbsmM.root'
p170
aS'Trees/Opt_2016preVFP/2016PreVFP/Trees2WS_2016preVFP/WS/output_WHiggs0PMToGG_M125_TuneCP5_13TeV-JHUGenV7011-pythia8_WHsm.root'
p171
aS'Trees/Opt_2016preVFP/2016PreVFP/Trees2WS_2016preVFP/WS/output_ZHiggs0Mf05ph0ToGG_M125_TuneCP5_13TeV-JHUGenV7011-pythia8_ZHMf05ph0.root'
p172
aS'Trees/Opt_2016preVFP/2016PreVFP/Trees2WS_2016preVFP/WS/output_ZHiggs0MToGG_M125_TuneCP5_13TeV-JHUGenV7011-pythia8_ZHbsmM.root'
p173
aS'Trees/Opt_2016preVFP/2016PreVFP/Trees2WS_2016preVFP/WS/output_ZH_HToGG_ZToAll_M125_TuneCP5_13TeV-powheg-pythia8_ZHsm.root'
p174
ag147
ag147
aS'jjh0Mf05ph0_125_13TeV_AC_Bin3'
p175
aS'jjh0M_125_13TeV_AC_Bin3'
p176
aS'jjh0P_125_13TeV_AC_Bin3'
p177
aS'tth0P_125_13TeV_AC_Bin3'
p178
aS'vbf0Mf05ph0_125_13TeV_AC_Bin3'
p179
aS'vbf0M_125_13TeV_AC_Bin3'
p180
aS'vbf0P_125_13TeV_AC_Bin3'
p181
aS'wh0Mf05ph0_125_13TeV_AC_Bin3'
p182
aS'wh0M_125_13TeV_AC_Bin3'
p183
aS'wh0P_125_13TeV_AC_Bin3'
p184
aS'zh0Mf05ph0_125_13TeV_AC_Bin3'
p185
aS'zh0M_125_13TeV_AC_Bin3'
p186
aS'zh0P_125_13TeV_AC_Bin3'
p187
ag147
ag147
aS'./Models/signal/CMS-HGG_sigfit_packaged_AC_Bin3_2016preVFP.root'
p188
aS'./Models/signal/CMS-HGG_sigfit_packaged_AC_Bin3_2016preVFP.root'
p189
aS'./Models/signal/CMS-HGG_sigfit_packaged_AC_Bin3_2016preVFP.root'
p190
aS'./Models/signal/CMS-HGG_sigfit_packaged_AC_Bin3_2016preVFP.root'
p191
aS'./Models/signal/CMS-HGG_sigfit_packaged_AC_Bin3_2016preVFP.root'
p192
aS'./Models/signal/CMS-HGG_sigfit_packaged_AC_Bin3_2016preVFP.root'
p193
aS'./Models/signal/CMS-HGG_sigfit_packaged_AC_Bin3_2016preVFP.root'
p194
aS'./Models/signal/CMS-HGG_sigfit_packaged_AC_Bin3_2016preVFP.root'
p195
aS'./Models/signal/CMS-HGG_sigfit_packaged_AC_Bin3_2016preVFP.root'
p196
aS'./Models/signal/CMS-HGG_sigfit_packaged_AC_Bin3_2016preVFP.root'
p197
aS'./Models/signal/CMS-HGG_sigfit_packaged_AC_Bin3_2016preVFP.root'
p198
aS'./Models/signal/CMS-HGG_sigfit_packaged_AC_Bin3_2016preVFP.root'
p199
aS'./Models/signal/CMS-HGG_sigfit_packaged_AC_Bin3_2016preVFP.root'
p200
aS'./Models/background/CMS-HGG_multipdf_AC_Bin3_2016preVFP.root'
p201
ag201
aS'wsig_13TeV:hggpdfsmrel_GG2HMf05ph0_2016preVFP_AC_Bin3_13TeV'
p202
aS'wsig_13TeV:hggpdfsmrel_GG2HbsmM_2016preVFP_AC_Bin3_13TeV'
p203
aS'wsig_13TeV:hggpdfsmrel_GG2Hsm_2016preVFP_AC_Bin3_13TeV'
p204
aS'wsig_13TeV:hggpdfsmrel_TTHsm_2016preVFP_AC_Bin3_13TeV'
p205
aS'wsig_13TeV:hggpdfsmrel_VBFMf05ph0_2016preVFP_AC_Bin3_13TeV'
p206
aS'wsig_13TeV:hggpdfsmrel_VBFbsmM_2016preVFP_AC_Bin3_13TeV'
p207
aS'wsig_13TeV:hggpdfsmrel_VBFsm_2016preVFP_AC_Bin3_13TeV'
p208
aS'wsig_13TeV:hggpdfsmrel_WHMf05ph0_2016preVFP_AC_Bin3_13TeV'
p209
aS'wsig_13TeV:hggpdfsmrel_WHbsmM_2016preVFP_AC_Bin3_13TeV'
p210
aS'wsig_13TeV:hggpdfsmrel_WHsm_2016preVFP_AC_Bin3_13TeV'
p211
aS'wsig_13TeV:hggpdfsmrel_ZHMf05ph0_2016preVFP_AC_Bin3_13TeV'
p212
aS'wsig_13TeV:hggpdfsmrel_ZHbsmM_2016preVFP_AC_Bin3_13TeV'
p213
aS'wsig_13TeV:hggpdfsmrel_ZHsm_2016preVFP_AC_Bin3_13TeV'
p214
aS'multipdf:CMS_hgg_AC_Bin3_2016preVFP_13TeV_bkgshape'
p215
aS'multipdf:roohist_data_mass_AC_Bin3'
p216
aF0.018031509939760326
aF0.018839050043311545
aF0.025066059537493857
aF0.0006137919176580908
aF0.0039021478015683897
aF0.0004349628178488274
aF0.0036921905857525417
aF0.0004639522384195516
aF0.00021393483064002794
aF0.0006309477759032234
aF0.00015639080811524764
aI0
aF0.0006232929035832058
ag147
ag147
aF3.628712084934253e-06
aF1.8639962262292945e-06
aF3.8689411118991484e-06
aF1.4753704913770866e-07
aF1.9588150203813563e-06
aF1.8558783070959832e-08
aF4.785673984875605e-06
aF8.326503077002319e-09
aF2.001672818003521e-09
aF8.655175278702172e-09
aF1.008670027040693e-08
aI0
aF2.4524212115689603e-08
ag147
ag147
aF0.018818748257183854
aF0.019245758475898635
aF0.025942138662786874
aF0.0006406415867337455
aF0.004034795153285174
aF0.00045696790062263926
aF0.003822407321754085
aF0.00047618468698572443
aF0.0002187588660800431
aF0.0006549546597458407
aF0.0001665384341374263
aI0
aF0.000638937504415716
ag147
ag147
aF0.018146519787221115
aF0.01895889528725924
aF0.025224818066566717
aF0.0006178865587159333
aF0.003926057594506269
aF0.00043770951471967004
aF0.003715551799079158
aF0.00046683567448864487
aF0.0002152825113997526
aF0.0006349021864292816
aF0.00015733066485295813
aI0
aF0.0006271904500097734
ag147
ag147
aF0.01791686582013706
aF0.0187195848361712
aF0.024907801883582173
aF0.0006097108825931785
aF0.0038783106620278573
aF0.00043222473088337643
aF0.0036689028135378178
aF0.00046107778199193275
aF0.0002125913696071483
aF0.0006270057018363706
aF0.0001554537571093527
aI0
aF0.0006194074512068629
ag147
ag147
aF0.018391435250169383
aF0.019214469306784724
aF0.02555738204269069
aF0.0006246225449457147
aF0.0040192129409700825
aF0.0004432253878447211
aF0.0037970004354889028
aF0.000474146390108306
aF0.0002180680198987062
aF0.0006439047517458585
aF0.00015914351821930643
aI0
aF0.0006395693371195925
ag147
ag147
aF0.01767479141149535
aF0.01846736573677918
aF0.02457904491501107
aF0.0006030530949991811
aF0.003786804530932517
aF0.0004267664755589835
aF0.0035886560574853836
aF0.0004539081876057093
aF0.0002098373121230353
aF0.0006181021879499408
aF0.00015366021035780598
aI0
aF0.0006071814636809296
ag147
ag147
aF0.01806862446321506
aF0.01888011779446662
aF0.02512276488912013
aF0.0006153325995094664
aF0.003921375484612327
aF0.0004358870775900508
aF0.0037038159528548754
aF0.000465133834619234
aF0.00021450789581247654
aF0.0006326000727706559
aF0.00015700980557527923
aI0
aF0.000625200836926161
ag147
ag147
aF0.01799443317630439
aF0.01879802785857096
aF0.02500941622968649
aF0.0006122577147083664
aF0.0038829674285564574
aF0.0004340393005281325
aF0.0036805976682186196
aF0.0004627721975943144
aF0.00021336250872980246
aF0.0006292976050812346
aF0.00015577256885876704
aI0
aF0.0006213868139510952
ag147
ag147
aF0.018074115187938142
aF0.018881091405895865
aF0.02512188549421181
aF0.0006154511319031052
aF0.003911082976771845
aF0.00043617903729683557
aF0.0037005067967256647
aF0.00046498073053762295
aF0.0002143768920225524
aF0.0006326453604743206
aF0.00015741764780066107
aI0
aF0.0006245793643328576
ag147
ag147
aF0.017988954436961812
aF0.0187970555488948
aF0.0250102963363173
aF0.0006121347765262923
aF0.0038932227033462805
aF0.0004337481716672367
aF0.003683883605070449
aF0.0004629248880902584
aF0.0002134932282481419
aF0.0006292523473395622
aF0.00015536571124734184
aI0
aF0.0006220078385001972
ag147
ag147
aF0.018813226864608623
aF0.019850196811944443
aF0.025799474825134894
aF0.0006085274785618822
aF0.003960959854339308
aF0.00046484967367632635
aF0.0035659737918649625
aF0.0004787801508427947
aF0.0002223392741598218
aF0.0006294917039895154
aF0.00015639080811524764
aF0.0
aF0.0006326997490759823
ag147
ag147
aF0.01577904560906518
aF0.018527434692600764
aF0.024099317460468228
aF0.0005970342780301507
aF0.0038417163917756625
aF0.0004362144749165964
aF0.003823214761496274
aF0.000435012778325472
aF0.00020049425631896156
aF0.0005983990994309352
aF0.00015639080811524764
aF0.0
aF0.0006558357463291031
ag147
ag147
aF0.018579721057790266
aF0.018696912766358764
aF0.02746006098163889
aF0.00026666117560125713
aF0.0036498082298521695
aF0.0004194298704760513
aF0.004153090983891161
aF0.000529734229985479
aF0.00021209339490724233
aF0.0006531910449893985
aF0.00015639080811524764
aF0.0
aF0.0006879386792206788
ag147
ag147
aF0.018061582915038343
aF0.018757121524799913
aF0.02481273336684353
aF0.0007170192094463346
aF0.0036850442271543216
aF0.0004397941148681639
aF0.007329518108008415
aF0.0006940170910638699
aF0.00020058515178789094
aF0.00055531529756081
aF0.00012583542047650553
aF0.0
aF0.0005645301851018303
ag147
ag147
aF0.018646667522375537
aF0.019191771764667465
aF0.026408825664702817
aF0.0006137919176580908
aF0.003953955272777421
aF0.0004349628178488274
aF0.003906822996896153
aF0.00046967437458533823
aF0.00021677010511211847
aF0.00063339122891648
aF0.00015639080811524764
aF0.0
aF0.0006815003389419871
ag147
ag147
aF0.017342033894351516
aF0.01785961470602615
aF0.024280385789097636
aF0.0006206145114902029
aF0.0038442892267767093
aF0.0004349628178488274
aF0.003421176448114238
aF0.0004624011257874372
aF0.00021393483064002794
aF0.000605649851763701
aF0.00015639080811524764
aF0.0
aF0.0006232929035832058
ag147
ag147
aF0.018224027808741994
aF0.01959652063408157
aF0.027027856336417244
aF0.0005172685265506516
aF0.004096538123121718
aF0.00044185451059775005
aF0.004093297748454461
aF0.00048442867762332753
aF0.0002409907948504042
aF0.0007500387918071283
aF0.00015639080811524764
aF0.0
aF0.0006378249775025324
ag147
ag147
aF0.016699589128961634
aF0.017498661667673332
aF0.023676116860997354
aF0.0005893010685440458
aF0.00366397532945939
aF0.0004239140324671098
aF0.0030258999764782857
aF0.0005185552024613571
aF0.00020191267401514779
aF0.0006117631095321485
aF0.00012583542047650553
aF0.0
aF0.0005811344703943178
ag147
ag147
aF0.018396945604195025
aF0.018395332281102128
aF0.02550856533912338
aF0.0005470253327075625
aF0.003958770633630593
aF0.0004384270436617044
aF0.005816098509171752
aF0.00046601120141076535
aF0.0002100819937140841
aF0.0006357293627843319
aF0.00015639080811524764
aF0.0
aF0.0006268735089633992
ag147
ag147
aF0.0191995381766219
aF0.01851763465572276
aF0.02479846768301286
aF0.0005923844997823835
aF0.0038697994306176042
aF0.00042438612388195907
aF0.002915557004598668
aF0.00042810460729469924
aF0.0002117042173495065
aF0.0006379074405913343
aF0.00015639080811524764
aF0.0
aF0.0006267120213578892
ag147
ag147
aF0.018031509939760326
aF0.018839050043311545
aF0.025066059537493857
aF0.0006137919176580908
aF0.0039021478015683897
aF0.0004349628178488274
aF0.0036921905857525417
aF0.0004639522384195516
aF0.00021393483064002794
aF0.0006309477759032234
aF0.00015639080811524764
aF0.0
aF0.0006232929035832058
ag147
ag147
aF0.018031509939760326
aF0.018839050043311545
aF0.025066059537493857
aF0.0006137919176580908
aF0.0039021478015683897
aF0.0004349628178488274
aF0.0036921905857525417
aF0.0004639522384195516
aF0.00021393483064002794
aF0.0006309477759032234
aF0.00015639080811524764
aF0.0
aF0.0006232929035832058
ag147
ag147
atp217
ba(lp218
g15
(g16
(dp219
g18
g19
(g20
(I0
tp220
g22
tp221
Rp222
(I1
(I1
tp223
g29
I00
(lp224
g43
atp225
bsg68
Nstp226
Rp227
ag15
(g16
(dp228
g18
g19
(g20
(I0
tp229
g22
tp230
Rp231
(I1
(I33
tp232
g29
I00
(lp233
g33
ag34
ag35
ag36
ag37
ag38
ag39
ag40
ag41
ag42
ag44
ag45
ag46
ag47
ag48
ag49
ag50
ag51
ag52
ag53
ag54
ag55
ag56
ag57
ag58
ag59
ag60
ag61
ag62
ag63
ag64
ag65
ag66
atp234
bsg68
Nstp235
Rp236
a(dp237
S'0.14.1'
p238
(dp239
S'axes'
p240
g14
sS'blocks'
p241
(lp242
(dp243
S'mgr_locs'
p244
c__builtin__
slice
p245
(I10
I11
I1
tp246
Rp247
sS'values'
p248
g89
sa(dp249
g244
g19
(g20
(I0
tp250
g22
tp251
Rp252
(I1
(I33
tp253
g79
I00
S'\x00\x00\x00\x00\x00\x00\x00\x00\x01\x00\x00\x00\x00\x00\x00\x00\x02\x00\x00\x00\x00\x00\x00\x00\x03\x00\x00\x00\x00\x00\x00\x00\x04\x00\x00\x00\x00\x00\x00\x00\x05\x00\x00\x00\x00\x00\x00\x00\x06\x00\x00\x00\x00\x00\x00\x00\x07\x00\x00\x00\x00\x00\x00\x00\x08\x00\x00\x00\x00\x00\x00\x00\t\x00\x00\x00\x00\x00\x00\x00\x0b\x00\x00\x00\x00\x00\x00\x00\x0c\x00\x00\x00\x00\x00\x00\x00\r\x00\x00\x00\x00\x00\x00\x00\x0e\x00\x00\x00\x00\x00\x00\x00\x0f\x00\x00\x00\x00\x00\x00\x00\x10\x00\x00\x00\x00\x00\x00\x00\x11\x00\x00\x00\x00\x00\x00\x00\x12\x00\x00\x00\x00\x00\x00\x00\x13\x00\x00\x00\x00\x00\x00\x00\x14\x00\x00\x00\x00\x00\x00\x00\x15\x00\x00\x00\x00\x00\x00\x00\x16\x00\x00\x00\x00\x00\x00\x00\x17\x00\x00\x00\x00\x00\x00\x00\x18\x00\x00\x00\x00\x00\x00\x00\x19\x00\x00\x00\x00\x00\x00\x00\x1a\x00\x00\x00\x00\x00\x00\x00\x1b\x00\x00\x00\x00\x00\x00\x00\x1c\x00\x00\x00\x00\x00\x00\x00\x1d\x00\x00\x00\x00\x00\x00\x00\x1e\x00\x00\x00\x00\x00\x00\x00\x1f\x00\x00\x00\x00\x00\x00\x00 \x00\x00\x00\x00\x00\x00\x00!\x00\x00\x00\x00\x00\x00\x00'
p254
tp255
bsg248
g100
sasstp256
bsb.