ccopy_reg
_reconstructor
p0
(cpandas.core.frame
DataFrame
p1
c__builtin__
object
p2
Ntp3
Rp4
(dp5
S'_metadata'
p6
(lp7
sS'_typ'
p8
S'dataframe'
p9
sS'_data'
p10
g0
(cpandas.core.internals
BlockManager
p11
g2
Ntp12
Rp13
((lp14
cpandas.core.indexes.base
_new_Index
p15
(cpandas.core.indexes.base
Index
p16
(dp17
S'data'
p18
cnumpy.core.multiarray
_reconstruct
p19
(cnumpy
ndarray
p20
(I0
tp21
S'b'
p22
tp23
Rp24
(I1
(I34
tp25
cnumpy
dtype
p26
(S'O8'
p27
I0
I1
tp28
Rp29
(I3
S'|'
p30
NNNI-1
I-1
I63
tp31
bI00
(lp32
S'year'
p33
aS'type'
p34
aS'procOriginal'
p35
aS'proc'
p36
aS'proc_s0'
p37
aS'cat'
p38
aS'inputWSFile'
p39
aS'nominalDataName'
p40
aS'modelWSFile'
p41
aS'model'
p42
aS'rate'
p43
aS'nominal_yield'
p44
aS'sumw2'
p45
aS'nominal_yield_COWCorr'
p46
aS'LooseMvaSF_up_yield'
p47
aS'LooseMvaSF_down_yield'
p48
aS'PreselSF_up_yield'
p49
aS'PreselSF_down_yield'
p50
aS'electronVetoSF_up_yield'
p51
aS'electronVetoSF_down_yield'
p52
aS'TriggerWeight_up_yield'
p53
aS'TriggerWeight_down_yield'
p54
aS'SigmaEOverEShift_up_yield'
p55
aS'SigmaEOverEShift_down_yield'
p56
aS'MvaShift_up_yield'
p57
aS'MvaShift_down_yield'
p58
aS'PUJIDShift_up_yield'
p59
aS'PUJIDShift_down_yield'
p60
aS'JEC_up_yield'
p61
aS'JEC_down_yield'
p62
aS'JER_up_yield'
p63
aS'JER_down_yield'
p64
aS'JetHEM_up_yield'
p65
aS'JetHEM_down_yield'
p66
atp67
bsS'name'
p68
Nstp69
Rp70
ag15
(cpandas.core.indexes.numeric
Int64Index
p71
(dp72
g18
g19
(g20
(I0
tp73
g22
tp74
Rp75
(I1
(I15
tp76
g26
(S'i8'
p77
I0
I1
tp78
Rp79
(I3
S'<'
p80
NNNI-1
I-1
I0
tp81
bI00
S'\x00\x00\x00\x00\x00\x00\x00\x00\x01\x00\x00\x00\x00\x00\x00\x00\x02\x00\x00\x00\x00\x00\x00\x00\x03\x00\x00\x00\x00\x00\x00\x00\x04\x00\x00\x00\x00\x00\x00\x00\x05\x00\x00\x00\x00\x00\x00\x00\x06\x00\x00\x00\x00\x00\x00\x00\x07\x00\x00\x00\x00\x00\x00\x00\x08\x00\x00\x00\x00\x00\x00\x00\t\x00\x00\x00\x00\x00\x00\x00\n\x00\x00\x00\x00\x00\x00\x00\x0b\x00\x00\x00\x00\x00\x00\x00\x0c\x00\x00\x00\x00\x00\x00\x00\r\x00\x00\x00\x00\x00\x00\x00\x0e\x00\x00\x00\x00\x00\x00\x00'
p82
tp83
bsg68
Nstp84
Rp85
a(lp86
g19
(g20
(I0
tp87
g22
tp88
Rp89
(I1
(I1
I15
tp90
g26
(S'f8'
p91
I0
I1
tp92
Rp93
(I3
S'<'
p94
NNNI-1
I-1
I0
tp95
bI00
S'\x00\x00\x00\x00\x00\x10\xd3@\x00\x00\x00\x00\x00\x10\xd3@\x00\x00\x00\x00\x00\x10\xd3@\x00\x00\x00\x00\x00\x10\xd3@\x00\x00\x00\x00\x00\x10\xd3@\x00\x00\x00\x00\x00\x10\xd3@\x00\x00\x00\x00\x00\x10\xd3@\x00\x00\x00\x00\x00\x10\xd3@\x00\x00\x00\x00\x00\x10\xd3@\x00\x00\x00\x00\x00\x10\xd3@\x00\x00\x00\x00\x00\x10\xd3@\x00\x00\x00\x00\x00\x10\xd3@\x00\x00\x00\x00\x00\x10\xd3@\x00\x00\x00\x00\x00\x00\xf0?\x00\x00\x00\x00\x00\x00\xf0\xbf'
p96
tp97
bag19
(g20
(I0
tp98
g22
tp99
Rp100
(I1
(I33
I15
tp101
g29
I00
(lp102
S'2016preVFP'
p103
ag103
ag103
ag103
ag103
ag103
ag103
ag103
ag103
ag103
ag103
ag103
ag103
ag33
ag33
aS'sig'
p104
ag104
ag104
ag104
ag104
ag104
ag104
ag104
ag104
ag104
ag104
ag104
ag104
aS'bkg'
p105
ag18
aS'GG2HMf05ph0'
p106
aS'GG2HbsmM'
p107
aS'GG2Hsm'
p108
aS'TTHsm'
p109
aS'VBFMf05ph0'
p110
aS'VBFbsmM'
p111
aS'VBFsm'
p112
aS'WHMf05ph0'
p113
aS'WHbsmM'
p114
aS'WHsm'
p115
aS'ZHMf05ph0'
p116
aS'ZHbsmM'
p117
aS'ZHsm'
p118
aS'bkg_mass'
p119
aS'data_obs'
p120
aS'GG2HMf05ph0_2016preVFP_hgg'
p121
aS'GG2HbsmM_2016preVFP_hgg'
p122
aS'GG2Hsm_2016preVFP_hgg'
p123
aS'tth0P_2016preVFP_hgg'
p124
aS'vbf0Mf05ph0_2016preVFP_hgg'
p125
aS'vbf0M_2016preVFP_hgg'
p126
aS'vbf0P_2016preVFP_hgg'
p127
aS'wh0Mf05ph0_2016preVFP_hgg'
p128
aS'wh0M_2016preVFP_hgg'
p129
aS'wh0P_2016preVFP_hgg'
p130
aS'zh0Mf05ph0_2016preVFP_hgg'
p131
aS'zh0M_2016preVFP_hgg'
p132
aS'zh0P_2016preVFP_hgg'
p133
ag119
ag120
aS'jjh0Mf05ph0'
p134
aS'jjh0M'
p135
aS'jjh0P'
p136
aS'tth0P'
p137
aS'vbf0Mf05ph0'
p138
aS'vbf0M'
p139
aS'vbf0P'
p140
aS'wh0Mf05ph0'
p141
aS'wh0M'
p142
aS'wh0P'
p143
aS'zh0Mf05ph0'
p144
aS'zh0M'
p145
aS'zh0P'
p146
aS'-'
p147
ag147
aS'AC_Bin16_2016preVFP'
p148
aS'AC_Bin16_2016preVFP'
p149
aS'AC_Bin16_2016preVFP'
p150
aS'AC_Bin16_2016preVFP'
p151
aS'AC_Bin16_2016preVFP'
p152
aS'AC_Bin16_2016preVFP'
p153
aS'AC_Bin16_2016preVFP'
p154
aS'AC_Bin16_2016preVFP'
p155
aS'AC_Bin16_2016preVFP'
p156
aS'AC_Bin16_2016preVFP'
p157
aS'AC_Bin16_2016preVFP'
p158
aS'AC_Bin16_2016preVFP'
p159
aS'AC_Bin16_2016preVFP'
p160
aS'AC_Bin16_2016preVFP'
p161
ag161
aS'Trees/Opt_2016preVFP/2016PreVFP/Trees2WS_2016preVFP/WS/output_GluGluHToGGPlusTwoJets_MM_M125_TuneCP5_13TeV-amcatnlopowheg-minlo-pythia8_GG2HMf05ph0.root'
p162
aS'Trees/Opt_2016preVFP/2016PreVFP/Trees2WS_2016preVFP/WS/output_GluGluHToGGPlusTwoJets_CPodd_M125_TuneCP5_13TeV-amcatnlopowheg-minlo-pythia8_GG2HbsmM.root'
p163
aS'Trees/Opt_2016preVFP/2016PreVFP/Trees2WS_2016preVFP/WS/output_GluGluHToGGPlusTwoJets_SM_M125_TuneCP5_13TeV-amcatnlopowheg-minlo-pythia8_GG2Hsm.root'
p164
aS'Trees/Opt_2016preVFP/2016PreVFP/Trees2WS_2016preVFP/WS/output_ttHJetToGG_M125_TuneCP5_13TeV-amcatnloFXFX-madspin-pythia8_TTHsm.root'
p165
aS'Trees/Opt_2016preVFP/2016PreVFP/Trees2WS_2016preVFP/WS/output_VBFHiggs0Mf05ph0ToGG_M125_TuneCP5_13TeV-JHUGenV7011-pythia8_VBFMf05ph0.root'
p166
aS'Trees/Opt_2016preVFP/2016PreVFP/Trees2WS_2016preVFP/WS/output_VBFHiggs0MToGG_M125_TuneCP5_13TeV-JHUGenV7011-pythia8_VBFbsmM.root'
p167
aS'Trees/Opt_2016preVFP/2016PreVFP/Trees2WS_2016preVFP/WS/output_VBFHToGG_M125_TuneCP5_13TeV-amcatnlo-pythia8_VBFsm.root'
p168
aS'Trees/Opt_2016preVFP/2016PreVFP/Trees2WS_2016preVFP/WS/output_WHiggs0Mf05ph0ToGG_M125_TuneCP5_13TeV-JHUGenV7011-pythia8_WHMf05ph0.root'
p169
aS'Trees/Opt_2016preVFP/2016PreVFP/Trees2WS_2016preVFP/WS/output_WHiggs0MToGG_M125_TuneCP5_13TeV-JHUGenV7011-pythia8_WHbsmM.root'
p170
aS'Trees/Opt_2016preVFP/2016PreVFP/Trees2WS_2016preVFP/WS/output_WHiggs0PMToGG_M125_TuneCP5_13TeV-JHUGenV7011-pythia8_WHsm.root'
p171
aS'Trees/Opt_2016preVFP/2016PreVFP/Trees2WS_2016preVFP/WS/output_ZHiggs0Mf05ph0ToGG_M125_TuneCP5_13TeV-JHUGenV7011-pythia8_ZHMf05ph0.root'
p172
aS'Trees/Opt_2016preVFP/2016PreVFP/Trees2WS_2016preVFP/WS/output_ZHiggs0MToGG_M125_TuneCP5_13TeV-JHUGenV7011-pythia8_ZHbsmM.root'
p173
aS'Trees/Opt_2016preVFP/2016PreVFP/Trees2WS_2016preVFP/WS/output_ZH_HToGG_ZToAll_M125_TuneCP5_13TeV-powheg-pythia8_ZHsm.root'
p174
ag147
ag147
aS'jjh0Mf05ph0_125_13TeV_AC_Bin16'
p175
aS'jjh0M_125_13TeV_AC_Bin16'
p176
aS'jjh0P_125_13TeV_AC_Bin16'
p177
aS'tth0P_125_13TeV_AC_Bin16'
p178
aS'vbf0Mf05ph0_125_13TeV_AC_Bin16'
p179
aS'vbf0M_125_13TeV_AC_Bin16'
p180
aS'vbf0P_125_13TeV_AC_Bin16'
p181
aS'wh0Mf05ph0_125_13TeV_AC_Bin16'
p182
aS'wh0M_125_13TeV_AC_Bin16'
p183
aS'wh0P_125_13TeV_AC_Bin16'
p184
aS'zh0Mf05ph0_125_13TeV_AC_Bin16'
p185
aS'zh0M_125_13TeV_AC_Bin16'
p186
aS'zh0P_125_13TeV_AC_Bin16'
p187
ag147
ag147
aS'./Models/signal/CMS-HGG_sigfit_packaged_AC_Bin16_2016preVFP.root'
p188
aS'./Models/signal/CMS-HGG_sigfit_packaged_AC_Bin16_2016preVFP.root'
p189
aS'./Models/signal/CMS-HGG_sigfit_packaged_AC_Bin16_2016preVFP.root'
p190
aS'./Models/signal/CMS-HGG_sigfit_packaged_AC_Bin16_2016preVFP.root'
p191
aS'./Models/signal/CMS-HGG_sigfit_packaged_AC_Bin16_2016preVFP.root'
p192
aS'./Models/signal/CMS-HGG_sigfit_packaged_AC_Bin16_2016preVFP.root'
p193
aS'./Models/signal/CMS-HGG_sigfit_packaged_AC_Bin16_2016preVFP.root'
p194
aS'./Models/signal/CMS-HGG_sigfit_packaged_AC_Bin16_2016preVFP.root'
p195
aS'./Models/signal/CMS-HGG_sigfit_packaged_AC_Bin16_2016preVFP.root'
p196
aS'./Models/signal/CMS-HGG_sigfit_packaged_AC_Bin16_2016preVFP.root'
p197
aS'./Models/signal/CMS-HGG_sigfit_packaged_AC_Bin16_2016preVFP.root'
p198
aS'./Models/signal/CMS-HGG_sigfit_packaged_AC_Bin16_2016preVFP.root'
p199
aS'./Models/signal/CMS-HGG_sigfit_packaged_AC_Bin16_2016preVFP.root'
p200
aS'./Models/background/CMS-HGG_multipdf_AC_Bin16_2016preVFP.root'
p201
ag201
aS'wsig_13TeV:hggpdfsmrel_GG2HMf05ph0_2016preVFP_AC_Bin16_13TeV'
p202
aS'wsig_13TeV:hggpdfsmrel_GG2HbsmM_2016preVFP_AC_Bin16_13TeV'
p203
aS'wsig_13TeV:hggpdfsmrel_GG2Hsm_2016preVFP_AC_Bin16_13TeV'
p204
aS'wsig_13TeV:hggpdfsmrel_TTHsm_2016preVFP_AC_Bin16_13TeV'
p205
aS'wsig_13TeV:hggpdfsmrel_VBFMf05ph0_2016preVFP_AC_Bin16_13TeV'
p206
aS'wsig_13TeV:hggpdfsmrel_VBFbsmM_2016preVFP_AC_Bin16_13TeV'
p207
aS'wsig_13TeV:hggpdfsmrel_VBFsm_2016preVFP_AC_Bin16_13TeV'
p208
aS'wsig_13TeV:hggpdfsmrel_WHMf05ph0_2016preVFP_AC_Bin16_13TeV'
p209
aS'wsig_13TeV:hggpdfsmrel_WHbsmM_2016preVFP_AC_Bin16_13TeV'
p210
aS'wsig_13TeV:hggpdfsmrel_WHsm_2016preVFP_AC_Bin16_13TeV'
p211
aS'wsig_13TeV:hggpdfsmrel_ZHMf05ph0_2016preVFP_AC_Bin16_13TeV'
p212
aS'wsig_13TeV:hggpdfsmrel_ZHbsmM_2016preVFP_AC_Bin16_13TeV'
p213
aS'wsig_13TeV:hggpdfsmrel_ZHsm_2016preVFP_AC_Bin16_13TeV'
p214
aS'multipdf:CMS_hgg_AC_Bin16_2016preVFP_13TeV_bkgshape'
p215
aS'multipdf:roohist_data_mass_AC_Bin16'
p216
aF0.039571654653627775
aF0.03246288083153104
aF0.026058290914761528
aF0.0005662060581244077
aF0.008585242202116206
aF0.002100363019451379
aF0.014321263262900175
aF0.0006685979561780186
aF0.00041753485641038424
aF0.0008103633846303637
aF0.00021849375661986414
aF0.00022587044804822654
aF0.0005701873033103766
ag147
ag147
aF7.087261379777543e-05
aF5.770518765871065e-06
aF3.4236600185561173e-06
aF2.3288585892639144e-08
aF8.075049344911276e-07
aF1.1510504401746644e-07
aF3.6224746033906994e-06
aF3.5975349267024925e-08
aF4.99951037098303e-09
aF3.9781717658554376e-08
aF1.3177121105160919e-08
aF5.10174593015066e-08
aF7.3384842568799885e-09
ag147
ag147
aF0.040897737317181104
aF0.033414102356236604
aF0.026885968804499637
aF0.0005840369615649411
aF0.008883184822827073
aF0.002172524848333995
aF0.014657950773810928
aF0.0006820342365418246
aF0.0004266597387240345
aF0.0008342065955018803
aF0.00022203180136692538
aF0.00023307346024499924
aF0.0005834274047927298
ag147
ag147
aF0.039815962146492606
aF0.03267095799230131
aF0.026224169537407156
aF0.0005699004771067041
aF0.008640501596956828
aF0.0021131786357933336
aF0.014412493675909908
aF0.0006728710174925526
aF0.0004202217644328772
aF0.0008154726813142589
aF0.00021976471974127787
aF0.000227206313954924
aF0.0005737804290200714
ag147
ag147
aF0.03932810314595535
aF0.032255468798517144
aF0.02589293920860176
aF0.0005625236742414992
aF0.00853016010974411
aF0.0020875865153922955
aF0.014230322874165265
aF0.0006643385505071252
aF0.0004148565669788151
aF0.0008052701547998632
aF0.00021722646769800638
aF0.00022453843029777193
aF0.0005666054195530927
ag147
ag147
aF0.04049325912982236
aF0.033035486980002374
aF0.026538518935069675
aF0.0005754970680397246
aF0.00874076829757329
aF0.002155115993439847
aF0.014589281346769515
aF0.0006798328449384765
aF0.00042473705692857704
aF0.0008252160323302211
aF0.00022422486874449973
aF0.00023490023697174438
aF0.0005829002751628744
ag147
ag147
aF0.038658456986901
aF0.03189520203191856
aF0.025582443012398332
aF0.0005569933312687015
aF0.008431096280098173
aF0.0020464650040777775
aF0.01405561332978239
aF0.0006574742494045878
aF0.000410387098474402
aF0.0007956469639291253
aF0.0002128066268419057
aF0.00021692993079263826
aF0.0005575889220044737
ag147
ag147
aF0.03966857753740021
aF0.03252934355945057
aF0.02611320748597891
aF0.0005670962668245487
aF0.008603808039406108
aF0.0021059051803021716
aF0.014350446250206948
aF0.0006700863383756553
aF0.0004183867325716454
aF0.0008122528343271398
aF0.00021932005122904334
aF0.00022645802121895177
aF0.0005717320476444373
ag147
ag147
aF0.039474855091036036
aF0.03239648046663928
aF0.02600342950610849
aF0.0005653166015468377
aF0.008566695339103658
aF0.002094827765792866
aF0.014292117910442246
aF0.0006671117892687668
aF0.00041668371114978445
aF0.0008084763101752964
aF0.00021766859141814608
aF0.00022528334721436864
aF0.0005686442079765765
ag147
ag147
aF0.03965655105172718
aF0.0325331712622492
aF0.02611596981991842
aF0.000567515656802471
aF0.00860545131968957
aF0.0021050401462835953
aF0.014349340605269002
aF0.0006700410865083901
aF0.00041838249405028443
aF0.0008121466907848782
aF0.00021900627801928028
aF0.0002263261697716565
aF0.0005713589490278086
ag147
ag147
aF0.039486849709836264
aF0.03239266669442032
aF0.02600067592501996
aF0.0005648979579547364
aF0.0085650566455905
aF0.002095691078756531
aF0.014293214161474605
aF0.0006671563975727683
aF0.0004166880927310694
aF0.0008085820426771842
aF0.0002179818283540997
aF0.0002254151986616639
aF0.0005690168719107282
ag147
ag147
aF0.04054240660479991
aF0.03462071875867423
aF0.027289204862199767
aF0.0005133709220217497
aF0.009065017936791264
aF0.0021959167182217243
aF0.006129347831574705
aF0.0006842315286803569
aF0.00043668865885138075
aF0.0008089937024351457
aF0.00021849375661986414
aF0.00022587044804822654
aF0.0006222891745437664
ag147
ag147
aF0.03849278577786208
aF0.031458243249744555
aF0.02481957557415626
aF0.0005524561565835029
aF0.006858297657117873
aF0.001934094142882259
aF0.006163332426922352
aF0.0006885240557039651
aF0.000352129846646676
aF0.0007739641197304081
aF0.00021849375661986414
aF0.00022587044804822654
aF0.000531394351128256
ag147
ag147
aF0.03910070092683782
aF0.03710581717723471
aF0.025576121043286548
aF0.0005031189715509754
aF0.00878963236391428
aF0.0022028186263014504
aF0.006119155021451661
aF0.0006820531756375203
aF0.00044344154491682275
aF0.0007350178832439269
aF0.0002497410441719694
aF0.00022587044804822654
aF0.0005475369785017392
ag147
ag147
aF0.037926808650581734
aF0.03271469041976616
aF0.025191072802272174
aF0.0004308648453843489
aF0.008575994408602128
aF0.0021987881560221467
aF0.009734812860301645
aF0.000629995750841772
aF0.0004286103140884734
aF0.0008471478141700572
aF0.00021849375661986414
aF0.00022587044804822654
aF0.0005313364142693899
ag147
ag147
aF0.04073515469758604
aF0.03313491163942217
aF0.026540528721852752
aF0.0005662060581244077
aF0.008812490953459928
aF0.002100363019451379
aF0.006430604930301342
aF0.0006932944335176217
aF0.00042160819793934934
aF0.0008548686986387111
aF0.00021849375661986414
aF0.00022587044804822654
aF0.0005772725467068085
ag147
ag147
aF0.03780686027039337
aF0.03207704995440963
aF0.025489732348205507
aF0.0005662060581244077
aF0.008022807842053226
aF0.0020820111150783305
aF0.00898885002550287
aF0.000621788990542882
aF0.00041753485641038424
aF0.000806678272397221
aF0.00021849375661986414
aF0.00022587044804822654
aF0.0005627901018669945
ag147
ag147
aF0.04183803434057154
aF0.035167769592021614
aF0.027482488365876634
aF0.0004641739141106882
aF0.008899570010271418
aF0.002027952088440088
aF0.006892095485682148
aF0.0007064409608119604
aF0.00040190174263443623
aF0.0009020813923825699
aF0.000300094927297323
aF0.0
aF0.0007189615776042046
ag147
ag147
aF0.037226666235255834
aF0.029615927005693266
aF0.02516108995723698
aF0.0005362935497714716
aF0.008468994558938903
aF0.002063834781267815
aF0.006593948379872927
aF0.0005906342092885097
aF0.0003836082462385093
aF0.0008542614428961315
aF0.00019179742957931012
aF0.00022587044804822654
aF0.0006512681857202551
ag147
ag147
aF0.03958534882076492
aF0.03264080239171108
aF0.02644778517787927
aF0.0005692751715287159
aF0.008609517849890835
aF0.002126884282404262
aF0.0070044370913819876
aF0.0006311366711315713
aF0.0004239430903680841
aF0.0008272871382359881
aF0.00026718063418229576
aF0.0
aF0.0005710022660423419
ag147
ag147
aF0.03931950739001877
aF0.03271752054877197
aF0.02587385424999411
aF0.0005770340084154668
aF0.008709872513009032
aF0.0020654836982316738
aF0.0061822085128824256
aF0.0006307474565119264
aF0.000427389450010196
aF0.0008191345132217975
aF0.00022471172269433737
aF0.00022587044804822654
aF0.0005437914774120145
ag147
ag147
aF0.039571654653627775
aF0.03246288083153104
aF0.026058290914761528
aF0.0005662060581244077
aF0.008585242202116206
aF0.002100363019451379
aF0.014321263262900175
aF0.0006685979561780186
aF0.00041753485641038424
aF0.0008103633846303637
aF0.00021849375661986414
aF0.00022587044804822654
aF0.0005701873033103766
ag147
ag147
aF0.039571654653627775
aF0.03246288083153104
aF0.026058290914761528
aF0.0005662060581244077
aF0.008585242202116206
aF0.002100363019451379
aF0.014321263262900175
aF0.0006685979561780186
aF0.00041753485641038424
aF0.0008103633846303637
aF0.00021849375661986414
aF0.00022587044804822654
aF0.0005701873033103766
ag147
ag147
atp217
ba(lp218
g15
(g16
(dp219
g18
g19
(g20
(I0
tp220
g22
tp221
Rp222
(I1
(I1
tp223
g29
I00
(lp224
g43
atp225
bsg68
Nstp226
Rp227
ag15
(g16
(dp228
g18
g19
(g20
(I0
tp229
g22
tp230
Rp231
(I1
(I33
tp232
g29
I00
(lp233
g33
ag34
ag35
ag36
ag37
ag38
ag39
ag40
ag41
ag42
ag44
ag45
ag46
ag47
ag48
ag49
ag50
ag51
ag52
ag53
ag54
ag55
ag56
ag57
ag58
ag59
ag60
ag61
ag62
ag63
ag64
ag65
ag66
atp234
bsg68
Nstp235
Rp236
a(dp237
S'0.14.1'
p238
(dp239
S'axes'
p240
g14
sS'blocks'
p241
(lp242
(dp243
S'mgr_locs'
p244
c__builtin__
slice
p245
(I10
I11
I1
tp246
Rp247
sS'values'
p248
g89
sa(dp249
g244
g19
(g20
(I0
tp250
g22
tp251
Rp252
(I1
(I33
tp253
g79
I00
S'\x00\x00\x00\x00\x00\x00\x00\x00\x01\x00\x00\x00\x00\x00\x00\x00\x02\x00\x00\x00\x00\x00\x00\x00\x03\x00\x00\x00\x00\x00\x00\x00\x04\x00\x00\x00\x00\x00\x00\x00\x05\x00\x00\x00\x00\x00\x00\x00\x06\x00\x00\x00\x00\x00\x00\x00\x07\x00\x00\x00\x00\x00\x00\x00\x08\x00\x00\x00\x00\x00\x00\x00\t\x00\x00\x00\x00\x00\x00\x00\x0b\x00\x00\x00\x00\x00\x00\x00\x0c\x00\x00\x00\x00\x00\x00\x00\r\x00\x00\x00\x00\x00\x00\x00\x0e\x00\x00\x00\x00\x00\x00\x00\x0f\x00\x00\x00\x00\x00\x00\x00\x10\x00\x00\x00\x00\x00\x00\x00\x11\x00\x00\x00\x00\x00\x00\x00\x12\x00\x00\x00\x00\x00\x00\x00\x13\x00\x00\x00\x00\x00\x00\x00\x14\x00\x00\x00\x00\x00\x00\x00\x15\x00\x00\x00\x00\x00\x00\x00\x16\x00\x00\x00\x00\x00\x00\x00\x17\x00\x00\x00\x00\x00\x00\x00\x18\x00\x00\x00\x00\x00\x00\x00\x19\x00\x00\x00\x00\x00\x00\x00\x1a\x00\x00\x00\x00\x00\x00\x00\x1b\x00\x00\x00\x00\x00\x00\x00\x1c\x00\x00\x00\x00\x00\x00\x00\x1d\x00\x00\x00\x00\x00\x00\x00\x1e\x00\x00\x00\x00\x00\x00\x00\x1f\x00\x00\x00\x00\x00\x00\x00 \x00\x00\x00\x00\x00\x00\x00!\x00\x00\x00\x00\x00\x00\x00'
p254
tp255
bsg248
g100
sasstp256
bsb.