ccopy_reg
_reconstructor
p0
(cpandas.core.frame
DataFrame
p1
c__builtin__
object
p2
Ntp3
Rp4
(dp5
S'_metadata'
p6
(lp7
sS'_typ'
p8
S'dataframe'
p9
sS'_data'
p10
g0
(cpandas.core.internals
BlockManager
p11
g2
Ntp12
Rp13
((lp14
cpandas.core.indexes.base
_new_Index
p15
(cpandas.core.indexes.base
Index
p16
(dp17
S'data'
p18
cnumpy.core.multiarray
_reconstruct
p19
(cnumpy
ndarray
p20
(I0
tp21
S'b'
p22
tp23
Rp24
(I1
(I34
tp25
cnumpy
dtype
p26
(S'O8'
p27
I0
I1
tp28
Rp29
(I3
S'|'
p30
NNNI-1
I-1
I63
tp31
bI00
(lp32
S'year'
p33
aS'type'
p34
aS'procOriginal'
p35
aS'proc'
p36
aS'proc_s0'
p37
aS'cat'
p38
aS'inputWSFile'
p39
aS'nominalDataName'
p40
aS'modelWSFile'
p41
aS'model'
p42
aS'rate'
p43
aS'nominal_yield'
p44
aS'sumw2'
p45
aS'nominal_yield_COWCorr'
p46
aS'LooseMvaSF_up_yield'
p47
aS'LooseMvaSF_down_yield'
p48
aS'PreselSF_up_yield'
p49
aS'PreselSF_down_yield'
p50
aS'electronVetoSF_up_yield'
p51
aS'electronVetoSF_down_yield'
p52
aS'TriggerWeight_up_yield'
p53
aS'TriggerWeight_down_yield'
p54
aS'SigmaEOverEShift_up_yield'
p55
aS'SigmaEOverEShift_down_yield'
p56
aS'MvaShift_up_yield'
p57
aS'MvaShift_down_yield'
p58
aS'PUJIDShift_up_yield'
p59
aS'PUJIDShift_down_yield'
p60
aS'JEC_up_yield'
p61
aS'JEC_down_yield'
p62
aS'JER_up_yield'
p63
aS'JER_down_yield'
p64
aS'JetHEM_up_yield'
p65
aS'JetHEM_down_yield'
p66
atp67
bsS'name'
p68
Nstp69
Rp70
ag15
(cpandas.core.indexes.numeric
Int64Index
p71
(dp72
g18
g19
(g20
(I0
tp73
g22
tp74
Rp75
(I1
(I15
tp76
g26
(S'i8'
p77
I0
I1
tp78
Rp79
(I3
S'<'
p80
NNNI-1
I-1
I0
tp81
bI00
S'\x00\x00\x00\x00\x00\x00\x00\x00\x01\x00\x00\x00\x00\x00\x00\x00\x02\x00\x00\x00\x00\x00\x00\x00\x03\x00\x00\x00\x00\x00\x00\x00\x04\x00\x00\x00\x00\x00\x00\x00\x05\x00\x00\x00\x00\x00\x00\x00\x06\x00\x00\x00\x00\x00\x00\x00\x07\x00\x00\x00\x00\x00\x00\x00\x08\x00\x00\x00\x00\x00\x00\x00\t\x00\x00\x00\x00\x00\x00\x00\n\x00\x00\x00\x00\x00\x00\x00\x0b\x00\x00\x00\x00\x00\x00\x00\x0c\x00\x00\x00\x00\x00\x00\x00\r\x00\x00\x00\x00\x00\x00\x00\x0e\x00\x00\x00\x00\x00\x00\x00'
p82
tp83
bsg68
Nstp84
Rp85
a(lp86
g19
(g20
(I0
tp87
g22
tp88
Rp89
(I1
(I1
I15
tp90
g26
(S'f8'
p91
I0
I1
tp92
Rp93
(I3
S'<'
p94
NNNI-1
I-1
I0
tp95
bI00
S'\x00\x00\x00\x00\x00\x10\xd3@\x00\x00\x00\x00\x00\x10\xd3@\x00\x00\x00\x00\x00\x10\xd3@\x00\x00\x00\x00\x00\x10\xd3@\x00\x00\x00\x00\x00\x10\xd3@\x00\x00\x00\x00\x00\x10\xd3@\x00\x00\x00\x00\x00\x10\xd3@\x00\x00\x00\x00\x00\x10\xd3@\x00\x00\x00\x00\x00\x10\xd3@\x00\x00\x00\x00\x00\x10\xd3@\x00\x00\x00\x00\x00\x10\xd3@\x00\x00\x00\x00\x00\x10\xd3@\x00\x00\x00\x00\x00\x10\xd3@\x00\x00\x00\x00\x00\x00\xf0?\x00\x00\x00\x00\x00\x00\xf0\xbf'
p96
tp97
bag19
(g20
(I0
tp98
g22
tp99
Rp100
(I1
(I33
I15
tp101
g29
I00
(lp102
S'2016preVFP'
p103
ag103
ag103
ag103
ag103
ag103
ag103
ag103
ag103
ag103
ag103
ag103
ag103
ag33
ag33
aS'sig'
p104
ag104
ag104
ag104
ag104
ag104
ag104
ag104
ag104
ag104
ag104
ag104
ag104
aS'bkg'
p105
ag18
aS'GG2HMf05ph0'
p106
aS'GG2HbsmM'
p107
aS'GG2Hsm'
p108
aS'TTHsm'
p109
aS'VBFMf05ph0'
p110
aS'VBFbsmM'
p111
aS'VBFsm'
p112
aS'WHMf05ph0'
p113
aS'WHbsmM'
p114
aS'WHsm'
p115
aS'ZHMf05ph0'
p116
aS'ZHbsmM'
p117
aS'ZHsm'
p118
aS'bkg_mass'
p119
aS'data_obs'
p120
aS'GG2HMf05ph0_2016preVFP_hgg'
p121
aS'GG2HbsmM_2016preVFP_hgg'
p122
aS'GG2Hsm_2016preVFP_hgg'
p123
aS'tth0P_2016preVFP_hgg'
p124
aS'vbf0Mf05ph0_2016preVFP_hgg'
p125
aS'vbf0M_2016preVFP_hgg'
p126
aS'vbf0P_2016preVFP_hgg'
p127
aS'wh0Mf05ph0_2016preVFP_hgg'
p128
aS'wh0M_2016preVFP_hgg'
p129
aS'wh0P_2016preVFP_hgg'
p130
aS'zh0Mf05ph0_2016preVFP_hgg'
p131
aS'zh0M_2016preVFP_hgg'
p132
aS'zh0P_2016preVFP_hgg'
p133
ag119
ag120
aS'jjh0Mf05ph0'
p134
aS'jjh0M'
p135
aS'jjh0P'
p136
aS'tth0P'
p137
aS'vbf0Mf05ph0'
p138
aS'vbf0M'
p139
aS'vbf0P'
p140
aS'wh0Mf05ph0'
p141
aS'wh0M'
p142
aS'wh0P'
p143
aS'zh0Mf05ph0'
p144
aS'zh0M'
p145
aS'zh0P'
p146
aS'-'
p147
ag147
aS'AC_Bin12_2016preVFP'
p148
aS'AC_Bin12_2016preVFP'
p149
aS'AC_Bin12_2016preVFP'
p150
aS'AC_Bin12_2016preVFP'
p151
aS'AC_Bin12_2016preVFP'
p152
aS'AC_Bin12_2016preVFP'
p153
aS'AC_Bin12_2016preVFP'
p154
aS'AC_Bin12_2016preVFP'
p155
aS'AC_Bin12_2016preVFP'
p156
aS'AC_Bin12_2016preVFP'
p157
aS'AC_Bin12_2016preVFP'
p158
aS'AC_Bin12_2016preVFP'
p159
aS'AC_Bin12_2016preVFP'
p160
aS'AC_Bin12_2016preVFP'
p161
ag161
aS'Trees/Opt_2016preVFP/2016PreVFP/Trees2WS_2016preVFP/WS/output_GluGluHToGGPlusTwoJets_MM_M125_TuneCP5_13TeV-amcatnlopowheg-minlo-pythia8_GG2HMf05ph0.root'
p162
aS'Trees/Opt_2016preVFP/2016PreVFP/Trees2WS_2016preVFP/WS/output_GluGluHToGGPlusTwoJets_CPodd_M125_TuneCP5_13TeV-amcatnlopowheg-minlo-pythia8_GG2HbsmM.root'
p163
aS'Trees/Opt_2016preVFP/2016PreVFP/Trees2WS_2016preVFP/WS/output_GluGluHToGGPlusTwoJets_SM_M125_TuneCP5_13TeV-amcatnlopowheg-minlo-pythia8_GG2Hsm.root'
p164
aS'Trees/Opt_2016preVFP/2016PreVFP/Trees2WS_2016preVFP/WS/output_ttHJetToGG_M125_TuneCP5_13TeV-amcatnloFXFX-madspin-pythia8_TTHsm.root'
p165
aS'Trees/Opt_2016preVFP/2016PreVFP/Trees2WS_2016preVFP/WS/output_VBFHiggs0Mf05ph0ToGG_M125_TuneCP5_13TeV-JHUGenV7011-pythia8_VBFMf05ph0.root'
p166
aS'Trees/Opt_2016preVFP/2016PreVFP/Trees2WS_2016preVFP/WS/output_VBFHiggs0MToGG_M125_TuneCP5_13TeV-JHUGenV7011-pythia8_VBFbsmM.root'
p167
aS'Trees/Opt_2016preVFP/2016PreVFP/Trees2WS_2016preVFP/WS/output_VBFHToGG_M125_TuneCP5_13TeV-amcatnlo-pythia8_VBFsm.root'
p168
aS'Trees/Opt_2016preVFP/2016PreVFP/Trees2WS_2016preVFP/WS/output_WHiggs0Mf05ph0ToGG_M125_TuneCP5_13TeV-JHUGenV7011-pythia8_WHMf05ph0.root'
p169
aS'Trees/Opt_2016preVFP/2016PreVFP/Trees2WS_2016preVFP/WS/output_WHiggs0MToGG_M125_TuneCP5_13TeV-JHUGenV7011-pythia8_WHbsmM.root'
p170
aS'Trees/Opt_2016preVFP/2016PreVFP/Trees2WS_2016preVFP/WS/output_WHiggs0PMToGG_M125_TuneCP5_13TeV-JHUGenV7011-pythia8_WHsm.root'
p171
aS'Trees/Opt_2016preVFP/2016PreVFP/Trees2WS_2016preVFP/WS/output_ZHiggs0Mf05ph0ToGG_M125_TuneCP5_13TeV-JHUGenV7011-pythia8_ZHMf05ph0.root'
p172
aS'Trees/Opt_2016preVFP/2016PreVFP/Trees2WS_2016preVFP/WS/output_ZHiggs0MToGG_M125_TuneCP5_13TeV-JHUGenV7011-pythia8_ZHbsmM.root'
p173
aS'Trees/Opt_2016preVFP/2016PreVFP/Trees2WS_2016preVFP/WS/output_ZH_HToGG_ZToAll_M125_TuneCP5_13TeV-powheg-pythia8_ZHsm.root'
p174
ag147
ag147
aS'jjh0Mf05ph0_125_13TeV_AC_Bin12'
p175
aS'jjh0M_125_13TeV_AC_Bin12'
p176
aS'jjh0P_125_13TeV_AC_Bin12'
p177
aS'tth0P_125_13TeV_AC_Bin12'
p178
aS'vbf0Mf05ph0_125_13TeV_AC_Bin12'
p179
aS'vbf0M_125_13TeV_AC_Bin12'
p180
aS'vbf0P_125_13TeV_AC_Bin12'
p181
aS'wh0Mf05ph0_125_13TeV_AC_Bin12'
p182
aS'wh0M_125_13TeV_AC_Bin12'
p183
aS'wh0P_125_13TeV_AC_Bin12'
p184
aS'zh0Mf05ph0_125_13TeV_AC_Bin12'
p185
aS'zh0M_125_13TeV_AC_Bin12'
p186
aS'zh0P_125_13TeV_AC_Bin12'
p187
ag147
ag147
aS'./Models/signal/CMS-HGG_sigfit_packaged_AC_Bin12_2016preVFP.root'
p188
aS'./Models/signal/CMS-HGG_sigfit_packaged_AC_Bin12_2016preVFP.root'
p189
aS'./Models/signal/CMS-HGG_sigfit_packaged_AC_Bin12_2016preVFP.root'
p190
aS'./Models/signal/CMS-HGG_sigfit_packaged_AC_Bin12_2016preVFP.root'
p191
aS'./Models/signal/CMS-HGG_sigfit_packaged_AC_Bin12_2016preVFP.root'
p192
aS'./Models/signal/CMS-HGG_sigfit_packaged_AC_Bin12_2016preVFP.root'
p193
aS'./Models/signal/CMS-HGG_sigfit_packaged_AC_Bin12_2016preVFP.root'
p194
aS'./Models/signal/CMS-HGG_sigfit_packaged_AC_Bin12_2016preVFP.root'
p195
aS'./Models/signal/CMS-HGG_sigfit_packaged_AC_Bin12_2016preVFP.root'
p196
aS'./Models/signal/CMS-HGG_sigfit_packaged_AC_Bin12_2016preVFP.root'
p197
aS'./Models/signal/CMS-HGG_sigfit_packaged_AC_Bin12_2016preVFP.root'
p198
aS'./Models/signal/CMS-HGG_sigfit_packaged_AC_Bin12_2016preVFP.root'
p199
aS'./Models/signal/CMS-HGG_sigfit_packaged_AC_Bin12_2016preVFP.root'
p200
aS'./Models/background/CMS-HGG_multipdf_AC_Bin12_2016preVFP.root'
p201
ag201
aS'wsig_13TeV:hggpdfsmrel_GG2HMf05ph0_2016preVFP_AC_Bin12_13TeV'
p202
aS'wsig_13TeV:hggpdfsmrel_GG2HbsmM_2016preVFP_AC_Bin12_13TeV'
p203
aS'wsig_13TeV:hggpdfsmrel_GG2Hsm_2016preVFP_AC_Bin12_13TeV'
p204
aS'wsig_13TeV:hggpdfsmrel_TTHsm_2016preVFP_AC_Bin12_13TeV'
p205
aS'wsig_13TeV:hggpdfsmrel_VBFMf05ph0_2016preVFP_AC_Bin12_13TeV'
p206
aS'wsig_13TeV:hggpdfsmrel_VBFbsmM_2016preVFP_AC_Bin12_13TeV'
p207
aS'wsig_13TeV:hggpdfsmrel_VBFsm_2016preVFP_AC_Bin12_13TeV'
p208
aS'wsig_13TeV:hggpdfsmrel_WHMf05ph0_2016preVFP_AC_Bin12_13TeV'
p209
aS'wsig_13TeV:hggpdfsmrel_WHbsmM_2016preVFP_AC_Bin12_13TeV'
p210
aS'wsig_13TeV:hggpdfsmrel_WHsm_2016preVFP_AC_Bin12_13TeV'
p211
aS'wsig_13TeV:hggpdfsmrel_ZHMf05ph0_2016preVFP_AC_Bin12_13TeV'
p212
aS'wsig_13TeV:hggpdfsmrel_ZHbsmM_2016preVFP_AC_Bin12_13TeV'
p213
aS'wsig_13TeV:hggpdfsmrel_ZHsm_2016preVFP_AC_Bin12_13TeV'
p214
aS'multipdf:CMS_hgg_AC_Bin12_2016preVFP_13TeV_bkgshape'
p215
aS'multipdf:roohist_data_mass_AC_Bin12'
p216
aF0.4891833771455367
aF0.5444531532348265
aF0.5237373438799295
aF0.053788146798524394
aF0.20830677699132139
aF0.17282677778825928
aF0.0873988259268117
aF0.08539490264456617
aF0.13774226746977547
aF0.05221887243862966
aF0.07722041843589977
aF0.09930822766909841
aF0.04075598755616738
ag147
ag147
aF0.00027132841877886455
aF0.00043634061358637335
aF0.00015262286201029741
aF4.4765751307473885e-05
aF0.00012064808310724567
aF1.4082080413771379e-05
aF0.0001311683737938611
aF1.0538549519178408e-05
aF1.948757434894365e-05
aF3.451980215308589e-05
aF0.0001090934832115076
aF0.0001422294259509307
aF1.2624685391678731e-05
ag147
ag147
aF0.5004305526905594
aF0.5562922649438728
aF0.5351379611615941
aF0.055029870526300234
aF0.21268706380438585
aF0.1765435366639316
aF0.0893431675453701
aF0.08717394407290344
aF0.14067420775629022
aF0.0533219648656006
aF0.07889681615351549
aF0.10135381123419372
aF0.04163515000167986
ag147
ag147
aF0.49240180205667855
aF0.5480252445946593
aF0.5271777265604983
aF0.054143930678449685
aF0.20968636090943502
aF0.17396568508096932
aF0.08797426991091876
aF0.08595444088997427
aF0.13864381810410742
aF0.05255631104454099
aF0.07773324334593715
aF0.09996386780369719
aF0.041022678823016606
ag147
ag147
aF0.48597551282801643
aF0.540892762815005
aF0.5203082418506877
aF0.0534335373844667
aF0.20693175417430168
aF0.17169161950626935
aF0.08682527196251065
aF0.08483719477265568
aF0.13684366166222778
aF0.05188252111145693
aF0.07670929331444805
aF0.09865474794043831
aF0.040490168155555166
ag147
ag147
aF0.4966970471260869
aF0.5526150752413834
aF0.5315609673419658
aF0.05463204699718003
aF0.211166392162202
aF0.17526387675123667
aF0.08866480586624796
aF0.08664332732241357
aF0.1397855854233128
aF0.05312665706351791
aF0.0782815549222951
aF0.10075990212556184
aF0.0413931804739339
ag147
ag147
aF0.4817249271378561
aF0.536351210793731
aF0.5159701754589687
aF0.0529506805956527
aF0.20546654118004262
aF0.17040736607156468
aF0.08614223104241235
aF0.08415520039890513
aF0.13571359225274707
aF0.05131830764928346
aF0.07616630341892008
aF0.09786658834849818
aF0.04012443345283967
ag147
ag147
aF0.4899565820313576
aF0.5453395452385462
aF0.52457459783342
aF0.0538682374481785
aF0.2086175471829099
aF0.17310016499495037
aF0.08753548524517017
aF0.08553566835715344
aF0.13797725364741054
aF0.052322927659194794
aF0.0773371023205016
aF0.09946386954997376
aF0.040823894806717
ag147
ag147
aF0.48841079615421773
aF0.5435675382782883
aF0.5229008053911274
aF0.05370812330326141
aF0.2079962495555654
aF0.172553629363358
aF0.08726227701806444
aF0.08525426098799734
aF0.13750749335853732
aF0.052114911713949906
aF0.07710382279363723
aF0.09915271643620086
aF0.0406881406661682
ag147
ag147
aF0.4902425864125017
aF0.5456052952616812
aF0.5248733129074812
aF0.05390430034106364
aF0.2087468073636452
aF0.1732043095898874
aF0.0875947868516782
aF0.08557741362526451
aF0.13804520096217754
aF0.05232909109418615
aF0.07739262332075972
aF0.0995115164076775
aF0.04084327455899052
ag147
ag147
aF0.48812531525768776
aF0.5433022344849193
aF0.5226026071211292
aF0.053672119444987704
aF0.20786721814418888
aF0.17244966191230382
aF0.08720308510225869
aF0.08521258835663803
aF0.1374396731381911
aF0.05210877143747423
aF0.07704840600638174
aF0.09910515079205619
aF0.04066879431860805
ag147
ag147
aF0.4823163421774552
aF0.5356801574218935
aF0.5114883607868705
aF0.053009638230037126
aF0.20642150651815427
aF0.17130621282115044
aF0.07220486344567689
aF0.08496917955892513
aF0.13667640257051517
aF0.051577678826333795
aF0.07531558540358674
aF0.09868064032343682
aF0.03970406146800087
ag147
ag147
aF0.4962509868109919
aF0.5526712874627719
aF0.5331007788813622
aF0.05453636724257649
aF0.2101401879081095
aF0.1735107940025955
aF0.08098908993247278
aF0.086791823520457
aF0.13860052475001794
aF0.05278463921194998
aF0.07740028704574797
aF0.10030843398271827
aF0.041178926694328766
ag147
ag147
aF0.49737149369639155
aF0.5536308038233528
aF0.5307320711629018
aF0.053801024335484726
aF0.2118377972728922
aF0.17652106119669497
aF0.08894217432521145
aF0.08632774077409522
aF0.13961232338522223
aF0.05290216635057732
aF0.07797923392718076
aF0.10025129509085673
aF0.041474246734424014
ag147
ag147
aF0.47984782620437727
aF0.5349649454901737
aF0.5119148284409221
aF0.050472263601591294
aF0.20463077629415238
aF0.16943983233329618
aF0.07813145141949462
aF0.08372667870105488
aF0.13641274543465443
aF0.05150203992729985
aF0.07533981223969022
aF0.0960826583832386
aF0.040134320111747
ag147
ag147
aF0.49139407013854
aF0.5468543402689647
aF0.5393299742243016
aF0.05376249550499779
aF0.20870359590207954
aF0.17311470905633541
aF0.08112740185720213
aF0.08565901191457215
aF0.1381568195293994
aF0.05235725214788545
aF0.07722844662384887
aF0.0994463507522596
aF0.04077945005928996
ag147
ag147
aF0.4874338920799346
aF0.5409116781752346
aF0.5204636936566658
aF0.053766178576097445
aF0.20794999779491263
aF0.17236791237701254
aF0.07874624006831255
aF0.08505813860153921
aF0.1367960236525505
aF0.05210139283406079
aF0.0767994411107793
aF0.09920984425843926
aF0.04072120859041206
ag147
ag147
aF0.49626524598488686
aF0.5500326852957187
aF0.531298453276122
aF0.05336325538576148
aF0.20742174832753335
aF0.17176757141476173
aF0.08766916551769555
aF0.08646301959481661
aF0.14002081206479033
aF0.047487772115914595
aF0.07894091625712463
aF0.10029641702203662
aF0.04103381524282668
ag147
ag147
aF0.48270815858745664
aF0.5324760454841453
aF0.5142963626442452
aF0.05433100874529373
aF0.2082126152076853
aF0.17218369416127643
aF0.07775151600844765
aF0.08379555872397759
aF0.1353560237577085
aF0.051598333060724144
aF0.07631259868867346
aF0.09807094238203717
aF0.040499089894410645
ag147
ag147
aF0.48953574695542557
aF0.543310968809692
aF0.5216128433989979
aF0.053669826632471995
aF0.2078683469344469
aF0.17283143734130135
aF0.08758965913057182
aF0.08492061212587032
aF0.1378243572565907
aF0.05243822970112433
aF0.07724934758334712
aF0.0988944147939037
aF0.040609302151551674
ag147
ag147
aF0.48948299963194586
aF0.545353175428545
aF0.5239562520821437
aF0.05372629536373097
aF0.20803503910997279
aF0.17302517602183798
aF0.08390689090674641
aF0.0853928803873032
aF0.13758265293120076
aF0.046807033149775634
aF0.0776391557410534
aF0.09925926926007378
aF0.04082577255826436
ag147
ag147
aF0.4891833771455367
aF0.5444531532348265
aF0.5237373438799295
aF0.053788146798524394
aF0.20830677699132139
aF0.17282677778825928
aF0.0873988259268117
aF0.08539490264456617
aF0.13774226746977547
aF0.05221887243862966
aF0.07722041843589977
aF0.09930822766909841
aF0.04075598755616738
ag147
ag147
aF0.4891833771455367
aF0.5444531532348265
aF0.5237373438799295
aF0.053788146798524394
aF0.20830677699132139
aF0.17282677778825928
aF0.0873988259268117
aF0.08539490264456617
aF0.13774226746977547
aF0.05221887243862966
aF0.07722041843589977
aF0.09930822766909841
aF0.04075598755616738
ag147
ag147
atp217
ba(lp218
g15
(g16
(dp219
g18
g19
(g20
(I0
tp220
g22
tp221
Rp222
(I1
(I1
tp223
g29
I00
(lp224
g43
atp225
bsg68
Nstp226
Rp227
ag15
(g16
(dp228
g18
g19
(g20
(I0
tp229
g22
tp230
Rp231
(I1
(I33
tp232
g29
I00
(lp233
g33
ag34
ag35
ag36
ag37
ag38
ag39
ag40
ag41
ag42
ag44
ag45
ag46
ag47
ag48
ag49
ag50
ag51
ag52
ag53
ag54
ag55
ag56
ag57
ag58
ag59
ag60
ag61
ag62
ag63
ag64
ag65
ag66
atp234
bsg68
Nstp235
Rp236
a(dp237
S'0.14.1'
p238
(dp239
S'axes'
p240
g14
sS'blocks'
p241
(lp242
(dp243
S'mgr_locs'
p244
c__builtin__
slice
p245
(I10
I11
I1
tp246
Rp247
sS'values'
p248
g89
sa(dp249
g244
g19
(g20
(I0
tp250
g22
tp251
Rp252
(I1
(I33
tp253
g79
I00
S'\x00\x00\x00\x00\x00\x00\x00\x00\x01\x00\x00\x00\x00\x00\x00\x00\x02\x00\x00\x00\x00\x00\x00\x00\x03\x00\x00\x00\x00\x00\x00\x00\x04\x00\x00\x00\x00\x00\x00\x00\x05\x00\x00\x00\x00\x00\x00\x00\x06\x00\x00\x00\x00\x00\x00\x00\x07\x00\x00\x00\x00\x00\x00\x00\x08\x00\x00\x00\x00\x00\x00\x00\t\x00\x00\x00\x00\x00\x00\x00\x0b\x00\x00\x00\x00\x00\x00\x00\x0c\x00\x00\x00\x00\x00\x00\x00\r\x00\x00\x00\x00\x00\x00\x00\x0e\x00\x00\x00\x00\x00\x00\x00\x0f\x00\x00\x00\x00\x00\x00\x00\x10\x00\x00\x00\x00\x00\x00\x00\x11\x00\x00\x00\x00\x00\x00\x00\x12\x00\x00\x00\x00\x00\x00\x00\x13\x00\x00\x00\x00\x00\x00\x00\x14\x00\x00\x00\x00\x00\x00\x00\x15\x00\x00\x00\x00\x00\x00\x00\x16\x00\x00\x00\x00\x00\x00\x00\x17\x00\x00\x00\x00\x00\x00\x00\x18\x00\x00\x00\x00\x00\x00\x00\x19\x00\x00\x00\x00\x00\x00\x00\x1a\x00\x00\x00\x00\x00\x00\x00\x1b\x00\x00\x00\x00\x00\x00\x00\x1c\x00\x00\x00\x00\x00\x00\x00\x1d\x00\x00\x00\x00\x00\x00\x00\x1e\x00\x00\x00\x00\x00\x00\x00\x1f\x00\x00\x00\x00\x00\x00\x00 \x00\x00\x00\x00\x00\x00\x00!\x00\x00\x00\x00\x00\x00\x00'
p254
tp255
bsg248
g100
sasstp256
bsb.