ccopy_reg
_reconstructor
p0
(cpandas.core.frame
DataFrame
p1
c__builtin__
object
p2
Ntp3
Rp4
(dp5
S'_metadata'
p6
(lp7
sS'_typ'
p8
S'dataframe'
p9
sS'_data'
p10
g0
(cpandas.core.internals
BlockManager
p11
g2
Ntp12
Rp13
((lp14
cpandas.core.indexes.base
_new_Index
p15
(cpandas.core.indexes.base
Index
p16
(dp17
S'data'
p18
cnumpy.core.multiarray
_reconstruct
p19
(cnumpy
ndarray
p20
(I0
tp21
S'b'
p22
tp23
Rp24
(I1
(I34
tp25
cnumpy
dtype
p26
(S'O8'
p27
I0
I1
tp28
Rp29
(I3
S'|'
p30
NNNI-1
I-1
I63
tp31
bI00
(lp32
S'year'
p33
aS'type'
p34
aS'procOriginal'
p35
aS'proc'
p36
aS'proc_s0'
p37
aS'cat'
p38
aS'inputWSFile'
p39
aS'nominalDataName'
p40
aS'modelWSFile'
p41
aS'model'
p42
aS'rate'
p43
aS'nominal_yield'
p44
aS'sumw2'
p45
aS'nominal_yield_COWCorr'
p46
aS'LooseMvaSF_up_yield'
p47
aS'LooseMvaSF_down_yield'
p48
aS'PreselSF_up_yield'
p49
aS'PreselSF_down_yield'
p50
aS'electronVetoSF_up_yield'
p51
aS'electronVetoSF_down_yield'
p52
aS'TriggerWeight_up_yield'
p53
aS'TriggerWeight_down_yield'
p54
aS'SigmaEOverEShift_up_yield'
p55
aS'SigmaEOverEShift_down_yield'
p56
aS'MvaShift_up_yield'
p57
aS'MvaShift_down_yield'
p58
aS'PUJIDShift_up_yield'
p59
aS'PUJIDShift_down_yield'
p60
aS'JEC_up_yield'
p61
aS'JEC_down_yield'
p62
aS'JER_up_yield'
p63
aS'JER_down_yield'
p64
aS'JetHEM_up_yield'
p65
aS'JetHEM_down_yield'
p66
atp67
bsS'name'
p68
Nstp69
Rp70
ag15
(cpandas.core.indexes.numeric
Int64Index
p71
(dp72
g18
g19
(g20
(I0
tp73
g22
tp74
Rp75
(I1
(I15
tp76
g26
(S'i8'
p77
I0
I1
tp78
Rp79
(I3
S'<'
p80
NNNI-1
I-1
I0
tp81
bI00
S'\x00\x00\x00\x00\x00\x00\x00\x00\x01\x00\x00\x00\x00\x00\x00\x00\x02\x00\x00\x00\x00\x00\x00\x00\x03\x00\x00\x00\x00\x00\x00\x00\x04\x00\x00\x00\x00\x00\x00\x00\x05\x00\x00\x00\x00\x00\x00\x00\x06\x00\x00\x00\x00\x00\x00\x00\x07\x00\x00\x00\x00\x00\x00\x00\x08\x00\x00\x00\x00\x00\x00\x00\t\x00\x00\x00\x00\x00\x00\x00\n\x00\x00\x00\x00\x00\x00\x00\x0b\x00\x00\x00\x00\x00\x00\x00\x0c\x00\x00\x00\x00\x00\x00\x00\r\x00\x00\x00\x00\x00\x00\x00\x0e\x00\x00\x00\x00\x00\x00\x00'
p82
tp83
bsg68
Nstp84
Rp85
a(lp86
g19
(g20
(I0
tp87
g22
tp88
Rp89
(I1
(I1
I15
tp90
g26
(S'f8'
p91
I0
I1
tp92
Rp93
(I3
S'<'
p94
NNNI-1
I-1
I0
tp95
bI00
S'\x00\x00\x00\x00\x00\x10\xd3@\x00\x00\x00\x00\x00\x10\xd3@\x00\x00\x00\x00\x00\x10\xd3@\x00\x00\x00\x00\x00\x10\xd3@\x00\x00\x00\x00\x00\x10\xd3@\x00\x00\x00\x00\x00\x10\xd3@\x00\x00\x00\x00\x00\x10\xd3@\x00\x00\x00\x00\x00\x10\xd3@\x00\x00\x00\x00\x00\x10\xd3@\x00\x00\x00\x00\x00\x10\xd3@\x00\x00\x00\x00\x00\x10\xd3@\x00\x00\x00\x00\x00\x10\xd3@\x00\x00\x00\x00\x00\x10\xd3@\x00\x00\x00\x00\x00\x00\xf0?\x00\x00\x00\x00\x00\x00\xf0\xbf'
p96
tp97
bag19
(g20
(I0
tp98
g22
tp99
Rp100
(I1
(I33
I15
tp101
g29
I00
(lp102
S'2016preVFP'
p103
ag103
ag103
ag103
ag103
ag103
ag103
ag103
ag103
ag103
ag103
ag103
ag103
ag33
ag33
aS'sig'
p104
ag104
ag104
ag104
ag104
ag104
ag104
ag104
ag104
ag104
ag104
ag104
ag104
aS'bkg'
p105
ag18
aS'GG2HMf05ph0'
p106
aS'GG2HbsmM'
p107
aS'GG2Hsm'
p108
aS'TTHsm'
p109
aS'VBFMf05ph0'
p110
aS'VBFbsmM'
p111
aS'VBFsm'
p112
aS'WHMf05ph0'
p113
aS'WHbsmM'
p114
aS'WHsm'
p115
aS'ZHMf05ph0'
p116
aS'ZHbsmM'
p117
aS'ZHsm'
p118
aS'bkg_mass'
p119
aS'data_obs'
p120
aS'GG2HMf05ph0_2016preVFP_hgg'
p121
aS'GG2HbsmM_2016preVFP_hgg'
p122
aS'GG2Hsm_2016preVFP_hgg'
p123
aS'tth0P_2016preVFP_hgg'
p124
aS'vbf0Mf05ph0_2016preVFP_hgg'
p125
aS'vbf0M_2016preVFP_hgg'
p126
aS'vbf0P_2016preVFP_hgg'
p127
aS'wh0Mf05ph0_2016preVFP_hgg'
p128
aS'wh0M_2016preVFP_hgg'
p129
aS'wh0P_2016preVFP_hgg'
p130
aS'zh0Mf05ph0_2016preVFP_hgg'
p131
aS'zh0M_2016preVFP_hgg'
p132
aS'zh0P_2016preVFP_hgg'
p133
ag119
ag120
aS'jjh0Mf05ph0'
p134
aS'jjh0M'
p135
aS'jjh0P'
p136
aS'tth0P'
p137
aS'vbf0Mf05ph0'
p138
aS'vbf0M'
p139
aS'vbf0P'
p140
aS'wh0Mf05ph0'
p141
aS'wh0M'
p142
aS'wh0P'
p143
aS'zh0Mf05ph0'
p144
aS'zh0M'
p145
aS'zh0P'
p146
aS'-'
p147
ag147
aS'AC_Bin2_2016preVFP'
p148
aS'AC_Bin2_2016preVFP'
p149
aS'AC_Bin2_2016preVFP'
p150
aS'AC_Bin2_2016preVFP'
p151
aS'AC_Bin2_2016preVFP'
p152
aS'AC_Bin2_2016preVFP'
p153
aS'AC_Bin2_2016preVFP'
p154
aS'AC_Bin2_2016preVFP'
p155
aS'AC_Bin2_2016preVFP'
p156
aS'AC_Bin2_2016preVFP'
p157
aS'AC_Bin2_2016preVFP'
p158
aS'AC_Bin2_2016preVFP'
p159
aS'AC_Bin2_2016preVFP'
p160
aS'AC_Bin2_2016preVFP'
p161
ag161
aS'Trees/Opt_2016preVFP/2016PreVFP/Trees2WS_2016preVFP/WS/output_GluGluHToGGPlusTwoJets_MM_M125_TuneCP5_13TeV-amcatnlopowheg-minlo-pythia8_GG2HMf05ph0.root'
p162
aS'Trees/Opt_2016preVFP/2016PreVFP/Trees2WS_2016preVFP/WS/output_GluGluHToGGPlusTwoJets_CPodd_M125_TuneCP5_13TeV-amcatnlopowheg-minlo-pythia8_GG2HbsmM.root'
p163
aS'Trees/Opt_2016preVFP/2016PreVFP/Trees2WS_2016preVFP/WS/output_GluGluHToGGPlusTwoJets_SM_M125_TuneCP5_13TeV-amcatnlopowheg-minlo-pythia8_GG2Hsm.root'
p164
aS'Trees/Opt_2016preVFP/2016PreVFP/Trees2WS_2016preVFP/WS/output_ttHJetToGG_M125_TuneCP5_13TeV-amcatnloFXFX-madspin-pythia8_TTHsm.root'
p165
aS'Trees/Opt_2016preVFP/2016PreVFP/Trees2WS_2016preVFP/WS/output_VBFHiggs0Mf05ph0ToGG_M125_TuneCP5_13TeV-JHUGenV7011-pythia8_VBFMf05ph0.root'
p166
aS'Trees/Opt_2016preVFP/2016PreVFP/Trees2WS_2016preVFP/WS/output_VBFHiggs0MToGG_M125_TuneCP5_13TeV-JHUGenV7011-pythia8_VBFbsmM.root'
p167
aS'Trees/Opt_2016preVFP/2016PreVFP/Trees2WS_2016preVFP/WS/output_VBFHToGG_M125_TuneCP5_13TeV-amcatnlo-pythia8_VBFsm.root'
p168
aS'Trees/Opt_2016preVFP/2016PreVFP/Trees2WS_2016preVFP/WS/output_WHiggs0Mf05ph0ToGG_M125_TuneCP5_13TeV-JHUGenV7011-pythia8_WHMf05ph0.root'
p169
aS'Trees/Opt_2016preVFP/2016PreVFP/Trees2WS_2016preVFP/WS/output_WHiggs0MToGG_M125_TuneCP5_13TeV-JHUGenV7011-pythia8_WHbsmM.root'
p170
aS'Trees/Opt_2016preVFP/2016PreVFP/Trees2WS_2016preVFP/WS/output_WHiggs0PMToGG_M125_TuneCP5_13TeV-JHUGenV7011-pythia8_WHsm.root'
p171
aS'Trees/Opt_2016preVFP/2016PreVFP/Trees2WS_2016preVFP/WS/output_ZHiggs0Mf05ph0ToGG_M125_TuneCP5_13TeV-JHUGenV7011-pythia8_ZHMf05ph0.root'
p172
aS'Trees/Opt_2016preVFP/2016PreVFP/Trees2WS_2016preVFP/WS/output_ZHiggs0MToGG_M125_TuneCP5_13TeV-JHUGenV7011-pythia8_ZHbsmM.root'
p173
aS'Trees/Opt_2016preVFP/2016PreVFP/Trees2WS_2016preVFP/WS/output_ZH_HToGG_ZToAll_M125_TuneCP5_13TeV-powheg-pythia8_ZHsm.root'
p174
ag147
ag147
aS'jjh0Mf05ph0_125_13TeV_AC_Bin2'
p175
aS'jjh0M_125_13TeV_AC_Bin2'
p176
aS'jjh0P_125_13TeV_AC_Bin2'
p177
aS'tth0P_125_13TeV_AC_Bin2'
p178
aS'vbf0Mf05ph0_125_13TeV_AC_Bin2'
p179
aS'vbf0M_125_13TeV_AC_Bin2'
p180
aS'vbf0P_125_13TeV_AC_Bin2'
p181
aS'wh0Mf05ph0_125_13TeV_AC_Bin2'
p182
aS'wh0M_125_13TeV_AC_Bin2'
p183
aS'wh0P_125_13TeV_AC_Bin2'
p184
aS'zh0Mf05ph0_125_13TeV_AC_Bin2'
p185
aS'zh0M_125_13TeV_AC_Bin2'
p186
aS'zh0P_125_13TeV_AC_Bin2'
p187
ag147
ag147
aS'./Models/signal/CMS-HGG_sigfit_packaged_AC_Bin2_2016preVFP.root'
p188
aS'./Models/signal/CMS-HGG_sigfit_packaged_AC_Bin2_2016preVFP.root'
p189
aS'./Models/signal/CMS-HGG_sigfit_packaged_AC_Bin2_2016preVFP.root'
p190
aS'./Models/signal/CMS-HGG_sigfit_packaged_AC_Bin2_2016preVFP.root'
p191
aS'./Models/signal/CMS-HGG_sigfit_packaged_AC_Bin2_2016preVFP.root'
p192
aS'./Models/signal/CMS-HGG_sigfit_packaged_AC_Bin2_2016preVFP.root'
p193
aS'./Models/signal/CMS-HGG_sigfit_packaged_AC_Bin2_2016preVFP.root'
p194
aS'./Models/signal/CMS-HGG_sigfit_packaged_AC_Bin2_2016preVFP.root'
p195
aS'./Models/signal/CMS-HGG_sigfit_packaged_AC_Bin2_2016preVFP.root'
p196
aS'./Models/signal/CMS-HGG_sigfit_packaged_AC_Bin2_2016preVFP.root'
p197
aS'./Models/signal/CMS-HGG_sigfit_packaged_AC_Bin2_2016preVFP.root'
p198
aS'./Models/signal/CMS-HGG_sigfit_packaged_AC_Bin2_2016preVFP.root'
p199
aS'./Models/signal/CMS-HGG_sigfit_packaged_AC_Bin2_2016preVFP.root'
p200
aS'./Models/background/CMS-HGG_multipdf_AC_Bin2_2016preVFP.root'
p201
ag201
aS'wsig_13TeV:hggpdfsmrel_GG2HMf05ph0_2016preVFP_AC_Bin2_13TeV'
p202
aS'wsig_13TeV:hggpdfsmrel_GG2HbsmM_2016preVFP_AC_Bin2_13TeV'
p203
aS'wsig_13TeV:hggpdfsmrel_GG2Hsm_2016preVFP_AC_Bin2_13TeV'
p204
aS'wsig_13TeV:hggpdfsmrel_TTHsm_2016preVFP_AC_Bin2_13TeV'
p205
aS'wsig_13TeV:hggpdfsmrel_VBFMf05ph0_2016preVFP_AC_Bin2_13TeV'
p206
aS'wsig_13TeV:hggpdfsmrel_VBFbsmM_2016preVFP_AC_Bin2_13TeV'
p207
aS'wsig_13TeV:hggpdfsmrel_VBFsm_2016preVFP_AC_Bin2_13TeV'
p208
aS'wsig_13TeV:hggpdfsmrel_WHMf05ph0_2016preVFP_AC_Bin2_13TeV'
p209
aS'wsig_13TeV:hggpdfsmrel_WHbsmM_2016preVFP_AC_Bin2_13TeV'
p210
aS'wsig_13TeV:hggpdfsmrel_WHsm_2016preVFP_AC_Bin2_13TeV'
p211
aS'wsig_13TeV:hggpdfsmrel_ZHMf05ph0_2016preVFP_AC_Bin2_13TeV'
p212
aS'wsig_13TeV:hggpdfsmrel_ZHbsmM_2016preVFP_AC_Bin2_13TeV'
p213
aS'wsig_13TeV:hggpdfsmrel_ZHsm_2016preVFP_AC_Bin2_13TeV'
p214
aS'multipdf:CMS_hgg_AC_Bin2_2016preVFP_13TeV_bkgshape'
p215
aS'multipdf:roohist_data_mass_AC_Bin2'
p216
aF0.18873486939412487
aF0.18896514980974644
aF0.19808781250264929
aF0.0015506636456734668
aF0.012008749868300583
aF0.003609587782818835
aF0.022215428190634157
aF0.007892764953169262
aF0.009031786044204182
aF0.012168795297441193
aF0.00613106422497367
aF0.005376146607886767
aF0.008309663063187145
ag147
ag147
aF4.798589409355509e-05
aF0.00010278274694992291
aF8.878580208130658e-05
aF1.5470865307785773e-07
aF9.566541715602655e-07
aF7.856227288862584e-08
aF5.021458877497603e-06
aF2.4569055153669915e-07
aF3.321745096432756e-07
aF7.60579170248566e-07
aF2.10188449694552e-06
aF4.86962721111e-06
aF7.029065100956373e-07
ag147
ag147
aF0.19513716165784384
aF0.1951644376427383
aF0.20504429483227843
aF0.0016402374737003516
aF0.01239391174306142
aF0.003759364068040362
aF0.022929374157481083
aF0.008132164399649066
aF0.00932854042662167
aF0.01259513232265076
aF0.006314746688110654
aF0.005502047628767506
aF0.008641130498910942
ag147
ag147
aF0.18992909185194853
aF0.19016460356295367
aF0.19934529170217666
aF0.0015605113970379705
aF0.012083777781439903
aF0.0036323828351150157
aF0.022354978680930872
aF0.007942890830318945
aF0.00908856573334554
aF0.0122458197737752
aF0.0061704189036930505
aF0.00541119511268113
aF0.008362317173523396
ag147
ag147
aF0.1875444143078082
aF0.18776949387638303
aF0.19683431930182158
aF0.0015408468989768762
aF0.011933955473261487
aF0.003586864465201698
aF0.022076314543227626
aF0.00784279780063605
aF0.008975184300268857
aF0.012092014160843847
aF0.006091835375841445
aF0.00534121209057246
aF0.008257174956579908
ag147
ag147
aF0.1924391408496014
aF0.19265753301458358
aF0.20192164575266133
aF0.0015888265922596343
aF0.012255985806984764
aF0.003680955789213969
aF0.022703355291561395
aF0.008041415607441864
aF0.009212436746610816
aF0.012400524953093099
aF0.006235978559749374
aF0.005467278589445999
aF0.008456773588518731
ag147
ag147
aF0.18506448331029496
aF0.1853076313353195
aF0.19429390288262202
aF0.0015128491527920305
aF0.011763696909621136
aF0.0035388562363680674
aF0.02173223184405385
aF0.007745382556026977
aF0.008852839293673889
aF0.011939181687027733
aF0.006026928717600087
aF0.005285695325174855
aF0.00816370106238176
ag147
ag147
aF0.18919242634597042
aF0.18940086169917386
aF0.19853148846091326
aF0.001555130139817456
aF0.012037560215352553
aF0.003617655468274821
aF0.02226404448650318
aF0.007910299885678096
aF0.009054117799379487
aF0.012196227492692686
aF0.00614346243506088
aF0.00538791381257257
aF0.008331620462379178
ag147
ag147
aF0.18827782965115528
aF0.18852994330561984
aF0.19764463552441758
aF0.0015462019269069233
aF0.01197997060743242
aF0.003601529070266487
aF0.02216686033557052
aF0.00787524913337158
aF0.00900948105784261
aF0.01214139636002952
aF0.006118678265719516
aF0.00536438946302834
aF0.008287736057219292
ag147
ag147
aF0.18918775355853007
aF0.18940235429444835
aF0.1985495010375411
aF0.0015544721296257707
aF0.012035977634650712
aF0.003618380657349638
aF0.022264981516467417
aF0.007911070595986261
aF0.00905290337546221
aF0.01219892997571192
aF0.0061442047122336725
aF0.005387056690828973
aF0.008336893112793418
ag147
ag147
aF0.18828253036365525
aF0.18852846895204417
aF0.19762665649953126
aF0.001546859763980034
aF0.011981552745554036
aF0.003600805455197301
aF0.022165928319031754
aF0.007874480253714983
aF0.009010693053449096
aF0.012138696924836125
aF0.006117937830621671
aF0.005365247695893633
aF0.008282471350711031
ag147
ag147
aF0.19986317125255937
aF0.20134564565387336
aF0.2097005179801954
aF0.001792307037419505
aF0.012123826409833782
aF0.003924752130785691
aF0.02799813253056982
aF0.008223772873918733
aF0.00994875414443186
aF0.012354195137788793
aF0.006664548362095957
aF0.006401698236004449
aF0.008641601052545411
ag147
ag147
aF0.17943900486454822
aF0.18196567106383554
aF0.1877847839447213
aF0.001424839623666685
aF0.011420012514918199
aF0.0032957384510723386
aF0.015365205150374095
aF0.007551748431694705
aF0.008458852243904857
aF0.011573855285575974
aF0.00613106422497367
aF0.005316894272255013
aF0.0077951836825604914
ag147
ag147
aF0.18812938909650256
aF0.19684736547264947
aF0.19263838582526205
aF0.0017934113230353432
aF0.011900229102820958
aF0.003419015042538831
aF0.015524780750297396
aF0.008016571566201947
aF0.008797610510953291
aF0.01153618215090546
aF0.005116180271215853
aF0.005825963064125972
aF0.008073016325056415
ag147
ag147
aF0.18392143589426269
aF0.18401596093292483
aF0.18441469979632075
aF0.0017463089638454221
aF0.011077327852717644
aF0.003824056230030237
aF0.015140710773835053
aF0.008127629559169236
aF0.009075377355600267
aF0.012131748104650342
aF0.006411641996237449
aF0.005661628321831813
aF0.0076053124478221434
ag147
ag147
aF0.1942424256457116
aF0.19292028834115627
aF0.20248394519092017
aF0.001498037316139289
aF0.01215575193918994
aF0.0036242261300571954
aF0.028466417509889652
aF0.007976135268165763
aF0.009084681154206464
aF0.012338029746786106
aF0.00613106422497367
aF0.005487791921041207
aF0.008307174460583155
ag147
ag147
aF0.185750325560889
aF0.1847133345038401
aF0.19247396131743244
aF0.0015559786049266222
aF0.01182695263196365
aF0.0035727004189425315
aF0.015677811215937254
aF0.007738041331265322
aF0.00888710700212414
aF0.01209446478907239
aF0.00613106422497367
aF0.005376146607886767
aF0.008196833500619505
ag147
ag147
aF0.19942889966034727
aF0.19982774607069587
aF0.20808062494404567
aF0.0015346124259281169
aF0.012346914028626088
aF0.0042808685776094535
aF0.01718754885052931
aF0.0079508443760119
aF0.009268719553858773
aF0.012582163349009079
aF0.006062734844817896
aF0.006041827364242636
aF0.00828137982523458
ag147
ag147
aF0.1805089656375003
aF0.17649468145680203
aF0.18750916645956295
aF0.0013912904194626208
aF0.011724950888492458
aF0.0035614573247926273
aF0.016924315302958348
aF0.007786216383749434
aF0.008660302152463828
aF0.011160931748520397
aF0.006037264611222781
aF0.005376146607886767
aF0.00819076191453405
ag147
ag147
aF0.18848862618335716
aF0.19172629023796617
aF0.20059641790123806
aF0.0014331519849406504
aF0.01197299179420952
aF0.003729891387195039
aF0.01562800551789678
aF0.007783588003292152
aF0.008976935340967884
aF0.012059107385141488
aF0.00613106422497367
aF0.005376146607886767
aF0.008316503055880275
ag147
ag147
aF0.19064492421682644
aF0.18663497371494486
aF0.1980732415059947
aF0.0016681649938732335
aF0.011966750011652039
aF0.003618040837238823
aF0.017510320365431653
aF0.00785512173393954
aF0.008995763987343253
aF0.011984029724033007
aF0.006981932250710088
aF0.005376146607886767
aF0.008351237111014598
ag147
ag147
aF0.18873486939412487
aF0.18896514980974644
aF0.19808781250264929
aF0.0015506636456734668
aF0.012008749868300583
aF0.003609587782818835
aF0.022215428190634157
aF0.007892764953169262
aF0.009031786044204182
aF0.012168795297441193
aF0.00613106422497367
aF0.005376146607886767
aF0.008309663063187145
ag147
ag147
aF0.18873486939412487
aF0.18896514980974644
aF0.19808781250264929
aF0.0015506636456734668
aF0.012008749868300583
aF0.003609587782818835
aF0.022215428190634157
aF0.007892764953169262
aF0.009031786044204182
aF0.012168795297441193
aF0.00613106422497367
aF0.005376146607886767
aF0.008309663063187145
ag147
ag147
atp217
ba(lp218
g15
(g16
(dp219
g18
g19
(g20
(I0
tp220
g22
tp221
Rp222
(I1
(I1
tp223
g29
I00
(lp224
g43
atp225
bsg68
Nstp226
Rp227
ag15
(g16
(dp228
g18
g19
(g20
(I0
tp229
g22
tp230
Rp231
(I1
(I33
tp232
g29
I00
(lp233
g33
ag34
ag35
ag36
ag37
ag38
ag39
ag40
ag41
ag42
ag44
ag45
ag46
ag47
ag48
ag49
ag50
ag51
ag52
ag53
ag54
ag55
ag56
ag57
ag58
ag59
ag60
ag61
ag62
ag63
ag64
ag65
ag66
atp234
bsg68
Nstp235
Rp236
a(dp237
S'0.14.1'
p238
(dp239
S'axes'
p240
g14
sS'blocks'
p241
(lp242
(dp243
S'mgr_locs'
p244
c__builtin__
slice
p245
(I10
I11
I1
tp246
Rp247
sS'values'
p248
g89
sa(dp249
g244
g19
(g20
(I0
tp250
g22
tp251
Rp252
(I1
(I33
tp253
g79
I00
S'\x00\x00\x00\x00\x00\x00\x00\x00\x01\x00\x00\x00\x00\x00\x00\x00\x02\x00\x00\x00\x00\x00\x00\x00\x03\x00\x00\x00\x00\x00\x00\x00\x04\x00\x00\x00\x00\x00\x00\x00\x05\x00\x00\x00\x00\x00\x00\x00\x06\x00\x00\x00\x00\x00\x00\x00\x07\x00\x00\x00\x00\x00\x00\x00\x08\x00\x00\x00\x00\x00\x00\x00\t\x00\x00\x00\x00\x00\x00\x00\x0b\x00\x00\x00\x00\x00\x00\x00\x0c\x00\x00\x00\x00\x00\x00\x00\r\x00\x00\x00\x00\x00\x00\x00\x0e\x00\x00\x00\x00\x00\x00\x00\x0f\x00\x00\x00\x00\x00\x00\x00\x10\x00\x00\x00\x00\x00\x00\x00\x11\x00\x00\x00\x00\x00\x00\x00\x12\x00\x00\x00\x00\x00\x00\x00\x13\x00\x00\x00\x00\x00\x00\x00\x14\x00\x00\x00\x00\x00\x00\x00\x15\x00\x00\x00\x00\x00\x00\x00\x16\x00\x00\x00\x00\x00\x00\x00\x17\x00\x00\x00\x00\x00\x00\x00\x18\x00\x00\x00\x00\x00\x00\x00\x19\x00\x00\x00\x00\x00\x00\x00\x1a\x00\x00\x00\x00\x00\x00\x00\x1b\x00\x00\x00\x00\x00\x00\x00\x1c\x00\x00\x00\x00\x00\x00\x00\x1d\x00\x00\x00\x00\x00\x00\x00\x1e\x00\x00\x00\x00\x00\x00\x00\x1f\x00\x00\x00\x00\x00\x00\x00 \x00\x00\x00\x00\x00\x00\x00!\x00\x00\x00\x00\x00\x00\x00'
p254
tp255
bsg248
g100
sasstp256
bsb.