ccopy_reg
_reconstructor
p0
(cpandas.core.frame
DataFrame
p1
c__builtin__
object
p2
Ntp3
Rp4
(dp5
S'_metadata'
p6
(lp7
sS'_typ'
p8
S'dataframe'
p9
sS'_data'
p10
g0
(cpandas.core.internals
BlockManager
p11
g2
Ntp12
Rp13
((lp14
cpandas.core.indexes.base
_new_Index
p15
(cpandas.core.indexes.base
Index
p16
(dp17
S'data'
p18
cnumpy.core.multiarray
_reconstruct
p19
(cnumpy
ndarray
p20
(I0
tp21
S'b'
p22
tp23
Rp24
(I1
(I34
tp25
cnumpy
dtype
p26
(S'O8'
p27
I0
I1
tp28
Rp29
(I3
S'|'
p30
NNNI-1
I-1
I63
tp31
bI00
(lp32
S'year'
p33
aS'type'
p34
aS'procOriginal'
p35
aS'proc'
p36
aS'proc_s0'
p37
aS'cat'
p38
aS'inputWSFile'
p39
aS'nominalDataName'
p40
aS'modelWSFile'
p41
aS'model'
p42
aS'rate'
p43
aS'nominal_yield'
p44
aS'sumw2'
p45
aS'nominal_yield_COWCorr'
p46
aS'LooseMvaSF_up_yield'
p47
aS'LooseMvaSF_down_yield'
p48
aS'PreselSF_up_yield'
p49
aS'PreselSF_down_yield'
p50
aS'electronVetoSF_up_yield'
p51
aS'electronVetoSF_down_yield'
p52
aS'TriggerWeight_up_yield'
p53
aS'TriggerWeight_down_yield'
p54
aS'SigmaEOverEShift_up_yield'
p55
aS'SigmaEOverEShift_down_yield'
p56
aS'MvaShift_up_yield'
p57
aS'MvaShift_down_yield'
p58
aS'PUJIDShift_up_yield'
p59
aS'PUJIDShift_down_yield'
p60
aS'JEC_up_yield'
p61
aS'JEC_down_yield'
p62
aS'JER_up_yield'
p63
aS'JER_down_yield'
p64
aS'JetHEM_up_yield'
p65
aS'JetHEM_down_yield'
p66
atp67
bsS'name'
p68
Nstp69
Rp70
ag15
(cpandas.core.indexes.numeric
Int64Index
p71
(dp72
g18
g19
(g20
(I0
tp73
g22
tp74
Rp75
(I1
(I15
tp76
g26
(S'i8'
p77
I0
I1
tp78
Rp79
(I3
S'<'
p80
NNNI-1
I-1
I0
tp81
bI00
S'\x00\x00\x00\x00\x00\x00\x00\x00\x01\x00\x00\x00\x00\x00\x00\x00\x02\x00\x00\x00\x00\x00\x00\x00\x03\x00\x00\x00\x00\x00\x00\x00\x04\x00\x00\x00\x00\x00\x00\x00\x05\x00\x00\x00\x00\x00\x00\x00\x06\x00\x00\x00\x00\x00\x00\x00\x07\x00\x00\x00\x00\x00\x00\x00\x08\x00\x00\x00\x00\x00\x00\x00\t\x00\x00\x00\x00\x00\x00\x00\n\x00\x00\x00\x00\x00\x00\x00\x0b\x00\x00\x00\x00\x00\x00\x00\x0c\x00\x00\x00\x00\x00\x00\x00\r\x00\x00\x00\x00\x00\x00\x00\x0e\x00\x00\x00\x00\x00\x00\x00'
p82
tp83
bsg68
Nstp84
Rp85
a(lp86
g19
(g20
(I0
tp87
g22
tp88
Rp89
(I1
(I1
I15
tp90
g26
(S'f8'
p91
I0
I1
tp92
Rp93
(I3
S'<'
p94
NNNI-1
I-1
I0
tp95
bI00
S'\x00\x00\x00\x00\x00\x10\xd3@\x00\x00\x00\x00\x00\x10\xd3@\x00\x00\x00\x00\x00\x10\xd3@\x00\x00\x00\x00\x00\x10\xd3@\x00\x00\x00\x00\x00\x10\xd3@\x00\x00\x00\x00\x00\x10\xd3@\x00\x00\x00\x00\x00\x10\xd3@\x00\x00\x00\x00\x00\x10\xd3@\x00\x00\x00\x00\x00\x10\xd3@\x00\x00\x00\x00\x00\x10\xd3@\x00\x00\x00\x00\x00\x10\xd3@\x00\x00\x00\x00\x00\x10\xd3@\x00\x00\x00\x00\x00\x10\xd3@\x00\x00\x00\x00\x00\x00\xf0?\x00\x00\x00\x00\x00\x00\xf0\xbf'
p96
tp97
bag19
(g20
(I0
tp98
g22
tp99
Rp100
(I1
(I33
I15
tp101
g29
I00
(lp102
S'2016preVFP'
p103
ag103
ag103
ag103
ag103
ag103
ag103
ag103
ag103
ag103
ag103
ag103
ag103
ag33
ag33
aS'sig'
p104
ag104
ag104
ag104
ag104
ag104
ag104
ag104
ag104
ag104
ag104
ag104
ag104
aS'bkg'
p105
ag18
aS'GG2HMf05ph0'
p106
aS'GG2HbsmM'
p107
aS'GG2Hsm'
p108
aS'TTHsm'
p109
aS'VBFMf05ph0'
p110
aS'VBFbsmM'
p111
aS'VBFsm'
p112
aS'WHMf05ph0'
p113
aS'WHbsmM'
p114
aS'WHsm'
p115
aS'ZHMf05ph0'
p116
aS'ZHbsmM'
p117
aS'ZHsm'
p118
aS'bkg_mass'
p119
aS'data_obs'
p120
aS'GG2HMf05ph0_2016preVFP_hgg'
p121
aS'GG2HbsmM_2016preVFP_hgg'
p122
aS'GG2Hsm_2016preVFP_hgg'
p123
aS'tth0P_2016preVFP_hgg'
p124
aS'vbf0Mf05ph0_2016preVFP_hgg'
p125
aS'vbf0M_2016preVFP_hgg'
p126
aS'vbf0P_2016preVFP_hgg'
p127
aS'wh0Mf05ph0_2016preVFP_hgg'
p128
aS'wh0M_2016preVFP_hgg'
p129
aS'wh0P_2016preVFP_hgg'
p130
aS'zh0Mf05ph0_2016preVFP_hgg'
p131
aS'zh0M_2016preVFP_hgg'
p132
aS'zh0P_2016preVFP_hgg'
p133
ag119
ag120
aS'jjh0Mf05ph0'
p134
aS'jjh0M'
p135
aS'jjh0P'
p136
aS'tth0P'
p137
aS'vbf0Mf05ph0'
p138
aS'vbf0M'
p139
aS'vbf0P'
p140
aS'wh0Mf05ph0'
p141
aS'wh0M'
p142
aS'wh0P'
p143
aS'zh0Mf05ph0'
p144
aS'zh0M'
p145
aS'zh0P'
p146
aS'-'
p147
ag147
aS'AC_Bin25_2016preVFP'
p148
aS'AC_Bin25_2016preVFP'
p149
aS'AC_Bin25_2016preVFP'
p150
aS'AC_Bin25_2016preVFP'
p151
aS'AC_Bin25_2016preVFP'
p152
aS'AC_Bin25_2016preVFP'
p153
aS'AC_Bin25_2016preVFP'
p154
aS'AC_Bin25_2016preVFP'
p155
aS'AC_Bin25_2016preVFP'
p156
aS'AC_Bin25_2016preVFP'
p157
aS'AC_Bin25_2016preVFP'
p158
aS'AC_Bin25_2016preVFP'
p159
aS'AC_Bin25_2016preVFP'
p160
aS'AC_Bin25_2016preVFP'
p161
ag161
aS'Trees/Opt_2016preVFP/2016PreVFP/Trees2WS_2016preVFP/WS/output_GluGluHToGGPlusTwoJets_MM_M125_TuneCP5_13TeV-amcatnlopowheg-minlo-pythia8_GG2HMf05ph0.root'
p162
aS'Trees/Opt_2016preVFP/2016PreVFP/Trees2WS_2016preVFP/WS/output_GluGluHToGGPlusTwoJets_CPodd_M125_TuneCP5_13TeV-amcatnlopowheg-minlo-pythia8_GG2HbsmM.root'
p163
aS'Trees/Opt_2016preVFP/2016PreVFP/Trees2WS_2016preVFP/WS/output_GluGluHToGGPlusTwoJets_SM_M125_TuneCP5_13TeV-amcatnlopowheg-minlo-pythia8_GG2Hsm.root'
p164
aS'Trees/Opt_2016preVFP/2016PreVFP/Trees2WS_2016preVFP/WS/output_ttHJetToGG_M125_TuneCP5_13TeV-amcatnloFXFX-madspin-pythia8_TTHsm.root'
p165
aS'Trees/Opt_2016preVFP/2016PreVFP/Trees2WS_2016preVFP/WS/output_VBFHiggs0Mf05ph0ToGG_M125_TuneCP5_13TeV-JHUGenV7011-pythia8_VBFMf05ph0.root'
p166
aS'Trees/Opt_2016preVFP/2016PreVFP/Trees2WS_2016preVFP/WS/output_VBFHiggs0MToGG_M125_TuneCP5_13TeV-JHUGenV7011-pythia8_VBFbsmM.root'
p167
aS'Trees/Opt_2016preVFP/2016PreVFP/Trees2WS_2016preVFP/WS/output_VBFHToGG_M125_TuneCP5_13TeV-amcatnlo-pythia8_VBFsm.root'
p168
aS'Trees/Opt_2016preVFP/2016PreVFP/Trees2WS_2016preVFP/WS/output_WHiggs0Mf05ph0ToGG_M125_TuneCP5_13TeV-JHUGenV7011-pythia8_WHMf05ph0.root'
p169
aS'Trees/Opt_2016preVFP/2016PreVFP/Trees2WS_2016preVFP/WS/output_WHiggs0MToGG_M125_TuneCP5_13TeV-JHUGenV7011-pythia8_WHbsmM.root'
p170
aS'Trees/Opt_2016preVFP/2016PreVFP/Trees2WS_2016preVFP/WS/output_WHiggs0PMToGG_M125_TuneCP5_13TeV-JHUGenV7011-pythia8_WHsm.root'
p171
aS'Trees/Opt_2016preVFP/2016PreVFP/Trees2WS_2016preVFP/WS/output_ZHiggs0Mf05ph0ToGG_M125_TuneCP5_13TeV-JHUGenV7011-pythia8_ZHMf05ph0.root'
p172
aS'Trees/Opt_2016preVFP/2016PreVFP/Trees2WS_2016preVFP/WS/output_ZHiggs0MToGG_M125_TuneCP5_13TeV-JHUGenV7011-pythia8_ZHbsmM.root'
p173
aS'Trees/Opt_2016preVFP/2016PreVFP/Trees2WS_2016preVFP/WS/output_ZH_HToGG_ZToAll_M125_TuneCP5_13TeV-powheg-pythia8_ZHsm.root'
p174
ag147
ag147
aS'jjh0Mf05ph0_125_13TeV_AC_Bin25'
p175
aS'jjh0M_125_13TeV_AC_Bin25'
p176
aS'jjh0P_125_13TeV_AC_Bin25'
p177
aS'tth0P_125_13TeV_AC_Bin25'
p178
aS'vbf0Mf05ph0_125_13TeV_AC_Bin25'
p179
aS'vbf0M_125_13TeV_AC_Bin25'
p180
aS'vbf0P_125_13TeV_AC_Bin25'
p181
aS'wh0Mf05ph0_125_13TeV_AC_Bin25'
p182
aS'wh0M_125_13TeV_AC_Bin25'
p183
aS'wh0P_125_13TeV_AC_Bin25'
p184
aS'zh0Mf05ph0_125_13TeV_AC_Bin25'
p185
aS'zh0M_125_13TeV_AC_Bin25'
p186
aS'zh0P_125_13TeV_AC_Bin25'
p187
ag147
ag147
aS'./Models/signal/CMS-HGG_sigfit_packaged_AC_Bin25_2016preVFP.root'
p188
aS'./Models/signal/CMS-HGG_sigfit_packaged_AC_Bin25_2016preVFP.root'
p189
aS'./Models/signal/CMS-HGG_sigfit_packaged_AC_Bin25_2016preVFP.root'
p190
aS'./Models/signal/CMS-HGG_sigfit_packaged_AC_Bin25_2016preVFP.root'
p191
aS'./Models/signal/CMS-HGG_sigfit_packaged_AC_Bin25_2016preVFP.root'
p192
aS'./Models/signal/CMS-HGG_sigfit_packaged_AC_Bin25_2016preVFP.root'
p193
aS'./Models/signal/CMS-HGG_sigfit_packaged_AC_Bin25_2016preVFP.root'
p194
aS'./Models/signal/CMS-HGG_sigfit_packaged_AC_Bin25_2016preVFP.root'
p195
aS'./Models/signal/CMS-HGG_sigfit_packaged_AC_Bin25_2016preVFP.root'
p196
aS'./Models/signal/CMS-HGG_sigfit_packaged_AC_Bin25_2016preVFP.root'
p197
aS'./Models/signal/CMS-HGG_sigfit_packaged_AC_Bin25_2016preVFP.root'
p198
aS'./Models/signal/CMS-HGG_sigfit_packaged_AC_Bin25_2016preVFP.root'
p199
aS'./Models/signal/CMS-HGG_sigfit_packaged_AC_Bin25_2016preVFP.root'
p200
aS'./Models/background/CMS-HGG_multipdf_AC_Bin25_2016preVFP.root'
p201
ag201
aS'wsig_13TeV:hggpdfsmrel_GG2HMf05ph0_2016preVFP_AC_Bin25_13TeV'
p202
aS'wsig_13TeV:hggpdfsmrel_GG2HbsmM_2016preVFP_AC_Bin25_13TeV'
p203
aS'wsig_13TeV:hggpdfsmrel_GG2Hsm_2016preVFP_AC_Bin25_13TeV'
p204
aS'wsig_13TeV:hggpdfsmrel_TTHsm_2016preVFP_AC_Bin25_13TeV'
p205
aS'wsig_13TeV:hggpdfsmrel_VBFMf05ph0_2016preVFP_AC_Bin25_13TeV'
p206
aS'wsig_13TeV:hggpdfsmrel_VBFbsmM_2016preVFP_AC_Bin25_13TeV'
p207
aS'wsig_13TeV:hggpdfsmrel_VBFsm_2016preVFP_AC_Bin25_13TeV'
p208
aS'wsig_13TeV:hggpdfsmrel_WHMf05ph0_2016preVFP_AC_Bin25_13TeV'
p209
aS'wsig_13TeV:hggpdfsmrel_WHbsmM_2016preVFP_AC_Bin25_13TeV'
p210
aS'wsig_13TeV:hggpdfsmrel_WHsm_2016preVFP_AC_Bin25_13TeV'
p211
aS'wsig_13TeV:hggpdfsmrel_ZHMf05ph0_2016preVFP_AC_Bin25_13TeV'
p212
aS'wsig_13TeV:hggpdfsmrel_ZHbsmM_2016preVFP_AC_Bin25_13TeV'
p213
aS'wsig_13TeV:hggpdfsmrel_ZHsm_2016preVFP_AC_Bin25_13TeV'
p214
aS'multipdf:CMS_hgg_AC_Bin25_2016preVFP_13TeV_bkgshape'
p215
aS'multipdf:roohist_data_mass_AC_Bin25'
p216
aF0.03630801808867545
aF0.04142225718169357
aF0.024647902737569893
aF0.0012449070396769457
aF0.09799090097942553
aF0.07726324521877359
aF0.048169780174589505
aF0.0004925604997652044
aF0.001241277054305101
aF0.00023070807958447404
aI0
aF0.00029487805295502767
aF0.0006071770742437366
ag147
ag147
aF3.50036599033382e-06
aF2.8133016429458004e-06
aF2.3139454149454554e-05
aF1.4329074001675642e-07
aF1.936308517616115e-05
aF4.834109484029856e-06
aF1.388054400870162e-05
aF8.94127316703734e-09
aF7.883823944863628e-08
aF3.3744365458268104e-09
aI0
aF4.8289525606671985e-08
aF1.4519275710506444e-08
ag147
ag147
aF0.03711454170672781
aF0.042355093480543074
aF0.025180342659214594
aF0.001278016047685938
aF0.10014921521786002
aF0.07890181040493843
aF0.04945936264471862
aF0.0005037946864697364
aF0.0012673959107435912
aF0.00023522067090975783
aI0
aF0.0003013115905025256
aF0.0006219094742180744
ag147
ag147
aF0.036548419268232685
aF0.0416947738952564
aF0.024811729285686524
aF0.001253157658537741
aF0.09864280399719601
aF0.07777745167714588
aF0.04848776698427207
aF0.00049574914024763
aF0.0012495646774569001
aF0.00023217268210272258
aI0
aF0.00029688886032661033
aF0.0006111291909171766
ag147
ag147
aF0.036068410988296974
aF0.04115063493587099
aF0.024484619154575567
aF0.0012366836598365647
aF0.09734116179955127
aF0.07675074641713074
aF0.0478528400955972
aF0.0004893821434882947
aF0.0012330170449359943
aF0.00022924813369015393
aI0
aF0.0002928740762122064
aF0.0006032377858937446
ag147
ag147
aF0.036840680764484116
aF0.042065970995184616
aF0.02501367882306413
aF0.001264543336047795
aF0.09941035066694931
aF0.07833963656226335
aF0.04894748067817416
aF0.0005015204506539489
aF0.0012587167404000466
aF0.0002352749809633729
aI0
aF0.00029831959153647216
aF0.000617191076330762
ag147
ag147
aF0.035779147440498496
aF0.04078330011644312
aF0.02428476030604143
aF0.0012254289513451693
aF0.09658186410816107
aF0.07619429734796306
aF0.0473992173272523
aF0.0004836788024250922
aF0.0012239591382467087
aF0.00022617281281125934
aI0
aF0.00029145645548867715
aF0.0005972377480521569
ag147
ag147
aF0.03636264940911435
aF0.04148627238805206
aF0.024682758909260746
aF0.0012465093019855152
aF0.09813068563500181
aF0.07737044577000508
aF0.04824741381585154
aF0.000493379636047206
aF0.0012429800021661567
aF0.00023119009139864954
aI0
aF0.00029517372136118295
aF0.000608240646900711
ag147
ag147
aF0.03625343291838657
aF0.041358292754119674
aF0.024613069616368083
aF0.001243305650308052
aF0.09785122430474981
aF0.07715611679180093
aF0.048092206264944294
aF0.0004917419495402104
aF0.0012395754195424127
aF0.00023022658896643098
aI0
aF0.0002945825102658646
aF0.0006061143768520318
ag147
ag147
aF0.03638281894495885
aF0.04150899370472656
aF0.024699785262972684
aF0.0012477724835755152
aF0.09819715207986943
aF0.0774219898304121
aF0.04828509180736217
aF0.000493613858881863
aF0.0012438000337879733
aF0.0002311818800847319
aI0
aF0.0002954705391798387
aF0.0006085832190072274
ag147
ag147
aF0.036233294409423696
aF0.04133561185030799
aF0.024596074877097373
aF0.0012420448651111152
aF0.09778487006906098
aF0.07710466631400885
aF0.04805460382465962
aF0.0004915082804978401
aF0.0012387566845463362
aF0.0002302347735236837
aI0
aF0.0002942861893231375
aF0.0006057725417413204
ag147
ag147
aF0.03580186372028038
aF0.040780353240506884
aF0.02419812172456659
aF0.0012220556784541259
aF0.09704823388494788
aF0.07661059490669686
aF0.04453848929642845
aF0.0004711163154524911
aF0.0012329513472195686
aF0.00023070807958447404
aF0.0
aF0.00029487805295502767
aF0.000590140279427942
ag147
ag147
aF0.037234163600032844
aF0.04184227479913716
aF0.02483841621619831
aF0.0012511574241216294
aF0.09885243191467907
aF0.07779176593294324
aF0.04816234815575626
aF0.0005089879376782847
aF0.0012430449938847232
aF0.00023227119754665182
aF0.0
aF0.00029487805295502767
aF0.0006240748145955877
ag147
ag147
aF0.03701704784180038
aF0.04245608952192015
aF0.024793139313260326
aF0.0013423952137827655
aF0.0990251122788095
aF0.07810833021846975
aF0.047089480474141965
aF0.0004925604997652044
aF0.0012412482838044525
aF0.00023070807958447404
aF0.0
aF0.00029487805295502767
aF0.0006138407795788225
ag147
ag147
aF0.035563895320592565
aF0.040903705726577755
aF0.024185005342360455
aF0.001181696241701502
aF0.0967265915429607
aF0.07656506058697232
aF0.04839083507556552
aF0.0004925604997652044
aF0.0012083799780384652
aF0.00021609459656701802
aF0.0
aF0.00029487805295502767
aF0.0005987346769416035
ag147
ag147
aF0.03641246141796728
aF0.04201990777437459
aF0.02478712592710508
aF0.0012449070396769457
aF0.0980370028788684
aF0.07730431042716646
aF0.0471756522515534
aF0.0004946715577034411
aF0.0012599272577062948
aF0.00023070807958447404
aF0.0
aF0.00029487805295502767
aF0.0006071770742437366
ag147
ag147
aF0.03590418464932554
aF0.04109873831703226
aF0.024037646434180715
aF0.0012407473160465088
aF0.09784432559661127
aF0.07724645251494167
aF0.0464376588236064
aF0.0004855979822195877
aF0.0012020787919482245
aF0.0002192781731764626
aF0.0
aF0.00029487805295502767
aF0.0006071770742437366
ag147
ag147
aF0.037957669688694295
aF0.04394424387464824
aF0.024712927625387238
aF0.00129965248447661
aF0.09764309583454178
aF0.07791846800910207
aF0.05018559570578418
aF0.0005659232975858686
aF0.0013473712299401086
aF0.00028324987647465605
aF0.0
aF0.0003313788984087296
aF0.0006303745346940559
ag147
ag147
aF0.0340246022451538
aF0.04017784500410926
aF0.023575328776132665
aF0.001273466048019145
aF0.0961015475501199
aF0.07640984985948762
aF0.03641869306625267
aF0.0004920803768300175
aF0.0012398668146715863
aF0.00021155782940240897
aF0.0
aF9.838297410169616e-05
aF0.0005972715305233578
ag147
ag147
aF0.03622257802362583
aF0.04221321030377112
aF0.019748506342693872
aF0.0013064934818203255
aF0.09833630819241534
aF0.07731763315769058
aF0.04855282100822933
aF0.0005039308363166128
aF0.0012463969735563296
aF0.00022263340179051738
aF0.0
aF0.00029487805295502767
aF0.0006944317999568739
ag147
ag147
aF0.0361103609809561
aF0.041464470318487656
aF0.024017106816472733
aF0.0012968489428430985
aF0.09762221411881455
aF0.07740347728861252
aF0.04634598514735444
aF0.0005140312981666284
aF0.0012527240739927947
aF0.00023290319313673535
aF0.0
aF0.00029487805295502767
aF0.0006035846697614033
ag147
ag147
aF0.03630801808867545
aF0.04142225718169357
aF0.024647902737569893
aF0.0012449070396769457
aF0.09799090097942553
aF0.07726324521877359
aF0.048169780174589505
aF0.0004925604997652044
aF0.001241277054305101
aF0.00023070807958447404
aF0.0
aF0.00029487805295502767
aF0.0006071770742437366
ag147
ag147
aF0.03630801808867545
aF0.04142225718169357
aF0.024647902737569893
aF0.0012449070396769457
aF0.09799090097942553
aF0.07726324521877359
aF0.048169780174589505
aF0.0004925604997652044
aF0.001241277054305101
aF0.00023070807958447404
aF0.0
aF0.00029487805295502767
aF0.0006071770742437366
ag147
ag147
atp217
ba(lp218
g15
(g16
(dp219
g18
g19
(g20
(I0
tp220
g22
tp221
Rp222
(I1
(I1
tp223
g29
I00
(lp224
g43
atp225
bsg68
Nstp226
Rp227
ag15
(g16
(dp228
g18
g19
(g20
(I0
tp229
g22
tp230
Rp231
(I1
(I33
tp232
g29
I00
(lp233
g33
ag34
ag35
ag36
ag37
ag38
ag39
ag40
ag41
ag42
ag44
ag45
ag46
ag47
ag48
ag49
ag50
ag51
ag52
ag53
ag54
ag55
ag56
ag57
ag58
ag59
ag60
ag61
ag62
ag63
ag64
ag65
ag66
atp234
bsg68
Nstp235
Rp236
a(dp237
S'0.14.1'
p238
(dp239
S'axes'
p240
g14
sS'blocks'
p241
(lp242
(dp243
S'mgr_locs'
p244
c__builtin__
slice
p245
(I10
I11
I1
tp246
Rp247
sS'values'
p248
g89
sa(dp249
g244
g19
(g20
(I0
tp250
g22
tp251
Rp252
(I1
(I33
tp253
g79
I00
S'\x00\x00\x00\x00\x00\x00\x00\x00\x01\x00\x00\x00\x00\x00\x00\x00\x02\x00\x00\x00\x00\x00\x00\x00\x03\x00\x00\x00\x00\x00\x00\x00\x04\x00\x00\x00\x00\x00\x00\x00\x05\x00\x00\x00\x00\x00\x00\x00\x06\x00\x00\x00\x00\x00\x00\x00\x07\x00\x00\x00\x00\x00\x00\x00\x08\x00\x00\x00\x00\x00\x00\x00\t\x00\x00\x00\x00\x00\x00\x00\x0b\x00\x00\x00\x00\x00\x00\x00\x0c\x00\x00\x00\x00\x00\x00\x00\r\x00\x00\x00\x00\x00\x00\x00\x0e\x00\x00\x00\x00\x00\x00\x00\x0f\x00\x00\x00\x00\x00\x00\x00\x10\x00\x00\x00\x00\x00\x00\x00\x11\x00\x00\x00\x00\x00\x00\x00\x12\x00\x00\x00\x00\x00\x00\x00\x13\x00\x00\x00\x00\x00\x00\x00\x14\x00\x00\x00\x00\x00\x00\x00\x15\x00\x00\x00\x00\x00\x00\x00\x16\x00\x00\x00\x00\x00\x00\x00\x17\x00\x00\x00\x00\x00\x00\x00\x18\x00\x00\x00\x00\x00\x00\x00\x19\x00\x00\x00\x00\x00\x00\x00\x1a\x00\x00\x00\x00\x00\x00\x00\x1b\x00\x00\x00\x00\x00\x00\x00\x1c\x00\x00\x00\x00\x00\x00\x00\x1d\x00\x00\x00\x00\x00\x00\x00\x1e\x00\x00\x00\x00\x00\x00\x00\x1f\x00\x00\x00\x00\x00\x00\x00 \x00\x00\x00\x00\x00\x00\x00!\x00\x00\x00\x00\x00\x00\x00'
p254
tp255
bsg248
g100
sasstp256
bsb.