ccopy_reg
_reconstructor
p0
(cpandas.core.frame
DataFrame
p1
c__builtin__
object
p2
Ntp3
Rp4
(dp5
S'_metadata'
p6
(lp7
sS'_typ'
p8
S'dataframe'
p9
sS'_data'
p10
g0
(cpandas.core.internals
BlockManager
p11
g2
Ntp12
Rp13
((lp14
cpandas.core.indexes.base
_new_Index
p15
(cpandas.core.indexes.base
Index
p16
(dp17
S'data'
p18
cnumpy.core.multiarray
_reconstruct
p19
(cnumpy
ndarray
p20
(I0
tp21
S'b'
p22
tp23
Rp24
(I1
(I34
tp25
cnumpy
dtype
p26
(S'O8'
p27
I0
I1
tp28
Rp29
(I3
S'|'
p30
NNNI-1
I-1
I63
tp31
bI00
(lp32
S'year'
p33
aS'type'
p34
aS'procOriginal'
p35
aS'proc'
p36
aS'proc_s0'
p37
aS'cat'
p38
aS'inputWSFile'
p39
aS'nominalDataName'
p40
aS'modelWSFile'
p41
aS'model'
p42
aS'rate'
p43
aS'nominal_yield'
p44
aS'sumw2'
p45
aS'nominal_yield_COWCorr'
p46
aS'LooseMvaSF_up_yield'
p47
aS'LooseMvaSF_down_yield'
p48
aS'PreselSF_up_yield'
p49
aS'PreselSF_down_yield'
p50
aS'electronVetoSF_up_yield'
p51
aS'electronVetoSF_down_yield'
p52
aS'TriggerWeight_up_yield'
p53
aS'TriggerWeight_down_yield'
p54
aS'SigmaEOverEShift_up_yield'
p55
aS'SigmaEOverEShift_down_yield'
p56
aS'MvaShift_up_yield'
p57
aS'MvaShift_down_yield'
p58
aS'PUJIDShift_up_yield'
p59
aS'PUJIDShift_down_yield'
p60
aS'JEC_up_yield'
p61
aS'JEC_down_yield'
p62
aS'JER_up_yield'
p63
aS'JER_down_yield'
p64
aS'JetHEM_up_yield'
p65
aS'JetHEM_down_yield'
p66
atp67
bsS'name'
p68
Nstp69
Rp70
ag15
(cpandas.core.indexes.numeric
Int64Index
p71
(dp72
g18
g19
(g20
(I0
tp73
g22
tp74
Rp75
(I1
(I15
tp76
g26
(S'i8'
p77
I0
I1
tp78
Rp79
(I3
S'<'
p80
NNNI-1
I-1
I0
tp81
bI00
S'\x00\x00\x00\x00\x00\x00\x00\x00\x01\x00\x00\x00\x00\x00\x00\x00\x02\x00\x00\x00\x00\x00\x00\x00\x03\x00\x00\x00\x00\x00\x00\x00\x04\x00\x00\x00\x00\x00\x00\x00\x05\x00\x00\x00\x00\x00\x00\x00\x06\x00\x00\x00\x00\x00\x00\x00\x07\x00\x00\x00\x00\x00\x00\x00\x08\x00\x00\x00\x00\x00\x00\x00\t\x00\x00\x00\x00\x00\x00\x00\n\x00\x00\x00\x00\x00\x00\x00\x0b\x00\x00\x00\x00\x00\x00\x00\x0c\x00\x00\x00\x00\x00\x00\x00\r\x00\x00\x00\x00\x00\x00\x00\x0e\x00\x00\x00\x00\x00\x00\x00'
p82
tp83
bsg68
Nstp84
Rp85
a(lp86
g19
(g20
(I0
tp87
g22
tp88
Rp89
(I1
(I1
I15
tp90
g26
(S'f8'
p91
I0
I1
tp92
Rp93
(I3
S'<'
p94
NNNI-1
I-1
I0
tp95
bI00
S'\x00\x00\x00\x00\x00\x10\xd3@\x00\x00\x00\x00\x00\x10\xd3@\x00\x00\x00\x00\x00\x10\xd3@\x00\x00\x00\x00\x00\x10\xd3@\x00\x00\x00\x00\x00\x10\xd3@\x00\x00\x00\x00\x00\x10\xd3@\x00\x00\x00\x00\x00\x10\xd3@\x00\x00\x00\x00\x00\x10\xd3@\x00\x00\x00\x00\x00\x10\xd3@\x00\x00\x00\x00\x00\x10\xd3@\x00\x00\x00\x00\x00\x10\xd3@\x00\x00\x00\x00\x00\x10\xd3@\x00\x00\x00\x00\x00\x10\xd3@\x00\x00\x00\x00\x00\x00\xf0?\x00\x00\x00\x00\x00\x00\xf0\xbf'
p96
tp97
bag19
(g20
(I0
tp98
g22
tp99
Rp100
(I1
(I33
I15
tp101
g29
I00
(lp102
S'2016preVFP'
p103
ag103
ag103
ag103
ag103
ag103
ag103
ag103
ag103
ag103
ag103
ag103
ag103
ag33
ag33
aS'sig'
p104
ag104
ag104
ag104
ag104
ag104
ag104
ag104
ag104
ag104
ag104
ag104
ag104
aS'bkg'
p105
ag18
aS'GG2HMf05ph0'
p106
aS'GG2HbsmM'
p107
aS'GG2Hsm'
p108
aS'TTHsm'
p109
aS'VBFMf05ph0'
p110
aS'VBFbsmM'
p111
aS'VBFsm'
p112
aS'WHMf05ph0'
p113
aS'WHbsmM'
p114
aS'WHsm'
p115
aS'ZHMf05ph0'
p116
aS'ZHbsmM'
p117
aS'ZHsm'
p118
aS'bkg_mass'
p119
aS'data_obs'
p120
aS'GG2HMf05ph0_2016preVFP_hgg'
p121
aS'GG2HbsmM_2016preVFP_hgg'
p122
aS'GG2Hsm_2016preVFP_hgg'
p123
aS'tth0P_2016preVFP_hgg'
p124
aS'vbf0Mf05ph0_2016preVFP_hgg'
p125
aS'vbf0M_2016preVFP_hgg'
p126
aS'vbf0P_2016preVFP_hgg'
p127
aS'wh0Mf05ph0_2016preVFP_hgg'
p128
aS'wh0M_2016preVFP_hgg'
p129
aS'wh0P_2016preVFP_hgg'
p130
aS'zh0Mf05ph0_2016preVFP_hgg'
p131
aS'zh0M_2016preVFP_hgg'
p132
aS'zh0P_2016preVFP_hgg'
p133
ag119
ag120
aS'jjh0Mf05ph0'
p134
aS'jjh0M'
p135
aS'jjh0P'
p136
aS'tth0P'
p137
aS'vbf0Mf05ph0'
p138
aS'vbf0M'
p139
aS'vbf0P'
p140
aS'wh0Mf05ph0'
p141
aS'wh0M'
p142
aS'wh0P'
p143
aS'zh0Mf05ph0'
p144
aS'zh0M'
p145
aS'zh0P'
p146
aS'-'
p147
ag147
aS'AC_Bin1_2016preVFP'
p148
aS'AC_Bin1_2016preVFP'
p149
aS'AC_Bin1_2016preVFP'
p150
aS'AC_Bin1_2016preVFP'
p151
aS'AC_Bin1_2016preVFP'
p152
aS'AC_Bin1_2016preVFP'
p153
aS'AC_Bin1_2016preVFP'
p154
aS'AC_Bin1_2016preVFP'
p155
aS'AC_Bin1_2016preVFP'
p156
aS'AC_Bin1_2016preVFP'
p157
aS'AC_Bin1_2016preVFP'
p158
aS'AC_Bin1_2016preVFP'
p159
aS'AC_Bin1_2016preVFP'
p160
aS'AC_Bin1_2016preVFP'
p161
ag161
aS'Trees/Opt_2016preVFP/2016PreVFP/Trees2WS_2016preVFP/WS/output_GluGluHToGGPlusTwoJets_MM_M125_TuneCP5_13TeV-amcatnlopowheg-minlo-pythia8_GG2HMf05ph0.root'
p162
aS'Trees/Opt_2016preVFP/2016PreVFP/Trees2WS_2016preVFP/WS/output_GluGluHToGGPlusTwoJets_CPodd_M125_TuneCP5_13TeV-amcatnlopowheg-minlo-pythia8_GG2HbsmM.root'
p163
aS'Trees/Opt_2016preVFP/2016PreVFP/Trees2WS_2016preVFP/WS/output_GluGluHToGGPlusTwoJets_SM_M125_TuneCP5_13TeV-amcatnlopowheg-minlo-pythia8_GG2Hsm.root'
p164
aS'Trees/Opt_2016preVFP/2016PreVFP/Trees2WS_2016preVFP/WS/output_ttHJetToGG_M125_TuneCP5_13TeV-amcatnloFXFX-madspin-pythia8_TTHsm.root'
p165
aS'Trees/Opt_2016preVFP/2016PreVFP/Trees2WS_2016preVFP/WS/output_VBFHiggs0Mf05ph0ToGG_M125_TuneCP5_13TeV-JHUGenV7011-pythia8_VBFMf05ph0.root'
p166
aS'Trees/Opt_2016preVFP/2016PreVFP/Trees2WS_2016preVFP/WS/output_VBFHiggs0MToGG_M125_TuneCP5_13TeV-JHUGenV7011-pythia8_VBFbsmM.root'
p167
aS'Trees/Opt_2016preVFP/2016PreVFP/Trees2WS_2016preVFP/WS/output_VBFHToGG_M125_TuneCP5_13TeV-amcatnlo-pythia8_VBFsm.root'
p168
aS'Trees/Opt_2016preVFP/2016PreVFP/Trees2WS_2016preVFP/WS/output_WHiggs0Mf05ph0ToGG_M125_TuneCP5_13TeV-JHUGenV7011-pythia8_WHMf05ph0.root'
p169
aS'Trees/Opt_2016preVFP/2016PreVFP/Trees2WS_2016preVFP/WS/output_WHiggs0MToGG_M125_TuneCP5_13TeV-JHUGenV7011-pythia8_WHbsmM.root'
p170
aS'Trees/Opt_2016preVFP/2016PreVFP/Trees2WS_2016preVFP/WS/output_WHiggs0PMToGG_M125_TuneCP5_13TeV-JHUGenV7011-pythia8_WHsm.root'
p171
aS'Trees/Opt_2016preVFP/2016PreVFP/Trees2WS_2016preVFP/WS/output_ZHiggs0Mf05ph0ToGG_M125_TuneCP5_13TeV-JHUGenV7011-pythia8_ZHMf05ph0.root'
p172
aS'Trees/Opt_2016preVFP/2016PreVFP/Trees2WS_2016preVFP/WS/output_ZHiggs0MToGG_M125_TuneCP5_13TeV-JHUGenV7011-pythia8_ZHbsmM.root'
p173
aS'Trees/Opt_2016preVFP/2016PreVFP/Trees2WS_2016preVFP/WS/output_ZH_HToGG_ZToAll_M125_TuneCP5_13TeV-powheg-pythia8_ZHsm.root'
p174
ag147
ag147
aS'jjh0Mf05ph0_125_13TeV_AC_Bin1'
p175
aS'jjh0M_125_13TeV_AC_Bin1'
p176
aS'jjh0P_125_13TeV_AC_Bin1'
p177
aS'tth0P_125_13TeV_AC_Bin1'
p178
aS'vbf0Mf05ph0_125_13TeV_AC_Bin1'
p179
aS'vbf0M_125_13TeV_AC_Bin1'
p180
aS'vbf0P_125_13TeV_AC_Bin1'
p181
aS'wh0Mf05ph0_125_13TeV_AC_Bin1'
p182
aS'wh0M_125_13TeV_AC_Bin1'
p183
aS'wh0P_125_13TeV_AC_Bin1'
p184
aS'zh0Mf05ph0_125_13TeV_AC_Bin1'
p185
aS'zh0M_125_13TeV_AC_Bin1'
p186
aS'zh0P_125_13TeV_AC_Bin1'
p187
ag147
ag147
aS'./Models/signal/CMS-HGG_sigfit_packaged_AC_Bin1_2016preVFP.root'
p188
aS'./Models/signal/CMS-HGG_sigfit_packaged_AC_Bin1_2016preVFP.root'
p189
aS'./Models/signal/CMS-HGG_sigfit_packaged_AC_Bin1_2016preVFP.root'
p190
aS'./Models/signal/CMS-HGG_sigfit_packaged_AC_Bin1_2016preVFP.root'
p191
aS'./Models/signal/CMS-HGG_sigfit_packaged_AC_Bin1_2016preVFP.root'
p192
aS'./Models/signal/CMS-HGG_sigfit_packaged_AC_Bin1_2016preVFP.root'
p193
aS'./Models/signal/CMS-HGG_sigfit_packaged_AC_Bin1_2016preVFP.root'
p194
aS'./Models/signal/CMS-HGG_sigfit_packaged_AC_Bin1_2016preVFP.root'
p195
aS'./Models/signal/CMS-HGG_sigfit_packaged_AC_Bin1_2016preVFP.root'
p196
aS'./Models/signal/CMS-HGG_sigfit_packaged_AC_Bin1_2016preVFP.root'
p197
aS'./Models/signal/CMS-HGG_sigfit_packaged_AC_Bin1_2016preVFP.root'
p198
aS'./Models/signal/CMS-HGG_sigfit_packaged_AC_Bin1_2016preVFP.root'
p199
aS'./Models/signal/CMS-HGG_sigfit_packaged_AC_Bin1_2016preVFP.root'
p200
aS'./Models/background/CMS-HGG_multipdf_AC_Bin1_2016preVFP.root'
p201
ag201
aS'wsig_13TeV:hggpdfsmrel_GG2HMf05ph0_2016preVFP_AC_Bin1_13TeV'
p202
aS'wsig_13TeV:hggpdfsmrel_GG2HbsmM_2016preVFP_AC_Bin1_13TeV'
p203
aS'wsig_13TeV:hggpdfsmrel_GG2Hsm_2016preVFP_AC_Bin1_13TeV'
p204
aS'wsig_13TeV:hggpdfsmrel_TTHsm_2016preVFP_AC_Bin1_13TeV'
p205
aS'wsig_13TeV:hggpdfsmrel_VBFMf05ph0_2016preVFP_AC_Bin1_13TeV'
p206
aS'wsig_13TeV:hggpdfsmrel_VBFbsmM_2016preVFP_AC_Bin1_13TeV'
p207
aS'wsig_13TeV:hggpdfsmrel_VBFsm_2016preVFP_AC_Bin1_13TeV'
p208
aS'wsig_13TeV:hggpdfsmrel_WHMf05ph0_2016preVFP_AC_Bin1_13TeV'
p209
aS'wsig_13TeV:hggpdfsmrel_WHbsmM_2016preVFP_AC_Bin1_13TeV'
p210
aS'wsig_13TeV:hggpdfsmrel_WHsm_2016preVFP_AC_Bin1_13TeV'
p211
aS'wsig_13TeV:hggpdfsmrel_ZHMf05ph0_2016preVFP_AC_Bin1_13TeV'
p212
aS'wsig_13TeV:hggpdfsmrel_ZHbsmM_2016preVFP_AC_Bin1_13TeV'
p213
aS'wsig_13TeV:hggpdfsmrel_ZHsm_2016preVFP_AC_Bin1_13TeV'
p214
aS'multipdf:CMS_hgg_AC_Bin1_2016preVFP_13TeV_bkgshape'
p215
aS'multipdf:roohist_data_mass_AC_Bin1'
p216
aF0.023193211052330298
aF0.029227809730400622
aF0.022369740711155828
aF0.00028909801767440513
aF0.0037809778654036563
aF0.0019900186785548613
aF0.01124110351724994
aF0.0005597743114549303
aF0.0006841365826630863
aF0.0006916100497846855
aF0.0009305587118433323
aF8.758971671340987e-05
aF0.0006087269323415967
ag147
ag147
aF3.445940251403554e-06
aF1.9502498948272966e-06
aF2.1286376305858327e-06
aF6.204066879141647e-08
aF9.281573933587552e-08
aF8.116012240956605e-08
aF2.346911366736671e-06
aF8.372435087418424e-09
aF4.4899062234343984e-08
aF6.559689824534444e-09
aF5.34917613942412e-07
aF7.671958473935392e-09
aF7.0845408407388895e-09
ag147
ag147
aF0.024021294412351585
aF0.030188813946970296
aF0.02309080773954012
aF0.00029903450254065996
aF0.003927956318892245
aF0.002054673726993126
aF0.011613892208956802
aF0.0005720529264928695
aF0.0007079369159380044
aF0.0007103200051700041
aF0.0009515900703454788
aF8.972838231229027e-05
aF0.0006217032179111326
ag147
ag147
aF0.023338825010755588
aF0.029413623731440682
aF0.022511918414977544
aF0.000290936262352047
aF0.0038048326659995894
aF0.0020029029781563163
aF0.011311918941442036
aF0.0005633423651163076
aF0.0006885245228393854
aF0.0006959888536127304
aF0.0009368104269348068
aF8.818700150775563e-05
aF0.0006125615351798125
ag147
ag147
aF0.023048053062848465
aF0.029042585398223318
aF0.022228013767043704
aF0.00028726558699649664
aF0.0037571981828677776
aF0.001977175990300195
aF0.011170510459439802
aF0.0005562175883256902
aF0.0006797626538110056
aF0.0006872450630969254
aF0.0009243279268899921
aF8.699446424583864e-05
aF0.0006049044037742083
ag147
ag147
aF0.023683277404715763
aF0.029795990101630587
aF0.022817728679903813
aF0.0002954610851374515
aF0.00385598987274179
aF0.0020241986023416063
aF0.011461842437023863
aF0.0005692408403645005
aF0.0006981360501933442
aF0.0007059571021942738
aF0.0009423022703383117
aF8.861198242922073e-05
aF0.0006214709141131963
ag147
ag147
aF0.02270727871915561
aF0.02866524957527578
aF0.02192601844361529
aF0.0002827988549310411
aF0.003706667090296858
aF0.0019561185019977786
aF0.011022369746989379
aF0.0005503874954361495
aF0.0006702577394401862
aF0.0006773991177830976
aF0.0009188883303391869
aF8.657337683461523e-05
aF0.0005961561693389192
ag147
ag147
aF0.023248893446876622
aF0.029293884416492406
aF0.022419036778530414
aF0.0002898445480182016
aF0.0037900795364652824
aF0.0019954751931661975
aF0.011269781700298225
aF0.0005610274076244441
aF0.0006860094082503464
aF0.0006932630735252009
aF0.0009316814151474089
aF8.767753997121082e-05
aF0.0006101998116383089
ag147
ag147
aF0.02313759002593142
aF0.029161816598065684
aF0.02232049413452828
aF0.000288352185826825
aF0.003771887965798217
aF0.0019845673400542083
aF0.011212461041878728
aF0.0005585224948774004
aF0.000682267221234797
aF0.0006899588659587023
aF0.0009294365993432347
aF8.750193089320741e-05
aF0.0006072560452837224
ag147
ag147
aF0.023246771742467944
aF0.029295661980575698
aF0.022418137637707752
aF0.00028971412773450575
aF0.00378985604653523
aF0.001994449600424052
aF0.011266225596197351
aF0.0005609395735629132
aF0.0006856903853321417
aF0.0006931318238713034
aF0.000932446273560247
aF8.776593014121727e-05
aF0.0006099910139761933
ag147
ag147
aF0.023139711655654246
aF0.029160038717789133
aF0.022321396347232285
aF0.0002884825724778571
aF0.003772109944152491
aF0.0019855926723349555
aF0.01121601017746237
aF0.0005586102691195882
aF0.0006825845463792553
aF0.0006900900039892957
aF0.0009286731083436984
aF8.74136851253665e-05
aF0.000607464164072897
ag147
ag147
aF0.024190650482751153
aF0.030369820055966557
aF0.023268834094096746
aF0.00034928758873320476
aF0.004080707717207588
aF0.0020972537358261434
aF0.006645322771532847
aF0.0005734329882898237
aF0.0006942288084701431
aF0.0007418456016239361
aF0.0009305587118433323
aF8.758971671340987e-05
aF0.0006219242441147799
ag147
ag147
aF0.021897972907709118
aF0.027912380040106655
aF0.02130454276311866
aF0.00027527063434718
aF0.0036070405052441856
aF0.0018466862340460466
aF0.006267721451081343
aF0.0005185793623923018
aF0.0006473047106965168
aF0.000658517920783197
aF0.0009305587118433323
aF0.0
aF0.00053137064674047
ag147
ag147
aF0.02144682746302351
aF0.029509466348144997
aF0.023384319767501438
aF0.00036116096464411385
aF0.0036966144979260207
aF0.0019506851496657873
aF0.00977976769468114
aF0.0005762232948427481
aF0.0005834726237026189
aF0.000785946791211245
aF0.0009305587118433323
aF0.0
aF0.0005906377148221509
ag147
ag147
aF0.022108985781642332
aF0.028894913700924008
aF0.02226073986207666
aF0.0003193904300360373
aF0.0035121063756378135
aF0.0019502146123500097
aF0.002783450179663305
aF0.0005895921727869791
aF0.0007297060078599316
aF0.0006807086491562586
aF0.0009305587118433323
aF8.758971671340987e-05
aF0.000584126379862937
ag147
ag147
aF0.02351333813680867
aF0.02999927745372588
aF0.022950431788785863
aF0.00029230317318251764
aF0.003796232814124778
aF0.0019971149941397925
aF0.006169946958948458
aF0.0005597743114549303
aF0.0006893688638456297
aF0.0007050221504414367
aF0.0009305587118433323
aF8.758971671340987e-05
aF0.0006123212897364283
ag147
ag147
aF0.022636542938698767
aF0.02856141335951179
aF0.020991661884863788
aF0.00028909801767440513
aF0.003700614114563905
aF0.0019843111400064117
aF0.004122962602082225
aF0.0005542974150785085
aF0.0006777649488185489
aF0.0006672627689567889
aF0.0009305587118433323
aF8.758971671340987e-05
aF0.0005915705407915084
ag147
ag147
aF0.02474031813540023
aF0.031301613218147395
aF0.02440304933452353
aF0.0002657619348838125
aF0.0038700045361110824
aF0.0018267809737722018
aF0.006627130901961209
aF0.0006241485782538803
aF0.0009923648157155185
aF0.0007682711897132322
aF0.0009305587118433323
aF8.758971671340987e-05
aF0.0006643781136972393
ag147
ag147
aF0.022571329346192215
aF0.02680899223310007
aF0.021659732454054392
aF0.0003621723341211691
aF0.00401877283536578
aF0.0019644771129492256
aF0.006964405309645372
aF0.0005225256271614853
aF0.0005556659602916625
aF0.0006259042565943673
aF0.0009568671684974106
aF8.758971671340987e-05
aF0.0006344391724724119
ag147
ag147
aF0.02345235546999902
aF0.029829151827016176
aF0.022841369652724097
aF0.0003174485431145513
aF0.0037240464868091294
aF0.0017935690348735989
aF0.006223597414987125
aF0.0005375657086688079
aF0.0006513253184721179
aF0.0006786214541989466
aF0.0009305587118433323
aF8.758971671340987e-05
aF0.0005653605815041374
ag147
ag147
aF0.022989071278971096
aF0.02950713921586612
aF0.02205737327130919
aF0.00028360574083308165
aF0.0038753361319550095
aF0.0020005334600341484
aF0.0062034325416107094
aF0.000496746827707284
aF0.0006786590305409845
aF0.0006760633751810019
aF0.0009305587118433323
aF8.758971671340987e-05
aF0.0006058359697362903
ag147
ag147
aF0.023193211052330298
aF0.029227809730400622
aF0.022369740711155828
aF0.00028909801767440513
aF0.0037809778654036563
aF0.0019900186785548613
aF0.01124110351724994
aF0.0005597743114549303
aF0.0006841365826630863
aF0.0006916100497846855
aF0.0009305587118433323
aF8.758971671340987e-05
aF0.0006087269323415967
ag147
ag147
aF0.023193211052330298
aF0.029227809730400622
aF0.022369740711155828
aF0.00028909801767440513
aF0.0037809778654036563
aF0.0019900186785548613
aF0.01124110351724994
aF0.0005597743114549303
aF0.0006841365826630863
aF0.0006916100497846855
aF0.0009305587118433323
aF8.758971671340987e-05
aF0.0006087269323415967
ag147
ag147
atp217
ba(lp218
g15
(g16
(dp219
g18
g19
(g20
(I0
tp220
g22
tp221
Rp222
(I1
(I1
tp223
g29
I00
(lp224
g43
atp225
bsg68
Nstp226
Rp227
ag15
(g16
(dp228
g18
g19
(g20
(I0
tp229
g22
tp230
Rp231
(I1
(I33
tp232
g29
I00
(lp233
g33
ag34
ag35
ag36
ag37
ag38
ag39
ag40
ag41
ag42
ag44
ag45
ag46
ag47
ag48
ag49
ag50
ag51
ag52
ag53
ag54
ag55
ag56
ag57
ag58
ag59
ag60
ag61
ag62
ag63
ag64
ag65
ag66
atp234
bsg68
Nstp235
Rp236
a(dp237
S'0.14.1'
p238
(dp239
S'axes'
p240
g14
sS'blocks'
p241
(lp242
(dp243
S'mgr_locs'
p244
c__builtin__
slice
p245
(I10
I11
I1
tp246
Rp247
sS'values'
p248
g89
sa(dp249
g244
g19
(g20
(I0
tp250
g22
tp251
Rp252
(I1
(I33
tp253
g79
I00
S'\x00\x00\x00\x00\x00\x00\x00\x00\x01\x00\x00\x00\x00\x00\x00\x00\x02\x00\x00\x00\x00\x00\x00\x00\x03\x00\x00\x00\x00\x00\x00\x00\x04\x00\x00\x00\x00\x00\x00\x00\x05\x00\x00\x00\x00\x00\x00\x00\x06\x00\x00\x00\x00\x00\x00\x00\x07\x00\x00\x00\x00\x00\x00\x00\x08\x00\x00\x00\x00\x00\x00\x00\t\x00\x00\x00\x00\x00\x00\x00\x0b\x00\x00\x00\x00\x00\x00\x00\x0c\x00\x00\x00\x00\x00\x00\x00\r\x00\x00\x00\x00\x00\x00\x00\x0e\x00\x00\x00\x00\x00\x00\x00\x0f\x00\x00\x00\x00\x00\x00\x00\x10\x00\x00\x00\x00\x00\x00\x00\x11\x00\x00\x00\x00\x00\x00\x00\x12\x00\x00\x00\x00\x00\x00\x00\x13\x00\x00\x00\x00\x00\x00\x00\x14\x00\x00\x00\x00\x00\x00\x00\x15\x00\x00\x00\x00\x00\x00\x00\x16\x00\x00\x00\x00\x00\x00\x00\x17\x00\x00\x00\x00\x00\x00\x00\x18\x00\x00\x00\x00\x00\x00\x00\x19\x00\x00\x00\x00\x00\x00\x00\x1a\x00\x00\x00\x00\x00\x00\x00\x1b\x00\x00\x00\x00\x00\x00\x00\x1c\x00\x00\x00\x00\x00\x00\x00\x1d\x00\x00\x00\x00\x00\x00\x00\x1e\x00\x00\x00\x00\x00\x00\x00\x1f\x00\x00\x00\x00\x00\x00\x00 \x00\x00\x00\x00\x00\x00\x00!\x00\x00\x00\x00\x00\x00\x00'
p254
tp255
bsg248
g100
sasstp256
bsb.