ccopy_reg
_reconstructor
p0
(cpandas.core.frame
DataFrame
p1
c__builtin__
object
p2
Ntp3
Rp4
(dp5
S'_metadata'
p6
(lp7
sS'_typ'
p8
S'dataframe'
p9
sS'_data'
p10
g0
(cpandas.core.internals
BlockManager
p11
g2
Ntp12
Rp13
((lp14
cpandas.core.indexes.base
_new_Index
p15
(cpandas.core.indexes.base
Index
p16
(dp17
S'data'
p18
cnumpy.core.multiarray
_reconstruct
p19
(cnumpy
ndarray
p20
(I0
tp21
S'b'
p22
tp23
Rp24
(I1
(I32
tp25
cnumpy
dtype
p26
(S'O8'
p27
I0
I1
tp28
Rp29
(I3
S'|'
p30
NNNI-1
I-1
I63
tp31
bI00
(lp32
S'year'
p33
aS'type'
p34
aS'procOriginal'
p35
aS'proc'
p36
aS'proc_s0'
p37
aS'cat'
p38
aS'inputWSFile'
p39
aS'nominalDataName'
p40
aS'modelWSFile'
p41
aS'model'
p42
aS'rate'
p43
aS'nominal_yield'
p44
aS'sumw2'
p45
aS'nominal_yield_COWCorr'
p46
aS'LooseMvaSF_up_yield'
p47
aS'LooseMvaSF_down_yield'
p48
aS'PreselSF_up_yield'
p49
aS'PreselSF_down_yield'
p50
aS'electronVetoSF_up_yield'
p51
aS'electronVetoSF_down_yield'
p52
aS'TriggerWeight_up_yield'
p53
aS'TriggerWeight_down_yield'
p54
aS'SigmaEOverEShift_up_yield'
p55
aS'SigmaEOverEShift_down_yield'
p56
aS'MvaShift_up_yield'
p57
aS'MvaShift_down_yield'
p58
aS'PUJIDShift_up_yield'
p59
aS'PUJIDShift_down_yield'
p60
aS'JEC_up_yield'
p61
aS'JEC_down_yield'
p62
aS'JER_up_yield'
p63
aS'JER_down_yield'
p64
atp65
bsS'name'
p66
Nstp67
Rp68
ag15
(cpandas.core.indexes.numeric
Int64Index
p69
(dp70
g18
g19
(g20
(I0
tp71
g22
tp72
Rp73
(I1
(I15
tp74
g26
(S'i8'
p75
I0
I1
tp76
Rp77
(I3
S'<'
p78
NNNI-1
I-1
I0
tp79
bI00
S'\x00\x00\x00\x00\x00\x00\x00\x00\x01\x00\x00\x00\x00\x00\x00\x00\x02\x00\x00\x00\x00\x00\x00\x00\x03\x00\x00\x00\x00\x00\x00\x00\x04\x00\x00\x00\x00\x00\x00\x00\x05\x00\x00\x00\x00\x00\x00\x00\x06\x00\x00\x00\x00\x00\x00\x00\x07\x00\x00\x00\x00\x00\x00\x00\x08\x00\x00\x00\x00\x00\x00\x00\t\x00\x00\x00\x00\x00\x00\x00\n\x00\x00\x00\x00\x00\x00\x00\x0b\x00\x00\x00\x00\x00\x00\x00\x0c\x00\x00\x00\x00\x00\x00\x00\r\x00\x00\x00\x00\x00\x00\x00\x0e\x00\x00\x00\x00\x00\x00\x00'
p80
tp81
bsg66
Nstp82
Rp83
a(lp84
g19
(g20
(I0
tp85
g22
tp86
Rp87
(I1
(I1
I15
tp88
g26
(S'f8'
p89
I0
I1
tp90
Rp91
(I3
S'<'
p92
NNNI-1
I-1
I0
tp93
bI00
S'\x00\x00\x00\x00\x00\x10\xd3@\x00\x00\x00\x00\x00\x10\xd3@\x00\x00\x00\x00\x00\x10\xd3@\x00\x00\x00\x00\x00\x10\xd3@\x00\x00\x00\x00\x00\x10\xd3@\x00\x00\x00\x00\x00\x10\xd3@\x00\x00\x00\x00\x00\x10\xd3@\x00\x00\x00\x00\x00\x10\xd3@\x00\x00\x00\x00\x00\x10\xd3@\x00\x00\x00\x00\x00\x10\xd3@\x00\x00\x00\x00\x00\x10\xd3@\x00\x00\x00\x00\x00\x10\xd3@\x00\x00\x00\x00\x00\x10\xd3@\x00\x00\x00\x00\x00\x00\xf0?\x00\x00\x00\x00\x00\x00\xf0\xbf'
p94
tp95
bag19
(g20
(I0
tp96
g22
tp97
Rp98
(I1
(I31
I15
tp99
g29
I00
(lp100
S'2016preVFP'
p101
ag101
ag101
ag101
ag101
ag101
ag101
ag101
ag101
ag101
ag101
ag101
ag101
ag33
ag33
aS'sig'
p102
ag102
ag102
ag102
ag102
ag102
ag102
ag102
ag102
ag102
ag102
ag102
ag102
aS'bkg'
p103
ag18
aS'GG2HMf05ph0'
p104
aS'GG2HbsmM'
p105
aS'GG2Hsm'
p106
aS'TTHsm'
p107
aS'VBFMf05ph0'
p108
aS'VBFbsmM'
p109
aS'VBFsm'
p110
aS'WHMf05ph0'
p111
aS'WHbsmM'
p112
aS'WHsm'
p113
aS'ZHMf05ph0'
p114
aS'ZHbsmM'
p115
aS'ZHsm'
p116
aS'bkg_mass'
p117
aS'data_obs'
p118
aS'GG2HMf05ph0_2016preVFP_hgg'
p119
aS'GG2HbsmM_2016preVFP_hgg'
p120
aS'GG2Hsm_2016preVFP_hgg'
p121
aS'tth0P_2016preVFP_hgg'
p122
aS'vbf0Mf05ph0_2016preVFP_hgg'
p123
aS'vbf0M_2016preVFP_hgg'
p124
aS'vbf0P_2016preVFP_hgg'
p125
aS'wh0Mf05ph0_2016preVFP_hgg'
p126
aS'wh0M_2016preVFP_hgg'
p127
aS'wh0P_2016preVFP_hgg'
p128
aS'zh0Mf05ph0_2016preVFP_hgg'
p129
aS'zh0M_2016preVFP_hgg'
p130
aS'zh0P_2016preVFP_hgg'
p131
ag117
ag118
aS'jjh0Mf05ph0'
p132
aS'jjh0M'
p133
aS'jjh0P'
p134
aS'tth0P'
p135
aS'vbf0Mf05ph0'
p136
aS'vbf0M'
p137
aS'vbf0P'
p138
aS'wh0Mf05ph0'
p139
aS'wh0M'
p140
aS'wh0P'
p141
aS'zh0Mf05ph0'
p142
aS'zh0M'
p143
aS'zh0P'
p144
aS'-'
p145
ag145
aS'AC_Bin14_2016preVFP'
p146
aS'AC_Bin14_2016preVFP'
p147
aS'AC_Bin14_2016preVFP'
p148
aS'AC_Bin14_2016preVFP'
p149
aS'AC_Bin14_2016preVFP'
p150
aS'AC_Bin14_2016preVFP'
p151
aS'AC_Bin14_2016preVFP'
p152
aS'AC_Bin14_2016preVFP'
p153
aS'AC_Bin14_2016preVFP'
p154
aS'AC_Bin14_2016preVFP'
p155
aS'AC_Bin14_2016preVFP'
p156
aS'AC_Bin14_2016preVFP'
p157
aS'AC_Bin14_2016preVFP'
p158
aS'AC_Bin14_2016preVFP'
p159
ag159
aS'Trees/Opt_2016preVFP/2016PreVFP/Trees2WS_2016preVFP/WS/output_GluGluHToGGPlusTwoJets_MM_M125_TuneCP5_13TeV-amcatnlopowheg-minlo-pythia8_GG2HMf05ph0.root'
p160
aS'Trees/Opt_2016preVFP/2016PreVFP/Trees2WS_2016preVFP/WS/output_GluGluHToGGPlusTwoJets_CPodd_M125_TuneCP5_13TeV-amcatnlopowheg-minlo-pythia8_GG2HbsmM.root'
p161
aS'Trees/Opt_2016preVFP/2016PreVFP/Trees2WS_2016preVFP/WS/output_GluGluHToGGPlusTwoJets_SM_M125_TuneCP5_13TeV-amcatnlopowheg-minlo-pythia8_GG2Hsm.root'
p162
aS'Trees/Opt_2016preVFP/2016PreVFP/Trees2WS_2016preVFP/WS/output_ttHJetToGG_M125_TuneCP5_13TeV-amcatnloFXFX-madspin-pythia8_TTHsm.root'
p163
aS'Trees/Opt_2016preVFP/2016PreVFP/Trees2WS_2016preVFP/WS/output_VBFHiggs0Mf05ph0ToGG_M125_TuneCP5_13TeV-JHUGenV7011-pythia8_VBFMf05ph0.root'
p164
aS'Trees/Opt_2016preVFP/2016PreVFP/Trees2WS_2016preVFP/WS/output_VBFHiggs0MToGG_M125_TuneCP5_13TeV-JHUGenV7011-pythia8_VBFbsmM.root'
p165
aS'Trees/Opt_2016preVFP/2016PreVFP/Trees2WS_2016preVFP/WS/output_VBFHToGG_M125_TuneCP5_13TeV-amcatnlo-pythia8_VBFsm.root'
p166
aS'Trees/Opt_2016preVFP/2016PreVFP/Trees2WS_2016preVFP/WS/output_WHiggs0Mf05ph0ToGG_M125_TuneCP5_13TeV-JHUGenV7011-pythia8_WHMf05ph0.root'
p167
aS'Trees/Opt_2016preVFP/2016PreVFP/Trees2WS_2016preVFP/WS/output_WHiggs0MToGG_M125_TuneCP5_13TeV-JHUGenV7011-pythia8_WHbsmM.root'
p168
aS'Trees/Opt_2016preVFP/2016PreVFP/Trees2WS_2016preVFP/WS/output_WHiggs0PMToGG_M125_TuneCP5_13TeV-JHUGenV7011-pythia8_WHsm.root'
p169
aS'Trees/Opt_2016preVFP/2016PreVFP/Trees2WS_2016preVFP/WS/output_ZHiggs0Mf05ph0ToGG_M125_TuneCP5_13TeV-JHUGenV7011-pythia8_ZHMf05ph0.root'
p170
aS'Trees/Opt_2016preVFP/2016PreVFP/Trees2WS_2016preVFP/WS/output_ZHiggs0MToGG_M125_TuneCP5_13TeV-JHUGenV7011-pythia8_ZHbsmM.root'
p171
aS'Trees/Opt_2016preVFP/2016PreVFP/Trees2WS_2016preVFP/WS/output_ZH_HToGG_ZToAll_M125_TuneCP5_13TeV-powheg-pythia8_ZHsm.root'
p172
ag145
ag145
aS'jjh0Mf05ph0_125_13TeV_AC_Bin14'
p173
aS'jjh0M_125_13TeV_AC_Bin14'
p174
aS'jjh0P_125_13TeV_AC_Bin14'
p175
aS'tth0P_125_13TeV_AC_Bin14'
p176
aS'vbf0Mf05ph0_125_13TeV_AC_Bin14'
p177
aS'vbf0M_125_13TeV_AC_Bin14'
p178
aS'vbf0P_125_13TeV_AC_Bin14'
p179
aS'wh0Mf05ph0_125_13TeV_AC_Bin14'
p180
aS'wh0M_125_13TeV_AC_Bin14'
p181
aS'wh0P_125_13TeV_AC_Bin14'
p182
aS'zh0Mf05ph0_125_13TeV_AC_Bin14'
p183
aS'zh0M_125_13TeV_AC_Bin14'
p184
aS'zh0P_125_13TeV_AC_Bin14'
p185
ag145
ag145
aS'./Models/signal/CMS-HGG_sigfit_packaged_AC_Bin14_2016preVFP.root'
p186
aS'./Models/signal/CMS-HGG_sigfit_packaged_AC_Bin14_2016preVFP.root'
p187
aS'./Models/signal/CMS-HGG_sigfit_packaged_AC_Bin14_2016preVFP.root'
p188
aS'./Models/signal/CMS-HGG_sigfit_packaged_AC_Bin14_2016preVFP.root'
p189
aS'./Models/signal/CMS-HGG_sigfit_packaged_AC_Bin14_2016preVFP.root'
p190
aS'./Models/signal/CMS-HGG_sigfit_packaged_AC_Bin14_2016preVFP.root'
p191
aS'./Models/signal/CMS-HGG_sigfit_packaged_AC_Bin14_2016preVFP.root'
p192
aS'./Models/signal/CMS-HGG_sigfit_packaged_AC_Bin14_2016preVFP.root'
p193
aS'./Models/signal/CMS-HGG_sigfit_packaged_AC_Bin14_2016preVFP.root'
p194
aS'./Models/signal/CMS-HGG_sigfit_packaged_AC_Bin14_2016preVFP.root'
p195
aS'./Models/signal/CMS-HGG_sigfit_packaged_AC_Bin14_2016preVFP.root'
p196
aS'./Models/signal/CMS-HGG_sigfit_packaged_AC_Bin14_2016preVFP.root'
p197
aS'./Models/signal/CMS-HGG_sigfit_packaged_AC_Bin14_2016preVFP.root'
p198
aS'./Models/background/CMS-HGG_multipdf_AC_Bin14_2016preVFP.root'
p199
ag199
aS'wsig_13TeV:hggpdfsmrel_GG2HMf05ph0_2016preVFP_AC_Bin14_13TeV'
p200
aS'wsig_13TeV:hggpdfsmrel_GG2HbsmM_2016preVFP_AC_Bin14_13TeV'
p201
aS'wsig_13TeV:hggpdfsmrel_GG2Hsm_2016preVFP_AC_Bin14_13TeV'
p202
aS'wsig_13TeV:hggpdfsmrel_TTHsm_2016preVFP_AC_Bin14_13TeV'
p203
aS'wsig_13TeV:hggpdfsmrel_VBFMf05ph0_2016preVFP_AC_Bin14_13TeV'
p204
aS'wsig_13TeV:hggpdfsmrel_VBFbsmM_2016preVFP_AC_Bin14_13TeV'
p205
aS'wsig_13TeV:hggpdfsmrel_VBFsm_2016preVFP_AC_Bin14_13TeV'
p206
aS'wsig_13TeV:hggpdfsmrel_WHMf05ph0_2016preVFP_AC_Bin14_13TeV'
p207
aS'wsig_13TeV:hggpdfsmrel_WHbsmM_2016preVFP_AC_Bin14_13TeV'
p208
aS'wsig_13TeV:hggpdfsmrel_WHsm_2016preVFP_AC_Bin14_13TeV'
p209
aS'wsig_13TeV:hggpdfsmrel_ZHMf05ph0_2016preVFP_AC_Bin14_13TeV'
p210
aS'wsig_13TeV:hggpdfsmrel_ZHbsmM_2016preVFP_AC_Bin14_13TeV'
p211
aS'wsig_13TeV:hggpdfsmrel_ZHsm_2016preVFP_AC_Bin14_13TeV'
p212
aS'multipdf:CMS_hgg_AC_Bin14_2016preVFP_13TeV_bkgshape'
p213
aS'multipdf:roohist_data_mass_AC_Bin14'
p214
aF0.019963272646464247
aF0.015562710025960769
aF0.030912866994867727
aF0.005934346465892304
aF0.01749007882870046
aF0.010435639016236564
aF0.03583316528852265
aF0.0007034331756585743
aF0.0015235053114110997
aF0.0003733807715207149
aF0.0003025353689736221
aF0.00031591788138030097
aF0.0006367863982177369
ag145
ag145
aF5.6202892412994935e-06
aF1.7437813229226124e-06
aF3.7878898184763212e-06
aF5.813831467922853e-06
aF1.3275702779278292e-06
aF3.414079750796567e-07
aF1.5225916591761383e-05
aF1.3421228291428553e-08
aF5.366439164302019e-08
aF3.0953778852048205e-08
aF6.377065991907867e-08
aF5.974316774925854e-08
aF2.4776310154749583e-08
ag145
ag145
aF0.020390746001065246
aF0.0159282952038611
aF0.03160629482404612
aF0.006081679169365669
aF0.017881073352946877
aF0.01065880418880198
aF0.03658255083916869
aF0.0007443535624167702
aF0.0015556811741823254
aF0.00037833071755011873
aF0.0003091841778299593
aF0.0003228018324198565
aF0.0006495046603311776
ag145
ag145
aF0.020095857594365295
aF0.01566546085576256
aF0.031117909727773087
aF0.005974889782439911
aF0.017606363346121402
aF0.010505108701172671
aF0.036070856090993746
aF0.0007080674704091425
aF0.0015337156590928323
aF0.0003757519550714962
aF0.0003045956431089999
aF0.00031807215976933977
aF0.0006409993825046735
ag145
ag145
aF0.019831127256912807
aF0.015460297827364211
aF0.030708502868544044
aF0.005893941235687457
aF0.017374180028282643
aF0.010366400114173552
aF0.0355962607423353
aF0.0006988140945825605
aF0.00151332907723925
aF0.0003710171408973127
aF0.00030048207687373516
aF0.000313770919725141
aF0.0006325873048994112
ag145
ag145
aF0.020241492372569347
aF0.015803021729633576
aF0.03136606998496076
aF0.006013113191293303
aF0.017732602738533068
aF0.01058293983676476
aF0.03633227343178714
aF0.000714309902171586
aF0.0015449519107751824
aF0.00037723753628660485
aF0.00030626190328566946
aF0.0003196049757263051
aF0.0006462075451929441
ag145
ag145
aF0.01968709665730267
aF0.015324419524515806
aF0.030462977854592743
aF0.005856118240695496
aF0.01724924795916285
aF0.010289389507041695
aF0.0353376183779487
aF0.000692632435473928
aF0.0015022055223277233
aF0.0003695449469491949
aF0.00029883155573521956
aF0.00031225214932482025
aF0.0006274314106040076
ag145
ag145
aF0.019992242396428887
aF0.01558595814378385
aF0.030959774697761063
aF0.005940016195260912
aF0.017514847003947245
aF0.010449954351027716
aF0.03589081783201984
aF0.0007048972687498012
aF0.0015256012775681559
aF0.0003741336743964877
aF0.0003030176950692369
aF0.00031623463754336926
aF0.0006378097235811419
ag145
ag145
aF0.019934324094113304
aF0.015539480923136296
aF0.030865995850849495
aF0.005928678642014334
aF0.01746532842014842
aF0.010421333281580137
aF0.03577556695758253
aF0.0007019710557362935
aF0.0015214118767638354
aF0.0003726288023716427
aF0.00030205335366613077
aF0.0003156012460083922
aF0.0006357637372092851
ag145
ag145
aF0.020006085877041165
aF0.01559545799800765
aF0.03097961804760377
aF0.005948243630959681
aF0.01752739300632915
aF0.010457031044828376
aF0.035905252746572594
aF0.0007062155443398786
aF0.00152659932580779
aF0.00037413702225197405
aF0.00030317458669643126
aF0.00031655262509770504
aF0.0006380789461852706
ag145
ag145
aF0.01992050517158624
aF0.015529997079066105
aF0.030846188022318505
aF0.005920465588589433
aF0.01745280500221283
aF0.010414269239960798
aF0.03576115069089963
aF0.0007006551055016371
aF0.0015204144806222504
aF0.0003726252829426257
aF0.000301896852564803
aF0.0003152837779472474
aF0.0006354951661698666
ag145
ag145
aF0.019419698625370074
aF0.0152818034550819
aF0.03051035325279372
aF0.006597569155246674
aF0.017296807353204713
aF0.010406293730511607
aF0.03542183543845567
aF0.0007034331756585743
aF0.0015140090844170118
aF0.0003733807715207149
aF0.0003025353689736221
aF0.00031591788138030097
aF0.0006367863982177369
ag145
ag145
aF0.0204151214270496
aF0.01588924573593431
aF0.03121834859575756
aF0.0058666215716129955
aF0.017645524738668428
aF0.01053283280202777
aF0.03598093445293671
aF0.0007056679958168388
aF0.0015299933244250497
aF0.00038679153556131496
aF0.0003025353689736221
aF0.0007801037500030361
aF0.0006367863982177369
ag145
ag145
aF0.020394960055455158
aF0.01578930491200481
aF0.031494970826997815
aF0.00602656974558613
aF0.017636557352147975
aF0.010566811383569075
aF0.03690199469679101
aF0.0007047773917747691
aF0.001536120672085417
aF0.0003733807715207149
aF0.0003025353689736221
aF0.00031591788138030097
aF0.0006367863982177369
ag145
ag145
aF0.01939802043648342
aF0.015224411639565005
aF0.03036088483804633
aF0.005798534713107983
aF0.017153443295796933
aF0.010322425148956427
aF0.03579711141833286
aF0.0007047773917747691
aF0.0015131648231090367
aF0.000370511195455947
aF0.0002761691212072037
aF0.00031591788138030097
aF0.0006367863982177369
ag145
ag145
aF0.02051532757673158
aF0.016361631468726046
aF0.031076879270358404
aF0.005934346465892304
aF0.01754568400053813
aF0.010479476138698374
aF0.03600500363518222
aF0.000691630523533604
aF0.0015459335494369952
aF0.0003852301714459827
aF0.0003025353689736221
aF0.00031591788138030097
aF0.0006367863982177369
ag145
ag145
aF0.01984936860230846
aF0.01515768479862345
aF0.03043311892974998
aF0.005934346465892304
aF0.01726742269056558
aF0.01041077926959133
aF0.03515191324936495
aF0.0006925944330760103
aF0.0015037156252901696
aF0.0003733807715207149
aF0.0003025353689736221
aF0.00031591788138030097
aF0.000626354656787953
ag145
ag145
aF0.021216710319095
aF0.016154717437530053
aF0.03236220606322604
aF0.006036144548716038
aF0.017654930670005342
aF0.010672734482000124
aF0.036088029798293064
aF0.0007977670451282393
aF0.001652540555255655
aF0.00030952858764976554
aF0.0003025353689736221
aF0.00031591788138030097
aF0.0006679231248654105
ag145
ag145
aF0.01905282657889984
aF0.014983929952450126
aF0.029486726385584916
aF0.0058216320403516875
aF0.017323565341143876
aF0.009972908559575444
aF0.03440464707909996
aF0.0006293429950119389
aF0.0012769992780476969
aF0.0003683802320892937
aF0.0003025353689736221
aF0.00031591788138030097
aF0.0006338684447655396
ag145
ag145
aF0.020245595559117646
aF0.015786747106858456
aF0.031166369731181476
aF0.005886441120310337
aF0.01748433639738778
aF0.010443723056141607
aF0.03608516241047255
aF0.0007005821270240631
aF0.0017005646174084177
aF0.0003084310773147081
aF0.0003025353689736221
aF0.00031591788138030097
aF0.000642481362547187
ag145
ag145
aF0.019817853722315704
aF0.015141680546321368
aF0.031012191477202578
aF0.005918981644640553
aF0.017487187245137648
aF0.01042145817382334
aF0.03538475906066196
aF0.0006893471913826943
aF0.0014233274013122355
aF0.0003753219824602638
aF0.0003025353689736221
aF0.00031591788138030097
aF0.000645350501372377
ag145
ag145
atp215
ba(lp216
g15
(g16
(dp217
g18
g19
(g20
(I0
tp218
g22
tp219
Rp220
(I1
(I1
tp221
g29
I00
(lp222
g43
atp223
bsg66
Nstp224
Rp225
ag15
(g16
(dp226
g18
g19
(g20
(I0
tp227
g22
tp228
Rp229
(I1
(I31
tp230
g29
I00
(lp231
g33
ag34
ag35
ag36
ag37
ag38
ag39
ag40
ag41
ag42
ag44
ag45
ag46
ag47
ag48
ag49
ag50
ag51
ag52
ag53
ag54
ag55
ag56
ag57
ag58
ag59
ag60
ag61
ag62
ag63
ag64
atp232
bsg66
Nstp233
Rp234
a(dp235
S'0.14.1'
p236
(dp237
S'axes'
p238
g14
sS'blocks'
p239
(lp240
(dp241
S'mgr_locs'
p242
c__builtin__
slice
p243
(I10
I11
I1
tp244
Rp245
sS'values'
p246
g87
sa(dp247
g242
g19
(g20
(I0
tp248
g22
tp249
Rp250
(I1
(I31
tp251
g77
I00
S'\x00\x00\x00\x00\x00\x00\x00\x00\x01\x00\x00\x00\x00\x00\x00\x00\x02\x00\x00\x00\x00\x00\x00\x00\x03\x00\x00\x00\x00\x00\x00\x00\x04\x00\x00\x00\x00\x00\x00\x00\x05\x00\x00\x00\x00\x00\x00\x00\x06\x00\x00\x00\x00\x00\x00\x00\x07\x00\x00\x00\x00\x00\x00\x00\x08\x00\x00\x00\x00\x00\x00\x00\t\x00\x00\x00\x00\x00\x00\x00\x0b\x00\x00\x00\x00\x00\x00\x00\x0c\x00\x00\x00\x00\x00\x00\x00\r\x00\x00\x00\x00\x00\x00\x00\x0e\x00\x00\x00\x00\x00\x00\x00\x0f\x00\x00\x00\x00\x00\x00\x00\x10\x00\x00\x00\x00\x00\x00\x00\x11\x00\x00\x00\x00\x00\x00\x00\x12\x00\x00\x00\x00\x00\x00\x00\x13\x00\x00\x00\x00\x00\x00\x00\x14\x00\x00\x00\x00\x00\x00\x00\x15\x00\x00\x00\x00\x00\x00\x00\x16\x00\x00\x00\x00\x00\x00\x00\x17\x00\x00\x00\x00\x00\x00\x00\x18\x00\x00\x00\x00\x00\x00\x00\x19\x00\x00\x00\x00\x00\x00\x00\x1a\x00\x00\x00\x00\x00\x00\x00\x1b\x00\x00\x00\x00\x00\x00\x00\x1c\x00\x00\x00\x00\x00\x00\x00\x1d\x00\x00\x00\x00\x00\x00\x00\x1e\x00\x00\x00\x00\x00\x00\x00\x1f\x00\x00\x00\x00\x00\x00\x00'
p252
tp253
bsg246
g98
sasstp254
bsb.