ccopy_reg
_reconstructor
p0
(cpandas.core.frame
DataFrame
p1
c__builtin__
object
p2
Ntp3
Rp4
(dp5
S'_metadata'
p6
(lp7
sS'_typ'
p8
S'dataframe'
p9
sS'_data'
p10
g0
(cpandas.core.internals
BlockManager
p11
g2
Ntp12
Rp13
((lp14
cpandas.core.indexes.base
_new_Index
p15
(cpandas.core.indexes.base
Index
p16
(dp17
S'data'
p18
cnumpy.core.multiarray
_reconstruct
p19
(cnumpy
ndarray
p20
(I0
tp21
S'b'
p22
tp23
Rp24
(I1
(I34
tp25
cnumpy
dtype
p26
(S'O8'
p27
I0
I1
tp28
Rp29
(I3
S'|'
p30
NNNI-1
I-1
I63
tp31
bI00
(lp32
S'year'
p33
aS'type'
p34
aS'procOriginal'
p35
aS'proc'
p36
aS'proc_s0'
p37
aS'cat'
p38
aS'inputWSFile'
p39
aS'nominalDataName'
p40
aS'modelWSFile'
p41
aS'model'
p42
aS'rate'
p43
aS'nominal_yield'
p44
aS'sumw2'
p45
aS'nominal_yield_COWCorr'
p46
aS'LooseMvaSF_up_yield'
p47
aS'LooseMvaSF_down_yield'
p48
aS'PreselSF_up_yield'
p49
aS'PreselSF_down_yield'
p50
aS'electronVetoSF_up_yield'
p51
aS'electronVetoSF_down_yield'
p52
aS'TriggerWeight_up_yield'
p53
aS'TriggerWeight_down_yield'
p54
aS'SigmaEOverEShift_up_yield'
p55
aS'SigmaEOverEShift_down_yield'
p56
aS'MvaShift_up_yield'
p57
aS'MvaShift_down_yield'
p58
aS'PUJIDShift_up_yield'
p59
aS'PUJIDShift_down_yield'
p60
aS'JEC_up_yield'
p61
aS'JEC_down_yield'
p62
aS'JER_up_yield'
p63
aS'JER_down_yield'
p64
aS'JetHEM_up_yield'
p65
aS'JetHEM_down_yield'
p66
atp67
bsS'name'
p68
Nstp69
Rp70
ag15
(cpandas.core.indexes.numeric
Int64Index
p71
(dp72
g18
g19
(g20
(I0
tp73
g22
tp74
Rp75
(I1
(I15
tp76
g26
(S'i8'
p77
I0
I1
tp78
Rp79
(I3
S'<'
p80
NNNI-1
I-1
I0
tp81
bI00
S'\x00\x00\x00\x00\x00\x00\x00\x00\x01\x00\x00\x00\x00\x00\x00\x00\x02\x00\x00\x00\x00\x00\x00\x00\x03\x00\x00\x00\x00\x00\x00\x00\x04\x00\x00\x00\x00\x00\x00\x00\x05\x00\x00\x00\x00\x00\x00\x00\x06\x00\x00\x00\x00\x00\x00\x00\x07\x00\x00\x00\x00\x00\x00\x00\x08\x00\x00\x00\x00\x00\x00\x00\t\x00\x00\x00\x00\x00\x00\x00\n\x00\x00\x00\x00\x00\x00\x00\x0b\x00\x00\x00\x00\x00\x00\x00\x0c\x00\x00\x00\x00\x00\x00\x00\r\x00\x00\x00\x00\x00\x00\x00\x0e\x00\x00\x00\x00\x00\x00\x00'
p82
tp83
bsg68
Nstp84
Rp85
a(lp86
g19
(g20
(I0
tp87
g22
tp88
Rp89
(I1
(I1
I15
tp90
g26
(S'f8'
p91
I0
I1
tp92
Rp93
(I3
S'<'
p94
NNNI-1
I-1
I0
tp95
bI00
S'\x00\x00\x00\x00\x00\x10\xd3@\x00\x00\x00\x00\x00\x10\xd3@\x00\x00\x00\x00\x00\x10\xd3@\x00\x00\x00\x00\x00\x10\xd3@\x00\x00\x00\x00\x00\x10\xd3@\x00\x00\x00\x00\x00\x10\xd3@\x00\x00\x00\x00\x00\x10\xd3@\x00\x00\x00\x00\x00\x10\xd3@\x00\x00\x00\x00\x00\x10\xd3@\x00\x00\x00\x00\x00\x10\xd3@\x00\x00\x00\x00\x00\x10\xd3@\x00\x00\x00\x00\x00\x10\xd3@\x00\x00\x00\x00\x00\x10\xd3@\x00\x00\x00\x00\x00\x00\xf0?\x00\x00\x00\x00\x00\x00\xf0\xbf'
p96
tp97
bag19
(g20
(I0
tp98
g22
tp99
Rp100
(I1
(I33
I15
tp101
g29
I00
(lp102
S'2016preVFP'
p103
ag103
ag103
ag103
ag103
ag103
ag103
ag103
ag103
ag103
ag103
ag103
ag103
ag33
ag33
aS'sig'
p104
ag104
ag104
ag104
ag104
ag104
ag104
ag104
ag104
ag104
ag104
ag104
ag104
aS'bkg'
p105
ag18
aS'GG2HMf05ph0'
p106
aS'GG2HbsmM'
p107
aS'GG2Hsm'
p108
aS'TTHsm'
p109
aS'VBFMf05ph0'
p110
aS'VBFbsmM'
p111
aS'VBFsm'
p112
aS'WHMf05ph0'
p113
aS'WHbsmM'
p114
aS'WHsm'
p115
aS'ZHMf05ph0'
p116
aS'ZHbsmM'
p117
aS'ZHsm'
p118
aS'bkg_mass'
p119
aS'data_obs'
p120
aS'GG2HMf05ph0_2016preVFP_hgg'
p121
aS'GG2HbsmM_2016preVFP_hgg'
p122
aS'GG2Hsm_2016preVFP_hgg'
p123
aS'tth0P_2016preVFP_hgg'
p124
aS'vbf0Mf05ph0_2016preVFP_hgg'
p125
aS'vbf0M_2016preVFP_hgg'
p126
aS'vbf0P_2016preVFP_hgg'
p127
aS'wh0Mf05ph0_2016preVFP_hgg'
p128
aS'wh0M_2016preVFP_hgg'
p129
aS'wh0P_2016preVFP_hgg'
p130
aS'zh0Mf05ph0_2016preVFP_hgg'
p131
aS'zh0M_2016preVFP_hgg'
p132
aS'zh0P_2016preVFP_hgg'
p133
ag119
ag120
aS'jjh0Mf05ph0'
p134
aS'jjh0M'
p135
aS'jjh0P'
p136
aS'tth0P'
p137
aS'vbf0Mf05ph0'
p138
aS'vbf0M'
p139
aS'vbf0P'
p140
aS'wh0Mf05ph0'
p141
aS'wh0M'
p142
aS'wh0P'
p143
aS'zh0Mf05ph0'
p144
aS'zh0M'
p145
aS'zh0P'
p146
aS'-'
p147
ag147
aS'AC_Bin23_2016preVFP'
p148
aS'AC_Bin23_2016preVFP'
p149
aS'AC_Bin23_2016preVFP'
p150
aS'AC_Bin23_2016preVFP'
p151
aS'AC_Bin23_2016preVFP'
p152
aS'AC_Bin23_2016preVFP'
p153
aS'AC_Bin23_2016preVFP'
p154
aS'AC_Bin23_2016preVFP'
p155
aS'AC_Bin23_2016preVFP'
p156
aS'AC_Bin23_2016preVFP'
p157
aS'AC_Bin23_2016preVFP'
p158
aS'AC_Bin23_2016preVFP'
p159
aS'AC_Bin23_2016preVFP'
p160
aS'AC_Bin23_2016preVFP'
p161
ag161
aS'Trees/Opt_2016preVFP/2016PreVFP/Trees2WS_2016preVFP/WS/output_GluGluHToGGPlusTwoJets_MM_M125_TuneCP5_13TeV-amcatnlopowheg-minlo-pythia8_GG2HMf05ph0.root'
p162
aS'Trees/Opt_2016preVFP/2016PreVFP/Trees2WS_2016preVFP/WS/output_GluGluHToGGPlusTwoJets_CPodd_M125_TuneCP5_13TeV-amcatnlopowheg-minlo-pythia8_GG2HbsmM.root'
p163
aS'Trees/Opt_2016preVFP/2016PreVFP/Trees2WS_2016preVFP/WS/output_GluGluHToGGPlusTwoJets_SM_M125_TuneCP5_13TeV-amcatnlopowheg-minlo-pythia8_GG2Hsm.root'
p164
aS'Trees/Opt_2016preVFP/2016PreVFP/Trees2WS_2016preVFP/WS/output_ttHJetToGG_M125_TuneCP5_13TeV-amcatnloFXFX-madspin-pythia8_TTHsm.root'
p165
aS'Trees/Opt_2016preVFP/2016PreVFP/Trees2WS_2016preVFP/WS/output_VBFHiggs0Mf05ph0ToGG_M125_TuneCP5_13TeV-JHUGenV7011-pythia8_VBFMf05ph0.root'
p166
aS'Trees/Opt_2016preVFP/2016PreVFP/Trees2WS_2016preVFP/WS/output_VBFHiggs0MToGG_M125_TuneCP5_13TeV-JHUGenV7011-pythia8_VBFbsmM.root'
p167
aS'Trees/Opt_2016preVFP/2016PreVFP/Trees2WS_2016preVFP/WS/output_VBFHToGG_M125_TuneCP5_13TeV-amcatnlo-pythia8_VBFsm.root'
p168
aS'Trees/Opt_2016preVFP/2016PreVFP/Trees2WS_2016preVFP/WS/output_WHiggs0Mf05ph0ToGG_M125_TuneCP5_13TeV-JHUGenV7011-pythia8_WHMf05ph0.root'
p169
aS'Trees/Opt_2016preVFP/2016PreVFP/Trees2WS_2016preVFP/WS/output_WHiggs0MToGG_M125_TuneCP5_13TeV-JHUGenV7011-pythia8_WHbsmM.root'
p170
aS'Trees/Opt_2016preVFP/2016PreVFP/Trees2WS_2016preVFP/WS/output_WHiggs0PMToGG_M125_TuneCP5_13TeV-JHUGenV7011-pythia8_WHsm.root'
p171
aS'Trees/Opt_2016preVFP/2016PreVFP/Trees2WS_2016preVFP/WS/output_ZHiggs0Mf05ph0ToGG_M125_TuneCP5_13TeV-JHUGenV7011-pythia8_ZHMf05ph0.root'
p172
aS'Trees/Opt_2016preVFP/2016PreVFP/Trees2WS_2016preVFP/WS/output_ZHiggs0MToGG_M125_TuneCP5_13TeV-JHUGenV7011-pythia8_ZHbsmM.root'
p173
aS'Trees/Opt_2016preVFP/2016PreVFP/Trees2WS_2016preVFP/WS/output_ZH_HToGG_ZToAll_M125_TuneCP5_13TeV-powheg-pythia8_ZHsm.root'
p174
ag147
ag147
aS'jjh0Mf05ph0_125_13TeV_AC_Bin23'
p175
aS'jjh0M_125_13TeV_AC_Bin23'
p176
aS'jjh0P_125_13TeV_AC_Bin23'
p177
aS'tth0P_125_13TeV_AC_Bin23'
p178
aS'vbf0Mf05ph0_125_13TeV_AC_Bin23'
p179
aS'vbf0M_125_13TeV_AC_Bin23'
p180
aS'vbf0P_125_13TeV_AC_Bin23'
p181
aS'wh0Mf05ph0_125_13TeV_AC_Bin23'
p182
aS'wh0M_125_13TeV_AC_Bin23'
p183
aS'wh0P_125_13TeV_AC_Bin23'
p184
aS'zh0Mf05ph0_125_13TeV_AC_Bin23'
p185
aS'zh0M_125_13TeV_AC_Bin23'
p186
aS'zh0P_125_13TeV_AC_Bin23'
p187
ag147
ag147
aS'./Models/signal/CMS-HGG_sigfit_packaged_AC_Bin23_2016preVFP.root'
p188
aS'./Models/signal/CMS-HGG_sigfit_packaged_AC_Bin23_2016preVFP.root'
p189
aS'./Models/signal/CMS-HGG_sigfit_packaged_AC_Bin23_2016preVFP.root'
p190
aS'./Models/signal/CMS-HGG_sigfit_packaged_AC_Bin23_2016preVFP.root'
p191
aS'./Models/signal/CMS-HGG_sigfit_packaged_AC_Bin23_2016preVFP.root'
p192
aS'./Models/signal/CMS-HGG_sigfit_packaged_AC_Bin23_2016preVFP.root'
p193
aS'./Models/signal/CMS-HGG_sigfit_packaged_AC_Bin23_2016preVFP.root'
p194
aS'./Models/signal/CMS-HGG_sigfit_packaged_AC_Bin23_2016preVFP.root'
p195
aS'./Models/signal/CMS-HGG_sigfit_packaged_AC_Bin23_2016preVFP.root'
p196
aS'./Models/signal/CMS-HGG_sigfit_packaged_AC_Bin23_2016preVFP.root'
p197
aS'./Models/signal/CMS-HGG_sigfit_packaged_AC_Bin23_2016preVFP.root'
p198
aS'./Models/signal/CMS-HGG_sigfit_packaged_AC_Bin23_2016preVFP.root'
p199
aS'./Models/signal/CMS-HGG_sigfit_packaged_AC_Bin23_2016preVFP.root'
p200
aS'./Models/background/CMS-HGG_multipdf_AC_Bin23_2016preVFP.root'
p201
ag201
aS'wsig_13TeV:hggpdfsmrel_GG2HMf05ph0_2016preVFP_AC_Bin23_13TeV'
p202
aS'wsig_13TeV:hggpdfsmrel_GG2HbsmM_2016preVFP_AC_Bin23_13TeV'
p203
aS'wsig_13TeV:hggpdfsmrel_GG2Hsm_2016preVFP_AC_Bin23_13TeV'
p204
aS'wsig_13TeV:hggpdfsmrel_TTHsm_2016preVFP_AC_Bin23_13TeV'
p205
aS'wsig_13TeV:hggpdfsmrel_VBFMf05ph0_2016preVFP_AC_Bin23_13TeV'
p206
aS'wsig_13TeV:hggpdfsmrel_VBFbsmM_2016preVFP_AC_Bin23_13TeV'
p207
aS'wsig_13TeV:hggpdfsmrel_VBFsm_2016preVFP_AC_Bin23_13TeV'
p208
aS'wsig_13TeV:hggpdfsmrel_WHMf05ph0_2016preVFP_AC_Bin23_13TeV'
p209
aS'wsig_13TeV:hggpdfsmrel_WHbsmM_2016preVFP_AC_Bin23_13TeV'
p210
aS'wsig_13TeV:hggpdfsmrel_WHsm_2016preVFP_AC_Bin23_13TeV'
p211
aS'wsig_13TeV:hggpdfsmrel_ZHMf05ph0_2016preVFP_AC_Bin23_13TeV'
p212
aS'wsig_13TeV:hggpdfsmrel_ZHbsmM_2016preVFP_AC_Bin23_13TeV'
p213
aS'wsig_13TeV:hggpdfsmrel_ZHsm_2016preVFP_AC_Bin23_13TeV'
p214
aS'multipdf:CMS_hgg_AC_Bin23_2016preVFP_13TeV_bkgshape'
p215
aS'multipdf:roohist_data_mass_AC_Bin23'
p216
aF0.07478564627717788
aF0.06307027302364077
aF0.0838312060473072
aF0.004520676352569808
aF0.012438613944482313
aF0.0045989926280753934
aF0.0259363108210664
aF0.0021282222276113316
aF0.0018725371389223255
aF0.0027477378313278678
aF0.0006175128473842051
aF0.00044436372991185635
aF0.0021768494025309337
ag147
ag147
aF1.7577087264384955e-05
aF5.228678796577734e-05
aF0.0001263297747037106
aF1.441613695720383e-06
aF2.38394003602386e-06
aF2.9000398236018797e-07
aF9.100089743918254e-06
aF8.068233354772121e-08
aF4.1195545147844625e-07
aF7.972537321564465e-08
aF4.79401250668042e-08
aF1.0666063101562489e-07
aF6.608936091012046e-08
ag147
ag147
aF0.0767128114846998
aF0.06396858098043996
aF0.08639023932900491
aF0.004631764112706731
aF0.012727330274071523
aF0.004738113129844942
aF0.026562111912795155
aF0.0021807687902251657
aF0.0019153439684327109
aF0.0028376151468430793
aF0.0006315059857407295
aF0.00045525727623969397
aF0.002237833713676602
ag147
ag147
aF0.07527166969518563
aF0.06348360233280492
aF0.0843717180119877
aF0.004550354851875918
aF0.012518629258234411
aF0.004628567286358883
aF0.026104033914817443
aF0.0021419643060951623
aF0.0018848035790393425
aF0.002765605204190751
aF0.000621453414650868
aF0.00044712350779734693
aF0.0021907812289365387
ag147
ag147
aF0.07430119849530542
aF0.06265829556803505
aF0.083292430311074
aF0.0044910950959144835
aF0.012358855425715817
aF0.004569512843115059
aF0.02576912967362583
aF0.0021145243825750957
aF0.0018603107212229488
aF0.0027299284960773827
aF0.0006135847761252559
aF0.0004416124889038373
aF0.002162962165267797
ag147
ag147
aF0.0761146561443358
aF0.06409504257893928
aF0.08548238938800999
aF0.004603361007077887
aF0.012638041320049281
aF0.004672125082075436
aF0.02634920082211094
aF0.0021660765395554683
aF0.0019052780036978476
aF0.0027888564489589856
aF0.0006287888804062863
aF0.00045230858298986933
aF0.0022143638570827134
ag147
ag147
aF0.07346773779359692
aF0.0620540425539347
aF0.08219389746706075
aF0.004438816374979651
aF0.012240745757566411
aF0.004526442824661299
aF0.025526586328587883
aF0.0020906671986962878
aF0.001840054334090624
aF0.00270695364064181
aF0.0006063256513020907
aF0.000436537746793977
aF0.0021397171334615146
ag147
ag147
aF0.0749187498220614
aF0.06317208528325562
aF0.08398502079293799
aF0.004530194682645676
aF0.012462064730293257
aF0.004608327501608602
aF0.025983592755708593
aF0.002132012473071475
aF0.001880293715016744
aF0.0027528075523086323
aF0.0006186604548695196
aF0.00044535351413414715
aF0.0021812168926975788
ag147
ag147
aF0.07465265494785275
aF0.0629685458627003
aF0.08367752852806756
aF0.004511165764435184
aF0.012415184977731981
aF0.004589666341825787
aF0.025889073170387848
aF0.0021244353639206536
aF0.0018647880579701016
aF0.002742673730550857
aF0.0006163660415415244
aF0.00044337486478178683
aF0.002172486385015186
ag147
ag147
aF0.07495011081573616
aF0.06321444074456313
aF0.08400977158659079
aF0.004530847128527033
aF0.012465111820200341
aF0.004611037124046582
aF0.025993118663835673
aF0.0021326370849310554
aF0.0018763597413773891
aF0.0027546096714429406
aF0.000618794143286455
aF0.00044526494877247856
aF0.0021819517355242857
ag147
ag147
aF0.07462136335725937
aF0.06292628468687994
aF0.08365283310453958
aF0.004510516987795276
aF0.01241214452003702
aF0.0045869630886949545
aF0.025879567951715886
aF0.0021238120192728664
aF0.0018687184779025833
aF0.002740874515634862
aF0.0006162329061290887
aF0.0004434634262204761
aF0.0021717530057751523
ag147
ag147
aF0.07455219664802826
aF0.06319514761207756
aF0.0833318207476168
aF0.004639336938737415
aF0.012809606477844682
aF0.004568668975593937
aF0.02107864235267698
aF0.002133494880467879
aF0.0018779225983394099
aF0.0028285267046612717
aF0.0005222390282142442
aF0.00044436372991185635
aF0.0021985082130413502
ag147
ag147
aF0.07764315982944936
aF0.0633473627008243
aF0.08425905740591588
aF0.004395565911693211
aF0.012369758517820628
aF0.0044759228877637725
aF0.021432462476695946
aF0.0021174162336592417
aF0.001872134541770265
aF0.00275173325724154
aF0.0005322389006323647
aF0.00044436372991185635
aF0.0022303466039375053
ag147
ag147
aF0.07709778420985458
aF0.06479199781938405
aF0.08950535988583397
aF0.00420574279593211
aF0.012732995035435124
aF0.004693065958463194
aF0.022159954659628056
aF0.0022252996124052515
aF0.0020457303259604487
aF0.002786785069929465
aF0.0006175128473842051
aF0.0004809381571249105
aF0.002313872728791466
ag147
ag147
aF0.07341936321108733
aF0.06152321192962518
aF0.08164019367495712
aF0.004214824529810812
aF0.012187218044687143
aF0.004487917225446836
aF0.02460558242614752
aF0.0020738202854317933
aF0.001836465901703832
aF0.002655613736237683
aF0.0005222390282142442
aF0.00044436372991185635
aF0.002025619609412388
ag147
ag147
aF0.07641362004142138
aF0.06390031768933113
aF0.0850508641108263
aF0.004591776159429628
aF0.012549636483868198
aF0.00460952501509837
aF0.02284768350250488
aF0.0021571079013256167
aF0.0018765598665027028
aF0.002755100570425384
aF0.0006783614226151258
aF0.00044436372991185635
aF0.002196057529090467
ag147
ag147
aF0.07380318796413121
aF0.061821846547672976
aF0.08151458062707206
aF0.004509428205949462
aF0.010919344959688715
aF0.004593220603851478
aF0.021199543106604324
aF0.0021266693059942554
aF0.0018539407701041455
aF0.0027190413926518886
aF0.0006175128473842051
aF0.00044436372991185635
aF0.002136771834557294
ag147
ag147
aF0.07895022289812914
aF0.06713625243628485
aF0.08769872416814906
aF0.0045225700415016945
aF0.013276236191245516
aF0.004575331207320232
aF0.02438724923672453
aF0.0021737540256481225
aF0.0013619349303439776
aF0.002902503769632858
aF0.0007492696422559675
aF0.0005787658883491531
aF0.002341929351359795
ag147
ag147
aF0.07121517020664214
aF0.060037541768451774
aF0.07876817207807107
aF0.004540043986082765
aF0.012232354511070298
aF0.004601784110604967
aF0.024635869124722376
aF0.0019053922208058793
aF0.0017560431609240368
aF0.002399493830694155
aF0.0006506979952973779
aF0.0004942911982652731
aF0.0020340025639598025
ag147
ag147
aF0.076393473273356
aF0.06337656581399642
aF0.08427243524738515
aF0.004540484322376415
aF0.012462545731182217
aF0.004605513966680519
aF0.02167414235873366
aF0.002031749557204421
aF0.0018418947760778792
aF0.0027494555783960095
aF0.0007235544362629298
aF0.00044436372991185635
aF0.002143267091241796
ag147
ag147
aF0.07393707417327278
aF0.06339944148203358
aF0.08278769869161806
aF0.004484133566108994
aF0.012372984149692456
aF0.004716862862778726
aF0.02509267128061765
aF0.0021236382165170653
aF0.0018735153906277446
aF0.002648070575332895
aF0.0006175128473842051
aF0.00044436372991185635
aF0.002171273010844743
ag147
ag147
aF0.07478564627717788
aF0.06307027302364077
aF0.0838312060473072
aF0.004520676352569808
aF0.012438613944482313
aF0.0045989926280753934
aF0.0259363108210664
aF0.0021282222276113316
aF0.0018725371389223255
aF0.0027477378313278678
aF0.0006175128473842051
aF0.00044436372991185635
aF0.0021768494025309337
ag147
ag147
aF0.07478564627717788
aF0.06307027302364077
aF0.0838312060473072
aF0.004520676352569808
aF0.012438613944482313
aF0.0045989926280753934
aF0.0259363108210664
aF0.0021282222276113316
aF0.0018725371389223255
aF0.0027477378313278678
aF0.0006175128473842051
aF0.00044436372991185635
aF0.0021768494025309337
ag147
ag147
atp217
ba(lp218
g15
(g16
(dp219
g18
g19
(g20
(I0
tp220
g22
tp221
Rp222
(I1
(I1
tp223
g29
I00
(lp224
g43
atp225
bsg68
Nstp226
Rp227
ag15
(g16
(dp228
g18
g19
(g20
(I0
tp229
g22
tp230
Rp231
(I1
(I33
tp232
g29
I00
(lp233
g33
ag34
ag35
ag36
ag37
ag38
ag39
ag40
ag41
ag42
ag44
ag45
ag46
ag47
ag48
ag49
ag50
ag51
ag52
ag53
ag54
ag55
ag56
ag57
ag58
ag59
ag60
ag61
ag62
ag63
ag64
ag65
ag66
atp234
bsg68
Nstp235
Rp236
a(dp237
S'0.14.1'
p238
(dp239
S'axes'
p240
g14
sS'blocks'
p241
(lp242
(dp243
S'mgr_locs'
p244
c__builtin__
slice
p245
(I10
I11
I1
tp246
Rp247
sS'values'
p248
g89
sa(dp249
g244
g19
(g20
(I0
tp250
g22
tp251
Rp252
(I1
(I33
tp253
g79
I00
S'\x00\x00\x00\x00\x00\x00\x00\x00\x01\x00\x00\x00\x00\x00\x00\x00\x02\x00\x00\x00\x00\x00\x00\x00\x03\x00\x00\x00\x00\x00\x00\x00\x04\x00\x00\x00\x00\x00\x00\x00\x05\x00\x00\x00\x00\x00\x00\x00\x06\x00\x00\x00\x00\x00\x00\x00\x07\x00\x00\x00\x00\x00\x00\x00\x08\x00\x00\x00\x00\x00\x00\x00\t\x00\x00\x00\x00\x00\x00\x00\x0b\x00\x00\x00\x00\x00\x00\x00\x0c\x00\x00\x00\x00\x00\x00\x00\r\x00\x00\x00\x00\x00\x00\x00\x0e\x00\x00\x00\x00\x00\x00\x00\x0f\x00\x00\x00\x00\x00\x00\x00\x10\x00\x00\x00\x00\x00\x00\x00\x11\x00\x00\x00\x00\x00\x00\x00\x12\x00\x00\x00\x00\x00\x00\x00\x13\x00\x00\x00\x00\x00\x00\x00\x14\x00\x00\x00\x00\x00\x00\x00\x15\x00\x00\x00\x00\x00\x00\x00\x16\x00\x00\x00\x00\x00\x00\x00\x17\x00\x00\x00\x00\x00\x00\x00\x18\x00\x00\x00\x00\x00\x00\x00\x19\x00\x00\x00\x00\x00\x00\x00\x1a\x00\x00\x00\x00\x00\x00\x00\x1b\x00\x00\x00\x00\x00\x00\x00\x1c\x00\x00\x00\x00\x00\x00\x00\x1d\x00\x00\x00\x00\x00\x00\x00\x1e\x00\x00\x00\x00\x00\x00\x00\x1f\x00\x00\x00\x00\x00\x00\x00 \x00\x00\x00\x00\x00\x00\x00!\x00\x00\x00\x00\x00\x00\x00'
p254
tp255
bsg248
g100
sasstp256
bsb.