ccopy_reg
_reconstructor
p0
(cpandas.core.frame
DataFrame
p1
c__builtin__
object
p2
Ntp3
Rp4
(dp5
S'_metadata'
p6
(lp7
sS'_typ'
p8
S'dataframe'
p9
sS'_data'
p10
g0
(cpandas.core.internals
BlockManager
p11
g2
Ntp12
Rp13
((lp14
cpandas.core.indexes.base
_new_Index
p15
(cpandas.core.indexes.base
Index
p16
(dp17
S'data'
p18
cnumpy.core.multiarray
_reconstruct
p19
(cnumpy
ndarray
p20
(I0
tp21
S'b'
p22
tp23
Rp24
(I1
(I32
tp25
cnumpy
dtype
p26
(S'O8'
p27
I0
I1
tp28
Rp29
(I3
S'|'
p30
NNNI-1
I-1
I63
tp31
bI00
(lp32
S'year'
p33
aS'type'
p34
aS'procOriginal'
p35
aS'proc'
p36
aS'proc_s0'
p37
aS'cat'
p38
aS'inputWSFile'
p39
aS'nominalDataName'
p40
aS'modelWSFile'
p41
aS'model'
p42
aS'rate'
p43
aS'nominal_yield'
p44
aS'sumw2'
p45
aS'nominal_yield_COWCorr'
p46
aS'LooseMvaSF_up_yield'
p47
aS'LooseMvaSF_down_yield'
p48
aS'PreselSF_up_yield'
p49
aS'PreselSF_down_yield'
p50
aS'electronVetoSF_up_yield'
p51
aS'electronVetoSF_down_yield'
p52
aS'TriggerWeight_up_yield'
p53
aS'TriggerWeight_down_yield'
p54
aS'SigmaEOverEShift_up_yield'
p55
aS'SigmaEOverEShift_down_yield'
p56
aS'MvaShift_up_yield'
p57
aS'MvaShift_down_yield'
p58
aS'PUJIDShift_up_yield'
p59
aS'PUJIDShift_down_yield'
p60
aS'JEC_up_yield'
p61
aS'JEC_down_yield'
p62
aS'JER_up_yield'
p63
aS'JER_down_yield'
p64
atp65
bsS'name'
p66
Nstp67
Rp68
ag15
(cpandas.core.indexes.numeric
Int64Index
p69
(dp70
g18
g19
(g20
(I0
tp71
g22
tp72
Rp73
(I1
(I15
tp74
g26
(S'i8'
p75
I0
I1
tp76
Rp77
(I3
S'<'
p78
NNNI-1
I-1
I0
tp79
bI00
S'\x00\x00\x00\x00\x00\x00\x00\x00\x01\x00\x00\x00\x00\x00\x00\x00\x02\x00\x00\x00\x00\x00\x00\x00\x03\x00\x00\x00\x00\x00\x00\x00\x04\x00\x00\x00\x00\x00\x00\x00\x05\x00\x00\x00\x00\x00\x00\x00\x06\x00\x00\x00\x00\x00\x00\x00\x07\x00\x00\x00\x00\x00\x00\x00\x08\x00\x00\x00\x00\x00\x00\x00\t\x00\x00\x00\x00\x00\x00\x00\n\x00\x00\x00\x00\x00\x00\x00\x0b\x00\x00\x00\x00\x00\x00\x00\x0c\x00\x00\x00\x00\x00\x00\x00\r\x00\x00\x00\x00\x00\x00\x00\x0e\x00\x00\x00\x00\x00\x00\x00'
p80
tp81
bsg66
Nstp82
Rp83
a(lp84
g19
(g20
(I0
tp85
g22
tp86
Rp87
(I1
(I1
I15
tp88
g26
(S'f8'
p89
I0
I1
tp90
Rp91
(I3
S'<'
p92
NNNI-1
I-1
I0
tp93
bI00
S'\x00\x00\x00\x00\x00\x10\xd3@\x00\x00\x00\x00\x00\x10\xd3@\x00\x00\x00\x00\x00\x10\xd3@\x00\x00\x00\x00\x00\x10\xd3@\x00\x00\x00\x00\x00\x10\xd3@\x00\x00\x00\x00\x00\x10\xd3@\x00\x00\x00\x00\x00\x10\xd3@\x00\x00\x00\x00\x00\x10\xd3@\x00\x00\x00\x00\x00\x10\xd3@\x00\x00\x00\x00\x00\x10\xd3@\x00\x00\x00\x00\x00\x10\xd3@\x00\x00\x00\x00\x00\x10\xd3@\x00\x00\x00\x00\x00\x10\xd3@\x00\x00\x00\x00\x00\x00\xf0?\x00\x00\x00\x00\x00\x00\xf0\xbf'
p94
tp95
bag19
(g20
(I0
tp96
g22
tp97
Rp98
(I1
(I31
I15
tp99
g29
I00
(lp100
S'2016preVFP'
p101
ag101
ag101
ag101
ag101
ag101
ag101
ag101
ag101
ag101
ag101
ag101
ag101
ag33
ag33
aS'sig'
p102
ag102
ag102
ag102
ag102
ag102
ag102
ag102
ag102
ag102
ag102
ag102
ag102
aS'bkg'
p103
ag18
aS'GG2HMf05ph0'
p104
aS'GG2HbsmM'
p105
aS'GG2Hsm'
p106
aS'TTHsm'
p107
aS'VBFMf05ph0'
p108
aS'VBFbsmM'
p109
aS'VBFsm'
p110
aS'WHMf05ph0'
p111
aS'WHbsmM'
p112
aS'WHsm'
p113
aS'ZHMf05ph0'
p114
aS'ZHbsmM'
p115
aS'ZHsm'
p116
aS'bkg_mass'
p117
aS'data_obs'
p118
aS'GG2HMf05ph0_2016preVFP_hgg'
p119
aS'GG2HbsmM_2016preVFP_hgg'
p120
aS'GG2Hsm_2016preVFP_hgg'
p121
aS'tth0P_2016preVFP_hgg'
p122
aS'vbf0Mf05ph0_2016preVFP_hgg'
p123
aS'vbf0M_2016preVFP_hgg'
p124
aS'vbf0P_2016preVFP_hgg'
p125
aS'wh0Mf05ph0_2016preVFP_hgg'
p126
aS'wh0M_2016preVFP_hgg'
p127
aS'wh0P_2016preVFP_hgg'
p128
aS'zh0Mf05ph0_2016preVFP_hgg'
p129
aS'zh0M_2016preVFP_hgg'
p130
aS'zh0P_2016preVFP_hgg'
p131
ag117
ag118
aS'jjh0Mf05ph0'
p132
aS'jjh0M'
p133
aS'jjh0P'
p134
aS'tth0P'
p135
aS'vbf0Mf05ph0'
p136
aS'vbf0M'
p137
aS'vbf0P'
p138
aS'wh0Mf05ph0'
p139
aS'wh0M'
p140
aS'wh0P'
p141
aS'zh0Mf05ph0'
p142
aS'zh0M'
p143
aS'zh0P'
p144
aS'-'
p145
ag145
aS'AC_Bin23_2016preVFP'
p146
aS'AC_Bin23_2016preVFP'
p147
aS'AC_Bin23_2016preVFP'
p148
aS'AC_Bin23_2016preVFP'
p149
aS'AC_Bin23_2016preVFP'
p150
aS'AC_Bin23_2016preVFP'
p151
aS'AC_Bin23_2016preVFP'
p152
aS'AC_Bin23_2016preVFP'
p153
aS'AC_Bin23_2016preVFP'
p154
aS'AC_Bin23_2016preVFP'
p155
aS'AC_Bin23_2016preVFP'
p156
aS'AC_Bin23_2016preVFP'
p157
aS'AC_Bin23_2016preVFP'
p158
aS'AC_Bin23_2016preVFP'
p159
ag159
aS'Trees/Opt_2016preVFP/2016PreVFP/Trees2WS_2016preVFP/WS/output_GluGluHToGGPlusTwoJets_MM_M125_TuneCP5_13TeV-amcatnlopowheg-minlo-pythia8_GG2HMf05ph0.root'
p160
aS'Trees/Opt_2016preVFP/2016PreVFP/Trees2WS_2016preVFP/WS/output_GluGluHToGGPlusTwoJets_CPodd_M125_TuneCP5_13TeV-amcatnlopowheg-minlo-pythia8_GG2HbsmM.root'
p161
aS'Trees/Opt_2016preVFP/2016PreVFP/Trees2WS_2016preVFP/WS/output_GluGluHToGGPlusTwoJets_SM_M125_TuneCP5_13TeV-amcatnlopowheg-minlo-pythia8_GG2Hsm.root'
p162
aS'Trees/Opt_2016preVFP/2016PreVFP/Trees2WS_2016preVFP/WS/output_ttHJetToGG_M125_TuneCP5_13TeV-amcatnloFXFX-madspin-pythia8_TTHsm.root'
p163
aS'Trees/Opt_2016preVFP/2016PreVFP/Trees2WS_2016preVFP/WS/output_VBFHiggs0Mf05ph0ToGG_M125_TuneCP5_13TeV-JHUGenV7011-pythia8_VBFMf05ph0.root'
p164
aS'Trees/Opt_2016preVFP/2016PreVFP/Trees2WS_2016preVFP/WS/output_VBFHiggs0MToGG_M125_TuneCP5_13TeV-JHUGenV7011-pythia8_VBFbsmM.root'
p165
aS'Trees/Opt_2016preVFP/2016PreVFP/Trees2WS_2016preVFP/WS/output_VBFHToGG_M125_TuneCP5_13TeV-amcatnlo-pythia8_VBFsm.root'
p166
aS'Trees/Opt_2016preVFP/2016PreVFP/Trees2WS_2016preVFP/WS/output_WHiggs0Mf05ph0ToGG_M125_TuneCP5_13TeV-JHUGenV7011-pythia8_WHMf05ph0.root'
p167
aS'Trees/Opt_2016preVFP/2016PreVFP/Trees2WS_2016preVFP/WS/output_WHiggs0MToGG_M125_TuneCP5_13TeV-JHUGenV7011-pythia8_WHbsmM.root'
p168
aS'Trees/Opt_2016preVFP/2016PreVFP/Trees2WS_2016preVFP/WS/output_WHiggs0PMToGG_M125_TuneCP5_13TeV-JHUGenV7011-pythia8_WHsm.root'
p169
aS'Trees/Opt_2016preVFP/2016PreVFP/Trees2WS_2016preVFP/WS/output_ZHiggs0Mf05ph0ToGG_M125_TuneCP5_13TeV-JHUGenV7011-pythia8_ZHMf05ph0.root'
p170
aS'Trees/Opt_2016preVFP/2016PreVFP/Trees2WS_2016preVFP/WS/output_ZHiggs0MToGG_M125_TuneCP5_13TeV-JHUGenV7011-pythia8_ZHbsmM.root'
p171
aS'Trees/Opt_2016preVFP/2016PreVFP/Trees2WS_2016preVFP/WS/output_ZH_HToGG_ZToAll_M125_TuneCP5_13TeV-powheg-pythia8_ZHsm.root'
p172
ag145
ag145
aS'jjh0Mf05ph0_125_13TeV_AC_Bin23'
p173
aS'jjh0M_125_13TeV_AC_Bin23'
p174
aS'jjh0P_125_13TeV_AC_Bin23'
p175
aS'tth0P_125_13TeV_AC_Bin23'
p176
aS'vbf0Mf05ph0_125_13TeV_AC_Bin23'
p177
aS'vbf0M_125_13TeV_AC_Bin23'
p178
aS'vbf0P_125_13TeV_AC_Bin23'
p179
aS'wh0Mf05ph0_125_13TeV_AC_Bin23'
p180
aS'wh0M_125_13TeV_AC_Bin23'
p181
aS'wh0P_125_13TeV_AC_Bin23'
p182
aS'zh0Mf05ph0_125_13TeV_AC_Bin23'
p183
aS'zh0M_125_13TeV_AC_Bin23'
p184
aS'zh0P_125_13TeV_AC_Bin23'
p185
ag145
ag145
aS'./Models/signal/CMS-HGG_sigfit_packaged_AC_Bin23_2016preVFP.root'
p186
aS'./Models/signal/CMS-HGG_sigfit_packaged_AC_Bin23_2016preVFP.root'
p187
aS'./Models/signal/CMS-HGG_sigfit_packaged_AC_Bin23_2016preVFP.root'
p188
aS'./Models/signal/CMS-HGG_sigfit_packaged_AC_Bin23_2016preVFP.root'
p189
aS'./Models/signal/CMS-HGG_sigfit_packaged_AC_Bin23_2016preVFP.root'
p190
aS'./Models/signal/CMS-HGG_sigfit_packaged_AC_Bin23_2016preVFP.root'
p191
aS'./Models/signal/CMS-HGG_sigfit_packaged_AC_Bin23_2016preVFP.root'
p192
aS'./Models/signal/CMS-HGG_sigfit_packaged_AC_Bin23_2016preVFP.root'
p193
aS'./Models/signal/CMS-HGG_sigfit_packaged_AC_Bin23_2016preVFP.root'
p194
aS'./Models/signal/CMS-HGG_sigfit_packaged_AC_Bin23_2016preVFP.root'
p195
aS'./Models/signal/CMS-HGG_sigfit_packaged_AC_Bin23_2016preVFP.root'
p196
aS'./Models/signal/CMS-HGG_sigfit_packaged_AC_Bin23_2016preVFP.root'
p197
aS'./Models/signal/CMS-HGG_sigfit_packaged_AC_Bin23_2016preVFP.root'
p198
aS'./Models/background/CMS-HGG_multipdf_AC_Bin23_2016preVFP.root'
p199
ag199
aS'wsig_13TeV:hggpdfsmrel_GG2HMf05ph0_2016preVFP_AC_Bin23_13TeV'
p200
aS'wsig_13TeV:hggpdfsmrel_GG2HbsmM_2016preVFP_AC_Bin23_13TeV'
p201
aS'wsig_13TeV:hggpdfsmrel_GG2Hsm_2016preVFP_AC_Bin23_13TeV'
p202
aS'wsig_13TeV:hggpdfsmrel_TTHsm_2016preVFP_AC_Bin23_13TeV'
p203
aS'wsig_13TeV:hggpdfsmrel_VBFMf05ph0_2016preVFP_AC_Bin23_13TeV'
p204
aS'wsig_13TeV:hggpdfsmrel_VBFbsmM_2016preVFP_AC_Bin23_13TeV'
p205
aS'wsig_13TeV:hggpdfsmrel_VBFsm_2016preVFP_AC_Bin23_13TeV'
p206
aS'wsig_13TeV:hggpdfsmrel_WHMf05ph0_2016preVFP_AC_Bin23_13TeV'
p207
aS'wsig_13TeV:hggpdfsmrel_WHbsmM_2016preVFP_AC_Bin23_13TeV'
p208
aS'wsig_13TeV:hggpdfsmrel_WHsm_2016preVFP_AC_Bin23_13TeV'
p209
aS'wsig_13TeV:hggpdfsmrel_ZHMf05ph0_2016preVFP_AC_Bin23_13TeV'
p210
aS'wsig_13TeV:hggpdfsmrel_ZHbsmM_2016preVFP_AC_Bin23_13TeV'
p211
aS'wsig_13TeV:hggpdfsmrel_ZHsm_2016preVFP_AC_Bin23_13TeV'
p212
aS'multipdf:CMS_hgg_AC_Bin23_2016preVFP_13TeV_bkgshape'
p213
aS'multipdf:roohist_data_mass_AC_Bin23'
p214
aF0.10149442063357128
aF0.0824469099113685
aF0.10890539415390776
aF0.006743857626872796
aF0.015731838994156533
aF0.007219568988261926
aF0.029940677878698807
aF0.0027278747750187904
aF0.002381322120356799
aF0.0037925034561112625
aF0.0011574010459298734
aF0.0006633375160163268
aF0.003728931410705627
ag145
ag145
aF2.1404587772184433e-05
aF5.41470330859729e-05
aF0.00012884960070663087
aF1.6699878218444534e-06
aF4.095677420077611e-06
aF4.94344953845819e-07
aF5.405168890785957e-05
aF9.73193354452533e-08
aF4.242918277674494e-07
aF1.7635941921811438e-07
aF2.5935025592656164e-07
aF1.3088951045901102e-07
aF1.1603640421144064e-07
ag145
ag145
aF0.10416540748251
aF0.0838142173444314
aF0.11210549017504054
aF0.006899657282607009
aF0.01611205526404641
aF0.007429160636900867
aF0.030658128445434533
aF0.0027948065083177763
aF0.0024478695578422378
aF0.003908507332694673
aF0.001185636299330509
aF0.0006800053451671948
aF0.003834473267140013
ag145
ag145
aF0.10215460621091359
aF0.08298583541821303
aF0.10960869842625995
aF0.006788469867652363
aF0.01583215924767467
aF0.007266118399946163
aF0.030129880825167717
aF0.002745579561144134
aF0.0023968609458795125
aF0.0038172453044486385
aF0.001164946559643468
aF0.0006675905078324873
aF0.003752864720897467
ag145
ag145
aF0.10083637742002298
aF0.08190974253698724
aF0.10820435362178803
aF0.006699392697526874
aF0.015631837517446012
aF0.007173169318639255
aF0.02975207116504012
aF0.002710227286138415
aF0.00236583382108438
aF0.0037678422434469605
aF0.0011498800309488243
aF0.0006590981427526493
aF0.003705074830610058
ag145
ag145
aF0.1032859578400536
aF0.08380204899588603
aF0.11099212035837473
aF0.006855067561418421
aF0.01603471360371481
aF0.007339111913298601
aF0.030514691449969676
aF0.002774305311401462
aF0.002424453683681877
aF0.003849245522435352
aF0.0011773754549543854
aF0.0006738380266448121
aF0.0037947807729606926
ag145
ag145
aF0.09971786753847282
aF0.08110316011407458
aF0.10683617523586848
aF0.006633660037951087
aF0.01543158457011559
aF0.007100990073405984
aF0.029371393367185628
aF0.0026818026261838756
aF0.0023385558232744052
aF0.0037362211656144133
aF0.0011375797507571712
aF0.0006529706871199961
aF0.003663681496224128
ag145
ag145
aF0.10167419061130996
aF0.08258364094272505
aF0.10910206002345042
aF0.006755858128200438
aF0.01576252864857498
aF0.0072335311130193244
aF0.03000128455808041
aF0.0027325171746890374
aF0.002389965420413739
aF0.0037991552701864373
aF0.0011592253859684682
aF0.0006645468642490666
aF0.0037360891942554287
ag145
ag145
aF0.10131480920214901
aF0.08231029727139333
aF0.10870890373397912
aF0.00673186562359984
aF0.015701177916602388
aF0.007205619310995325
aF0.029880132899822952
aF0.0027232363499472686
aF0.002372687075357977
aF0.0037858585488498068
aF0.0011555778800929459
aF0.00066212918064801
aF0.0037217807068061007
ag145
ag145
aF0.10171614196710962
aF0.08263193527507877
aF0.10913748483398125
aF0.006757834529347814
aF0.0157656099956581
aF0.007237290040127193
aF0.03000661155016158
aF0.002733511068978674
aF0.0023872644987015987
aF0.003801537516974198
aF0.0011597717822963147
aF0.0006646796816595514
aF0.00373737110437546
ag145
ag145
aF0.10127294314209896
aF0.08226210774932234
aF0.10867355383863957
aF0.006729895367176807
aF0.015698104656518986
aF0.007201869056945366
aF0.029874819266473916
aF0.0027222443862612755
aF0.0023753869411849223
aF0.0037834802015293116
aF0.0011550327843588622
aF0.0006619967210073238
aF0.003720501266121797
ag145
ag145
aF0.1007095589511664
aF0.08226151879330246
aF0.1080777951433447
aF0.0068798803075083015
aF0.01603670929546297
aF0.007189442694539139
aF0.033864219351926295
aF0.0027342326521875293
aF0.0023441345040851047
aF0.003836422717085952
aF0.0010621272267599124
aF0.0006633375160163268
aF0.00373267944064537
ag145
ag145
aF0.10446116392722615
aF0.0830529357119758
aF0.10968515807053336
aF0.006657289545785261
aF0.015662965208662172
aF0.007058815465256885
aF0.029360846584268074
aF0.002751662815853706
aF0.0024329444489126217
aF0.0037780891594820787
aF0.001072127099178033
aF0.0006633375160163268
aF0.0038096908549505315
ag145
ag145
aF0.10432336713233781
aF0.08472188665359681
aF0.11523901595273855
aF0.00665399424002544
aF0.016086966181887874
aF0.007343629693650655
aF0.03127131888584245
aF0.0028431230610976854
aF0.0025202490863307503
aF0.003876254057445294
aF0.0011574010459298734
aF0.000699911943229381
aF0.0038895261518518964
ag145
ag145
aF0.09944970615515558
aF0.07990677854331807
aF0.1054239988388872
aF0.006378292192550816
aF0.015408007362907483
aF0.007128545458044755
aF0.02858415691434857
aF0.002655019441931472
aF0.002376967405382402
aF0.003673810012855938
aF0.0010021962516475469
aF0.0006633375160163268
aF0.0035015986832149792
ag145
ag145
aF0.1032296467476499
aF0.08334173316256965
aF0.1101882926836879
aF0.006809213736403308
aF0.015822532006268375
aF0.007259841034397141
aF0.029573011797310755
aF0.0027567604487330755
aF0.0023853448479371764
aF0.0038022598965881116
aF0.001218249621160794
aF0.0006633375160163268
aF0.003756758395638826
ag145
ag145
aF0.10038427139215855
aF0.08108514799414479
aF0.1063301651142865
aF0.006732609480252449
aF0.014541182488187587
aF0.007209973781868939
aF0.029988003823177678
aF0.002726321853401714
aF0.002362725751538619
aF0.0037638070174352833
aF0.0011574010459298734
aF0.0006633375160163268
aF0.003683862417574346
ag145
ag145
aF0.10497718873716622
aF0.08797715826472086
aF0.11467311667320246
aF0.006666071750089486
aF0.01666501318061364
aF0.007391846006612468
aF0.037062887470824535
aF0.002925418941345015
aF0.0018869942337573775
aF0.0040327997800204685
aF0.0013848010530637112
aF0.000829466760478681
aF0.0039157223645815975
ag145
ag145
aF0.09635649662777723
aF0.07833501704817536
aF0.10386318445739562
aF0.006838295573800224
aF0.015429608549652585
aF0.007211206786678304
aF0.0271135220028782
aF0.0024409998678720513
aF0.002238004803473359
aF0.0033771538302289628
aF0.0011905861938430462
aF0.0006150501794763841
aF0.0034249404493493785
ag145
ag145
aF0.10284773739408593
aF0.08320862373352611
aF0.10872106006058857
aF0.006780596832356878
aF0.01576312093834531
aF0.007219233492719468
aF0.03038096321517969
aF0.0027877460476020133
aF0.0023388314810404154
aF0.0038226808165973125
aF0.001263442634808598
aF0.0006633375160163268
aF0.0037042258004476025
ag145
ag145
aF0.10033965350567087
aF0.08199031409685631
aF0.1077722870531943
aF0.006831641269229749
aF0.015780450556690084
aF0.007377385749009591
aF0.029822217094306325
aF0.0027845240148280936
aF0.002400403418221231
aF0.003676931497921032
aF0.0011574010459298734
aF0.0006633375160163268
aF0.003679822325693749
ag145
ag145
atp215
ba(lp216
g15
(g16
(dp217
g18
g19
(g20
(I0
tp218
g22
tp219
Rp220
(I1
(I1
tp221
g29
I00
(lp222
g43
atp223
bsg66
Nstp224
Rp225
ag15
(g16
(dp226
g18
g19
(g20
(I0
tp227
g22
tp228
Rp229
(I1
(I31
tp230
g29
I00
(lp231
g33
ag34
ag35
ag36
ag37
ag38
ag39
ag40
ag41
ag42
ag44
ag45
ag46
ag47
ag48
ag49
ag50
ag51
ag52
ag53
ag54
ag55
ag56
ag57
ag58
ag59
ag60
ag61
ag62
ag63
ag64
atp232
bsg66
Nstp233
Rp234
a(dp235
S'0.14.1'
p236
(dp237
S'axes'
p238
g14
sS'blocks'
p239
(lp240
(dp241
S'mgr_locs'
p242
c__builtin__
slice
p243
(I10
I11
I1
tp244
Rp245
sS'values'
p246
g87
sa(dp247
g242
g19
(g20
(I0
tp248
g22
tp249
Rp250
(I1
(I31
tp251
g77
I00
S'\x00\x00\x00\x00\x00\x00\x00\x00\x01\x00\x00\x00\x00\x00\x00\x00\x02\x00\x00\x00\x00\x00\x00\x00\x03\x00\x00\x00\x00\x00\x00\x00\x04\x00\x00\x00\x00\x00\x00\x00\x05\x00\x00\x00\x00\x00\x00\x00\x06\x00\x00\x00\x00\x00\x00\x00\x07\x00\x00\x00\x00\x00\x00\x00\x08\x00\x00\x00\x00\x00\x00\x00\t\x00\x00\x00\x00\x00\x00\x00\x0b\x00\x00\x00\x00\x00\x00\x00\x0c\x00\x00\x00\x00\x00\x00\x00\r\x00\x00\x00\x00\x00\x00\x00\x0e\x00\x00\x00\x00\x00\x00\x00\x0f\x00\x00\x00\x00\x00\x00\x00\x10\x00\x00\x00\x00\x00\x00\x00\x11\x00\x00\x00\x00\x00\x00\x00\x12\x00\x00\x00\x00\x00\x00\x00\x13\x00\x00\x00\x00\x00\x00\x00\x14\x00\x00\x00\x00\x00\x00\x00\x15\x00\x00\x00\x00\x00\x00\x00\x16\x00\x00\x00\x00\x00\x00\x00\x17\x00\x00\x00\x00\x00\x00\x00\x18\x00\x00\x00\x00\x00\x00\x00\x19\x00\x00\x00\x00\x00\x00\x00\x1a\x00\x00\x00\x00\x00\x00\x00\x1b\x00\x00\x00\x00\x00\x00\x00\x1c\x00\x00\x00\x00\x00\x00\x00\x1d\x00\x00\x00\x00\x00\x00\x00\x1e\x00\x00\x00\x00\x00\x00\x00\x1f\x00\x00\x00\x00\x00\x00\x00'
p252
tp253
bsg246
g98
sasstp254
bsb.